ARM GAS  C:\Users\eduar\AppData\Local\Temp\cctEoJXe.s 			page 1


   1              		.syntax unified
   2              		.cpu cortex-m0plus
   3              		.fpu softvfp
   4              		.eabi_attribute 20, 1
   5              		.eabi_attribute 21, 1
   6              		.eabi_attribute 23, 3
   7              		.eabi_attribute 24, 1
   8              		.eabi_attribute 25, 1
   9              		.eabi_attribute 26, 1
  10              		.eabi_attribute 30, 1
  11              		.eabi_attribute 34, 0
  12              		.eabi_attribute 18, 4
  13              		.thumb
  14              		.syntax unified
  15              		.file	"cy_em_eeprom.c"
  16              		.text
  17              	.Ltext0:
  18              		.cfi_sections	.debug_frame
  19              		.section	.text.FindLastWrittenRow,"ax",%progbits
  20              		.align	2
  21              		.code	16
  22              		.thumb_func
  23              		.type	FindLastWrittenRow, %function
  24              	FindLastWrittenRow:
  25              	.LFB50:
  26              		.file 1 "Generated_Source\\PSoC6\\pdl\\middleware\\em_eeprom\\cy_em_eeprom.c"
   1:Generated_Source\PSoC6\pdl\middleware\em_eeprom/cy_em_eeprom.c **** /***************************************************************************//**
   2:Generated_Source\PSoC6\pdl\middleware\em_eeprom/cy_em_eeprom.c **** * \file cy_em_eeprom.c
   3:Generated_Source\PSoC6\pdl\middleware\em_eeprom/cy_em_eeprom.c **** * \version 1.10
   4:Generated_Source\PSoC6\pdl\middleware\em_eeprom/cy_em_eeprom.c **** *
   5:Generated_Source\PSoC6\pdl\middleware\em_eeprom/cy_em_eeprom.c **** * \brief
   6:Generated_Source\PSoC6\pdl\middleware\em_eeprom/cy_em_eeprom.c **** *  This file provides source code of the API for the Emulated EEPROM library.
   7:Generated_Source\PSoC6\pdl\middleware\em_eeprom/cy_em_eeprom.c **** *  The Emulated EEPROM API allows creating of an emulated EEPROM in flash that
   8:Generated_Source\PSoC6\pdl\middleware\em_eeprom/cy_em_eeprom.c **** *  has the ability to do wear leveling and restore corrupted data from a
   9:Generated_Source\PSoC6\pdl\middleware\em_eeprom/cy_em_eeprom.c **** *  redundant copy.
  10:Generated_Source\PSoC6\pdl\middleware\em_eeprom/cy_em_eeprom.c **** *
  11:Generated_Source\PSoC6\pdl\middleware\em_eeprom/cy_em_eeprom.c **** ********************************************************************************
  12:Generated_Source\PSoC6\pdl\middleware\em_eeprom/cy_em_eeprom.c **** * \copyright
  13:Generated_Source\PSoC6\pdl\middleware\em_eeprom/cy_em_eeprom.c **** * Copyright 2017-2018, Cypress Semiconductor Corporation.  All rights reserved.
  14:Generated_Source\PSoC6\pdl\middleware\em_eeprom/cy_em_eeprom.c **** * You may use this file only in accordance with the license, terms, conditions,
  15:Generated_Source\PSoC6\pdl\middleware\em_eeprom/cy_em_eeprom.c **** * disclaimers, and limitations in the end user license agreement accompanying
  16:Generated_Source\PSoC6\pdl\middleware\em_eeprom/cy_em_eeprom.c **** * the software package with which this file was provided.
  17:Generated_Source\PSoC6\pdl\middleware\em_eeprom/cy_em_eeprom.c **** *******************************************************************************/
  18:Generated_Source\PSoC6\pdl\middleware\em_eeprom/cy_em_eeprom.c **** 
  19:Generated_Source\PSoC6\pdl\middleware\em_eeprom/cy_em_eeprom.c **** 
  20:Generated_Source\PSoC6\pdl\middleware\em_eeprom/cy_em_eeprom.c **** #include <string.h>
  21:Generated_Source\PSoC6\pdl\middleware\em_eeprom/cy_em_eeprom.c **** 
  22:Generated_Source\PSoC6\pdl\middleware\em_eeprom/cy_em_eeprom.c **** #include "cy_em_eeprom.h"
  23:Generated_Source\PSoC6\pdl\middleware\em_eeprom/cy_em_eeprom.c **** 
  24:Generated_Source\PSoC6\pdl\middleware\em_eeprom/cy_em_eeprom.c **** 
  25:Generated_Source\PSoC6\pdl\middleware\em_eeprom/cy_em_eeprom.c **** #if defined(__cplusplus)
  26:Generated_Source\PSoC6\pdl\middleware\em_eeprom/cy_em_eeprom.c **** extern "C" {
  27:Generated_Source\PSoC6\pdl\middleware\em_eeprom/cy_em_eeprom.c **** #endif
  28:Generated_Source\PSoC6\pdl\middleware\em_eeprom/cy_em_eeprom.c **** 
  29:Generated_Source\PSoC6\pdl\middleware\em_eeprom/cy_em_eeprom.c **** 
  30:Generated_Source\PSoC6\pdl\middleware\em_eeprom/cy_em_eeprom.c **** /***************************************
  31:Generated_Source\PSoC6\pdl\middleware\em_eeprom/cy_em_eeprom.c **** * Private Function Prototypes
ARM GAS  C:\Users\eduar\AppData\Local\Temp\cctEoJXe.s 			page 2


  32:Generated_Source\PSoC6\pdl\middleware\em_eeprom/cy_em_eeprom.c **** ***************************************/
  33:Generated_Source\PSoC6\pdl\middleware\em_eeprom/cy_em_eeprom.c **** static void FindLastWrittenRow(uint32_t * lastWrRowPtr, cy_stc_eeprom_context_t * context);
  34:Generated_Source\PSoC6\pdl\middleware\em_eeprom/cy_em_eeprom.c **** static uint32_t GetRowAddrBySeqNum(uint32_t seqNum, cy_stc_eeprom_context_t * context);
  35:Generated_Source\PSoC6\pdl\middleware\em_eeprom/cy_em_eeprom.c **** static uint8_t CalcChecksum(uint8_t rowData[], uint32_t len);
  36:Generated_Source\PSoC6\pdl\middleware\em_eeprom/cy_em_eeprom.c **** static void GetNextRowToWrite(uint32_t seqNum,
  37:Generated_Source\PSoC6\pdl\middleware\em_eeprom/cy_em_eeprom.c ****                             uint32_t * rowToWrPtr,
  38:Generated_Source\PSoC6\pdl\middleware\em_eeprom/cy_em_eeprom.c ****                             uint32_t * rowToRdPtr,
  39:Generated_Source\PSoC6\pdl\middleware\em_eeprom/cy_em_eeprom.c ****                             cy_stc_eeprom_context_t * context);
  40:Generated_Source\PSoC6\pdl\middleware\em_eeprom/cy_em_eeprom.c **** static cy_en_em_eeprom_status_t CheckRanges(cy_stc_eeprom_config_t* config);
  41:Generated_Source\PSoC6\pdl\middleware\em_eeprom/cy_em_eeprom.c **** static cy_en_em_eeprom_status_t WriteRow(uint32_t rowAddr, uint32_t *rowData, cy_stc_eeprom_context
  42:Generated_Source\PSoC6\pdl\middleware\em_eeprom/cy_em_eeprom.c **** static cy_en_em_eeprom_status_t EraseRow(uint32_t rowAddr, uint32_t ramBuffAddr, cy_stc_eeprom_cont
  43:Generated_Source\PSoC6\pdl\middleware\em_eeprom/cy_em_eeprom.c **** static cy_en_em_eeprom_status_t CheckCrcAndCopy(uint32_t startAddr,
  44:Generated_Source\PSoC6\pdl\middleware\em_eeprom/cy_em_eeprom.c ****                                                 uint32_t dstAddr,
  45:Generated_Source\PSoC6\pdl\middleware\em_eeprom/cy_em_eeprom.c ****                                                 uint32_t rowOffset,
  46:Generated_Source\PSoC6\pdl\middleware\em_eeprom/cy_em_eeprom.c ****                                                 uint32_t numBytes,
  47:Generated_Source\PSoC6\pdl\middleware\em_eeprom/cy_em_eeprom.c ****                                                 cy_stc_eeprom_context_t * context);
  48:Generated_Source\PSoC6\pdl\middleware\em_eeprom/cy_em_eeprom.c **** static uint32_t GetAddresses(uint32_t *startAddr, uint32_t *endAddr, uint32_t *offset, uint32_t row
  49:Generated_Source\PSoC6\pdl\middleware\em_eeprom/cy_em_eeprom.c **** static cy_en_em_eeprom_status_t FillChecksum(cy_stc_eeprom_context_t * context);
  50:Generated_Source\PSoC6\pdl\middleware\em_eeprom/cy_em_eeprom.c **** 
  51:Generated_Source\PSoC6\pdl\middleware\em_eeprom/cy_em_eeprom.c **** /**
  52:Generated_Source\PSoC6\pdl\middleware\em_eeprom/cy_em_eeprom.c **** * \addtogroup group_em_eeprom_functions
  53:Generated_Source\PSoC6\pdl\middleware\em_eeprom/cy_em_eeprom.c **** * \{
  54:Generated_Source\PSoC6\pdl\middleware\em_eeprom/cy_em_eeprom.c **** */
  55:Generated_Source\PSoC6\pdl\middleware\em_eeprom/cy_em_eeprom.c **** 
  56:Generated_Source\PSoC6\pdl\middleware\em_eeprom/cy_em_eeprom.c **** /*******************************************************************************
  57:Generated_Source\PSoC6\pdl\middleware\em_eeprom/cy_em_eeprom.c **** * Function Name: Cy_Em_EEPROM_Init
  58:Generated_Source\PSoC6\pdl\middleware\em_eeprom/cy_em_eeprom.c **** ****************************************************************************//**
  59:Generated_Source\PSoC6\pdl\middleware\em_eeprom/cy_em_eeprom.c **** *
  60:Generated_Source\PSoC6\pdl\middleware\em_eeprom/cy_em_eeprom.c **** * Initializes the Emulated EEPROM library by filling the context structure. 
  61:Generated_Source\PSoC6\pdl\middleware\em_eeprom/cy_em_eeprom.c **** *
  62:Generated_Source\PSoC6\pdl\middleware\em_eeprom/cy_em_eeprom.c **** * \param config
  63:Generated_Source\PSoC6\pdl\middleware\em_eeprom/cy_em_eeprom.c **** * The pointer to a configuration structure. See \ref cy_stc_eeprom_config_t.
  64:Generated_Source\PSoC6\pdl\middleware\em_eeprom/cy_em_eeprom.c **** *
  65:Generated_Source\PSoC6\pdl\middleware\em_eeprom/cy_em_eeprom.c **** * \param context
  66:Generated_Source\PSoC6\pdl\middleware\em_eeprom/cy_em_eeprom.c **** * The pointer to the EEPROM context structure to be filled by the function.
  67:Generated_Source\PSoC6\pdl\middleware\em_eeprom/cy_em_eeprom.c **** * \ref cy_stc_eeprom_context_t.
  68:Generated_Source\PSoC6\pdl\middleware\em_eeprom/cy_em_eeprom.c **** *
  69:Generated_Source\PSoC6\pdl\middleware\em_eeprom/cy_em_eeprom.c **** * \return
  70:Generated_Source\PSoC6\pdl\middleware\em_eeprom/cy_em_eeprom.c **** * error / status code. See \ref cy_en_em_eeprom_status_t.
  71:Generated_Source\PSoC6\pdl\middleware\em_eeprom/cy_em_eeprom.c **** *
  72:Generated_Source\PSoC6\pdl\middleware\em_eeprom/cy_em_eeprom.c **** * \note
  73:Generated_Source\PSoC6\pdl\middleware\em_eeprom/cy_em_eeprom.c **** * The context structure should not be modified by the user after it is filled
  74:Generated_Source\PSoC6\pdl\middleware\em_eeprom/cy_em_eeprom.c **** * with this function. Modification of context structure may cause the 
  75:Generated_Source\PSoC6\pdl\middleware\em_eeprom/cy_em_eeprom.c **** * unexpected behavior of the Cy_Em_EEPROM API functions which rely on it.
  76:Generated_Source\PSoC6\pdl\middleware\em_eeprom/cy_em_eeprom.c **** *
  77:Generated_Source\PSoC6\pdl\middleware\em_eeprom/cy_em_eeprom.c **** * \note
  78:Generated_Source\PSoC6\pdl\middleware\em_eeprom/cy_em_eeprom.c **** * This function uses a buffer of the flash row size to perform read
  79:Generated_Source\PSoC6\pdl\middleware\em_eeprom/cy_em_eeprom.c **** * operation. For the size of the row refer to the specific PSoC device
  80:Generated_Source\PSoC6\pdl\middleware\em_eeprom/cy_em_eeprom.c **** * datasheet.
  81:Generated_Source\PSoC6\pdl\middleware\em_eeprom/cy_em_eeprom.c **** *
  82:Generated_Source\PSoC6\pdl\middleware\em_eeprom/cy_em_eeprom.c **** * \sideeffect 
  83:Generated_Source\PSoC6\pdl\middleware\em_eeprom/cy_em_eeprom.c **** * If the "Redundant Copy" option is used, the function performs a number of 
  84:Generated_Source\PSoC6\pdl\middleware\em_eeprom/cy_em_eeprom.c **** * write operations to the EEPROM to initialize flash rows checksums. Therefore,
  85:Generated_Source\PSoC6\pdl\middleware\em_eeprom/cy_em_eeprom.c **** * Cy_Em_EEPROM_NumWrites(), when it is called right after Cy_Em_EEPROM_Init(), 
  86:Generated_Source\PSoC6\pdl\middleware\em_eeprom/cy_em_eeprom.c **** * will return a non-zero value that identifies the number of writes performed 
  87:Generated_Source\PSoC6\pdl\middleware\em_eeprom/cy_em_eeprom.c **** * by Cy_Em_EEPROM_Init().
  88:Generated_Source\PSoC6\pdl\middleware\em_eeprom/cy_em_eeprom.c **** *
ARM GAS  C:\Users\eduar\AppData\Local\Temp\cctEoJXe.s 			page 3


  89:Generated_Source\PSoC6\pdl\middleware\em_eeprom/cy_em_eeprom.c **** *******************************************************************************/
  90:Generated_Source\PSoC6\pdl\middleware\em_eeprom/cy_em_eeprom.c **** cy_en_em_eeprom_status_t Cy_Em_EEPROM_Init(cy_stc_eeprom_config_t* config, cy_stc_eeprom_context_t 
  91:Generated_Source\PSoC6\pdl\middleware\em_eeprom/cy_em_eeprom.c **** {
  92:Generated_Source\PSoC6\pdl\middleware\em_eeprom/cy_em_eeprom.c ****     cy_en_em_eeprom_status_t ret = CY_EM_EEPROM_BAD_PARAM;
  93:Generated_Source\PSoC6\pdl\middleware\em_eeprom/cy_em_eeprom.c **** 
  94:Generated_Source\PSoC6\pdl\middleware\em_eeprom/cy_em_eeprom.c ****     if((NULL != context) && (NULL != config) && (NULL != ((uint32_t *)config->userFlashStartAddr)) 
  95:Generated_Source\PSoC6\pdl\middleware\em_eeprom/cy_em_eeprom.c ****         (config->wearLevelingFactor <= CY_EM_EEPROM_MAX_WEAR_LEVELING_FACTOR) && (config->eepromSiz
  96:Generated_Source\PSoC6\pdl\middleware\em_eeprom/cy_em_eeprom.c ****     {
  97:Generated_Source\PSoC6\pdl\middleware\em_eeprom/cy_em_eeprom.c ****         ret = CheckRanges(config);
  98:Generated_Source\PSoC6\pdl\middleware\em_eeprom/cy_em_eeprom.c **** 
  99:Generated_Source\PSoC6\pdl\middleware\em_eeprom/cy_em_eeprom.c ****         if(CY_EM_EEPROM_SUCCESS == ret)
 100:Generated_Source\PSoC6\pdl\middleware\em_eeprom/cy_em_eeprom.c ****         {
 101:Generated_Source\PSoC6\pdl\middleware\em_eeprom/cy_em_eeprom.c ****             /* Copy the user config structure fields into context */
 102:Generated_Source\PSoC6\pdl\middleware\em_eeprom/cy_em_eeprom.c ****             context->eepromSize = config->eepromSize;
 103:Generated_Source\PSoC6\pdl\middleware\em_eeprom/cy_em_eeprom.c ****             context->wearLevelingFactor = config->wearLevelingFactor;
 104:Generated_Source\PSoC6\pdl\middleware\em_eeprom/cy_em_eeprom.c ****             context->redundantCopy = config->redundantCopy;
 105:Generated_Source\PSoC6\pdl\middleware\em_eeprom/cy_em_eeprom.c ****             context->blockingWrite = config->blockingWrite;
 106:Generated_Source\PSoC6\pdl\middleware\em_eeprom/cy_em_eeprom.c ****             context->userFlashStartAddr = config->userFlashStartAddr;
 107:Generated_Source\PSoC6\pdl\middleware\em_eeprom/cy_em_eeprom.c ****             /* Store frequently used data for internal use */
 108:Generated_Source\PSoC6\pdl\middleware\em_eeprom/cy_em_eeprom.c ****             context->numberOfRows = CY_EM_EEPROM_GET_NUM_ROWS_IN_EEPROM(config->eepromSize);
 109:Generated_Source\PSoC6\pdl\middleware\em_eeprom/cy_em_eeprom.c ****             context->wlEndAddr = ((CY_EM_EEPROM_GET_EEPROM_SIZE(context->numberOfRows) * config->we
 110:Generated_Source\PSoC6\pdl\middleware\em_eeprom/cy_em_eeprom.c ****                     config->userFlashStartAddr);
 111:Generated_Source\PSoC6\pdl\middleware\em_eeprom/cy_em_eeprom.c ****             /* Find last written EEPROM row and store it for quick access */
 112:Generated_Source\PSoC6\pdl\middleware\em_eeprom/cy_em_eeprom.c ****             FindLastWrittenRow(&context->lastWrRowAddr, context);
 113:Generated_Source\PSoC6\pdl\middleware\em_eeprom/cy_em_eeprom.c **** 
 114:Generated_Source\PSoC6\pdl\middleware\em_eeprom/cy_em_eeprom.c ****             if((0u == CY_EM_EEPROM_GET_SEQ_NUM(context->lastWrRowAddr)) && (0u != context->redundan
 115:Generated_Source\PSoC6\pdl\middleware\em_eeprom/cy_em_eeprom.c ****             {
 116:Generated_Source\PSoC6\pdl\middleware\em_eeprom/cy_em_eeprom.c ****                 /* Call the function only after device reprogramming in case
 117:Generated_Source\PSoC6\pdl\middleware\em_eeprom/cy_em_eeprom.c ****                 * if redundant copy is enabled.
 118:Generated_Source\PSoC6\pdl\middleware\em_eeprom/cy_em_eeprom.c ****                 */
 119:Generated_Source\PSoC6\pdl\middleware\em_eeprom/cy_em_eeprom.c ****                 ret = FillChecksum(context);
 120:Generated_Source\PSoC6\pdl\middleware\em_eeprom/cy_em_eeprom.c ****                 
 121:Generated_Source\PSoC6\pdl\middleware\em_eeprom/cy_em_eeprom.c ****                 /* Update the last written EEPROM row for Cy_Em_EEPROM_NumWrites() */
 122:Generated_Source\PSoC6\pdl\middleware\em_eeprom/cy_em_eeprom.c ****                 FindLastWrittenRow(&context->lastWrRowAddr, context);
 123:Generated_Source\PSoC6\pdl\middleware\em_eeprom/cy_em_eeprom.c ****             }
 124:Generated_Source\PSoC6\pdl\middleware\em_eeprom/cy_em_eeprom.c ****         }
 125:Generated_Source\PSoC6\pdl\middleware\em_eeprom/cy_em_eeprom.c ****     }
 126:Generated_Source\PSoC6\pdl\middleware\em_eeprom/cy_em_eeprom.c **** 
 127:Generated_Source\PSoC6\pdl\middleware\em_eeprom/cy_em_eeprom.c ****     return(ret);
 128:Generated_Source\PSoC6\pdl\middleware\em_eeprom/cy_em_eeprom.c **** }
 129:Generated_Source\PSoC6\pdl\middleware\em_eeprom/cy_em_eeprom.c **** 
 130:Generated_Source\PSoC6\pdl\middleware\em_eeprom/cy_em_eeprom.c **** 
 131:Generated_Source\PSoC6\pdl\middleware\em_eeprom/cy_em_eeprom.c **** /*******************************************************************************
 132:Generated_Source\PSoC6\pdl\middleware\em_eeprom/cy_em_eeprom.c **** * Function Name: Cy_Em_EEPROM_Read
 133:Generated_Source\PSoC6\pdl\middleware\em_eeprom/cy_em_eeprom.c **** ****************************************************************************//**
 134:Generated_Source\PSoC6\pdl\middleware\em_eeprom/cy_em_eeprom.c **** *
 135:Generated_Source\PSoC6\pdl\middleware\em_eeprom/cy_em_eeprom.c **** * This function takes the logical EEPROM address, converts it to the actual
 136:Generated_Source\PSoC6\pdl\middleware\em_eeprom/cy_em_eeprom.c **** * physical address where the data is stored and returns the data to the user.
 137:Generated_Source\PSoC6\pdl\middleware\em_eeprom/cy_em_eeprom.c **** *
 138:Generated_Source\PSoC6\pdl\middleware\em_eeprom/cy_em_eeprom.c **** * \param addr
 139:Generated_Source\PSoC6\pdl\middleware\em_eeprom/cy_em_eeprom.c **** * The logical start address in EEPROM to start reading data from.
 140:Generated_Source\PSoC6\pdl\middleware\em_eeprom/cy_em_eeprom.c **** *
 141:Generated_Source\PSoC6\pdl\middleware\em_eeprom/cy_em_eeprom.c **** * \param eepromData
 142:Generated_Source\PSoC6\pdl\middleware\em_eeprom/cy_em_eeprom.c **** * The pointer to a user array to write data to.
 143:Generated_Source\PSoC6\pdl\middleware\em_eeprom/cy_em_eeprom.c **** *
 144:Generated_Source\PSoC6\pdl\middleware\em_eeprom/cy_em_eeprom.c **** * \param size
 145:Generated_Source\PSoC6\pdl\middleware\em_eeprom/cy_em_eeprom.c **** * The amount of data to read.
ARM GAS  C:\Users\eduar\AppData\Local\Temp\cctEoJXe.s 			page 4


 146:Generated_Source\PSoC6\pdl\middleware\em_eeprom/cy_em_eeprom.c **** *
 147:Generated_Source\PSoC6\pdl\middleware\em_eeprom/cy_em_eeprom.c **** * \param context
 148:Generated_Source\PSoC6\pdl\middleware\em_eeprom/cy_em_eeprom.c **** * The pointer to the EEPROM context structure \ref cy_stc_eeprom_context_t.
 149:Generated_Source\PSoC6\pdl\middleware\em_eeprom/cy_em_eeprom.c **** *
 150:Generated_Source\PSoC6\pdl\middleware\em_eeprom/cy_em_eeprom.c **** * \return
 151:Generated_Source\PSoC6\pdl\middleware\em_eeprom/cy_em_eeprom.c **** * This function returns \ref cy_en_em_eeprom_status_t.
 152:Generated_Source\PSoC6\pdl\middleware\em_eeprom/cy_em_eeprom.c **** *
 153:Generated_Source\PSoC6\pdl\middleware\em_eeprom/cy_em_eeprom.c **** * \note
 154:Generated_Source\PSoC6\pdl\middleware\em_eeprom/cy_em_eeprom.c **** * This function uses a buffer of the flash row size to perform read
 155:Generated_Source\PSoC6\pdl\middleware\em_eeprom/cy_em_eeprom.c **** * operation. For the size of the row refer to the specific PSoC device
 156:Generated_Source\PSoC6\pdl\middleware\em_eeprom/cy_em_eeprom.c **** * datasheet.
 157:Generated_Source\PSoC6\pdl\middleware\em_eeprom/cy_em_eeprom.c **** *
 158:Generated_Source\PSoC6\pdl\middleware\em_eeprom/cy_em_eeprom.c **** * \note
 159:Generated_Source\PSoC6\pdl\middleware\em_eeprom/cy_em_eeprom.c **** * In case if redundant copy option is enabled the function may perform writes
 160:Generated_Source\PSoC6\pdl\middleware\em_eeprom/cy_em_eeprom.c **** * to EEPROM. This is done in case if the data in the EEPPROM is corrupted and
 161:Generated_Source\PSoC6\pdl\middleware\em_eeprom/cy_em_eeprom.c **** * the data in redundant copy is valid based on CRC-8 data integrity check.
 162:Generated_Source\PSoC6\pdl\middleware\em_eeprom/cy_em_eeprom.c **** *
 163:Generated_Source\PSoC6\pdl\middleware\em_eeprom/cy_em_eeprom.c **** *******************************************************************************/
 164:Generated_Source\PSoC6\pdl\middleware\em_eeprom/cy_em_eeprom.c **** cy_en_em_eeprom_status_t Cy_Em_EEPROM_Read(uint32_t addr, 
 165:Generated_Source\PSoC6\pdl\middleware\em_eeprom/cy_em_eeprom.c ****                                         void * eepromData, 
 166:Generated_Source\PSoC6\pdl\middleware\em_eeprom/cy_em_eeprom.c ****                                         uint32_t size,
 167:Generated_Source\PSoC6\pdl\middleware\em_eeprom/cy_em_eeprom.c ****                                         cy_stc_eeprom_context_t * context)
 168:Generated_Source\PSoC6\pdl\middleware\em_eeprom/cy_em_eeprom.c **** {
 169:Generated_Source\PSoC6\pdl\middleware\em_eeprom/cy_em_eeprom.c ****     cy_en_em_eeprom_status_t ret = CY_EM_EEPROM_BAD_PARAM;
 170:Generated_Source\PSoC6\pdl\middleware\em_eeprom/cy_em_eeprom.c ****     uint32_t i;
 171:Generated_Source\PSoC6\pdl\middleware\em_eeprom/cy_em_eeprom.c ****     uint32_t numBytesToRead;
 172:Generated_Source\PSoC6\pdl\middleware\em_eeprom/cy_em_eeprom.c ****     uint32_t curEepromBaseAddr;
 173:Generated_Source\PSoC6\pdl\middleware\em_eeprom/cy_em_eeprom.c ****     uint32_t curRowOffset;
 174:Generated_Source\PSoC6\pdl\middleware\em_eeprom/cy_em_eeprom.c ****     uint32_t startRowAddr;
 175:Generated_Source\PSoC6\pdl\middleware\em_eeprom/cy_em_eeprom.c ****     uint32_t actEepromRowNum;
 176:Generated_Source\PSoC6\pdl\middleware\em_eeprom/cy_em_eeprom.c ****     uint32_t curRdEepromRowNum = 0u;
 177:Generated_Source\PSoC6\pdl\middleware\em_eeprom/cy_em_eeprom.c ****     uint32_t dataStartEepromRowNum = 0u;
 178:Generated_Source\PSoC6\pdl\middleware\em_eeprom/cy_em_eeprom.c ****     uint32_t eeData = (uint32_t) eepromData; /* To avoid the pointer arithmetic with void */
 179:Generated_Source\PSoC6\pdl\middleware\em_eeprom/cy_em_eeprom.c **** 
 180:Generated_Source\PSoC6\pdl\middleware\em_eeprom/cy_em_eeprom.c ****     /* Validate input parameters */
 181:Generated_Source\PSoC6\pdl\middleware\em_eeprom/cy_em_eeprom.c ****     if((0u != size) && ((addr + size) <= (context->eepromSize)) && (NULL != eepromData))
 182:Generated_Source\PSoC6\pdl\middleware\em_eeprom/cy_em_eeprom.c ****     {
 183:Generated_Source\PSoC6\pdl\middleware\em_eeprom/cy_em_eeprom.c ****         uint32_t rdAddr = addr;
 184:Generated_Source\PSoC6\pdl\middleware\em_eeprom/cy_em_eeprom.c ****         uint32_t rdSize = size;
 185:Generated_Source\PSoC6\pdl\middleware\em_eeprom/cy_em_eeprom.c ****         /* Get the sequence number of the last written row */
 186:Generated_Source\PSoC6\pdl\middleware\em_eeprom/cy_em_eeprom.c ****         uint32_t seqNum = CY_EM_EEPROM_GET_SEQ_NUM(context->lastWrRowAddr);
 187:Generated_Source\PSoC6\pdl\middleware\em_eeprom/cy_em_eeprom.c ****         uint32_t updateAddrFlag = 0u;
 188:Generated_Source\PSoC6\pdl\middleware\em_eeprom/cy_em_eeprom.c **** 
 189:Generated_Source\PSoC6\pdl\middleware\em_eeprom/cy_em_eeprom.c ****         /* Calculate the number of the row read operations. Currently this only concerns
 190:Generated_Source\PSoC6\pdl\middleware\em_eeprom/cy_em_eeprom.c ****         * the reads from the EEPROM data locations.
 191:Generated_Source\PSoC6\pdl\middleware\em_eeprom/cy_em_eeprom.c ****         */
 192:Generated_Source\PSoC6\pdl\middleware\em_eeprom/cy_em_eeprom.c ****         uint32_t numRowReads = ((((rdAddr + rdSize) - 1u) / CY_EM_EEPROM_EEPROM_DATA_LEN) -
 193:Generated_Source\PSoC6\pdl\middleware\em_eeprom/cy_em_eeprom.c ****                               (rdAddr / CY_EM_EEPROM_EEPROM_DATA_LEN)) + 1u;
 194:Generated_Source\PSoC6\pdl\middleware\em_eeprom/cy_em_eeprom.c **** 
 195:Generated_Source\PSoC6\pdl\middleware\em_eeprom/cy_em_eeprom.c ****         /* Get the address of the first row of the currently active EEPROM sector. If
 196:Generated_Source\PSoC6\pdl\middleware\em_eeprom/cy_em_eeprom.c ****         * no wear leveling is used - the EEPROM has only one sector, so use the base
 197:Generated_Source\PSoC6\pdl\middleware\em_eeprom/cy_em_eeprom.c ****         * addr stored in "context->userFlashStartAddr".
 198:Generated_Source\PSoC6\pdl\middleware\em_eeprom/cy_em_eeprom.c ****         */
 199:Generated_Source\PSoC6\pdl\middleware\em_eeprom/cy_em_eeprom.c ****         curEepromBaseAddr = (((context->lastWrRowAddr - context->userFlashStartAddr) /
 200:Generated_Source\PSoC6\pdl\middleware\em_eeprom/cy_em_eeprom.c ****                               (CY_EM_EEPROM_FLASH_SIZEOF_ROW * context->numberOfRows)) *
 201:Generated_Source\PSoC6\pdl\middleware\em_eeprom/cy_em_eeprom.c ****                               (CY_EM_EEPROM_FLASH_SIZEOF_ROW * context->numberOfRows)) +
 202:Generated_Source\PSoC6\pdl\middleware\em_eeprom/cy_em_eeprom.c ****                                context->userFlashStartAddr;
ARM GAS  C:\Users\eduar\AppData\Local\Temp\cctEoJXe.s 			page 5


 203:Generated_Source\PSoC6\pdl\middleware\em_eeprom/cy_em_eeprom.c **** 
 204:Generated_Source\PSoC6\pdl\middleware\em_eeprom/cy_em_eeprom.c ****         /* Find the number of the row that contains the start address of the data */
 205:Generated_Source\PSoC6\pdl\middleware\em_eeprom/cy_em_eeprom.c ****         for(i = 0u; i < context->numberOfRows; i++)
 206:Generated_Source\PSoC6\pdl\middleware\em_eeprom/cy_em_eeprom.c ****         {
 207:Generated_Source\PSoC6\pdl\middleware\em_eeprom/cy_em_eeprom.c ****             if(0u != CY_EM_EEPROM_IS_ADDR_IN_ROW_RANGE(rdAddr, i))
 208:Generated_Source\PSoC6\pdl\middleware\em_eeprom/cy_em_eeprom.c ****             {
 209:Generated_Source\PSoC6\pdl\middleware\em_eeprom/cy_em_eeprom.c ****                 dataStartEepromRowNum = i;
 210:Generated_Source\PSoC6\pdl\middleware\em_eeprom/cy_em_eeprom.c ****                 curRdEepromRowNum = dataStartEepromRowNum;
 211:Generated_Source\PSoC6\pdl\middleware\em_eeprom/cy_em_eeprom.c ****                 break;
 212:Generated_Source\PSoC6\pdl\middleware\em_eeprom/cy_em_eeprom.c ****             }
 213:Generated_Source\PSoC6\pdl\middleware\em_eeprom/cy_em_eeprom.c ****         }
 214:Generated_Source\PSoC6\pdl\middleware\em_eeprom/cy_em_eeprom.c **** 
 215:Generated_Source\PSoC6\pdl\middleware\em_eeprom/cy_em_eeprom.c ****         /* Find the row number of the last written row */
 216:Generated_Source\PSoC6\pdl\middleware\em_eeprom/cy_em_eeprom.c ****         actEepromRowNum = (context->lastWrRowAddr - curEepromBaseAddr) / CY_EM_EEPROM_FLASH_SIZEOF_
 217:Generated_Source\PSoC6\pdl\middleware\em_eeprom/cy_em_eeprom.c **** 
 218:Generated_Source\PSoC6\pdl\middleware\em_eeprom/cy_em_eeprom.c ****         /* Check if wear leveling is used */
 219:Generated_Source\PSoC6\pdl\middleware\em_eeprom/cy_em_eeprom.c ****         if(context->wearLevelingFactor > 1u)
 220:Generated_Source\PSoC6\pdl\middleware\em_eeprom/cy_em_eeprom.c ****         {
 221:Generated_Source\PSoC6\pdl\middleware\em_eeprom/cy_em_eeprom.c ****             uint32_t dataEndEepromRowNum = dataStartEepromRowNum + (numRowReads - 1u);
 222:Generated_Source\PSoC6\pdl\middleware\em_eeprom/cy_em_eeprom.c **** 
 223:Generated_Source\PSoC6\pdl\middleware\em_eeprom/cy_em_eeprom.c ****             /* Check if the future validation of the read address is required. */
 224:Generated_Source\PSoC6\pdl\middleware\em_eeprom/cy_em_eeprom.c ****             updateAddrFlag = (dataStartEepromRowNum > actEepromRowNum) ? 1u :
 225:Generated_Source\PSoC6\pdl\middleware\em_eeprom/cy_em_eeprom.c ****                               ((dataEndEepromRowNum > actEepromRowNum) ? 1u : 0u);
 226:Generated_Source\PSoC6\pdl\middleware\em_eeprom/cy_em_eeprom.c ****         }
 227:Generated_Source\PSoC6\pdl\middleware\em_eeprom/cy_em_eeprom.c **** 
 228:Generated_Source\PSoC6\pdl\middleware\em_eeprom/cy_em_eeprom.c ****         /* Copy data from the EEPROM data locations to the user buffer */
 229:Generated_Source\PSoC6\pdl\middleware\em_eeprom/cy_em_eeprom.c ****         for(i = 0u; i < numRowReads; i++)
 230:Generated_Source\PSoC6\pdl\middleware\em_eeprom/cy_em_eeprom.c ****         {
 231:Generated_Source\PSoC6\pdl\middleware\em_eeprom/cy_em_eeprom.c ****             startRowAddr = curEepromBaseAddr + (curRdEepromRowNum * CY_EM_EEPROM_FLASH_SIZEOF_ROW);
 232:Generated_Source\PSoC6\pdl\middleware\em_eeprom/cy_em_eeprom.c ****             curRowOffset = CY_EM_EEPROM_EEPROM_DATA_LEN + (rdAddr % CY_EM_EEPROM_EEPROM_DATA_LEN);
 233:Generated_Source\PSoC6\pdl\middleware\em_eeprom/cy_em_eeprom.c **** 
 234:Generated_Source\PSoC6\pdl\middleware\em_eeprom/cy_em_eeprom.c ****             /* Check if there are more reads pending and update the number of the
 235:Generated_Source\PSoC6\pdl\middleware\em_eeprom/cy_em_eeprom.c ****             * remaining bytes to read respectively.
 236:Generated_Source\PSoC6\pdl\middleware\em_eeprom/cy_em_eeprom.c ****             */
 237:Generated_Source\PSoC6\pdl\middleware\em_eeprom/cy_em_eeprom.c ****             if((i + 1u) < numRowReads)
 238:Generated_Source\PSoC6\pdl\middleware\em_eeprom/cy_em_eeprom.c ****             {
 239:Generated_Source\PSoC6\pdl\middleware\em_eeprom/cy_em_eeprom.c ****                 numBytesToRead = CY_EM_EEPROM_EEPROM_DATA_LEN - (rdAddr % CY_EM_EEPROM_EEPROM_DATA_
 240:Generated_Source\PSoC6\pdl\middleware\em_eeprom/cy_em_eeprom.c ****             }
 241:Generated_Source\PSoC6\pdl\middleware\em_eeprom/cy_em_eeprom.c ****             else
 242:Generated_Source\PSoC6\pdl\middleware\em_eeprom/cy_em_eeprom.c ****             {
 243:Generated_Source\PSoC6\pdl\middleware\em_eeprom/cy_em_eeprom.c ****                 numBytesToRead = rdSize;
 244:Generated_Source\PSoC6\pdl\middleware\em_eeprom/cy_em_eeprom.c ****             }
 245:Generated_Source\PSoC6\pdl\middleware\em_eeprom/cy_em_eeprom.c **** 
 246:Generated_Source\PSoC6\pdl\middleware\em_eeprom/cy_em_eeprom.c ****             /* Check if the read address needs to be updated to point to the correct
 247:Generated_Source\PSoC6\pdl\middleware\em_eeprom/cy_em_eeprom.c ****             * EEPROM sector.
 248:Generated_Source\PSoC6\pdl\middleware\em_eeprom/cy_em_eeprom.c ****             */
 249:Generated_Source\PSoC6\pdl\middleware\em_eeprom/cy_em_eeprom.c ****             if((0u != updateAddrFlag) && (curRdEepromRowNum > actEepromRowNum))
 250:Generated_Source\PSoC6\pdl\middleware\em_eeprom/cy_em_eeprom.c ****             {
 251:Generated_Source\PSoC6\pdl\middleware\em_eeprom/cy_em_eeprom.c ****                 startRowAddr -= context->numberOfRows * CY_EM_EEPROM_FLASH_SIZEOF_ROW;
 252:Generated_Source\PSoC6\pdl\middleware\em_eeprom/cy_em_eeprom.c **** 
 253:Generated_Source\PSoC6\pdl\middleware\em_eeprom/cy_em_eeprom.c ****                 if(startRowAddr < context->userFlashStartAddr)
 254:Generated_Source\PSoC6\pdl\middleware\em_eeprom/cy_em_eeprom.c ****                 {
 255:Generated_Source\PSoC6\pdl\middleware\em_eeprom/cy_em_eeprom.c ****                     startRowAddr = context->wlEndAddr -
 256:Generated_Source\PSoC6\pdl\middleware\em_eeprom/cy_em_eeprom.c ****                         ((context->numberOfRows - curRdEepromRowNum) * CY_EM_EEPROM_FLASH_SIZEOF_RO
 257:Generated_Source\PSoC6\pdl\middleware\em_eeprom/cy_em_eeprom.c ****                 }
 258:Generated_Source\PSoC6\pdl\middleware\em_eeprom/cy_em_eeprom.c ****             }
 259:Generated_Source\PSoC6\pdl\middleware\em_eeprom/cy_em_eeprom.c **** 
ARM GAS  C:\Users\eduar\AppData\Local\Temp\cctEoJXe.s 			page 6


 260:Generated_Source\PSoC6\pdl\middleware\em_eeprom/cy_em_eeprom.c ****             if(0u != context->redundantCopy)
 261:Generated_Source\PSoC6\pdl\middleware\em_eeprom/cy_em_eeprom.c ****             {
 262:Generated_Source\PSoC6\pdl\middleware\em_eeprom/cy_em_eeprom.c ****                 /* Check a checksum of the EEPROM row and if it is bad, check a checksum in
 263:Generated_Source\PSoC6\pdl\middleware\em_eeprom/cy_em_eeprom.c ****                 * the corresponding row in redundant copy, otherwise return failure.
 264:Generated_Source\PSoC6\pdl\middleware\em_eeprom/cy_em_eeprom.c ****                 */
 265:Generated_Source\PSoC6\pdl\middleware\em_eeprom/cy_em_eeprom.c ****                 ret = CheckCrcAndCopy(startRowAddr, eeData, curRowOffset, numBytesToRead, context);
 266:Generated_Source\PSoC6\pdl\middleware\em_eeprom/cy_em_eeprom.c **** 
 267:Generated_Source\PSoC6\pdl\middleware\em_eeprom/cy_em_eeprom.c ****                 if(CY_EM_EEPROM_SUCCESS != ret)
 268:Generated_Source\PSoC6\pdl\middleware\em_eeprom/cy_em_eeprom.c ****                 {
 269:Generated_Source\PSoC6\pdl\middleware\em_eeprom/cy_em_eeprom.c ****                     break;
 270:Generated_Source\PSoC6\pdl\middleware\em_eeprom/cy_em_eeprom.c ****                 }
 271:Generated_Source\PSoC6\pdl\middleware\em_eeprom/cy_em_eeprom.c ****             }
 272:Generated_Source\PSoC6\pdl\middleware\em_eeprom/cy_em_eeprom.c ****             else
 273:Generated_Source\PSoC6\pdl\middleware\em_eeprom/cy_em_eeprom.c ****             {
 274:Generated_Source\PSoC6\pdl\middleware\em_eeprom/cy_em_eeprom.c ****                 /* Copy the data to the user buffer */
 275:Generated_Source\PSoC6\pdl\middleware\em_eeprom/cy_em_eeprom.c ****                 (void)memcpy((void *)(eeData),
 276:Generated_Source\PSoC6\pdl\middleware\em_eeprom/cy_em_eeprom.c ****                              (void *)(startRowAddr + curRowOffset),
 277:Generated_Source\PSoC6\pdl\middleware\em_eeprom/cy_em_eeprom.c ****                              numBytesToRead);
 278:Generated_Source\PSoC6\pdl\middleware\em_eeprom/cy_em_eeprom.c **** 
 279:Generated_Source\PSoC6\pdl\middleware\em_eeprom/cy_em_eeprom.c ****                 /* Indicate success to be able to execute next code block */
 280:Generated_Source\PSoC6\pdl\middleware\em_eeprom/cy_em_eeprom.c ****                 ret = CY_EM_EEPROM_SUCCESS;
 281:Generated_Source\PSoC6\pdl\middleware\em_eeprom/cy_em_eeprom.c ****             }
 282:Generated_Source\PSoC6\pdl\middleware\em_eeprom/cy_em_eeprom.c **** 
 283:Generated_Source\PSoC6\pdl\middleware\em_eeprom/cy_em_eeprom.c ****             /* Update variables anticipated in the read operation */
 284:Generated_Source\PSoC6\pdl\middleware\em_eeprom/cy_em_eeprom.c ****             rdAddr += numBytesToRead;
 285:Generated_Source\PSoC6\pdl\middleware\em_eeprom/cy_em_eeprom.c ****             rdSize -= numBytesToRead;
 286:Generated_Source\PSoC6\pdl\middleware\em_eeprom/cy_em_eeprom.c ****             eeData += numBytesToRead;
 287:Generated_Source\PSoC6\pdl\middleware\em_eeprom/cy_em_eeprom.c ****             curRdEepromRowNum++;
 288:Generated_Source\PSoC6\pdl\middleware\em_eeprom/cy_em_eeprom.c ****         }
 289:Generated_Source\PSoC6\pdl\middleware\em_eeprom/cy_em_eeprom.c **** 
 290:Generated_Source\PSoC6\pdl\middleware\em_eeprom/cy_em_eeprom.c ****         /* This code block will copy the latest data from the EEPROM headers into the
 291:Generated_Source\PSoC6\pdl\middleware\em_eeprom/cy_em_eeprom.c ****         * user buffer. The data previously copied into the user buffer may be updated
 292:Generated_Source\PSoC6\pdl\middleware\em_eeprom/cy_em_eeprom.c ****         * as the EEPROM headers contain more recent data. 
 293:Generated_Source\PSoC6\pdl\middleware\em_eeprom/cy_em_eeprom.c ****         * The code block is executed when two following conditions are true:
 294:Generated_Source\PSoC6\pdl\middleware\em_eeprom/cy_em_eeprom.c ****         *  1) The reads from "historic" data locations were successful;
 295:Generated_Source\PSoC6\pdl\middleware\em_eeprom/cy_em_eeprom.c ****         *  2) The user performed at least one write operation to Em_EEPROM (0u !=
 296:Generated_Source\PSoC6\pdl\middleware\em_eeprom/cy_em_eeprom.c ****         *     seqNum).        
 297:Generated_Source\PSoC6\pdl\middleware\em_eeprom/cy_em_eeprom.c ****         */
 298:Generated_Source\PSoC6\pdl\middleware\em_eeprom/cy_em_eeprom.c ****         if((CY_EM_EEPROM_SUCCESS == ret) && (0u != seqNum))
 299:Generated_Source\PSoC6\pdl\middleware\em_eeprom/cy_em_eeprom.c ****         {
 300:Generated_Source\PSoC6\pdl\middleware\em_eeprom/cy_em_eeprom.c ****             numRowReads = (context->numberOfRows <= seqNum) ? (context->numberOfRows) : (seqNum);
 301:Generated_Source\PSoC6\pdl\middleware\em_eeprom/cy_em_eeprom.c ****             numRowReads--;
 302:Generated_Source\PSoC6\pdl\middleware\em_eeprom/cy_em_eeprom.c **** 
 303:Generated_Source\PSoC6\pdl\middleware\em_eeprom/cy_em_eeprom.c ****             for(i = (seqNum - numRowReads); i <= seqNum; i++)
 304:Generated_Source\PSoC6\pdl\middleware\em_eeprom/cy_em_eeprom.c ****             {
 305:Generated_Source\PSoC6\pdl\middleware\em_eeprom/cy_em_eeprom.c ****                 startRowAddr = GetRowAddrBySeqNum(i, context);
 306:Generated_Source\PSoC6\pdl\middleware\em_eeprom/cy_em_eeprom.c **** 
 307:Generated_Source\PSoC6\pdl\middleware\em_eeprom/cy_em_eeprom.c ****                 if (0u != startRowAddr)
 308:Generated_Source\PSoC6\pdl\middleware\em_eeprom/cy_em_eeprom.c ****                 {
 309:Generated_Source\PSoC6\pdl\middleware\em_eeprom/cy_em_eeprom.c ****                     /* The following variables are introduced to increase code readability. */
 310:Generated_Source\PSoC6\pdl\middleware\em_eeprom/cy_em_eeprom.c ****                     uint32_t startAddr  = *(uint32_t *)(startRowAddr + CY_EM_EEPROM_HEADER_ADDR_OFF
 311:Generated_Source\PSoC6\pdl\middleware\em_eeprom/cy_em_eeprom.c ****                     uint32_t endAddr    = startAddr + (*(uint32_t *)(startRowAddr + CY_EM_EEPROM_HE
 312:Generated_Source\PSoC6\pdl\middleware\em_eeprom/cy_em_eeprom.c **** 
 313:Generated_Source\PSoC6\pdl\middleware\em_eeprom/cy_em_eeprom.c ****                     /* Check if the current row EEPROM header contains the data requested for read 
 314:Generated_Source\PSoC6\pdl\middleware\em_eeprom/cy_em_eeprom.c ****                     if(0u != CY_EM_EEPROM_IS_ADDRESES_CROSSING(startAddr, endAddr, addr, addr + siz
 315:Generated_Source\PSoC6\pdl\middleware\em_eeprom/cy_em_eeprom.c ****                     {
 316:Generated_Source\PSoC6\pdl\middleware\em_eeprom/cy_em_eeprom.c ****                         uint32_t srcOffset = (startAddr > addr) ? (0u) : (addr - startAddr);
ARM GAS  C:\Users\eduar\AppData\Local\Temp\cctEoJXe.s 			page 7


 317:Generated_Source\PSoC6\pdl\middleware\em_eeprom/cy_em_eeprom.c ****                         uint32_t dstOffset = (startAddr > addr) ? (startAddr - addr): (0u);
 318:Generated_Source\PSoC6\pdl\middleware\em_eeprom/cy_em_eeprom.c ****                         rdAddr = (startAddr > addr) ? (startAddr) : (addr);
 319:Generated_Source\PSoC6\pdl\middleware\em_eeprom/cy_em_eeprom.c **** 
 320:Generated_Source\PSoC6\pdl\middleware\em_eeprom/cy_em_eeprom.c ****                         srcOffset += CY_EM_EEPROM_HEADER_DATA_OFFSET;
 321:Generated_Source\PSoC6\pdl\middleware\em_eeprom/cy_em_eeprom.c **** 
 322:Generated_Source\PSoC6\pdl\middleware\em_eeprom/cy_em_eeprom.c ****                         /* Calculate the number of bytes to be read from the current row's EEPROM h
 323:Generated_Source\PSoC6\pdl\middleware\em_eeprom/cy_em_eeprom.c ****                         numBytesToRead = ((endAddr < (addr + size)) ? endAddr : (addr + size)) - rd
 324:Generated_Source\PSoC6\pdl\middleware\em_eeprom/cy_em_eeprom.c **** 
 325:Generated_Source\PSoC6\pdl\middleware\em_eeprom/cy_em_eeprom.c ****                         /* Calculate the offset in the user buffer from which the data will be upda
 326:Generated_Source\PSoC6\pdl\middleware\em_eeprom/cy_em_eeprom.c ****                         eeData = ((uint32_t)eepromData) + dstOffset;
 327:Generated_Source\PSoC6\pdl\middleware\em_eeprom/cy_em_eeprom.c **** 
 328:Generated_Source\PSoC6\pdl\middleware\em_eeprom/cy_em_eeprom.c ****                         /* Check a checksum of the EEPROM row and if it is bad, check a checksum in
 329:Generated_Source\PSoC6\pdl\middleware\em_eeprom/cy_em_eeprom.c ****                         * corresponding row in redundant copy, otherwise return failure. Copy the d
 330:Generated_Source\PSoC6\pdl\middleware\em_eeprom/cy_em_eeprom.c ****                         * from the recent EEPROM headers to the user buffer. This will overwrite th
 331:Generated_Source\PSoC6\pdl\middleware\em_eeprom/cy_em_eeprom.c ****                         * data copied form EEPROM data locations as the data in EEPROM headers is n
 332:Generated_Source\PSoC6\pdl\middleware\em_eeprom/cy_em_eeprom.c ****                         */
 333:Generated_Source\PSoC6\pdl\middleware\em_eeprom/cy_em_eeprom.c ****                         if(0u != context->redundantCopy)
 334:Generated_Source\PSoC6\pdl\middleware\em_eeprom/cy_em_eeprom.c ****                         {
 335:Generated_Source\PSoC6\pdl\middleware\em_eeprom/cy_em_eeprom.c ****                             ret = CheckCrcAndCopy(startRowAddr, eeData, srcOffset, numBytesToRead, 
 336:Generated_Source\PSoC6\pdl\middleware\em_eeprom/cy_em_eeprom.c **** 
 337:Generated_Source\PSoC6\pdl\middleware\em_eeprom/cy_em_eeprom.c ****                             if(CY_EM_EEPROM_SUCCESS != ret)
 338:Generated_Source\PSoC6\pdl\middleware\em_eeprom/cy_em_eeprom.c ****                             {
 339:Generated_Source\PSoC6\pdl\middleware\em_eeprom/cy_em_eeprom.c ****                                 break;
 340:Generated_Source\PSoC6\pdl\middleware\em_eeprom/cy_em_eeprom.c ****                             }
 341:Generated_Source\PSoC6\pdl\middleware\em_eeprom/cy_em_eeprom.c ****                         }
 342:Generated_Source\PSoC6\pdl\middleware\em_eeprom/cy_em_eeprom.c ****                         else
 343:Generated_Source\PSoC6\pdl\middleware\em_eeprom/cy_em_eeprom.c ****                         {
 344:Generated_Source\PSoC6\pdl\middleware\em_eeprom/cy_em_eeprom.c ****                             (void)memcpy((void *)(eeData), (void *)(startRowAddr + srcOffset), numB
 345:Generated_Source\PSoC6\pdl\middleware\em_eeprom/cy_em_eeprom.c ****                         }
 346:Generated_Source\PSoC6\pdl\middleware\em_eeprom/cy_em_eeprom.c ****                     }
 347:Generated_Source\PSoC6\pdl\middleware\em_eeprom/cy_em_eeprom.c ****                 }
 348:Generated_Source\PSoC6\pdl\middleware\em_eeprom/cy_em_eeprom.c ****             }
 349:Generated_Source\PSoC6\pdl\middleware\em_eeprom/cy_em_eeprom.c ****         }
 350:Generated_Source\PSoC6\pdl\middleware\em_eeprom/cy_em_eeprom.c ****     }
 351:Generated_Source\PSoC6\pdl\middleware\em_eeprom/cy_em_eeprom.c **** 
 352:Generated_Source\PSoC6\pdl\middleware\em_eeprom/cy_em_eeprom.c ****     return(ret);
 353:Generated_Source\PSoC6\pdl\middleware\em_eeprom/cy_em_eeprom.c **** }
 354:Generated_Source\PSoC6\pdl\middleware\em_eeprom/cy_em_eeprom.c **** 
 355:Generated_Source\PSoC6\pdl\middleware\em_eeprom/cy_em_eeprom.c **** 
 356:Generated_Source\PSoC6\pdl\middleware\em_eeprom/cy_em_eeprom.c **** /*******************************************************************************
 357:Generated_Source\PSoC6\pdl\middleware\em_eeprom/cy_em_eeprom.c **** * Function Name: Cy_Em_EEPROM_Write
 358:Generated_Source\PSoC6\pdl\middleware\em_eeprom/cy_em_eeprom.c **** ****************************************************************************//**
 359:Generated_Source\PSoC6\pdl\middleware\em_eeprom/cy_em_eeprom.c **** *
 360:Generated_Source\PSoC6\pdl\middleware\em_eeprom/cy_em_eeprom.c **** * This function takes the logical EEPROM address and converts it to the actual
 361:Generated_Source\PSoC6\pdl\middleware\em_eeprom/cy_em_eeprom.c **** * physical address and writes data there. If wear leveling is implemented, the
 362:Generated_Source\PSoC6\pdl\middleware\em_eeprom/cy_em_eeprom.c **** * writing process will use the wear leveling techniques. This is a blocking
 363:Generated_Source\PSoC6\pdl\middleware\em_eeprom/cy_em_eeprom.c **** * function and it does not return until the write operation is completed. The
 364:Generated_Source\PSoC6\pdl\middleware\em_eeprom/cy_em_eeprom.c **** * user firmware should not enter Hibernate mode until write is completed. The
 365:Generated_Source\PSoC6\pdl\middleware\em_eeprom/cy_em_eeprom.c **** * write operation is allowed in Sleep and Deep-Sleep modes. During the flash
 366:Generated_Source\PSoC6\pdl\middleware\em_eeprom/cy_em_eeprom.c **** * operation, the device should not be reset, including the XRES pin, a software
 367:Generated_Source\PSoC6\pdl\middleware\em_eeprom/cy_em_eeprom.c **** * reset, and watchdog reset sources. Also, low-voltage detect circuits should
 368:Generated_Source\PSoC6\pdl\middleware\em_eeprom/cy_em_eeprom.c **** * be configured to generate an interrupt instead of a reset. Otherwise, portions
 369:Generated_Source\PSoC6\pdl\middleware\em_eeprom/cy_em_eeprom.c **** * of flash may undergo unexpected changes.
 370:Generated_Source\PSoC6\pdl\middleware\em_eeprom/cy_em_eeprom.c **** *
 371:Generated_Source\PSoC6\pdl\middleware\em_eeprom/cy_em_eeprom.c **** * \param addr
 372:Generated_Source\PSoC6\pdl\middleware\em_eeprom/cy_em_eeprom.c **** * The logical start address in EEPROM to start writing data from.
 373:Generated_Source\PSoC6\pdl\middleware\em_eeprom/cy_em_eeprom.c **** *
ARM GAS  C:\Users\eduar\AppData\Local\Temp\cctEoJXe.s 			page 8


 374:Generated_Source\PSoC6\pdl\middleware\em_eeprom/cy_em_eeprom.c **** * \param eepromData
 375:Generated_Source\PSoC6\pdl\middleware\em_eeprom/cy_em_eeprom.c **** * Data to write to EEPROM.
 376:Generated_Source\PSoC6\pdl\middleware\em_eeprom/cy_em_eeprom.c **** *
 377:Generated_Source\PSoC6\pdl\middleware\em_eeprom/cy_em_eeprom.c **** * \param size
 378:Generated_Source\PSoC6\pdl\middleware\em_eeprom/cy_em_eeprom.c **** * The amount of data to write to EEPROM.
 379:Generated_Source\PSoC6\pdl\middleware\em_eeprom/cy_em_eeprom.c **** *
 380:Generated_Source\PSoC6\pdl\middleware\em_eeprom/cy_em_eeprom.c **** * \param context
 381:Generated_Source\PSoC6\pdl\middleware\em_eeprom/cy_em_eeprom.c **** * The pointer to the EEPROM context structure \ref cy_stc_eeprom_context_t.
 382:Generated_Source\PSoC6\pdl\middleware\em_eeprom/cy_em_eeprom.c **** *
 383:Generated_Source\PSoC6\pdl\middleware\em_eeprom/cy_em_eeprom.c **** * \return
 384:Generated_Source\PSoC6\pdl\middleware\em_eeprom/cy_em_eeprom.c **** * This function returns \ref cy_en_em_eeprom_status_t.
 385:Generated_Source\PSoC6\pdl\middleware\em_eeprom/cy_em_eeprom.c **** *
 386:Generated_Source\PSoC6\pdl\middleware\em_eeprom/cy_em_eeprom.c **** * \note
 387:Generated_Source\PSoC6\pdl\middleware\em_eeprom/cy_em_eeprom.c **** * This function uses a buffer of the flash row size to perform write
 388:Generated_Source\PSoC6\pdl\middleware\em_eeprom/cy_em_eeprom.c **** * operation. For the size of the row refer to the specific PSoC device
 389:Generated_Source\PSoC6\pdl\middleware\em_eeprom/cy_em_eeprom.c **** * datasheet.
 390:Generated_Source\PSoC6\pdl\middleware\em_eeprom/cy_em_eeprom.c **** *
 391:Generated_Source\PSoC6\pdl\middleware\em_eeprom/cy_em_eeprom.c **** * \sideeffect
 392:Generated_Source\PSoC6\pdl\middleware\em_eeprom/cy_em_eeprom.c **** * In case when blocking write option is used, if this function is called by
 393:Generated_Source\PSoC6\pdl\middleware\em_eeprom/cy_em_eeprom.c **** * the CM4 the user code on CM0P and the user code on CM4 are blocked until erase
 394:Generated_Source\PSoC6\pdl\middleware\em_eeprom/cy_em_eeprom.c **** * flash row operation is finished. If this function is called by the CM0P the
 395:Generated_Source\PSoC6\pdl\middleware\em_eeprom/cy_em_eeprom.c **** * user code on CM4 is not blocked and the user code on CM0P is blocked until
 396:Generated_Source\PSoC6\pdl\middleware\em_eeprom/cy_em_eeprom.c **** * erase flash row operation is finished. Plan your task allocation accordingly.
 397:Generated_Source\PSoC6\pdl\middleware\em_eeprom/cy_em_eeprom.c **** *
 398:Generated_Source\PSoC6\pdl\middleware\em_eeprom/cy_em_eeprom.c **** * \sideeffect
 399:Generated_Source\PSoC6\pdl\middleware\em_eeprom/cy_em_eeprom.c **** * In case if non-blocking write option is used and when user flash is used as
 400:Generated_Source\PSoC6\pdl\middleware\em_eeprom/cy_em_eeprom.c **** * an EEPROM storage care should be taken to prevent the read while write (RWW)
 401:Generated_Source\PSoC6\pdl\middleware\em_eeprom/cy_em_eeprom.c **** * exception. To prevent the RWW exception the user flash macro that includes
 402:Generated_Source\PSoC6\pdl\middleware\em_eeprom/cy_em_eeprom.c **** * the EEPROM storage should not be read while the EEPROM write is not completed.
 403:Generated_Source\PSoC6\pdl\middleware\em_eeprom/cy_em_eeprom.c **** * The read also means the user code execution from the respective flash macro.
 404:Generated_Source\PSoC6\pdl\middleware\em_eeprom/cy_em_eeprom.c **** *
 405:Generated_Source\PSoC6\pdl\middleware\em_eeprom/cy_em_eeprom.c **** *******************************************************************************/
 406:Generated_Source\PSoC6\pdl\middleware\em_eeprom/cy_em_eeprom.c **** cy_en_em_eeprom_status_t Cy_Em_EEPROM_Write(uint32_t addr,
 407:Generated_Source\PSoC6\pdl\middleware\em_eeprom/cy_em_eeprom.c ****                                             void * eepromData,
 408:Generated_Source\PSoC6\pdl\middleware\em_eeprom/cy_em_eeprom.c ****                                             uint32_t size,
 409:Generated_Source\PSoC6\pdl\middleware\em_eeprom/cy_em_eeprom.c ****                                             cy_stc_eeprom_context_t * context)
 410:Generated_Source\PSoC6\pdl\middleware\em_eeprom/cy_em_eeprom.c **** {
 411:Generated_Source\PSoC6\pdl\middleware\em_eeprom/cy_em_eeprom.c ****     cy_en_em_eeprom_status_t ret = CY_EM_EEPROM_BAD_PARAM;
 412:Generated_Source\PSoC6\pdl\middleware\em_eeprom/cy_em_eeprom.c ****     uint32_t i;
 413:Generated_Source\PSoC6\pdl\middleware\em_eeprom/cy_em_eeprom.c ****     uint32_t wrCnt;
 414:Generated_Source\PSoC6\pdl\middleware\em_eeprom/cy_em_eeprom.c ****     uint32_t actEmEepromRowNum;
 415:Generated_Source\PSoC6\pdl\middleware\em_eeprom/cy_em_eeprom.c ****     uint32_t writeRamBuffer[CY_EM_EEPROM_FLASH_SIZEOF_ROW / CY_EM_EEPROM_U32_DIV];
 416:Generated_Source\PSoC6\pdl\middleware\em_eeprom/cy_em_eeprom.c ****     uint32_t startAddr = 0u;
 417:Generated_Source\PSoC6\pdl\middleware\em_eeprom/cy_em_eeprom.c ****     uint32_t endAddr = 0u;
 418:Generated_Source\PSoC6\pdl\middleware\em_eeprom/cy_em_eeprom.c ****     uint32_t tmpRowAddr;
 419:Generated_Source\PSoC6\pdl\middleware\em_eeprom/cy_em_eeprom.c ****     uint32_t emEepromRowAddr = context->lastWrRowAddr;
 420:Generated_Source\PSoC6\pdl\middleware\em_eeprom/cy_em_eeprom.c ****     uint32_t emEepromRowRdAddr;
 421:Generated_Source\PSoC6\pdl\middleware\em_eeprom/cy_em_eeprom.c ****     void * tmpData;
 422:Generated_Source\PSoC6\pdl\middleware\em_eeprom/cy_em_eeprom.c ****     uint32_t eeData = (uint32_t) eepromData; /* To avoid the pointer arithmetic with void */
 423:Generated_Source\PSoC6\pdl\middleware\em_eeprom/cy_em_eeprom.c **** 
 424:Generated_Source\PSoC6\pdl\middleware\em_eeprom/cy_em_eeprom.c ****     /* Check if the EEPROM data does not exceed the EEPROM capacity */
 425:Generated_Source\PSoC6\pdl\middleware\em_eeprom/cy_em_eeprom.c ****     if((0u != size) && ((addr + size) <= (context->eepromSize)) && (NULL != eepromData))
 426:Generated_Source\PSoC6\pdl\middleware\em_eeprom/cy_em_eeprom.c ****     {
 427:Generated_Source\PSoC6\pdl\middleware\em_eeprom/cy_em_eeprom.c ****         uint32_t numWrites = ((size - 1u) / CY_EM_EEPROM_HEADER_DATA_LEN) + 1u;
 428:Generated_Source\PSoC6\pdl\middleware\em_eeprom/cy_em_eeprom.c ****         uint32_t eeHeaderDataOffset = 0u;
 429:Generated_Source\PSoC6\pdl\middleware\em_eeprom/cy_em_eeprom.c **** 
 430:Generated_Source\PSoC6\pdl\middleware\em_eeprom/cy_em_eeprom.c ****         for(wrCnt = 0u; wrCnt < numWrites; wrCnt++)
ARM GAS  C:\Users\eduar\AppData\Local\Temp\cctEoJXe.s 			page 9


 431:Generated_Source\PSoC6\pdl\middleware\em_eeprom/cy_em_eeprom.c ****         {
 432:Generated_Source\PSoC6\pdl\middleware\em_eeprom/cy_em_eeprom.c ****             uint32_t skipOperation = 0u;
 433:Generated_Source\PSoC6\pdl\middleware\em_eeprom/cy_em_eeprom.c ****             /* Get the sequence number of the last written row */
 434:Generated_Source\PSoC6\pdl\middleware\em_eeprom/cy_em_eeprom.c ****             uint32_t seqNum = CY_EM_EEPROM_GET_SEQ_NUM(emEepromRowAddr);
 435:Generated_Source\PSoC6\pdl\middleware\em_eeprom/cy_em_eeprom.c **** 
 436:Generated_Source\PSoC6\pdl\middleware\em_eeprom/cy_em_eeprom.c ****             /* Get the address of the row to be written. The "emEepromRowAddr" may be
 437:Generated_Source\PSoC6\pdl\middleware\em_eeprom/cy_em_eeprom.c ****             * updated with the proper address (if wear leveling is used). The
 438:Generated_Source\PSoC6\pdl\middleware\em_eeprom/cy_em_eeprom.c ****             * "emEepromRowRdAddr" will point to the row address from which the historic
 439:Generated_Source\PSoC6\pdl\middleware\em_eeprom/cy_em_eeprom.c ****             * data will be read into the RAM buffer.
 440:Generated_Source\PSoC6\pdl\middleware\em_eeprom/cy_em_eeprom.c ****             */
 441:Generated_Source\PSoC6\pdl\middleware\em_eeprom/cy_em_eeprom.c ****             GetNextRowToWrite(seqNum, &emEepromRowAddr, &emEepromRowRdAddr, context);
 442:Generated_Source\PSoC6\pdl\middleware\em_eeprom/cy_em_eeprom.c **** 
 443:Generated_Source\PSoC6\pdl\middleware\em_eeprom/cy_em_eeprom.c ****             /* Clear the RAM buffer so to not put junk into flash */
 444:Generated_Source\PSoC6\pdl\middleware\em_eeprom/cy_em_eeprom.c ****             (void)memset(writeRamBuffer, 0, CY_EM_EEPROM_FLASH_SIZEOF_ROW);
 445:Generated_Source\PSoC6\pdl\middleware\em_eeprom/cy_em_eeprom.c **** 
 446:Generated_Source\PSoC6\pdl\middleware\em_eeprom/cy_em_eeprom.c ****             /* Fill the EM_EEPROM header info for the row in the RAM buffer */
 447:Generated_Source\PSoC6\pdl\middleware\em_eeprom/cy_em_eeprom.c ****             seqNum++;
 448:Generated_Source\PSoC6\pdl\middleware\em_eeprom/cy_em_eeprom.c ****             writeRamBuffer[CY_EM_EEPROM_HEADER_SEQ_NUM_OFFSET_U32] = seqNum;
 449:Generated_Source\PSoC6\pdl\middleware\em_eeprom/cy_em_eeprom.c ****             writeRamBuffer[CY_EM_EEPROM_HEADER_ADDR_OFFSET_U32] = addr;
 450:Generated_Source\PSoC6\pdl\middleware\em_eeprom/cy_em_eeprom.c ****             tmpData = (void *) eeData;
 451:Generated_Source\PSoC6\pdl\middleware\em_eeprom/cy_em_eeprom.c **** 
 452:Generated_Source\PSoC6\pdl\middleware\em_eeprom/cy_em_eeprom.c ****             /* Check if this is the last row to write */
 453:Generated_Source\PSoC6\pdl\middleware\em_eeprom/cy_em_eeprom.c ****             if(wrCnt == (numWrites - 1u))
 454:Generated_Source\PSoC6\pdl\middleware\em_eeprom/cy_em_eeprom.c ****             {
 455:Generated_Source\PSoC6\pdl\middleware\em_eeprom/cy_em_eeprom.c ****                 /* Fill in the remaining size value to the EEPROM header. */
 456:Generated_Source\PSoC6\pdl\middleware\em_eeprom/cy_em_eeprom.c ****                 writeRamBuffer[CY_EM_EEPROM_HEADER_LEN_OFFSET_U32] = size;
 457:Generated_Source\PSoC6\pdl\middleware\em_eeprom/cy_em_eeprom.c ****             }
 458:Generated_Source\PSoC6\pdl\middleware\em_eeprom/cy_em_eeprom.c ****             else
 459:Generated_Source\PSoC6\pdl\middleware\em_eeprom/cy_em_eeprom.c ****             {
 460:Generated_Source\PSoC6\pdl\middleware\em_eeprom/cy_em_eeprom.c ****                 /* This is not the last row to write in the current EEPROM write operation.
 461:Generated_Source\PSoC6\pdl\middleware\em_eeprom/cy_em_eeprom.c ****                 * Write the maximum possible data size to the EEPROM header. Update the
 462:Generated_Source\PSoC6\pdl\middleware\em_eeprom/cy_em_eeprom.c ****                 * size, eeData and addr respectively.
 463:Generated_Source\PSoC6\pdl\middleware\em_eeprom/cy_em_eeprom.c ****                 */
 464:Generated_Source\PSoC6\pdl\middleware\em_eeprom/cy_em_eeprom.c ****                 writeRamBuffer[CY_EM_EEPROM_HEADER_LEN_OFFSET_U32] = CY_EM_EEPROM_HEADER_DATA_LEN;
 465:Generated_Source\PSoC6\pdl\middleware\em_eeprom/cy_em_eeprom.c ****                 size -= CY_EM_EEPROM_HEADER_DATA_LEN;
 466:Generated_Source\PSoC6\pdl\middleware\em_eeprom/cy_em_eeprom.c ****                 addr += CY_EM_EEPROM_HEADER_DATA_LEN;
 467:Generated_Source\PSoC6\pdl\middleware\em_eeprom/cy_em_eeprom.c ****                 eeData += CY_EM_EEPROM_HEADER_DATA_LEN;
 468:Generated_Source\PSoC6\pdl\middleware\em_eeprom/cy_em_eeprom.c ****             }
 469:Generated_Source\PSoC6\pdl\middleware\em_eeprom/cy_em_eeprom.c **** 
 470:Generated_Source\PSoC6\pdl\middleware\em_eeprom/cy_em_eeprom.c ****             /* Write the data to the EEPROM header */
 471:Generated_Source\PSoC6\pdl\middleware\em_eeprom/cy_em_eeprom.c ****             (void)memcpy((void *)&writeRamBuffer[CY_EM_EEPROM_HEADER_DATA_OFFSET_U32],
 472:Generated_Source\PSoC6\pdl\middleware\em_eeprom/cy_em_eeprom.c ****                          tmpData,
 473:Generated_Source\PSoC6\pdl\middleware\em_eeprom/cy_em_eeprom.c ****                          writeRamBuffer[CY_EM_EEPROM_HEADER_LEN_OFFSET_U32]);
 474:Generated_Source\PSoC6\pdl\middleware\em_eeprom/cy_em_eeprom.c **** 
 475:Generated_Source\PSoC6\pdl\middleware\em_eeprom/cy_em_eeprom.c ****             if(emEepromRowRdAddr != 0UL)
 476:Generated_Source\PSoC6\pdl\middleware\em_eeprom/cy_em_eeprom.c ****             {
 477:Generated_Source\PSoC6\pdl\middleware\em_eeprom/cy_em_eeprom.c ****                 /* Copy the EEPROM historic data for this row from flash to RAM */
 478:Generated_Source\PSoC6\pdl\middleware\em_eeprom/cy_em_eeprom.c ****                 (void)memcpy((void *)&writeRamBuffer[CY_EM_EEPROM_EEPROM_DATA_OFFSET_U32],
 479:Generated_Source\PSoC6\pdl\middleware\em_eeprom/cy_em_eeprom.c ****                              (void *)(emEepromRowRdAddr + CY_EM_EEPROM_EEPROM_DATA_LEN),
 480:Generated_Source\PSoC6\pdl\middleware\em_eeprom/cy_em_eeprom.c ****                              CY_EM_EEPROM_EEPROM_DATA_LEN);
 481:Generated_Source\PSoC6\pdl\middleware\em_eeprom/cy_em_eeprom.c ****             }
 482:Generated_Source\PSoC6\pdl\middleware\em_eeprom/cy_em_eeprom.c **** 
 483:Generated_Source\PSoC6\pdl\middleware\em_eeprom/cy_em_eeprom.c ****             /* Check if there is data for this location in other EEPROM headers:
 484:Generated_Source\PSoC6\pdl\middleware\em_eeprom/cy_em_eeprom.c ****             * find out the row with the lowest possible sequence number which
 485:Generated_Source\PSoC6\pdl\middleware\em_eeprom/cy_em_eeprom.c ****             * may contain the data for the current row.
 486:Generated_Source\PSoC6\pdl\middleware\em_eeprom/cy_em_eeprom.c ****             */
 487:Generated_Source\PSoC6\pdl\middleware\em_eeprom/cy_em_eeprom.c ****             i = (seqNum > context->numberOfRows) ? ((seqNum - (context->numberOfRows)) + 1u) : 1u;
ARM GAS  C:\Users\eduar\AppData\Local\Temp\cctEoJXe.s 			page 10


 488:Generated_Source\PSoC6\pdl\middleware\em_eeprom/cy_em_eeprom.c **** 
 489:Generated_Source\PSoC6\pdl\middleware\em_eeprom/cy_em_eeprom.c ****             for(; i <= seqNum; i++)
 490:Generated_Source\PSoC6\pdl\middleware\em_eeprom/cy_em_eeprom.c ****             {
 491:Generated_Source\PSoC6\pdl\middleware\em_eeprom/cy_em_eeprom.c ****                 if(i == seqNum)
 492:Generated_Source\PSoC6\pdl\middleware\em_eeprom/cy_em_eeprom.c ****                 {
 493:Generated_Source\PSoC6\pdl\middleware\em_eeprom/cy_em_eeprom.c ****                     /* The code reached the row that is about to be written. Analyze the recently
 494:Generated_Source\PSoC6\pdl\middleware\em_eeprom/cy_em_eeprom.c ****                     * created EEPROM header (stored in the RAM buffer currently): if it contains
 495:Generated_Source\PSoC6\pdl\middleware\em_eeprom/cy_em_eeprom.c ****                     * the data for EEPROM data locations in the row that is about to be written.
 496:Generated_Source\PSoC6\pdl\middleware\em_eeprom/cy_em_eeprom.c ****                     */
 497:Generated_Source\PSoC6\pdl\middleware\em_eeprom/cy_em_eeprom.c ****                     tmpRowAddr = (uint32_t) writeRamBuffer;
 498:Generated_Source\PSoC6\pdl\middleware\em_eeprom/cy_em_eeprom.c ****                 }
 499:Generated_Source\PSoC6\pdl\middleware\em_eeprom/cy_em_eeprom.c ****                 else
 500:Generated_Source\PSoC6\pdl\middleware\em_eeprom/cy_em_eeprom.c ****                 {
 501:Generated_Source\PSoC6\pdl\middleware\em_eeprom/cy_em_eeprom.c ****                     /* Retrieve the address of the previously written row by its sequence number.
 502:Generated_Source\PSoC6\pdl\middleware\em_eeprom/cy_em_eeprom.c ****                     * The pointer will be used to get data from the respective EEPROM header.
 503:Generated_Source\PSoC6\pdl\middleware\em_eeprom/cy_em_eeprom.c ****                     */
 504:Generated_Source\PSoC6\pdl\middleware\em_eeprom/cy_em_eeprom.c ****                     tmpRowAddr = GetRowAddrBySeqNum(i, context);
 505:Generated_Source\PSoC6\pdl\middleware\em_eeprom/cy_em_eeprom.c ****                 }
 506:Generated_Source\PSoC6\pdl\middleware\em_eeprom/cy_em_eeprom.c **** 
 507:Generated_Source\PSoC6\pdl\middleware\em_eeprom/cy_em_eeprom.c ****                 actEmEepromRowNum = CY_EM_EEPROM_GET_ACT_ROW_NUM_FROM_ADDR(emEepromRowAddr,
 508:Generated_Source\PSoC6\pdl\middleware\em_eeprom/cy_em_eeprom.c ****                                                                            context->numberOfRows,
 509:Generated_Source\PSoC6\pdl\middleware\em_eeprom/cy_em_eeprom.c ****                                                                            context->userFlashStartA
 510:Generated_Source\PSoC6\pdl\middleware\em_eeprom/cy_em_eeprom.c ****                 if(0UL != tmpRowAddr)
 511:Generated_Source\PSoC6\pdl\middleware\em_eeprom/cy_em_eeprom.c ****                 {
 512:Generated_Source\PSoC6\pdl\middleware\em_eeprom/cy_em_eeprom.c ****                     /* Calculate the required addressed for the later EEPROM historic data update *
 513:Generated_Source\PSoC6\pdl\middleware\em_eeprom/cy_em_eeprom.c ****                     skipOperation = GetAddresses(
 514:Generated_Source\PSoC6\pdl\middleware\em_eeprom/cy_em_eeprom.c ****                                               &startAddr,
 515:Generated_Source\PSoC6\pdl\middleware\em_eeprom/cy_em_eeprom.c ****                                               &endAddr,
 516:Generated_Source\PSoC6\pdl\middleware\em_eeprom/cy_em_eeprom.c ****                                               &eeHeaderDataOffset,
 517:Generated_Source\PSoC6\pdl\middleware\em_eeprom/cy_em_eeprom.c ****                                               actEmEepromRowNum,
 518:Generated_Source\PSoC6\pdl\middleware\em_eeprom/cy_em_eeprom.c ****                                               *(uint32_t *)(tmpRowAddr + CY_EM_EEPROM_HEADER_ADDR_O
 519:Generated_Source\PSoC6\pdl\middleware\em_eeprom/cy_em_eeprom.c ****                                               *(uint32_t *)(tmpRowAddr + CY_EM_EEPROM_HEADER_LEN_OF
 520:Generated_Source\PSoC6\pdl\middleware\em_eeprom/cy_em_eeprom.c ****                 }
 521:Generated_Source\PSoC6\pdl\middleware\em_eeprom/cy_em_eeprom.c ****                 else
 522:Generated_Source\PSoC6\pdl\middleware\em_eeprom/cy_em_eeprom.c ****                 {
 523:Generated_Source\PSoC6\pdl\middleware\em_eeprom/cy_em_eeprom.c ****                     /* Skip writes to the RAM buffer */
 524:Generated_Source\PSoC6\pdl\middleware\em_eeprom/cy_em_eeprom.c ****                     skipOperation++;
 525:Generated_Source\PSoC6\pdl\middleware\em_eeprom/cy_em_eeprom.c ****                 }
 526:Generated_Source\PSoC6\pdl\middleware\em_eeprom/cy_em_eeprom.c **** 
 527:Generated_Source\PSoC6\pdl\middleware\em_eeprom/cy_em_eeprom.c ****                 /* Write data to the RAM buffer */
 528:Generated_Source\PSoC6\pdl\middleware\em_eeprom/cy_em_eeprom.c ****                 if(0u == skipOperation)
 529:Generated_Source\PSoC6\pdl\middleware\em_eeprom/cy_em_eeprom.c ****                 {
 530:Generated_Source\PSoC6\pdl\middleware\em_eeprom/cy_em_eeprom.c ****                     uint32_t dataAddr = ((uint32_t)((uint8_t *)&writeRamBuffer)) + startAddr;
 531:Generated_Source\PSoC6\pdl\middleware\em_eeprom/cy_em_eeprom.c **** 
 532:Generated_Source\PSoC6\pdl\middleware\em_eeprom/cy_em_eeprom.c ****                     /* Update the address to point to the EEPROM header data and not to
 533:Generated_Source\PSoC6\pdl\middleware\em_eeprom/cy_em_eeprom.c ****                     * the start of the row.
 534:Generated_Source\PSoC6\pdl\middleware\em_eeprom/cy_em_eeprom.c ****                     */
 535:Generated_Source\PSoC6\pdl\middleware\em_eeprom/cy_em_eeprom.c ****                     tmpRowAddr = tmpRowAddr + CY_EM_EEPROM_HEADER_DATA_OFFSET + eeHeaderDataOffset;
 536:Generated_Source\PSoC6\pdl\middleware\em_eeprom/cy_em_eeprom.c ****                     (void)memcpy((void *)(dataAddr), (void *)(tmpRowAddr), endAddr - startAddr);
 537:Generated_Source\PSoC6\pdl\middleware\em_eeprom/cy_em_eeprom.c ****                 }
 538:Generated_Source\PSoC6\pdl\middleware\em_eeprom/cy_em_eeprom.c **** 
 539:Generated_Source\PSoC6\pdl\middleware\em_eeprom/cy_em_eeprom.c ****                 /* Calculate the checksum if redundant copy is enabled */
 540:Generated_Source\PSoC6\pdl\middleware\em_eeprom/cy_em_eeprom.c ****                 if(0u != context->redundantCopy)
 541:Generated_Source\PSoC6\pdl\middleware\em_eeprom/cy_em_eeprom.c ****                 {
 542:Generated_Source\PSoC6\pdl\middleware\em_eeprom/cy_em_eeprom.c ****                     writeRamBuffer[CY_EM_EEPROM_HEADER_CHECKSUM_OFFSET_U32] = (uint32_t)
 543:Generated_Source\PSoC6\pdl\middleware\em_eeprom/cy_em_eeprom.c ****                         CalcChecksum((uint8_t *) &writeRamBuffer[CY_EM_EEPROM_EEPROM_DATA_OFFSET_U3
 544:Generated_Source\PSoC6\pdl\middleware\em_eeprom/cy_em_eeprom.c ****                                                   CY_EM_EEPROM_EEPROM_DATA_LEN);
ARM GAS  C:\Users\eduar\AppData\Local\Temp\cctEoJXe.s 			page 11


 545:Generated_Source\PSoC6\pdl\middleware\em_eeprom/cy_em_eeprom.c ****                 }
 546:Generated_Source\PSoC6\pdl\middleware\em_eeprom/cy_em_eeprom.c ****             }
 547:Generated_Source\PSoC6\pdl\middleware\em_eeprom/cy_em_eeprom.c **** 
 548:Generated_Source\PSoC6\pdl\middleware\em_eeprom/cy_em_eeprom.c ****             /* Write the data to the specified flash row */
 549:Generated_Source\PSoC6\pdl\middleware\em_eeprom/cy_em_eeprom.c ****             ret = WriteRow(emEepromRowAddr, writeRamBuffer, context);
 550:Generated_Source\PSoC6\pdl\middleware\em_eeprom/cy_em_eeprom.c ****             tmpRowAddr = emEepromRowAddr;
 551:Generated_Source\PSoC6\pdl\middleware\em_eeprom/cy_em_eeprom.c **** 
 552:Generated_Source\PSoC6\pdl\middleware\em_eeprom/cy_em_eeprom.c ****             /* Check if redundant copy is used */
 553:Generated_Source\PSoC6\pdl\middleware\em_eeprom/cy_em_eeprom.c ****             if((0u != context->redundantCopy) && (CY_EM_EEPROM_SUCCESS == ret))
 554:Generated_Source\PSoC6\pdl\middleware\em_eeprom/cy_em_eeprom.c ****             {
 555:Generated_Source\PSoC6\pdl\middleware\em_eeprom/cy_em_eeprom.c ****                 /* Update the row address to point to the row in the redundant EEPROM's copy */
 556:Generated_Source\PSoC6\pdl\middleware\em_eeprom/cy_em_eeprom.c ****                 tmpRowAddr = (emEepromRowAddr - context->userFlashStartAddr) + context->wlEndAddr;
 557:Generated_Source\PSoC6\pdl\middleware\em_eeprom/cy_em_eeprom.c **** 
 558:Generated_Source\PSoC6\pdl\middleware\em_eeprom/cy_em_eeprom.c ****                 /* Write the data to the specified flash row */
 559:Generated_Source\PSoC6\pdl\middleware\em_eeprom/cy_em_eeprom.c ****                 ret = WriteRow(tmpRowAddr, writeRamBuffer, context);
 560:Generated_Source\PSoC6\pdl\middleware\em_eeprom/cy_em_eeprom.c ****             }
 561:Generated_Source\PSoC6\pdl\middleware\em_eeprom/cy_em_eeprom.c **** 
 562:Generated_Source\PSoC6\pdl\middleware\em_eeprom/cy_em_eeprom.c ****             if(CY_EM_EEPROM_SUCCESS == ret)
 563:Generated_Source\PSoC6\pdl\middleware\em_eeprom/cy_em_eeprom.c ****             {
 564:Generated_Source\PSoC6\pdl\middleware\em_eeprom/cy_em_eeprom.c ****                 /* Store last written row address only when EEPROM and redundant
 565:Generated_Source\PSoC6\pdl\middleware\em_eeprom/cy_em_eeprom.c ****                 * copy writes were successful.
 566:Generated_Source\PSoC6\pdl\middleware\em_eeprom/cy_em_eeprom.c ****                 */
 567:Generated_Source\PSoC6\pdl\middleware\em_eeprom/cy_em_eeprom.c ****                 context->lastWrRowAddr = emEepromRowAddr;
 568:Generated_Source\PSoC6\pdl\middleware\em_eeprom/cy_em_eeprom.c ****             }
 569:Generated_Source\PSoC6\pdl\middleware\em_eeprom/cy_em_eeprom.c ****             else
 570:Generated_Source\PSoC6\pdl\middleware\em_eeprom/cy_em_eeprom.c ****             {
 571:Generated_Source\PSoC6\pdl\middleware\em_eeprom/cy_em_eeprom.c ****                 break;
 572:Generated_Source\PSoC6\pdl\middleware\em_eeprom/cy_em_eeprom.c ****             }
 573:Generated_Source\PSoC6\pdl\middleware\em_eeprom/cy_em_eeprom.c ****         }
 574:Generated_Source\PSoC6\pdl\middleware\em_eeprom/cy_em_eeprom.c ****     }
 575:Generated_Source\PSoC6\pdl\middleware\em_eeprom/cy_em_eeprom.c ****     return(ret);
 576:Generated_Source\PSoC6\pdl\middleware\em_eeprom/cy_em_eeprom.c **** }
 577:Generated_Source\PSoC6\pdl\middleware\em_eeprom/cy_em_eeprom.c **** 
 578:Generated_Source\PSoC6\pdl\middleware\em_eeprom/cy_em_eeprom.c **** 
 579:Generated_Source\PSoC6\pdl\middleware\em_eeprom/cy_em_eeprom.c **** /*******************************************************************************
 580:Generated_Source\PSoC6\pdl\middleware\em_eeprom/cy_em_eeprom.c **** * Function Name: Cy_Em_EEPROM_Erase
 581:Generated_Source\PSoC6\pdl\middleware\em_eeprom/cy_em_eeprom.c **** ****************************************************************************//**
 582:Generated_Source\PSoC6\pdl\middleware\em_eeprom/cy_em_eeprom.c **** *
 583:Generated_Source\PSoC6\pdl\middleware\em_eeprom/cy_em_eeprom.c **** * This function erases the entire contents of the EEPROM. Erased values are all
 584:Generated_Source\PSoC6\pdl\middleware\em_eeprom/cy_em_eeprom.c **** * zeros. This is a blocking function and it does not return until the write
 585:Generated_Source\PSoC6\pdl\middleware\em_eeprom/cy_em_eeprom.c **** * operation is completed. The user firmware should not enter Hibernate mode until
 586:Generated_Source\PSoC6\pdl\middleware\em_eeprom/cy_em_eeprom.c **** * erase is completed. The erase operation is allowed in Sleep and Deep-Sleep modes.
 587:Generated_Source\PSoC6\pdl\middleware\em_eeprom/cy_em_eeprom.c **** * During the flash operation, the device should not be reset, including the
 588:Generated_Source\PSoC6\pdl\middleware\em_eeprom/cy_em_eeprom.c **** * XRES pin, a software reset, and watchdog reset sources. Also, low-voltage
 589:Generated_Source\PSoC6\pdl\middleware\em_eeprom/cy_em_eeprom.c **** * detect circuits should be configured to generate an interrupt instead of a
 590:Generated_Source\PSoC6\pdl\middleware\em_eeprom/cy_em_eeprom.c **** * reset. Otherwise, portions of flash may undergo unexpected changes.
 591:Generated_Source\PSoC6\pdl\middleware\em_eeprom/cy_em_eeprom.c **** *
 592:Generated_Source\PSoC6\pdl\middleware\em_eeprom/cy_em_eeprom.c **** * \param context
 593:Generated_Source\PSoC6\pdl\middleware\em_eeprom/cy_em_eeprom.c **** * The pointer to the EEPROM context structure \ref cy_stc_eeprom_context_t.
 594:Generated_Source\PSoC6\pdl\middleware\em_eeprom/cy_em_eeprom.c **** *
 595:Generated_Source\PSoC6\pdl\middleware\em_eeprom/cy_em_eeprom.c **** * \return
 596:Generated_Source\PSoC6\pdl\middleware\em_eeprom/cy_em_eeprom.c **** * This function returns \ref cy_en_em_eeprom_status_t.
 597:Generated_Source\PSoC6\pdl\middleware\em_eeprom/cy_em_eeprom.c **** *
 598:Generated_Source\PSoC6\pdl\middleware\em_eeprom/cy_em_eeprom.c **** * \note
 599:Generated_Source\PSoC6\pdl\middleware\em_eeprom/cy_em_eeprom.c **** * For all non PSoC 6 devices the erase operation is performed by clearing
 600:Generated_Source\PSoC6\pdl\middleware\em_eeprom/cy_em_eeprom.c **** * the EEPROM data using flash write. This affects the flash durability.
 601:Generated_Source\PSoC6\pdl\middleware\em_eeprom/cy_em_eeprom.c **** * So it is recommended to use this function in utmost case to prolongate
ARM GAS  C:\Users\eduar\AppData\Local\Temp\cctEoJXe.s 			page 12


 602:Generated_Source\PSoC6\pdl\middleware\em_eeprom/cy_em_eeprom.c **** * flash life.
 603:Generated_Source\PSoC6\pdl\middleware\em_eeprom/cy_em_eeprom.c **** *
 604:Generated_Source\PSoC6\pdl\middleware\em_eeprom/cy_em_eeprom.c **** * \note
 605:Generated_Source\PSoC6\pdl\middleware\em_eeprom/cy_em_eeprom.c **** * This function uses a buffer of the flash row size to perform erase
 606:Generated_Source\PSoC6\pdl\middleware\em_eeprom/cy_em_eeprom.c **** * operation. For the size of the row refer to the specific PSoC device
 607:Generated_Source\PSoC6\pdl\middleware\em_eeprom/cy_em_eeprom.c **** * datasheet.
 608:Generated_Source\PSoC6\pdl\middleware\em_eeprom/cy_em_eeprom.c **** *
 609:Generated_Source\PSoC6\pdl\middleware\em_eeprom/cy_em_eeprom.c **** * \sideeffect
 610:Generated_Source\PSoC6\pdl\middleware\em_eeprom/cy_em_eeprom.c **** * In case when blocking write option is used, if this function is called by
 611:Generated_Source\PSoC6\pdl\middleware\em_eeprom/cy_em_eeprom.c **** * the CM4 the user code on CM0P and the user code on CM4 are blocked until erase
 612:Generated_Source\PSoC6\pdl\middleware\em_eeprom/cy_em_eeprom.c **** * flash row operation is finished. If this function is called by the CM0P the
 613:Generated_Source\PSoC6\pdl\middleware\em_eeprom/cy_em_eeprom.c **** * user code on CM4 is not blocked and the user code on CM0P is blocked until
 614:Generated_Source\PSoC6\pdl\middleware\em_eeprom/cy_em_eeprom.c **** * erase flash row operation is finished. Plan your task allocation accordingly.
 615:Generated_Source\PSoC6\pdl\middleware\em_eeprom/cy_em_eeprom.c **** *
 616:Generated_Source\PSoC6\pdl\middleware\em_eeprom/cy_em_eeprom.c **** * \sideeffect
 617:Generated_Source\PSoC6\pdl\middleware\em_eeprom/cy_em_eeprom.c **** * In case if non-blocking write option is used and when user flash is used as
 618:Generated_Source\PSoC6\pdl\middleware\em_eeprom/cy_em_eeprom.c **** * an EEPROM storage care should be taken to prevent the read while write (RWW)
 619:Generated_Source\PSoC6\pdl\middleware\em_eeprom/cy_em_eeprom.c **** * exception. To prevent the RWW exception the user flash macro that includes
 620:Generated_Source\PSoC6\pdl\middleware\em_eeprom/cy_em_eeprom.c **** * the EEPROM storage should not be read while the EEPROM erase is not completed.
 621:Generated_Source\PSoC6\pdl\middleware\em_eeprom/cy_em_eeprom.c **** * The read also means the user code execution from the respective flash macro.
 622:Generated_Source\PSoC6\pdl\middleware\em_eeprom/cy_em_eeprom.c **** *
 623:Generated_Source\PSoC6\pdl\middleware\em_eeprom/cy_em_eeprom.c **** *******************************************************************************/
 624:Generated_Source\PSoC6\pdl\middleware\em_eeprom/cy_em_eeprom.c **** cy_en_em_eeprom_status_t Cy_Em_EEPROM_Erase(cy_stc_eeprom_context_t * context)
 625:Generated_Source\PSoC6\pdl\middleware\em_eeprom/cy_em_eeprom.c **** {
 626:Generated_Source\PSoC6\pdl\middleware\em_eeprom/cy_em_eeprom.c ****     uint32_t i;
 627:Generated_Source\PSoC6\pdl\middleware\em_eeprom/cy_em_eeprom.c ****     uint32_t seqNum;
 628:Generated_Source\PSoC6\pdl\middleware\em_eeprom/cy_em_eeprom.c ****     uint32_t emEepromRowAddr = context->lastWrRowAddr;
 629:Generated_Source\PSoC6\pdl\middleware\em_eeprom/cy_em_eeprom.c ****     uint32_t emEepromRowRdAddr;
 630:Generated_Source\PSoC6\pdl\middleware\em_eeprom/cy_em_eeprom.c ****     cy_en_em_eeprom_status_t ret = CY_EM_EEPROM_WRITE_FAIL;
 631:Generated_Source\PSoC6\pdl\middleware\em_eeprom/cy_em_eeprom.c ****     uint32_t writeRamBuffer[CY_EM_EEPROM_FLASH_SIZEOF_ROW / CY_EM_EEPROM_U32_DIV] = {0u};
 632:Generated_Source\PSoC6\pdl\middleware\em_eeprom/cy_em_eeprom.c ****     uint32_t emEepromStoredRowAddr = context->lastWrRowAddr;
 633:Generated_Source\PSoC6\pdl\middleware\em_eeprom/cy_em_eeprom.c ****     uint32_t storedSeqNum;
 634:Generated_Source\PSoC6\pdl\middleware\em_eeprom/cy_em_eeprom.c **** 
 635:Generated_Source\PSoC6\pdl\middleware\em_eeprom/cy_em_eeprom.c ****     /* Get the sequence number of the last written row */
 636:Generated_Source\PSoC6\pdl\middleware\em_eeprom/cy_em_eeprom.c ****     seqNum = CY_EM_EEPROM_GET_SEQ_NUM(emEepromRowAddr);
 637:Generated_Source\PSoC6\pdl\middleware\em_eeprom/cy_em_eeprom.c **** 
 638:Generated_Source\PSoC6\pdl\middleware\em_eeprom/cy_em_eeprom.c ****     /* If there were no writes to EEPROM - nothing to erase */
 639:Generated_Source\PSoC6\pdl\middleware\em_eeprom/cy_em_eeprom.c ****     if(0u != seqNum)
 640:Generated_Source\PSoC6\pdl\middleware\em_eeprom/cy_em_eeprom.c ****     {
 641:Generated_Source\PSoC6\pdl\middleware\em_eeprom/cy_em_eeprom.c ****         /* Calculate the number of row erase operations required */
 642:Generated_Source\PSoC6\pdl\middleware\em_eeprom/cy_em_eeprom.c ****         uint32_t numWrites = context->numberOfRows * context->wearLevelingFactor;
 643:Generated_Source\PSoC6\pdl\middleware\em_eeprom/cy_em_eeprom.c **** 
 644:Generated_Source\PSoC6\pdl\middleware\em_eeprom/cy_em_eeprom.c ****         GetNextRowToWrite(seqNum, &emEepromStoredRowAddr, &emEepromRowRdAddr, context);
 645:Generated_Source\PSoC6\pdl\middleware\em_eeprom/cy_em_eeprom.c ****         storedSeqNum = seqNum + 1u;
 646:Generated_Source\PSoC6\pdl\middleware\em_eeprom/cy_em_eeprom.c **** 
 647:Generated_Source\PSoC6\pdl\middleware\em_eeprom/cy_em_eeprom.c ****         if(0u != context->redundantCopy)
 648:Generated_Source\PSoC6\pdl\middleware\em_eeprom/cy_em_eeprom.c ****         {
 649:Generated_Source\PSoC6\pdl\middleware\em_eeprom/cy_em_eeprom.c ****             writeRamBuffer[CY_EM_EEPROM_HEADER_CHECKSUM_OFFSET_U32] = (uint32_t)
 650:Generated_Source\PSoC6\pdl\middleware\em_eeprom/cy_em_eeprom.c ****                         CalcChecksum((uint8_t *) &writeRamBuffer[CY_EM_EEPROM_EEPROM_DATA_OFFSET_U3
 651:Generated_Source\PSoC6\pdl\middleware\em_eeprom/cy_em_eeprom.c ****                                                   CY_EM_EEPROM_EEPROM_DATA_LEN);
 652:Generated_Source\PSoC6\pdl\middleware\em_eeprom/cy_em_eeprom.c ****         }
 653:Generated_Source\PSoC6\pdl\middleware\em_eeprom/cy_em_eeprom.c **** 
 654:Generated_Source\PSoC6\pdl\middleware\em_eeprom/cy_em_eeprom.c ****         for(i = 0u; i < numWrites; i++)
 655:Generated_Source\PSoC6\pdl\middleware\em_eeprom/cy_em_eeprom.c ****         {
 656:Generated_Source\PSoC6\pdl\middleware\em_eeprom/cy_em_eeprom.c ****             /* For PSoC 6 the erase operation moves backwards. From last written row
 657:Generated_Source\PSoC6\pdl\middleware\em_eeprom/cy_em_eeprom.c ****             * identified by "seqNum" down to "seqNum" - "numWrites". If "emEepromRowAddr"
 658:Generated_Source\PSoC6\pdl\middleware\em_eeprom/cy_em_eeprom.c ****             * is zero this means that the row identified by "seqNum" was previously 
ARM GAS  C:\Users\eduar\AppData\Local\Temp\cctEoJXe.s 			page 13


 659:Generated_Source\PSoC6\pdl\middleware\em_eeprom/cy_em_eeprom.c ****             * erased.
 660:Generated_Source\PSoC6\pdl\middleware\em_eeprom/cy_em_eeprom.c ****             */
 661:Generated_Source\PSoC6\pdl\middleware\em_eeprom/cy_em_eeprom.c ****             if(0u != emEepromRowAddr)
 662:Generated_Source\PSoC6\pdl\middleware\em_eeprom/cy_em_eeprom.c ****             {
 663:Generated_Source\PSoC6\pdl\middleware\em_eeprom/cy_em_eeprom.c ****                 ret = EraseRow(emEepromRowAddr, (uint32_t)writeRamBuffer, context);
 664:Generated_Source\PSoC6\pdl\middleware\em_eeprom/cy_em_eeprom.c ****             }
 665:Generated_Source\PSoC6\pdl\middleware\em_eeprom/cy_em_eeprom.c **** 
 666:Generated_Source\PSoC6\pdl\middleware\em_eeprom/cy_em_eeprom.c ****             seqNum--;
 667:Generated_Source\PSoC6\pdl\middleware\em_eeprom/cy_em_eeprom.c **** 
 668:Generated_Source\PSoC6\pdl\middleware\em_eeprom/cy_em_eeprom.c ****             if(0u == seqNum)
 669:Generated_Source\PSoC6\pdl\middleware\em_eeprom/cy_em_eeprom.c ****             {
 670:Generated_Source\PSoC6\pdl\middleware\em_eeprom/cy_em_eeprom.c ****                 /* Exit the loop as there is no more row is EEPROM to be erased */
 671:Generated_Source\PSoC6\pdl\middleware\em_eeprom/cy_em_eeprom.c ****                 break;
 672:Generated_Source\PSoC6\pdl\middleware\em_eeprom/cy_em_eeprom.c ****             }
 673:Generated_Source\PSoC6\pdl\middleware\em_eeprom/cy_em_eeprom.c ****             emEepromRowAddr = GetRowAddrBySeqNum(seqNum, context);
 674:Generated_Source\PSoC6\pdl\middleware\em_eeprom/cy_em_eeprom.c ****         }
 675:Generated_Source\PSoC6\pdl\middleware\em_eeprom/cy_em_eeprom.c **** 
 676:Generated_Source\PSoC6\pdl\middleware\em_eeprom/cy_em_eeprom.c ****         if(CY_EM_EEPROM_SUCCESS == ret)
 677:Generated_Source\PSoC6\pdl\middleware\em_eeprom/cy_em_eeprom.c ****         {
 678:Generated_Source\PSoC6\pdl\middleware\em_eeprom/cy_em_eeprom.c ****             writeRamBuffer[0u] = storedSeqNum;
 679:Generated_Source\PSoC6\pdl\middleware\em_eeprom/cy_em_eeprom.c **** 
 680:Generated_Source\PSoC6\pdl\middleware\em_eeprom/cy_em_eeprom.c ****             /* Write the previously stored sequence number to the flash row which would be
 681:Generated_Source\PSoC6\pdl\middleware\em_eeprom/cy_em_eeprom.c ****             * written next if the erase wouldn't happen. In this case the write to
 682:Generated_Source\PSoC6\pdl\middleware\em_eeprom/cy_em_eeprom.c ****             * redundant copy can be skipped as it does not add any value.
 683:Generated_Source\PSoC6\pdl\middleware\em_eeprom/cy_em_eeprom.c ****             */
 684:Generated_Source\PSoC6\pdl\middleware\em_eeprom/cy_em_eeprom.c ****             ret = WriteRow(emEepromStoredRowAddr, writeRamBuffer, context);
 685:Generated_Source\PSoC6\pdl\middleware\em_eeprom/cy_em_eeprom.c **** 
 686:Generated_Source\PSoC6\pdl\middleware\em_eeprom/cy_em_eeprom.c ****             if(CY_EM_EEPROM_SUCCESS == ret)
 687:Generated_Source\PSoC6\pdl\middleware\em_eeprom/cy_em_eeprom.c ****             {
 688:Generated_Source\PSoC6\pdl\middleware\em_eeprom/cy_em_eeprom.c ****                 context->lastWrRowAddr = emEepromStoredRowAddr;
 689:Generated_Source\PSoC6\pdl\middleware\em_eeprom/cy_em_eeprom.c ****             }
 690:Generated_Source\PSoC6\pdl\middleware\em_eeprom/cy_em_eeprom.c ****         }
 691:Generated_Source\PSoC6\pdl\middleware\em_eeprom/cy_em_eeprom.c **** 
 692:Generated_Source\PSoC6\pdl\middleware\em_eeprom/cy_em_eeprom.c ****     }
 693:Generated_Source\PSoC6\pdl\middleware\em_eeprom/cy_em_eeprom.c ****     return(ret);
 694:Generated_Source\PSoC6\pdl\middleware\em_eeprom/cy_em_eeprom.c **** }
 695:Generated_Source\PSoC6\pdl\middleware\em_eeprom/cy_em_eeprom.c **** 
 696:Generated_Source\PSoC6\pdl\middleware\em_eeprom/cy_em_eeprom.c **** 
 697:Generated_Source\PSoC6\pdl\middleware\em_eeprom/cy_em_eeprom.c **** /*******************************************************************************
 698:Generated_Source\PSoC6\pdl\middleware\em_eeprom/cy_em_eeprom.c **** * Function Name: Cy_Em_EEPROM_NumWrites
 699:Generated_Source\PSoC6\pdl\middleware\em_eeprom/cy_em_eeprom.c **** ****************************************************************************//**
 700:Generated_Source\PSoC6\pdl\middleware\em_eeprom/cy_em_eeprom.c **** *
 701:Generated_Source\PSoC6\pdl\middleware\em_eeprom/cy_em_eeprom.c **** * Returns the number of the EEPROM writes completed so far.
 702:Generated_Source\PSoC6\pdl\middleware\em_eeprom/cy_em_eeprom.c **** *
 703:Generated_Source\PSoC6\pdl\middleware\em_eeprom/cy_em_eeprom.c **** * \param context
 704:Generated_Source\PSoC6\pdl\middleware\em_eeprom/cy_em_eeprom.c **** * The pointer to the EEPROM context structure \ref cy_stc_eeprom_context_t.
 705:Generated_Source\PSoC6\pdl\middleware\em_eeprom/cy_em_eeprom.c **** *
 706:Generated_Source\PSoC6\pdl\middleware\em_eeprom/cy_em_eeprom.c **** * \return
 707:Generated_Source\PSoC6\pdl\middleware\em_eeprom/cy_em_eeprom.c **** * The number of writes performed to the EEPROM.
 708:Generated_Source\PSoC6\pdl\middleware\em_eeprom/cy_em_eeprom.c **** *
 709:Generated_Source\PSoC6\pdl\middleware\em_eeprom/cy_em_eeprom.c **** *******************************************************************************/
 710:Generated_Source\PSoC6\pdl\middleware\em_eeprom/cy_em_eeprom.c **** uint32_t Cy_Em_EEPROM_NumWrites(cy_stc_eeprom_context_t * context)
 711:Generated_Source\PSoC6\pdl\middleware\em_eeprom/cy_em_eeprom.c **** {
 712:Generated_Source\PSoC6\pdl\middleware\em_eeprom/cy_em_eeprom.c ****     return(CY_EM_EEPROM_GET_SEQ_NUM(context->lastWrRowAddr));
 713:Generated_Source\PSoC6\pdl\middleware\em_eeprom/cy_em_eeprom.c **** }
 714:Generated_Source\PSoC6\pdl\middleware\em_eeprom/cy_em_eeprom.c **** 
 715:Generated_Source\PSoC6\pdl\middleware\em_eeprom/cy_em_eeprom.c **** /** \} */
ARM GAS  C:\Users\eduar\AppData\Local\Temp\cctEoJXe.s 			page 14


 716:Generated_Source\PSoC6\pdl\middleware\em_eeprom/cy_em_eeprom.c **** 
 717:Generated_Source\PSoC6\pdl\middleware\em_eeprom/cy_em_eeprom.c **** /** \cond INTERNAL */
 718:Generated_Source\PSoC6\pdl\middleware\em_eeprom/cy_em_eeprom.c **** 
 719:Generated_Source\PSoC6\pdl\middleware\em_eeprom/cy_em_eeprom.c **** 
 720:Generated_Source\PSoC6\pdl\middleware\em_eeprom/cy_em_eeprom.c **** /*******************************************************************************
 721:Generated_Source\PSoC6\pdl\middleware\em_eeprom/cy_em_eeprom.c **** * Function Name: FindLastWrittenRow
 722:Generated_Source\PSoC6\pdl\middleware\em_eeprom/cy_em_eeprom.c **** ****************************************************************************//**
 723:Generated_Source\PSoC6\pdl\middleware\em_eeprom/cy_em_eeprom.c **** *
 724:Generated_Source\PSoC6\pdl\middleware\em_eeprom/cy_em_eeprom.c **** * Performs a search of the last written row address of the EEPROM associated
 725:Generated_Source\PSoC6\pdl\middleware\em_eeprom/cy_em_eeprom.c **** * with the context structure. If there were no writes to the EEPROM the
 726:Generated_Source\PSoC6\pdl\middleware\em_eeprom/cy_em_eeprom.c **** * function returns the start address of the EEPROM. The row address is returned
 727:Generated_Source\PSoC6\pdl\middleware\em_eeprom/cy_em_eeprom.c **** * in the input parameter.
 728:Generated_Source\PSoC6\pdl\middleware\em_eeprom/cy_em_eeprom.c **** *
 729:Generated_Source\PSoC6\pdl\middleware\em_eeprom/cy_em_eeprom.c **** * \param lastWrRowPtr
 730:Generated_Source\PSoC6\pdl\middleware\em_eeprom/cy_em_eeprom.c **** * The pointer to a memory where the last written row will be returned.
 731:Generated_Source\PSoC6\pdl\middleware\em_eeprom/cy_em_eeprom.c **** *
 732:Generated_Source\PSoC6\pdl\middleware\em_eeprom/cy_em_eeprom.c **** * \param context
 733:Generated_Source\PSoC6\pdl\middleware\em_eeprom/cy_em_eeprom.c **** * The pointer to the EEPROM context structure \ref cy_stc_eeprom_context_t.
 734:Generated_Source\PSoC6\pdl\middleware\em_eeprom/cy_em_eeprom.c **** *
 735:Generated_Source\PSoC6\pdl\middleware\em_eeprom/cy_em_eeprom.c **** *******************************************************************************/
 736:Generated_Source\PSoC6\pdl\middleware\em_eeprom/cy_em_eeprom.c **** static void FindLastWrittenRow(uint32_t * lastWrRowPtr, cy_stc_eeprom_context_t * context)
 737:Generated_Source\PSoC6\pdl\middleware\em_eeprom/cy_em_eeprom.c **** {
  27              		.loc 1 737 0
  28              		.cfi_startproc
  29              		@ args = 0, pretend = 0, frame = 0
  30              		@ frame_needed = 0, uses_anonymous_args = 0
  31              	.LVL0:
  32 0000 70B5     		push	{r4, r5, r6, lr}
  33              		.cfi_def_cfa_offset 16
  34              		.cfi_offset 4, -16
  35              		.cfi_offset 5, -12
  36              		.cfi_offset 6, -8
  37              		.cfi_offset 14, -4
  38              	.LVL1:
 738:Generated_Source\PSoC6\pdl\middleware\em_eeprom/cy_em_eeprom.c ****     uint32_t seqNum = 0u;
 739:Generated_Source\PSoC6\pdl\middleware\em_eeprom/cy_em_eeprom.c ****     uint32_t prevSeqNum = 0u;
 740:Generated_Source\PSoC6\pdl\middleware\em_eeprom/cy_em_eeprom.c ****     uint32_t numRows;
 741:Generated_Source\PSoC6\pdl\middleware\em_eeprom/cy_em_eeprom.c ****     uint32_t emEepromAddr = context->userFlashStartAddr;
  39              		.loc 1 741 0
  40 0002 8A69     		ldr	r2, [r1, #24]
  41              	.LVL2:
 742:Generated_Source\PSoC6\pdl\middleware\em_eeprom/cy_em_eeprom.c **** 
 743:Generated_Source\PSoC6\pdl\middleware\em_eeprom/cy_em_eeprom.c ****     *lastWrRowPtr = emEepromAddr;
  42              		.loc 1 743 0
  43 0004 0260     		str	r2, [r0]
  44              	.LVL3:
 744:Generated_Source\PSoC6\pdl\middleware\em_eeprom/cy_em_eeprom.c **** 
 745:Generated_Source\PSoC6\pdl\middleware\em_eeprom/cy_em_eeprom.c ****     for(numRows = 0u; numRows < (context->numberOfRows * context->wearLevelingFactor); numRows++)
  45              		.loc 1 745 0
  46 0006 0024     		movs	r4, #0
 739:Generated_Source\PSoC6\pdl\middleware\em_eeprom/cy_em_eeprom.c ****     uint32_t numRows;
  47              		.loc 1 739 0
  48 0008 0025     		movs	r5, #0
  49              		.loc 1 745 0
  50 000a 0BE0     		b	.L2
  51              	.LVL4:
  52              	.L4:
ARM GAS  C:\Users\eduar\AppData\Local\Temp\cctEoJXe.s 			page 15


 746:Generated_Source\PSoC6\pdl\middleware\em_eeprom/cy_em_eeprom.c ****     {
 747:Generated_Source\PSoC6\pdl\middleware\em_eeprom/cy_em_eeprom.c ****         seqNum = CY_EM_EEPROM_GET_SEQ_NUM(emEepromAddr);
  53              		.loc 1 747 0
  54 000c 1368     		ldr	r3, [r2]
  55              	.LVL5:
 748:Generated_Source\PSoC6\pdl\middleware\em_eeprom/cy_em_eeprom.c ****         if((0u != seqNum) && (seqNum > prevSeqNum))
  56              		.loc 1 748 0
  57 000e 002B     		cmp	r3, #0
  58 0010 03D0     		beq	.L3
  59              		.loc 1 748 0 is_stmt 0 discriminator 1
  60 0012 9D42     		cmp	r5, r3
  61 0014 01D2     		bcs	.L3
  62              	.LVL6:
 749:Generated_Source\PSoC6\pdl\middleware\em_eeprom/cy_em_eeprom.c ****         {
 750:Generated_Source\PSoC6\pdl\middleware\em_eeprom/cy_em_eeprom.c ****             /* Some record in EEPROM was found. Store found sequence
 751:Generated_Source\PSoC6\pdl\middleware\em_eeprom/cy_em_eeprom.c ****             * number and row address.
 752:Generated_Source\PSoC6\pdl\middleware\em_eeprom/cy_em_eeprom.c ****             */
 753:Generated_Source\PSoC6\pdl\middleware\em_eeprom/cy_em_eeprom.c ****             prevSeqNum = seqNum;
 754:Generated_Source\PSoC6\pdl\middleware\em_eeprom/cy_em_eeprom.c ****             *lastWrRowPtr = emEepromAddr;
  63              		.loc 1 754 0 is_stmt 1
  64 0016 0260     		str	r2, [r0]
 753:Generated_Source\PSoC6\pdl\middleware\em_eeprom/cy_em_eeprom.c ****             *lastWrRowPtr = emEepromAddr;
  65              		.loc 1 753 0
  66 0018 1D00     		movs	r5, r3
  67              	.LVL7:
  68              	.L3:
 755:Generated_Source\PSoC6\pdl\middleware\em_eeprom/cy_em_eeprom.c ****         }
 756:Generated_Source\PSoC6\pdl\middleware\em_eeprom/cy_em_eeprom.c **** 
 757:Generated_Source\PSoC6\pdl\middleware\em_eeprom/cy_em_eeprom.c ****         /* Switch to the next row */
 758:Generated_Source\PSoC6\pdl\middleware\em_eeprom/cy_em_eeprom.c ****         emEepromAddr = emEepromAddr + CY_EM_EEPROM_FLASH_SIZEOF_ROW;
  69              		.loc 1 758 0 discriminator 2
  70 001a 8023     		movs	r3, #128
  71              	.LVL8:
  72 001c 9B00     		lsls	r3, r3, #2
  73 001e 9C46     		mov	ip, r3
  74 0020 6244     		add	r2, r2, ip
  75              	.LVL9:
 745:Generated_Source\PSoC6\pdl\middleware\em_eeprom/cy_em_eeprom.c ****     {
  76              		.loc 1 745 0 discriminator 2
  77 0022 0134     		adds	r4, r4, #1
  78              	.LVL10:
  79              	.L2:
 745:Generated_Source\PSoC6\pdl\middleware\em_eeprom/cy_em_eeprom.c ****     {
  80              		.loc 1 745 0 is_stmt 0 discriminator 1
  81 0024 0B69     		ldr	r3, [r1, #16]
  82 0026 4E68     		ldr	r6, [r1, #4]
  83 0028 7343     		muls	r3, r6
  84 002a 9C42     		cmp	r4, r3
  85 002c EED3     		bcc	.L4
 759:Generated_Source\PSoC6\pdl\middleware\em_eeprom/cy_em_eeprom.c ****     }
 760:Generated_Source\PSoC6\pdl\middleware\em_eeprom/cy_em_eeprom.c **** }
  86              		.loc 1 760 0 is_stmt 1
  87              		@ sp needed
  88              	.LVL11:
  89              	.LVL12:
  90 002e 70BD     		pop	{r4, r5, r6, pc}
  91              		.cfi_endproc
ARM GAS  C:\Users\eduar\AppData\Local\Temp\cctEoJXe.s 			page 16


  92              	.LFE50:
  93              		.size	FindLastWrittenRow, .-FindLastWrittenRow
  94              		.section	.text.GetRowAddrBySeqNum,"ax",%progbits
  95              		.align	2
  96              		.code	16
  97              		.thumb_func
  98              		.type	GetRowAddrBySeqNum, %function
  99              	GetRowAddrBySeqNum:
 100              	.LFB51:
 761:Generated_Source\PSoC6\pdl\middleware\em_eeprom/cy_em_eeprom.c **** 
 762:Generated_Source\PSoC6\pdl\middleware\em_eeprom/cy_em_eeprom.c **** 
 763:Generated_Source\PSoC6\pdl\middleware\em_eeprom/cy_em_eeprom.c **** /*******************************************************************************
 764:Generated_Source\PSoC6\pdl\middleware\em_eeprom/cy_em_eeprom.c **** * Function Name: GetRowAddrBySeqNum
 765:Generated_Source\PSoC6\pdl\middleware\em_eeprom/cy_em_eeprom.c **** ****************************************************************************//**
 766:Generated_Source\PSoC6\pdl\middleware\em_eeprom/cy_em_eeprom.c **** *
 767:Generated_Source\PSoC6\pdl\middleware\em_eeprom/cy_em_eeprom.c **** * Returns the address of the row in EEPROM using its sequence number.
 768:Generated_Source\PSoC6\pdl\middleware\em_eeprom/cy_em_eeprom.c **** *
 769:Generated_Source\PSoC6\pdl\middleware\em_eeprom/cy_em_eeprom.c **** * \param seqNum
 770:Generated_Source\PSoC6\pdl\middleware\em_eeprom/cy_em_eeprom.c **** * The sequence number of the row.
 771:Generated_Source\PSoC6\pdl\middleware\em_eeprom/cy_em_eeprom.c **** *
 772:Generated_Source\PSoC6\pdl\middleware\em_eeprom/cy_em_eeprom.c **** * \param context
 773:Generated_Source\PSoC6\pdl\middleware\em_eeprom/cy_em_eeprom.c **** * The pointer to the EEPROM context structure.
 774:Generated_Source\PSoC6\pdl\middleware\em_eeprom/cy_em_eeprom.c **** *
 775:Generated_Source\PSoC6\pdl\middleware\em_eeprom/cy_em_eeprom.c **** * \return
 776:Generated_Source\PSoC6\pdl\middleware\em_eeprom/cy_em_eeprom.c **** * The address of the row or zero if the row with the sequence number was not
 777:Generated_Source\PSoC6\pdl\middleware\em_eeprom/cy_em_eeprom.c **** * found.
 778:Generated_Source\PSoC6\pdl\middleware\em_eeprom/cy_em_eeprom.c **** *
 779:Generated_Source\PSoC6\pdl\middleware\em_eeprom/cy_em_eeprom.c **** *******************************************************************************/
 780:Generated_Source\PSoC6\pdl\middleware\em_eeprom/cy_em_eeprom.c **** static uint32_t GetRowAddrBySeqNum(uint32_t seqNum, cy_stc_eeprom_context_t * context)
 781:Generated_Source\PSoC6\pdl\middleware\em_eeprom/cy_em_eeprom.c **** {
 101              		.loc 1 781 0
 102              		.cfi_startproc
 103              		@ args = 0, pretend = 0, frame = 0
 104              		@ frame_needed = 0, uses_anonymous_args = 0
 105              		@ link register save eliminated.
 106              	.LVL13:
 782:Generated_Source\PSoC6\pdl\middleware\em_eeprom/cy_em_eeprom.c ****     uint32_t emEepromAddr = context->userFlashStartAddr;
 107              		.loc 1 782 0
 108 0000 8B69     		ldr	r3, [r1, #24]
 109              	.LVL14:
 783:Generated_Source\PSoC6\pdl\middleware\em_eeprom/cy_em_eeprom.c **** 
 784:Generated_Source\PSoC6\pdl\middleware\em_eeprom/cy_em_eeprom.c ****     while(CY_EM_EEPROM_GET_SEQ_NUM(emEepromAddr) != seqNum)
 110              		.loc 1 784 0
 111 0002 06E0     		b	.L6
 112              	.L8:
 785:Generated_Source\PSoC6\pdl\middleware\em_eeprom/cy_em_eeprom.c ****     {
 786:Generated_Source\PSoC6\pdl\middleware\em_eeprom/cy_em_eeprom.c ****         /* Switch to the next row */
 787:Generated_Source\PSoC6\pdl\middleware\em_eeprom/cy_em_eeprom.c ****         emEepromAddr = emEepromAddr + CY_EM_EEPROM_FLASH_SIZEOF_ROW;
 113              		.loc 1 787 0
 114 0004 8022     		movs	r2, #128
 115 0006 9200     		lsls	r2, r2, #2
 116 0008 9446     		mov	ip, r2
 117 000a 6344     		add	r3, r3, ip
 118              	.LVL15:
 788:Generated_Source\PSoC6\pdl\middleware\em_eeprom/cy_em_eeprom.c **** 
 789:Generated_Source\PSoC6\pdl\middleware\em_eeprom/cy_em_eeprom.c ****         if (CY_EM_EEPROM_ADDR_IN_RANGE !=
 119              		.loc 1 789 0
ARM GAS  C:\Users\eduar\AppData\Local\Temp\cctEoJXe.s 			page 17


 120 000c 0A68     		ldr	r2, [r1]
 121 000e 9342     		cmp	r3, r2
 122 0010 03D2     		bcs	.L9
 123              	.L6:
 784:Generated_Source\PSoC6\pdl\middleware\em_eeprom/cy_em_eeprom.c ****     {
 124              		.loc 1 784 0
 125 0012 1A68     		ldr	r2, [r3]
 126 0014 8242     		cmp	r2, r0
 127 0016 F5D1     		bne	.L8
 128 0018 00E0     		b	.L7
 129              	.L9:
 790:Generated_Source\PSoC6\pdl\middleware\em_eeprom/cy_em_eeprom.c ****             CY_EM_EEPROM_IS_ADDR_EXCEED_RANGE(emEepromAddr, context->wlEndAddr))
 791:Generated_Source\PSoC6\pdl\middleware\em_eeprom/cy_em_eeprom.c ****         {
 792:Generated_Source\PSoC6\pdl\middleware\em_eeprom/cy_em_eeprom.c ****             emEepromAddr = 0u;
 130              		.loc 1 792 0
 131 001a 0023     		movs	r3, #0
 132              	.LVL16:
 133              	.L7:
 793:Generated_Source\PSoC6\pdl\middleware\em_eeprom/cy_em_eeprom.c ****             /* Exit the loop as we reached the end of EEPROM */
 794:Generated_Source\PSoC6\pdl\middleware\em_eeprom/cy_em_eeprom.c ****             break;
 795:Generated_Source\PSoC6\pdl\middleware\em_eeprom/cy_em_eeprom.c ****         }
 796:Generated_Source\PSoC6\pdl\middleware\em_eeprom/cy_em_eeprom.c ****     }
 797:Generated_Source\PSoC6\pdl\middleware\em_eeprom/cy_em_eeprom.c **** 
 798:Generated_Source\PSoC6\pdl\middleware\em_eeprom/cy_em_eeprom.c ****     return (emEepromAddr);
 799:Generated_Source\PSoC6\pdl\middleware\em_eeprom/cy_em_eeprom.c **** }
 134              		.loc 1 799 0
 135 001c 1800     		movs	r0, r3
 136              	.LVL17:
 137              		@ sp needed
 138 001e 7047     		bx	lr
 139              		.cfi_endproc
 140              	.LFE51:
 141              		.size	GetRowAddrBySeqNum, .-GetRowAddrBySeqNum
 142              		.section	.text.GetNextRowToWrite,"ax",%progbits
 143              		.align	2
 144              		.code	16
 145              		.thumb_func
 146              		.type	GetNextRowToWrite, %function
 147              	GetNextRowToWrite:
 148              	.LFB52:
 800:Generated_Source\PSoC6\pdl\middleware\em_eeprom/cy_em_eeprom.c **** 
 801:Generated_Source\PSoC6\pdl\middleware\em_eeprom/cy_em_eeprom.c **** 
 802:Generated_Source\PSoC6\pdl\middleware\em_eeprom/cy_em_eeprom.c **** /*******************************************************************************
 803:Generated_Source\PSoC6\pdl\middleware\em_eeprom/cy_em_eeprom.c **** * Function Name: GetNextRowToWrite
 804:Generated_Source\PSoC6\pdl\middleware\em_eeprom/cy_em_eeprom.c **** ****************************************************************************//**
 805:Generated_Source\PSoC6\pdl\middleware\em_eeprom/cy_em_eeprom.c **** *
 806:Generated_Source\PSoC6\pdl\middleware\em_eeprom/cy_em_eeprom.c **** * Performs a range check of the row that should be written and updates the
 807:Generated_Source\PSoC6\pdl\middleware\em_eeprom/cy_em_eeprom.c **** * address to the row respectively. The similar actions are done for the read
 808:Generated_Source\PSoC6\pdl\middleware\em_eeprom/cy_em_eeprom.c **** * address.
 809:Generated_Source\PSoC6\pdl\middleware\em_eeprom/cy_em_eeprom.c **** *
 810:Generated_Source\PSoC6\pdl\middleware\em_eeprom/cy_em_eeprom.c **** * \param seqNum
 811:Generated_Source\PSoC6\pdl\middleware\em_eeprom/cy_em_eeprom.c **** * The sequence number of the last written row.
 812:Generated_Source\PSoC6\pdl\middleware\em_eeprom/cy_em_eeprom.c **** *
 813:Generated_Source\PSoC6\pdl\middleware\em_eeprom/cy_em_eeprom.c **** * \param rowToWrPtr
 814:Generated_Source\PSoC6\pdl\middleware\em_eeprom/cy_em_eeprom.c **** * The address of the last written row (input). The address of the row to be 
 815:Generated_Source\PSoC6\pdl\middleware\em_eeprom/cy_em_eeprom.c **** * written (output).
 816:Generated_Source\PSoC6\pdl\middleware\em_eeprom/cy_em_eeprom.c **** *
ARM GAS  C:\Users\eduar\AppData\Local\Temp\cctEoJXe.s 			page 18


 817:Generated_Source\PSoC6\pdl\middleware\em_eeprom/cy_em_eeprom.c **** * \param rowToRdPtr
 818:Generated_Source\PSoC6\pdl\middleware\em_eeprom/cy_em_eeprom.c **** * The address of the row from which the data should be read into the RAM buffer
 819:Generated_Source\PSoC6\pdl\middleware\em_eeprom/cy_em_eeprom.c **** * in a later write operation. Out parameter.
 820:Generated_Source\PSoC6\pdl\middleware\em_eeprom/cy_em_eeprom.c **** *
 821:Generated_Source\PSoC6\pdl\middleware\em_eeprom/cy_em_eeprom.c **** * \param context
 822:Generated_Source\PSoC6\pdl\middleware\em_eeprom/cy_em_eeprom.c **** * The pointer to the EEPROM context structure \ref cy_stc_eeprom_context_t.
 823:Generated_Source\PSoC6\pdl\middleware\em_eeprom/cy_em_eeprom.c **** *
 824:Generated_Source\PSoC6\pdl\middleware\em_eeprom/cy_em_eeprom.c **** *******************************************************************************/
 825:Generated_Source\PSoC6\pdl\middleware\em_eeprom/cy_em_eeprom.c **** static void GetNextRowToWrite(uint32_t seqNum,
 826:Generated_Source\PSoC6\pdl\middleware\em_eeprom/cy_em_eeprom.c ****                             uint32_t * rowToWrPtr,
 827:Generated_Source\PSoC6\pdl\middleware\em_eeprom/cy_em_eeprom.c ****                             uint32_t * rowToRdPtr,
 828:Generated_Source\PSoC6\pdl\middleware\em_eeprom/cy_em_eeprom.c ****                             cy_stc_eeprom_context_t * context)
 829:Generated_Source\PSoC6\pdl\middleware\em_eeprom/cy_em_eeprom.c **** {
 149              		.loc 1 829 0
 150              		.cfi_startproc
 151              		@ args = 0, pretend = 0, frame = 0
 152              		@ frame_needed = 0, uses_anonymous_args = 0
 153              	.LVL18:
 154 0000 30B5     		push	{r4, r5, lr}
 155              		.cfi_def_cfa_offset 12
 156              		.cfi_offset 4, -12
 157              		.cfi_offset 5, -8
 158              		.cfi_offset 14, -4
 830:Generated_Source\PSoC6\pdl\middleware\em_eeprom/cy_em_eeprom.c ****     /* Switch to the next row to be written if the current sequence number is
 831:Generated_Source\PSoC6\pdl\middleware\em_eeprom/cy_em_eeprom.c ****     * not zero.
 832:Generated_Source\PSoC6\pdl\middleware\em_eeprom/cy_em_eeprom.c ****     */
 833:Generated_Source\PSoC6\pdl\middleware\em_eeprom/cy_em_eeprom.c ****     if(0u != seqNum)
 159              		.loc 1 833 0
 160 0002 0028     		cmp	r0, #0
 161 0004 05D0     		beq	.L11
 834:Generated_Source\PSoC6\pdl\middleware\em_eeprom/cy_em_eeprom.c ****     {
 835:Generated_Source\PSoC6\pdl\middleware\em_eeprom/cy_em_eeprom.c ****         *rowToWrPtr = (*rowToWrPtr + CY_EM_EEPROM_FLASH_SIZEOF_ROW);
 162              		.loc 1 835 0
 163 0006 0C68     		ldr	r4, [r1]
 164 0008 8025     		movs	r5, #128
 165 000a AD00     		lsls	r5, r5, #2
 166 000c AC46     		mov	ip, r5
 167 000e 6444     		add	r4, r4, ip
 168 0010 0C60     		str	r4, [r1]
 169              	.L11:
 836:Generated_Source\PSoC6\pdl\middleware\em_eeprom/cy_em_eeprom.c ****     }
 837:Generated_Source\PSoC6\pdl\middleware\em_eeprom/cy_em_eeprom.c **** 
 838:Generated_Source\PSoC6\pdl\middleware\em_eeprom/cy_em_eeprom.c ****     /* If the resulting row address is out of EEPROM, then switch to the base
 839:Generated_Source\PSoC6\pdl\middleware\em_eeprom/cy_em_eeprom.c ****     * EEPROM address (Row#0).
 840:Generated_Source\PSoC6\pdl\middleware\em_eeprom/cy_em_eeprom.c ****     */
 841:Generated_Source\PSoC6\pdl\middleware\em_eeprom/cy_em_eeprom.c ****     if(CY_EM_EEPROM_ADDR_IN_RANGE !=
 170              		.loc 1 841 0
 171 0012 0C68     		ldr	r4, [r1]
 172 0014 1D68     		ldr	r5, [r3]
 173 0016 AC42     		cmp	r4, r5
 174 0018 01D3     		bcc	.L12
 842:Generated_Source\PSoC6\pdl\middleware\em_eeprom/cy_em_eeprom.c ****             CY_EM_EEPROM_IS_ADDR_EXCEED_RANGE(*rowToWrPtr, context->wlEndAddr))
 843:Generated_Source\PSoC6\pdl\middleware\em_eeprom/cy_em_eeprom.c ****     {
 844:Generated_Source\PSoC6\pdl\middleware\em_eeprom/cy_em_eeprom.c ****         *rowToWrPtr = context->userFlashStartAddr;
 175              		.loc 1 844 0
 176 001a 9C69     		ldr	r4, [r3, #24]
 177 001c 0C60     		str	r4, [r1]
ARM GAS  C:\Users\eduar\AppData\Local\Temp\cctEoJXe.s 			page 19


 178              	.L12:
 845:Generated_Source\PSoC6\pdl\middleware\em_eeprom/cy_em_eeprom.c ****     }
 846:Generated_Source\PSoC6\pdl\middleware\em_eeprom/cy_em_eeprom.c **** 
 847:Generated_Source\PSoC6\pdl\middleware\em_eeprom/cy_em_eeprom.c ****     *rowToRdPtr = 0u;
 179              		.loc 1 847 0
 180 001e 0024     		movs	r4, #0
 181 0020 1460     		str	r4, [r2]
 848:Generated_Source\PSoC6\pdl\middleware\em_eeprom/cy_em_eeprom.c **** 
 849:Generated_Source\PSoC6\pdl\middleware\em_eeprom/cy_em_eeprom.c ****     /* Check if the sequence number is larger than the number of rows in the EEPROM.
 850:Generated_Source\PSoC6\pdl\middleware\em_eeprom/cy_em_eeprom.c ****     * If not, do not update the row read address because there is no historic
 851:Generated_Source\PSoC6\pdl\middleware\em_eeprom/cy_em_eeprom.c ****     * data to be read.
 852:Generated_Source\PSoC6\pdl\middleware\em_eeprom/cy_em_eeprom.c ****     */
 853:Generated_Source\PSoC6\pdl\middleware\em_eeprom/cy_em_eeprom.c ****     if(context->numberOfRows <= seqNum)
 182              		.loc 1 853 0
 183 0022 5C68     		ldr	r4, [r3, #4]
 184 0024 A042     		cmp	r0, r4
 185 0026 16D3     		bcc	.L10
 854:Generated_Source\PSoC6\pdl\middleware\em_eeprom/cy_em_eeprom.c ****     {
 855:Generated_Source\PSoC6\pdl\middleware\em_eeprom/cy_em_eeprom.c ****         /* Check if wear leveling is used in EEPROM */
 856:Generated_Source\PSoC6\pdl\middleware\em_eeprom/cy_em_eeprom.c ****         if(context->wearLevelingFactor > 1u)
 186              		.loc 1 856 0
 187 0028 1D69     		ldr	r5, [r3, #16]
 188 002a 012D     		cmp	r5, #1
 189 002c 11D9     		bls	.L14
 857:Generated_Source\PSoC6\pdl\middleware\em_eeprom/cy_em_eeprom.c ****         {
 858:Generated_Source\PSoC6\pdl\middleware\em_eeprom/cy_em_eeprom.c ****             /* The read row address should be taken from an EEPROM copy that became
 859:Generated_Source\PSoC6\pdl\middleware\em_eeprom/cy_em_eeprom.c ****             * inactive recently. This condition check handles that.
 860:Generated_Source\PSoC6\pdl\middleware\em_eeprom/cy_em_eeprom.c ****             */
 861:Generated_Source\PSoC6\pdl\middleware\em_eeprom/cy_em_eeprom.c ****             if((*rowToWrPtr - (context->numberOfRows * CY_EM_EEPROM_FLASH_SIZEOF_ROW)) <
 190              		.loc 1 861 0
 191 002e 0868     		ldr	r0, [r1]
 192              	.LVL19:
 193 0030 6102     		lsls	r1, r4, #9
 194              	.LVL20:
 195 0032 411A     		subs	r1, r0, r1
 862:Generated_Source\PSoC6\pdl\middleware\em_eeprom/cy_em_eeprom.c ****                 context->userFlashStartAddr)
 196              		.loc 1 862 0
 197 0034 9B69     		ldr	r3, [r3, #24]
 198              	.LVL21:
 861:Generated_Source\PSoC6\pdl\middleware\em_eeprom/cy_em_eeprom.c ****                 context->userFlashStartAddr)
 199              		.loc 1 861 0
 200 0036 9942     		cmp	r1, r3
 201 0038 09D2     		bcs	.L15
 863:Generated_Source\PSoC6\pdl\middleware\em_eeprom/cy_em_eeprom.c ****             {
 864:Generated_Source\PSoC6\pdl\middleware\em_eeprom/cy_em_eeprom.c ****                 *rowToRdPtr = context->userFlashStartAddr +
 865:Generated_Source\PSoC6\pdl\middleware\em_eeprom/cy_em_eeprom.c ****                     (context->numberOfRows * (context->wearLevelingFactor - 1u) *
 202              		.loc 1 865 0
 203 003a 0749     		ldr	r1, .L16
 204 003c 8C46     		mov	ip, r1
 205 003e 6544     		add	r5, r5, ip
 206 0040 6C43     		muls	r4, r5
 207 0042 6402     		lsls	r4, r4, #9
 864:Generated_Source\PSoC6\pdl\middleware\em_eeprom/cy_em_eeprom.c ****                     (context->numberOfRows * (context->wearLevelingFactor - 1u) *
 208              		.loc 1 864 0
 209 0044 1C19     		adds	r4, r3, r4
 866:Generated_Source\PSoC6\pdl\middleware\em_eeprom/cy_em_eeprom.c ****                         CY_EM_EEPROM_FLASH_SIZEOF_ROW) + (*rowToWrPtr - context->userFlashStartAddr
 210              		.loc 1 866 0
ARM GAS  C:\Users\eduar\AppData\Local\Temp\cctEoJXe.s 			page 20


 211 0046 C01A     		subs	r0, r0, r3
 212 0048 2418     		adds	r4, r4, r0
 864:Generated_Source\PSoC6\pdl\middleware\em_eeprom/cy_em_eeprom.c ****                     (context->numberOfRows * (context->wearLevelingFactor - 1u) *
 213              		.loc 1 864 0
 214 004a 1460     		str	r4, [r2]
 215 004c 03E0     		b	.L10
 216              	.L15:
 867:Generated_Source\PSoC6\pdl\middleware\em_eeprom/cy_em_eeprom.c ****             }
 868:Generated_Source\PSoC6\pdl\middleware\em_eeprom/cy_em_eeprom.c ****             else
 869:Generated_Source\PSoC6\pdl\middleware\em_eeprom/cy_em_eeprom.c ****             {
 870:Generated_Source\PSoC6\pdl\middleware\em_eeprom/cy_em_eeprom.c ****                 *rowToRdPtr = *rowToWrPtr - (context->numberOfRows * CY_EM_EEPROM_FLASH_SIZEOF_ROW)
 217              		.loc 1 870 0
 218 004e 1160     		str	r1, [r2]
 219 0050 01E0     		b	.L10
 220              	.LVL22:
 221              	.L14:
 871:Generated_Source\PSoC6\pdl\middleware\em_eeprom/cy_em_eeprom.c ****             }
 872:Generated_Source\PSoC6\pdl\middleware\em_eeprom/cy_em_eeprom.c ****         }
 873:Generated_Source\PSoC6\pdl\middleware\em_eeprom/cy_em_eeprom.c ****         else
 874:Generated_Source\PSoC6\pdl\middleware\em_eeprom/cy_em_eeprom.c ****         {
 875:Generated_Source\PSoC6\pdl\middleware\em_eeprom/cy_em_eeprom.c ****             /* If no wear leveling, always read from the same flash row that
 876:Generated_Source\PSoC6\pdl\middleware\em_eeprom/cy_em_eeprom.c ****             * should be written.
 877:Generated_Source\PSoC6\pdl\middleware\em_eeprom/cy_em_eeprom.c ****             */
 878:Generated_Source\PSoC6\pdl\middleware\em_eeprom/cy_em_eeprom.c ****             *rowToRdPtr = *rowToWrPtr;
 222              		.loc 1 878 0
 223 0052 0B68     		ldr	r3, [r1]
 224              	.LVL23:
 225 0054 1360     		str	r3, [r2]
 226              	.LVL24:
 227              	.L10:
 879:Generated_Source\PSoC6\pdl\middleware\em_eeprom/cy_em_eeprom.c ****         }
 880:Generated_Source\PSoC6\pdl\middleware\em_eeprom/cy_em_eeprom.c ****     }
 881:Generated_Source\PSoC6\pdl\middleware\em_eeprom/cy_em_eeprom.c **** }
 228              		.loc 1 881 0
 229              		@ sp needed
 230 0056 30BD     		pop	{r4, r5, pc}
 231              	.L17:
 232              		.align	2
 233              	.L16:
 234 0058 FFFF7F00 		.word	8388607
 235              		.cfi_endproc
 236              	.LFE52:
 237              		.size	GetNextRowToWrite, .-GetNextRowToWrite
 238              		.section	.text.CalcChecksum,"ax",%progbits
 239              		.align	2
 240              		.code	16
 241              		.thumb_func
 242              		.type	CalcChecksum, %function
 243              	CalcChecksum:
 244              	.LFB53:
 882:Generated_Source\PSoC6\pdl\middleware\em_eeprom/cy_em_eeprom.c **** 
 883:Generated_Source\PSoC6\pdl\middleware\em_eeprom/cy_em_eeprom.c **** 
 884:Generated_Source\PSoC6\pdl\middleware\em_eeprom/cy_em_eeprom.c **** /*******************************************************************************
 885:Generated_Source\PSoC6\pdl\middleware\em_eeprom/cy_em_eeprom.c **** * Function Name: CalcChecksum
 886:Generated_Source\PSoC6\pdl\middleware\em_eeprom/cy_em_eeprom.c **** ****************************************************************************//**
 887:Generated_Source\PSoC6\pdl\middleware\em_eeprom/cy_em_eeprom.c **** *
 888:Generated_Source\PSoC6\pdl\middleware\em_eeprom/cy_em_eeprom.c **** * Implements CRC-8 that is used in checksum calculation for the redundant copy
ARM GAS  C:\Users\eduar\AppData\Local\Temp\cctEoJXe.s 			page 21


 889:Generated_Source\PSoC6\pdl\middleware\em_eeprom/cy_em_eeprom.c **** * algorithm.
 890:Generated_Source\PSoC6\pdl\middleware\em_eeprom/cy_em_eeprom.c **** *
 891:Generated_Source\PSoC6\pdl\middleware\em_eeprom/cy_em_eeprom.c **** * \param rowData
 892:Generated_Source\PSoC6\pdl\middleware\em_eeprom/cy_em_eeprom.c **** * The row data to be used to calculate the checksum.
 893:Generated_Source\PSoC6\pdl\middleware\em_eeprom/cy_em_eeprom.c **** *
 894:Generated_Source\PSoC6\pdl\middleware\em_eeprom/cy_em_eeprom.c **** * \param len
 895:Generated_Source\PSoC6\pdl\middleware\em_eeprom/cy_em_eeprom.c **** * The length of rowData.
 896:Generated_Source\PSoC6\pdl\middleware\em_eeprom/cy_em_eeprom.c **** *
 897:Generated_Source\PSoC6\pdl\middleware\em_eeprom/cy_em_eeprom.c **** * \return
 898:Generated_Source\PSoC6\pdl\middleware\em_eeprom/cy_em_eeprom.c **** * The calculated value of CRC-8.
 899:Generated_Source\PSoC6\pdl\middleware\em_eeprom/cy_em_eeprom.c **** *
 900:Generated_Source\PSoC6\pdl\middleware\em_eeprom/cy_em_eeprom.c **** *******************************************************************************/
 901:Generated_Source\PSoC6\pdl\middleware\em_eeprom/cy_em_eeprom.c **** static uint8_t CalcChecksum(uint8_t rowData[], uint32_t len)
 902:Generated_Source\PSoC6\pdl\middleware\em_eeprom/cy_em_eeprom.c **** {
 245              		.loc 1 902 0
 246              		.cfi_startproc
 247              		@ args = 0, pretend = 0, frame = 0
 248              		@ frame_needed = 0, uses_anonymous_args = 0
 249              	.LVL25:
 250 0000 30B5     		push	{r4, r5, lr}
 251              		.cfi_def_cfa_offset 12
 252              		.cfi_offset 4, -12
 253              		.cfi_offset 5, -8
 254              		.cfi_offset 14, -4
 255 0002 0500     		movs	r5, r0
 256              	.LVL26:
 903:Generated_Source\PSoC6\pdl\middleware\em_eeprom/cy_em_eeprom.c ****     uint8_t crc = CY_EM_EEPROM_CRC8_SEED;
 904:Generated_Source\PSoC6\pdl\middleware\em_eeprom/cy_em_eeprom.c ****     uint8_t i;
 905:Generated_Source\PSoC6\pdl\middleware\em_eeprom/cy_em_eeprom.c ****     uint16_t cnt = 0u;
 257              		.loc 1 905 0
 258 0004 0024     		movs	r4, #0
 903:Generated_Source\PSoC6\pdl\middleware\em_eeprom/cy_em_eeprom.c ****     uint8_t crc = CY_EM_EEPROM_CRC8_SEED;
 259              		.loc 1 903 0
 260 0006 FF20     		movs	r0, #255
 261              	.LVL27:
 906:Generated_Source\PSoC6\pdl\middleware\em_eeprom/cy_em_eeprom.c **** 
 907:Generated_Source\PSoC6\pdl\middleware\em_eeprom/cy_em_eeprom.c ****     while(cnt != len)
 262              		.loc 1 907 0
 263 0008 14E0     		b	.L19
 264              	.LVL28:
 265              	.L24:
 908:Generated_Source\PSoC6\pdl\middleware\em_eeprom/cy_em_eeprom.c ****     {
 909:Generated_Source\PSoC6\pdl\middleware\em_eeprom/cy_em_eeprom.c ****         crc ^= rowData[cnt];
 266              		.loc 1 909 0
 267 000a 2B5D     		ldrb	r3, [r5, r4]
 268 000c 5840     		eors	r0, r3
 269              	.LVL29:
 910:Generated_Source\PSoC6\pdl\middleware\em_eeprom/cy_em_eeprom.c ****         for (i = 0u; i < CY_EM_EEPROM_CRC8_POLYNOM_LEN; i++)
 270              		.loc 1 910 0
 271 000e 0022     		movs	r2, #0
 272 0010 0CE0     		b	.L20
 273              	.LVL30:
 274              	.L23:
 911:Generated_Source\PSoC6\pdl\middleware\em_eeprom/cy_em_eeprom.c ****         {
 912:Generated_Source\PSoC6\pdl\middleware\em_eeprom/cy_em_eeprom.c ****             crc = CY_EM_EEPROM_CALCULATE_CRC8(crc);
 275              		.loc 1 912 0
 276 0012 43B2     		sxtb	r3, r0
ARM GAS  C:\Users\eduar\AppData\Local\Temp\cctEoJXe.s 			page 22


 277 0014 002B     		cmp	r3, #0
 278 0016 05DA     		bge	.L21
 279              		.loc 1 912 0 is_stmt 0 discriminator 1
 280 0018 4000     		lsls	r0, r0, #1
 281              	.LVL31:
 282 001a C3B2     		uxtb	r3, r0
 283              	.LVL32:
 284 001c 3120     		movs	r0, #49
 285 001e 4340     		eors	r3, r0
 286 0020 D8B2     		uxtb	r0, r3
 287 0022 01E0     		b	.L22
 288              	.LVL33:
 289              	.L21:
 290              		.loc 1 912 0 discriminator 2
 291 0024 4000     		lsls	r0, r0, #1
 292              	.LVL34:
 293 0026 C0B2     		uxtb	r0, r0
 294              	.LVL35:
 295              	.L22:
 910:Generated_Source\PSoC6\pdl\middleware\em_eeprom/cy_em_eeprom.c ****         for (i = 0u; i < CY_EM_EEPROM_CRC8_POLYNOM_LEN; i++)
 296              		.loc 1 910 0 is_stmt 1 discriminator 4
 297 0028 0132     		adds	r2, r2, #1
 298              	.LVL36:
 299 002a D2B2     		uxtb	r2, r2
 300              	.LVL37:
 301              	.L20:
 910:Generated_Source\PSoC6\pdl\middleware\em_eeprom/cy_em_eeprom.c ****         for (i = 0u; i < CY_EM_EEPROM_CRC8_POLYNOM_LEN; i++)
 302              		.loc 1 910 0 is_stmt 0 discriminator 2
 303 002c 072A     		cmp	r2, #7
 304 002e F0D9     		bls	.L23
 913:Generated_Source\PSoC6\pdl\middleware\em_eeprom/cy_em_eeprom.c ****         }
 914:Generated_Source\PSoC6\pdl\middleware\em_eeprom/cy_em_eeprom.c ****         cnt++;
 305              		.loc 1 914 0 is_stmt 1
 306 0030 0134     		adds	r4, r4, #1
 307              	.LVL38:
 308 0032 A4B2     		uxth	r4, r4
 309              	.LVL39:
 310              	.L19:
 907:Generated_Source\PSoC6\pdl\middleware\em_eeprom/cy_em_eeprom.c ****     {
 311              		.loc 1 907 0
 312 0034 8C42     		cmp	r4, r1
 313 0036 E8D1     		bne	.L24
 915:Generated_Source\PSoC6\pdl\middleware\em_eeprom/cy_em_eeprom.c ****     }
 916:Generated_Source\PSoC6\pdl\middleware\em_eeprom/cy_em_eeprom.c **** 
 917:Generated_Source\PSoC6\pdl\middleware\em_eeprom/cy_em_eeprom.c ****     return (crc);
 918:Generated_Source\PSoC6\pdl\middleware\em_eeprom/cy_em_eeprom.c **** }
 314              		.loc 1 918 0
 315              		@ sp needed
 316              	.LVL40:
 317              	.LVL41:
 318 0038 30BD     		pop	{r4, r5, pc}
 319              		.cfi_endproc
 320              	.LFE53:
 321              		.size	CalcChecksum, .-CalcChecksum
 322 003a C046     		.section	.text.CheckRanges,"ax",%progbits
 323              		.align	2
 324              		.code	16
ARM GAS  C:\Users\eduar\AppData\Local\Temp\cctEoJXe.s 			page 23


 325              		.thumb_func
 326              		.type	CheckRanges, %function
 327              	CheckRanges:
 328              	.LFB54:
 919:Generated_Source\PSoC6\pdl\middleware\em_eeprom/cy_em_eeprom.c **** 
 920:Generated_Source\PSoC6\pdl\middleware\em_eeprom/cy_em_eeprom.c **** 
 921:Generated_Source\PSoC6\pdl\middleware\em_eeprom/cy_em_eeprom.c **** /*******************************************************************************
 922:Generated_Source\PSoC6\pdl\middleware\em_eeprom/cy_em_eeprom.c **** * Function Name: CheckRanges
 923:Generated_Source\PSoC6\pdl\middleware\em_eeprom/cy_em_eeprom.c **** ****************************************************************************//**
 924:Generated_Source\PSoC6\pdl\middleware\em_eeprom/cy_em_eeprom.c **** *
 925:Generated_Source\PSoC6\pdl\middleware\em_eeprom/cy_em_eeprom.c **** * Checks if the EEPROM of the requested size can be placed in flash.
 926:Generated_Source\PSoC6\pdl\middleware\em_eeprom/cy_em_eeprom.c **** *
 927:Generated_Source\PSoC6\pdl\middleware\em_eeprom/cy_em_eeprom.c **** * \param config
 928:Generated_Source\PSoC6\pdl\middleware\em_eeprom/cy_em_eeprom.c **** * The pointer to a configuration structure. See \ref cy_stc_eeprom_config_t.
 929:Generated_Source\PSoC6\pdl\middleware\em_eeprom/cy_em_eeprom.c **** *
 930:Generated_Source\PSoC6\pdl\middleware\em_eeprom/cy_em_eeprom.c **** * \return
 931:Generated_Source\PSoC6\pdl\middleware\em_eeprom/cy_em_eeprom.c **** * error / status code. See \ref cy_en_em_eeprom_status_t.
 932:Generated_Source\PSoC6\pdl\middleware\em_eeprom/cy_em_eeprom.c **** *
 933:Generated_Source\PSoC6\pdl\middleware\em_eeprom/cy_em_eeprom.c **** *******************************************************************************/
 934:Generated_Source\PSoC6\pdl\middleware\em_eeprom/cy_em_eeprom.c **** static cy_en_em_eeprom_status_t CheckRanges(cy_stc_eeprom_config_t* config)
 935:Generated_Source\PSoC6\pdl\middleware\em_eeprom/cy_em_eeprom.c **** {
 329              		.loc 1 935 0
 330              		.cfi_startproc
 331              		@ args = 0, pretend = 0, frame = 0
 332              		@ frame_needed = 0, uses_anonymous_args = 0
 333              	.LVL42:
 334 0000 10B5     		push	{r4, lr}
 335              		.cfi_def_cfa_offset 8
 336              		.cfi_offset 4, -8
 337              		.cfi_offset 14, -4
 338              	.LVL43:
 936:Generated_Source\PSoC6\pdl\middleware\em_eeprom/cy_em_eeprom.c ****     cy_en_em_eeprom_status_t ret = CY_EM_EEPROM_BAD_DATA;
 937:Generated_Source\PSoC6\pdl\middleware\em_eeprom/cy_em_eeprom.c ****     uint32_t startAddr = config->userFlashStartAddr;
 339              		.loc 1 937 0
 340 0002 C468     		ldr	r4, [r0, #12]
 341              	.LVL44:
 938:Generated_Source\PSoC6\pdl\middleware\em_eeprom/cy_em_eeprom.c ****     uint32_t endAddr = startAddr + CY_EM_EEPROM_GET_PHYSICAL_SIZE(config->eepromSize,
 342              		.loc 1 938 0
 343 0004 0268     		ldr	r2, [r0]
 344 0006 110A     		lsrs	r1, r2, #8
 345 0008 FF23     		movs	r3, #255
 346 000a 1340     		ands	r3, r2
 347 000c 00D0     		beq	.L26
 348 000e 0123     		movs	r3, #1
 349              	.L26:
 350              		.loc 1 938 0 is_stmt 0 discriminator 4
 351 0010 5B18     		adds	r3, r3, r1
 352 0012 4268     		ldr	r2, [r0, #4]
 353 0014 5343     		muls	r3, r2
 354 0016 027A     		ldrb	r2, [r0, #8]
 355 0018 0132     		adds	r2, r2, #1
 356 001a 5343     		muls	r3, r2
 357 001c 5B02     		lsls	r3, r3, #9
 358 001e E318     		adds	r3, r4, r3
 359              	.LVL45:
 939:Generated_Source\PSoC6\pdl\middleware\em_eeprom/cy_em_eeprom.c ****             config->wearLevelingFactor, config->redundantCopy);
 940:Generated_Source\PSoC6\pdl\middleware\em_eeprom/cy_em_eeprom.c **** 
ARM GAS  C:\Users\eduar\AppData\Local\Temp\cctEoJXe.s 			page 24


 941:Generated_Source\PSoC6\pdl\middleware\em_eeprom/cy_em_eeprom.c ****     /* Range check if there is enough flash for EEPROM */
 942:Generated_Source\PSoC6\pdl\middleware\em_eeprom/cy_em_eeprom.c ****     if (CY_EM_EEPROM_IS_IN_FLASH_RANGE(startAddr, endAddr))
 360              		.loc 1 942 0 is_stmt 1 discriminator 4
 361 0020 8022     		movs	r2, #128
 362 0022 5205     		lsls	r2, r2, #21
 363 0024 9442     		cmp	r4, r2
 364 0026 02D9     		bls	.L27
 365              		.loc 1 942 0 is_stmt 0 discriminator 1
 366 0028 084A     		ldr	r2, .L32
 367 002a 9342     		cmp	r3, r2
 368 002c 07D9     		bls	.L29
 369              	.L27:
 370              		.loc 1 942 0 discriminator 3
 371 002e 084A     		ldr	r2, .L32+4
 372 0030 9442     		cmp	r4, r2
 373 0032 06D9     		bls	.L30
 374              		.loc 1 942 0 discriminator 4
 375 0034 074A     		ldr	r2, .L32+8
 376 0036 9342     		cmp	r3, r2
 377 0038 05D9     		bls	.L31
 936:Generated_Source\PSoC6\pdl\middleware\em_eeprom/cy_em_eeprom.c ****     uint32_t startAddr = config->userFlashStartAddr;
 378              		.loc 1 936 0 is_stmt 1
 379 003a 0748     		ldr	r0, .L32+12
 380              	.LVL46:
 381 003c 04E0     		b	.L28
 382              	.LVL47:
 383              	.L29:
 943:Generated_Source\PSoC6\pdl\middleware\em_eeprom/cy_em_eeprom.c ****     {
 944:Generated_Source\PSoC6\pdl\middleware\em_eeprom/cy_em_eeprom.c ****         ret = CY_EM_EEPROM_SUCCESS;
 384              		.loc 1 944 0
 385 003e 0020     		movs	r0, #0
 386              	.LVL48:
 387 0040 02E0     		b	.L28
 388              	.LVL49:
 389              	.L30:
 936:Generated_Source\PSoC6\pdl\middleware\em_eeprom/cy_em_eeprom.c ****     uint32_t startAddr = config->userFlashStartAddr;
 390              		.loc 1 936 0
 391 0042 0548     		ldr	r0, .L32+12
 392              	.LVL50:
 393 0044 00E0     		b	.L28
 394              	.LVL51:
 395              	.L31:
 396              		.loc 1 944 0
 397 0046 0020     		movs	r0, #0
 398              	.LVL52:
 399              	.L28:
 945:Generated_Source\PSoC6\pdl\middleware\em_eeprom/cy_em_eeprom.c ****     }
 946:Generated_Source\PSoC6\pdl\middleware\em_eeprom/cy_em_eeprom.c ****     return (ret);
 947:Generated_Source\PSoC6\pdl\middleware\em_eeprom/cy_em_eeprom.c **** }
 400              		.loc 1 947 0
 401              		@ sp needed
 402              	.LVL53:
 403 0048 10BD     		pop	{r4, pc}
 404              	.L33:
 405 004a C046     		.align	2
 406              	.L32:
 407 004c 00001010 		.word	269484032
ARM GAS  C:\Users\eduar\AppData\Local\Temp\cctEoJXe.s 			page 25


 408 0050 FFFFFF13 		.word	335544319
 409 0054 00800014 		.word	335577088
 410 0058 03006E00 		.word	7208963
 411              		.cfi_endproc
 412              	.LFE54:
 413              		.size	CheckRanges, .-CheckRanges
 414              		.section	.text.GetAddresses,"ax",%progbits
 415              		.align	2
 416              		.code	16
 417              		.thumb_func
 418              		.type	GetAddresses, %function
 419              	GetAddresses:
 420              	.LFB58:
 948:Generated_Source\PSoC6\pdl\middleware\em_eeprom/cy_em_eeprom.c **** 
 949:Generated_Source\PSoC6\pdl\middleware\em_eeprom/cy_em_eeprom.c **** 
 950:Generated_Source\PSoC6\pdl\middleware\em_eeprom/cy_em_eeprom.c **** /*******************************************************************************
 951:Generated_Source\PSoC6\pdl\middleware\em_eeprom/cy_em_eeprom.c **** * Function Name: WriteRow
 952:Generated_Source\PSoC6\pdl\middleware\em_eeprom/cy_em_eeprom.c **** ****************************************************************************//**
 953:Generated_Source\PSoC6\pdl\middleware\em_eeprom/cy_em_eeprom.c **** *
 954:Generated_Source\PSoC6\pdl\middleware\em_eeprom/cy_em_eeprom.c **** * Writes one flash row starting from the specified row address.
 955:Generated_Source\PSoC6\pdl\middleware\em_eeprom/cy_em_eeprom.c **** *
 956:Generated_Source\PSoC6\pdl\middleware\em_eeprom/cy_em_eeprom.c **** * \param rowAdd
 957:Generated_Source\PSoC6\pdl\middleware\em_eeprom/cy_em_eeprom.c **** * The address of the flash row.
 958:Generated_Source\PSoC6\pdl\middleware\em_eeprom/cy_em_eeprom.c **** *
 959:Generated_Source\PSoC6\pdl\middleware\em_eeprom/cy_em_eeprom.c **** * \param rowData
 960:Generated_Source\PSoC6\pdl\middleware\em_eeprom/cy_em_eeprom.c **** * The pointer to the data to be written to the row.
 961:Generated_Source\PSoC6\pdl\middleware\em_eeprom/cy_em_eeprom.c **** *
 962:Generated_Source\PSoC6\pdl\middleware\em_eeprom/cy_em_eeprom.c **** * \param context
 963:Generated_Source\PSoC6\pdl\middleware\em_eeprom/cy_em_eeprom.c **** * The pointer to the EEPROM context structure \ref cy_stc_eeprom_context_t.
 964:Generated_Source\PSoC6\pdl\middleware\em_eeprom/cy_em_eeprom.c **** *
 965:Generated_Source\PSoC6\pdl\middleware\em_eeprom/cy_em_eeprom.c **** * \return
 966:Generated_Source\PSoC6\pdl\middleware\em_eeprom/cy_em_eeprom.c **** * error / status code. See \ref cy_en_em_eeprom_status_t.
 967:Generated_Source\PSoC6\pdl\middleware\em_eeprom/cy_em_eeprom.c **** *
 968:Generated_Source\PSoC6\pdl\middleware\em_eeprom/cy_em_eeprom.c **** *******************************************************************************/
 969:Generated_Source\PSoC6\pdl\middleware\em_eeprom/cy_em_eeprom.c **** static cy_en_em_eeprom_status_t WriteRow(uint32_t rowAddr,
 970:Generated_Source\PSoC6\pdl\middleware\em_eeprom/cy_em_eeprom.c ****                                         uint32_t *rowData,
 971:Generated_Source\PSoC6\pdl\middleware\em_eeprom/cy_em_eeprom.c ****                                         cy_stc_eeprom_context_t * context)
 972:Generated_Source\PSoC6\pdl\middleware\em_eeprom/cy_em_eeprom.c **** {
 973:Generated_Source\PSoC6\pdl\middleware\em_eeprom/cy_em_eeprom.c ****     cy_en_em_eeprom_status_t ret = CY_EM_EEPROM_WRITE_FAIL;
 974:Generated_Source\PSoC6\pdl\middleware\em_eeprom/cy_em_eeprom.c ****     if(0u != context->blockingWrite)
 975:Generated_Source\PSoC6\pdl\middleware\em_eeprom/cy_em_eeprom.c ****     {
 976:Generated_Source\PSoC6\pdl\middleware\em_eeprom/cy_em_eeprom.c ****         /* Do blocking write */
 977:Generated_Source\PSoC6\pdl\middleware\em_eeprom/cy_em_eeprom.c ****         if(CY_FLASH_DRV_SUCCESS == Cy_Flash_WriteRow(rowAddr, (const uint32_t *)rowData))
 978:Generated_Source\PSoC6\pdl\middleware\em_eeprom/cy_em_eeprom.c ****         {
 979:Generated_Source\PSoC6\pdl\middleware\em_eeprom/cy_em_eeprom.c ****             ret = CY_EM_EEPROM_SUCCESS;
 980:Generated_Source\PSoC6\pdl\middleware\em_eeprom/cy_em_eeprom.c ****         }
 981:Generated_Source\PSoC6\pdl\middleware\em_eeprom/cy_em_eeprom.c ****     }
 982:Generated_Source\PSoC6\pdl\middleware\em_eeprom/cy_em_eeprom.c ****     else
 983:Generated_Source\PSoC6\pdl\middleware\em_eeprom/cy_em_eeprom.c ****     {
 984:Generated_Source\PSoC6\pdl\middleware\em_eeprom/cy_em_eeprom.c ****         /* Initiate write */
 985:Generated_Source\PSoC6\pdl\middleware\em_eeprom/cy_em_eeprom.c ****         if(CY_FLASH_DRV_OPERATION_STARTED == Cy_Flash_StartWrite(rowAddr, (const uint32_t *)rowData
 986:Generated_Source\PSoC6\pdl\middleware\em_eeprom/cy_em_eeprom.c ****         {
 987:Generated_Source\PSoC6\pdl\middleware\em_eeprom/cy_em_eeprom.c ****             uint32_t countMs = CY_EM_EEPROM_MAX_WRITE_DURATION_MS;
 988:Generated_Source\PSoC6\pdl\middleware\em_eeprom/cy_em_eeprom.c ****             cy_en_flashdrv_status_t rc;
 989:Generated_Source\PSoC6\pdl\middleware\em_eeprom/cy_em_eeprom.c **** 
 990:Generated_Source\PSoC6\pdl\middleware\em_eeprom/cy_em_eeprom.c ****             do
 991:Generated_Source\PSoC6\pdl\middleware\em_eeprom/cy_em_eeprom.c ****             {
ARM GAS  C:\Users\eduar\AppData\Local\Temp\cctEoJXe.s 			page 26


 992:Generated_Source\PSoC6\pdl\middleware\em_eeprom/cy_em_eeprom.c ****                 CyDelay(1u);                         /* Wait 1ms */
 993:Generated_Source\PSoC6\pdl\middleware\em_eeprom/cy_em_eeprom.c ****                 rc = Cy_Flash_IsWriteComplete();     /* Check if write completed */
 994:Generated_Source\PSoC6\pdl\middleware\em_eeprom/cy_em_eeprom.c ****                 countMs--;
 995:Generated_Source\PSoC6\pdl\middleware\em_eeprom/cy_em_eeprom.c ****             }
 996:Generated_Source\PSoC6\pdl\middleware\em_eeprom/cy_em_eeprom.c ****             while ((rc == CY_FLASH_DRV_OPCODE_BUSY) && (0u != countMs));
 997:Generated_Source\PSoC6\pdl\middleware\em_eeprom/cy_em_eeprom.c **** 
 998:Generated_Source\PSoC6\pdl\middleware\em_eeprom/cy_em_eeprom.c ****             if(CY_FLASH_DRV_SUCCESS == rc)
 999:Generated_Source\PSoC6\pdl\middleware\em_eeprom/cy_em_eeprom.c ****             {
1000:Generated_Source\PSoC6\pdl\middleware\em_eeprom/cy_em_eeprom.c ****                 ret = CY_EM_EEPROM_SUCCESS;
1001:Generated_Source\PSoC6\pdl\middleware\em_eeprom/cy_em_eeprom.c ****             }
1002:Generated_Source\PSoC6\pdl\middleware\em_eeprom/cy_em_eeprom.c ****         }
1003:Generated_Source\PSoC6\pdl\middleware\em_eeprom/cy_em_eeprom.c ****     }
1004:Generated_Source\PSoC6\pdl\middleware\em_eeprom/cy_em_eeprom.c **** 
1005:Generated_Source\PSoC6\pdl\middleware\em_eeprom/cy_em_eeprom.c ****     return (ret);
1006:Generated_Source\PSoC6\pdl\middleware\em_eeprom/cy_em_eeprom.c **** }
1007:Generated_Source\PSoC6\pdl\middleware\em_eeprom/cy_em_eeprom.c **** 
1008:Generated_Source\PSoC6\pdl\middleware\em_eeprom/cy_em_eeprom.c **** 
1009:Generated_Source\PSoC6\pdl\middleware\em_eeprom/cy_em_eeprom.c **** /*******************************************************************************
1010:Generated_Source\PSoC6\pdl\middleware\em_eeprom/cy_em_eeprom.c **** * Function Name: EraseRow
1011:Generated_Source\PSoC6\pdl\middleware\em_eeprom/cy_em_eeprom.c **** ****************************************************************************//**
1012:Generated_Source\PSoC6\pdl\middleware\em_eeprom/cy_em_eeprom.c **** *
1013:Generated_Source\PSoC6\pdl\middleware\em_eeprom/cy_em_eeprom.c **** * Erases one flash row starting from the specified row address. If the redundant
1014:Generated_Source\PSoC6\pdl\middleware\em_eeprom/cy_em_eeprom.c **** * copy option is enabled the corresponding row in the redundant copy will also
1015:Generated_Source\PSoC6\pdl\middleware\em_eeprom/cy_em_eeprom.c **** * be erased.
1016:Generated_Source\PSoC6\pdl\middleware\em_eeprom/cy_em_eeprom.c **** *
1017:Generated_Source\PSoC6\pdl\middleware\em_eeprom/cy_em_eeprom.c **** * \param rowAdd
1018:Generated_Source\PSoC6\pdl\middleware\em_eeprom/cy_em_eeprom.c **** * The address of the flash row.
1019:Generated_Source\PSoC6\pdl\middleware\em_eeprom/cy_em_eeprom.c **** *
1020:Generated_Source\PSoC6\pdl\middleware\em_eeprom/cy_em_eeprom.c **** * \param ramBuffAddr
1021:Generated_Source\PSoC6\pdl\middleware\em_eeprom/cy_em_eeprom.c **** * The address of the RAM buffer that contains zeroed data (used only for
1022:Generated_Source\PSoC6\pdl\middleware\em_eeprom/cy_em_eeprom.c **** * non-PSoC 6 devices).
1023:Generated_Source\PSoC6\pdl\middleware\em_eeprom/cy_em_eeprom.c **** *
1024:Generated_Source\PSoC6\pdl\middleware\em_eeprom/cy_em_eeprom.c **** * \param context
1025:Generated_Source\PSoC6\pdl\middleware\em_eeprom/cy_em_eeprom.c **** * The pointer to the EEPROM context structure \ref cy_stc_eeprom_context_t.
1026:Generated_Source\PSoC6\pdl\middleware\em_eeprom/cy_em_eeprom.c **** *
1027:Generated_Source\PSoC6\pdl\middleware\em_eeprom/cy_em_eeprom.c **** * \return
1028:Generated_Source\PSoC6\pdl\middleware\em_eeprom/cy_em_eeprom.c **** * error / status code. See \ref cy_en_em_eeprom_status_t.
1029:Generated_Source\PSoC6\pdl\middleware\em_eeprom/cy_em_eeprom.c **** *
1030:Generated_Source\PSoC6\pdl\middleware\em_eeprom/cy_em_eeprom.c **** *******************************************************************************/
1031:Generated_Source\PSoC6\pdl\middleware\em_eeprom/cy_em_eeprom.c **** static cy_en_em_eeprom_status_t EraseRow(uint32_t rowAddr,
1032:Generated_Source\PSoC6\pdl\middleware\em_eeprom/cy_em_eeprom.c ****                                         uint32_t ramBuffAddr,
1033:Generated_Source\PSoC6\pdl\middleware\em_eeprom/cy_em_eeprom.c ****                                         cy_stc_eeprom_context_t * context)
1034:Generated_Source\PSoC6\pdl\middleware\em_eeprom/cy_em_eeprom.c **** {
1035:Generated_Source\PSoC6\pdl\middleware\em_eeprom/cy_em_eeprom.c ****     uint32_t emEepromRowAddr = rowAddr;
1036:Generated_Source\PSoC6\pdl\middleware\em_eeprom/cy_em_eeprom.c ****     cy_en_em_eeprom_status_t ret = CY_EM_EEPROM_WRITE_FAIL;
1037:Generated_Source\PSoC6\pdl\middleware\em_eeprom/cy_em_eeprom.c ****     uint32_t i = 1u;
1038:Generated_Source\PSoC6\pdl\middleware\em_eeprom/cy_em_eeprom.c **** 
1039:Generated_Source\PSoC6\pdl\middleware\em_eeprom/cy_em_eeprom.c ****     (void)ramBuffAddr; /* To avoid compiler warning */
1040:Generated_Source\PSoC6\pdl\middleware\em_eeprom/cy_em_eeprom.c **** 
1041:Generated_Source\PSoC6\pdl\middleware\em_eeprom/cy_em_eeprom.c ****     if(0u != context->redundantCopy)
1042:Generated_Source\PSoC6\pdl\middleware\em_eeprom/cy_em_eeprom.c ****     {
1043:Generated_Source\PSoC6\pdl\middleware\em_eeprom/cy_em_eeprom.c ****         i++;
1044:Generated_Source\PSoC6\pdl\middleware\em_eeprom/cy_em_eeprom.c ****     }
1045:Generated_Source\PSoC6\pdl\middleware\em_eeprom/cy_em_eeprom.c **** 
1046:Generated_Source\PSoC6\pdl\middleware\em_eeprom/cy_em_eeprom.c ****     do
1047:Generated_Source\PSoC6\pdl\middleware\em_eeprom/cy_em_eeprom.c ****     {
1048:Generated_Source\PSoC6\pdl\middleware\em_eeprom/cy_em_eeprom.c ****         if(0u != context->blockingWrite)
ARM GAS  C:\Users\eduar\AppData\Local\Temp\cctEoJXe.s 			page 27


1049:Generated_Source\PSoC6\pdl\middleware\em_eeprom/cy_em_eeprom.c ****         {
1050:Generated_Source\PSoC6\pdl\middleware\em_eeprom/cy_em_eeprom.c ****             /* Erase the flash row */
1051:Generated_Source\PSoC6\pdl\middleware\em_eeprom/cy_em_eeprom.c ****             if(CY_FLASH_DRV_SUCCESS == Cy_Flash_EraseRow(emEepromRowAddr))
1052:Generated_Source\PSoC6\pdl\middleware\em_eeprom/cy_em_eeprom.c ****             {
1053:Generated_Source\PSoC6\pdl\middleware\em_eeprom/cy_em_eeprom.c ****                 ret = CY_EM_EEPROM_SUCCESS;
1054:Generated_Source\PSoC6\pdl\middleware\em_eeprom/cy_em_eeprom.c ****             }
1055:Generated_Source\PSoC6\pdl\middleware\em_eeprom/cy_em_eeprom.c ****         }
1056:Generated_Source\PSoC6\pdl\middleware\em_eeprom/cy_em_eeprom.c ****         else
1057:Generated_Source\PSoC6\pdl\middleware\em_eeprom/cy_em_eeprom.c ****         {
1058:Generated_Source\PSoC6\pdl\middleware\em_eeprom/cy_em_eeprom.c ****             /* Initiate erase */
1059:Generated_Source\PSoC6\pdl\middleware\em_eeprom/cy_em_eeprom.c ****             if(CY_FLASH_DRV_OPERATION_STARTED == Cy_Flash_StartErase(emEepromRowAddr))
1060:Generated_Source\PSoC6\pdl\middleware\em_eeprom/cy_em_eeprom.c ****             {
1061:Generated_Source\PSoC6\pdl\middleware\em_eeprom/cy_em_eeprom.c ****                 uint32_t countMs = CY_EM_EEPROM_MAX_WRITE_DURATION_MS;
1062:Generated_Source\PSoC6\pdl\middleware\em_eeprom/cy_em_eeprom.c ****                 cy_en_flashdrv_status_t rc;
1063:Generated_Source\PSoC6\pdl\middleware\em_eeprom/cy_em_eeprom.c **** 
1064:Generated_Source\PSoC6\pdl\middleware\em_eeprom/cy_em_eeprom.c ****                 do
1065:Generated_Source\PSoC6\pdl\middleware\em_eeprom/cy_em_eeprom.c ****                 {
1066:Generated_Source\PSoC6\pdl\middleware\em_eeprom/cy_em_eeprom.c ****                     CyDelay(1u);                         /* Wait 1ms */
1067:Generated_Source\PSoC6\pdl\middleware\em_eeprom/cy_em_eeprom.c ****                     rc = Cy_Flash_IsWriteComplete();     /* Check if erase completed */
1068:Generated_Source\PSoC6\pdl\middleware\em_eeprom/cy_em_eeprom.c ****                     countMs--;
1069:Generated_Source\PSoC6\pdl\middleware\em_eeprom/cy_em_eeprom.c ****                 }
1070:Generated_Source\PSoC6\pdl\middleware\em_eeprom/cy_em_eeprom.c ****                 while ((rc == CY_FLASH_DRV_OPCODE_BUSY) && (0u != countMs));
1071:Generated_Source\PSoC6\pdl\middleware\em_eeprom/cy_em_eeprom.c **** 
1072:Generated_Source\PSoC6\pdl\middleware\em_eeprom/cy_em_eeprom.c ****                 if(CY_FLASH_DRV_SUCCESS == rc)
1073:Generated_Source\PSoC6\pdl\middleware\em_eeprom/cy_em_eeprom.c ****                 {
1074:Generated_Source\PSoC6\pdl\middleware\em_eeprom/cy_em_eeprom.c ****                     ret = CY_EM_EEPROM_SUCCESS;
1075:Generated_Source\PSoC6\pdl\middleware\em_eeprom/cy_em_eeprom.c ****                 }
1076:Generated_Source\PSoC6\pdl\middleware\em_eeprom/cy_em_eeprom.c ****             }
1077:Generated_Source\PSoC6\pdl\middleware\em_eeprom/cy_em_eeprom.c ****         }
1078:Generated_Source\PSoC6\pdl\middleware\em_eeprom/cy_em_eeprom.c **** 
1079:Generated_Source\PSoC6\pdl\middleware\em_eeprom/cy_em_eeprom.c ****         if(CY_EM_EEPROM_SUCCESS == ret)
1080:Generated_Source\PSoC6\pdl\middleware\em_eeprom/cy_em_eeprom.c ****         {
1081:Generated_Source\PSoC6\pdl\middleware\em_eeprom/cy_em_eeprom.c ****             /* Update the address to point to the redundant copy row */
1082:Generated_Source\PSoC6\pdl\middleware\em_eeprom/cy_em_eeprom.c ****             emEepromRowAddr = (emEepromRowAddr - context->userFlashStartAddr) + context->wlEndAddr;
1083:Generated_Source\PSoC6\pdl\middleware\em_eeprom/cy_em_eeprom.c ****         }
1084:Generated_Source\PSoC6\pdl\middleware\em_eeprom/cy_em_eeprom.c ****         else
1085:Generated_Source\PSoC6\pdl\middleware\em_eeprom/cy_em_eeprom.c ****         {
1086:Generated_Source\PSoC6\pdl\middleware\em_eeprom/cy_em_eeprom.c ****             break;
1087:Generated_Source\PSoC6\pdl\middleware\em_eeprom/cy_em_eeprom.c ****         }
1088:Generated_Source\PSoC6\pdl\middleware\em_eeprom/cy_em_eeprom.c ****         i--;
1089:Generated_Source\PSoC6\pdl\middleware\em_eeprom/cy_em_eeprom.c ****     } while (0u != i);
1090:Generated_Source\PSoC6\pdl\middleware\em_eeprom/cy_em_eeprom.c **** 
1091:Generated_Source\PSoC6\pdl\middleware\em_eeprom/cy_em_eeprom.c ****     return(ret);
1092:Generated_Source\PSoC6\pdl\middleware\em_eeprom/cy_em_eeprom.c **** }
1093:Generated_Source\PSoC6\pdl\middleware\em_eeprom/cy_em_eeprom.c **** 
1094:Generated_Source\PSoC6\pdl\middleware\em_eeprom/cy_em_eeprom.c **** 
1095:Generated_Source\PSoC6\pdl\middleware\em_eeprom/cy_em_eeprom.c **** /*******************************************************************************
1096:Generated_Source\PSoC6\pdl\middleware\em_eeprom/cy_em_eeprom.c **** * Function Name: CheckCrcAndCopy
1097:Generated_Source\PSoC6\pdl\middleware\em_eeprom/cy_em_eeprom.c **** ****************************************************************************//**
1098:Generated_Source\PSoC6\pdl\middleware\em_eeprom/cy_em_eeprom.c **** *
1099:Generated_Source\PSoC6\pdl\middleware\em_eeprom/cy_em_eeprom.c **** * Checks the checksum of the specific row in EEPROM. If the CRC matches - copies
1100:Generated_Source\PSoC6\pdl\middleware\em_eeprom/cy_em_eeprom.c **** * the data to the "datAddr" from EEPROM. f the CRC does not match checks the
1101:Generated_Source\PSoC6\pdl\middleware\em_eeprom/cy_em_eeprom.c **** * CRC of the corresponding row in the EEPROM's redundant copy. If the CRC
1102:Generated_Source\PSoC6\pdl\middleware\em_eeprom/cy_em_eeprom.c **** * matches - copies the data to the "datAddr" from EEPROM redundant copy. If the
1103:Generated_Source\PSoC6\pdl\middleware\em_eeprom/cy_em_eeprom.c **** * CRC of the redundant copy does not match - returns bad checksum.
1104:Generated_Source\PSoC6\pdl\middleware\em_eeprom/cy_em_eeprom.c **** *
1105:Generated_Source\PSoC6\pdl\middleware\em_eeprom/cy_em_eeprom.c **** * \param startAddr
ARM GAS  C:\Users\eduar\AppData\Local\Temp\cctEoJXe.s 			page 28


1106:Generated_Source\PSoC6\pdl\middleware\em_eeprom/cy_em_eeprom.c **** * The address that points to the start of the specified row.
1107:Generated_Source\PSoC6\pdl\middleware\em_eeprom/cy_em_eeprom.c **** *
1108:Generated_Source\PSoC6\pdl\middleware\em_eeprom/cy_em_eeprom.c **** * \param datAddr
1109:Generated_Source\PSoC6\pdl\middleware\em_eeprom/cy_em_eeprom.c **** * The start address of where the row data will be copied if the CRC check
1110:Generated_Source\PSoC6\pdl\middleware\em_eeprom/cy_em_eeprom.c **** * will succeed.
1111:Generated_Source\PSoC6\pdl\middleware\em_eeprom/cy_em_eeprom.c **** *
1112:Generated_Source\PSoC6\pdl\middleware\em_eeprom/cy_em_eeprom.c **** * \param rowOffset
1113:Generated_Source\PSoC6\pdl\middleware\em_eeprom/cy_em_eeprom.c **** * The offset in the row from which the data should be copied.
1114:Generated_Source\PSoC6\pdl\middleware\em_eeprom/cy_em_eeprom.c **** *
1115:Generated_Source\PSoC6\pdl\middleware\em_eeprom/cy_em_eeprom.c **** * \param numBytes
1116:Generated_Source\PSoC6\pdl\middleware\em_eeprom/cy_em_eeprom.c **** * The number of bytes to be copied.
1117:Generated_Source\PSoC6\pdl\middleware\em_eeprom/cy_em_eeprom.c **** *
1118:Generated_Source\PSoC6\pdl\middleware\em_eeprom/cy_em_eeprom.c **** * \param context
1119:Generated_Source\PSoC6\pdl\middleware\em_eeprom/cy_em_eeprom.c **** * The pointer to the EEPROM context structure \ref cy_stc_eeprom_context_t.
1120:Generated_Source\PSoC6\pdl\middleware\em_eeprom/cy_em_eeprom.c **** *
1121:Generated_Source\PSoC6\pdl\middleware\em_eeprom/cy_em_eeprom.c **** * \return
1122:Generated_Source\PSoC6\pdl\middleware\em_eeprom/cy_em_eeprom.c **** * error / status code. See \ref cy_en_em_eeprom_status_t.
1123:Generated_Source\PSoC6\pdl\middleware\em_eeprom/cy_em_eeprom.c **** *
1124:Generated_Source\PSoC6\pdl\middleware\em_eeprom/cy_em_eeprom.c **** * \note
1125:Generated_Source\PSoC6\pdl\middleware\em_eeprom/cy_em_eeprom.c **** * This function uses a buffer of the flash row size to perform read
1126:Generated_Source\PSoC6\pdl\middleware\em_eeprom/cy_em_eeprom.c **** * operation. For the size of the row refer to the specific PSoC device
1127:Generated_Source\PSoC6\pdl\middleware\em_eeprom/cy_em_eeprom.c **** * datasheet.
1128:Generated_Source\PSoC6\pdl\middleware\em_eeprom/cy_em_eeprom.c **** *
1129:Generated_Source\PSoC6\pdl\middleware\em_eeprom/cy_em_eeprom.c **** *******************************************************************************/
1130:Generated_Source\PSoC6\pdl\middleware\em_eeprom/cy_em_eeprom.c **** static cy_en_em_eeprom_status_t CheckCrcAndCopy(uint32_t startAddr,
1131:Generated_Source\PSoC6\pdl\middleware\em_eeprom/cy_em_eeprom.c ****                                                 uint32_t dstAddr,
1132:Generated_Source\PSoC6\pdl\middleware\em_eeprom/cy_em_eeprom.c ****                                                 uint32_t rowOffset,
1133:Generated_Source\PSoC6\pdl\middleware\em_eeprom/cy_em_eeprom.c ****                                                 uint32_t numBytes,
1134:Generated_Source\PSoC6\pdl\middleware\em_eeprom/cy_em_eeprom.c ****                                                 cy_stc_eeprom_context_t * context)
1135:Generated_Source\PSoC6\pdl\middleware\em_eeprom/cy_em_eeprom.c **** {
1136:Generated_Source\PSoC6\pdl\middleware\em_eeprom/cy_em_eeprom.c ****     cy_en_em_eeprom_status_t ret;
1137:Generated_Source\PSoC6\pdl\middleware\em_eeprom/cy_em_eeprom.c ****     uint32_t writeRamBuffer[CY_EM_EEPROM_FLASH_SIZEOF_ROW / CY_EM_EEPROM_U32_DIV];
1138:Generated_Source\PSoC6\pdl\middleware\em_eeprom/cy_em_eeprom.c **** 
1139:Generated_Source\PSoC6\pdl\middleware\em_eeprom/cy_em_eeprom.c ****     /* Calculate the row address in the EEPROM's redundant copy */
1140:Generated_Source\PSoC6\pdl\middleware\em_eeprom/cy_em_eeprom.c ****     uint32_t rcStartRowAddr = (startAddr - context->userFlashStartAddr) + context->wlEndAddr;
1141:Generated_Source\PSoC6\pdl\middleware\em_eeprom/cy_em_eeprom.c **** 
1142:Generated_Source\PSoC6\pdl\middleware\em_eeprom/cy_em_eeprom.c ****     /* Check the row data CRC in the EEPROM */
1143:Generated_Source\PSoC6\pdl\middleware\em_eeprom/cy_em_eeprom.c ****     if((*(uint32_t *)(startAddr + CY_EM_EEPROM_HEADER_CHECKSUM_OFFSET)) ==
1144:Generated_Source\PSoC6\pdl\middleware\em_eeprom/cy_em_eeprom.c ****         ((uint32_t) CalcChecksum((uint8_t *)(startAddr + CY_EM_EEPROM_EEPROM_DATA_OFFSET),
1145:Generated_Source\PSoC6\pdl\middleware\em_eeprom/cy_em_eeprom.c ****             CY_EM_EEPROM_EEPROM_DATA_LEN)))
1146:Generated_Source\PSoC6\pdl\middleware\em_eeprom/cy_em_eeprom.c ****     {
1147:Generated_Source\PSoC6\pdl\middleware\em_eeprom/cy_em_eeprom.c ****         (void)memcpy((void *)(dstAddr), (void *)(startAddr + rowOffset), numBytes);
1148:Generated_Source\PSoC6\pdl\middleware\em_eeprom/cy_em_eeprom.c **** 
1149:Generated_Source\PSoC6\pdl\middleware\em_eeprom/cy_em_eeprom.c ****         ret = CY_EM_EEPROM_SUCCESS;
1150:Generated_Source\PSoC6\pdl\middleware\em_eeprom/cy_em_eeprom.c ****     }
1151:Generated_Source\PSoC6\pdl\middleware\em_eeprom/cy_em_eeprom.c ****     /* Check the row data CRC in the EEPROM's redundant copy */
1152:Generated_Source\PSoC6\pdl\middleware\em_eeprom/cy_em_eeprom.c ****     else if((*(uint32_t *)(rcStartRowAddr + CY_EM_EEPROM_HEADER_CHECKSUM_OFFSET)) ==
1153:Generated_Source\PSoC6\pdl\middleware\em_eeprom/cy_em_eeprom.c ****             ((uint32_t) CalcChecksum((uint8_t *)(rcStartRowAddr + CY_EM_EEPROM_EEPROM_DATA_OFFSET),
1154:Generated_Source\PSoC6\pdl\middleware\em_eeprom/cy_em_eeprom.c ****                 CY_EM_EEPROM_EEPROM_DATA_LEN)))
1155:Generated_Source\PSoC6\pdl\middleware\em_eeprom/cy_em_eeprom.c ****     {
1156:Generated_Source\PSoC6\pdl\middleware\em_eeprom/cy_em_eeprom.c ****         /* Copy the redundant copy row to RAM buffer to avoid read while write (RWW)
1157:Generated_Source\PSoC6\pdl\middleware\em_eeprom/cy_em_eeprom.c ****         * flash exception. The RWW occurs while trying to write and read the data from
1158:Generated_Source\PSoC6\pdl\middleware\em_eeprom/cy_em_eeprom.c ****         * same flash macro.
1159:Generated_Source\PSoC6\pdl\middleware\em_eeprom/cy_em_eeprom.c ****         */
1160:Generated_Source\PSoC6\pdl\middleware\em_eeprom/cy_em_eeprom.c ****         (void)memcpy((void *)(writeRamBuffer), (void *)(rcStartRowAddr), CY_EM_EEPROM_FLASH_SIZEOF_
1161:Generated_Source\PSoC6\pdl\middleware\em_eeprom/cy_em_eeprom.c **** 
1162:Generated_Source\PSoC6\pdl\middleware\em_eeprom/cy_em_eeprom.c ****         /* Restore bad row data from the RAM buffer */
ARM GAS  C:\Users\eduar\AppData\Local\Temp\cctEoJXe.s 			page 29


1163:Generated_Source\PSoC6\pdl\middleware\em_eeprom/cy_em_eeprom.c ****         ret = WriteRow(startAddr, (uint32_t *)writeRamBuffer, context);
1164:Generated_Source\PSoC6\pdl\middleware\em_eeprom/cy_em_eeprom.c **** 
1165:Generated_Source\PSoC6\pdl\middleware\em_eeprom/cy_em_eeprom.c ****         if(CY_EM_EEPROM_SUCCESS == ret)
1166:Generated_Source\PSoC6\pdl\middleware\em_eeprom/cy_em_eeprom.c ****         {
1167:Generated_Source\PSoC6\pdl\middleware\em_eeprom/cy_em_eeprom.c ****             (void)memcpy((void *)(dstAddr), (void *)(writeRamBuffer + rowOffset), numBytes);
1168:Generated_Source\PSoC6\pdl\middleware\em_eeprom/cy_em_eeprom.c ****         }
1169:Generated_Source\PSoC6\pdl\middleware\em_eeprom/cy_em_eeprom.c ****     }
1170:Generated_Source\PSoC6\pdl\middleware\em_eeprom/cy_em_eeprom.c ****     else
1171:Generated_Source\PSoC6\pdl\middleware\em_eeprom/cy_em_eeprom.c ****     {
1172:Generated_Source\PSoC6\pdl\middleware\em_eeprom/cy_em_eeprom.c ****         ret = CY_EM_EEPROM_BAD_CHECKSUM;
1173:Generated_Source\PSoC6\pdl\middleware\em_eeprom/cy_em_eeprom.c ****     }
1174:Generated_Source\PSoC6\pdl\middleware\em_eeprom/cy_em_eeprom.c **** 
1175:Generated_Source\PSoC6\pdl\middleware\em_eeprom/cy_em_eeprom.c ****     return(ret);
1176:Generated_Source\PSoC6\pdl\middleware\em_eeprom/cy_em_eeprom.c **** }
1177:Generated_Source\PSoC6\pdl\middleware\em_eeprom/cy_em_eeprom.c **** 
1178:Generated_Source\PSoC6\pdl\middleware\em_eeprom/cy_em_eeprom.c **** 
1179:Generated_Source\PSoC6\pdl\middleware\em_eeprom/cy_em_eeprom.c **** /*******************************************************************************
1180:Generated_Source\PSoC6\pdl\middleware\em_eeprom/cy_em_eeprom.c **** * Function Name: GetAddresses
1181:Generated_Source\PSoC6\pdl\middleware\em_eeprom/cy_em_eeprom.c **** ****************************************************************************//**
1182:Generated_Source\PSoC6\pdl\middleware\em_eeprom/cy_em_eeprom.c **** *
1183:Generated_Source\PSoC6\pdl\middleware\em_eeprom/cy_em_eeprom.c **** * Calculates the start and end address of the row's EEPROM data to be updated.
1184:Generated_Source\PSoC6\pdl\middleware\em_eeprom/cy_em_eeprom.c **** * The start and end are not absolute addresses but a relative addresses in a
1185:Generated_Source\PSoC6\pdl\middleware\em_eeprom/cy_em_eeprom.c **** * flash row.
1186:Generated_Source\PSoC6\pdl\middleware\em_eeprom/cy_em_eeprom.c **** *
1187:Generated_Source\PSoC6\pdl\middleware\em_eeprom/cy_em_eeprom.c **** * \param startAddr
1188:Generated_Source\PSoC6\pdl\middleware\em_eeprom/cy_em_eeprom.c **** * The pointer the address where the EEPROM data start address will be returned.
1189:Generated_Source\PSoC6\pdl\middleware\em_eeprom/cy_em_eeprom.c **** *
1190:Generated_Source\PSoC6\pdl\middleware\em_eeprom/cy_em_eeprom.c **** * \param endAddr
1191:Generated_Source\PSoC6\pdl\middleware\em_eeprom/cy_em_eeprom.c **** * The pointer the address where the EEPROM data end address will be returned.
1192:Generated_Source\PSoC6\pdl\middleware\em_eeprom/cy_em_eeprom.c **** *
1193:Generated_Source\PSoC6\pdl\middleware\em_eeprom/cy_em_eeprom.c **** * \param offset
1194:Generated_Source\PSoC6\pdl\middleware\em_eeprom/cy_em_eeprom.c **** * The pointer the address where the calculated offset of the EEPROM header data
1195:Generated_Source\PSoC6\pdl\middleware\em_eeprom/cy_em_eeprom.c **** * will be returned.
1196:Generated_Source\PSoC6\pdl\middleware\em_eeprom/cy_em_eeprom.c **** *
1197:Generated_Source\PSoC6\pdl\middleware\em_eeprom/cy_em_eeprom.c **** * \param rowNum
1198:Generated_Source\PSoC6\pdl\middleware\em_eeprom/cy_em_eeprom.c **** * The row number that is about to be written.
1199:Generated_Source\PSoC6\pdl\middleware\em_eeprom/cy_em_eeprom.c **** *
1200:Generated_Source\PSoC6\pdl\middleware\em_eeprom/cy_em_eeprom.c **** * \param addr
1201:Generated_Source\PSoC6\pdl\middleware\em_eeprom/cy_em_eeprom.c **** * The address of the EEPROM header data in the currently analyzed row that may
1202:Generated_Source\PSoC6\pdl\middleware\em_eeprom/cy_em_eeprom.c **** * concern to the row about to be written.
1203:Generated_Source\PSoC6\pdl\middleware\em_eeprom/cy_em_eeprom.c **** *
1204:Generated_Source\PSoC6\pdl\middleware\em_eeprom/cy_em_eeprom.c **** * \param len
1205:Generated_Source\PSoC6\pdl\middleware\em_eeprom/cy_em_eeprom.c **** * The length of the EEPROM header data in the currently analyzed row that may
1206:Generated_Source\PSoC6\pdl\middleware\em_eeprom/cy_em_eeprom.c **** * concern to the row about to be written.
1207:Generated_Source\PSoC6\pdl\middleware\em_eeprom/cy_em_eeprom.c **** *
1208:Generated_Source\PSoC6\pdl\middleware\em_eeprom/cy_em_eeprom.c **** * \return
1209:Generated_Source\PSoC6\pdl\middleware\em_eeprom/cy_em_eeprom.c **** * Zero indicates that the currently analyzed row has the data to be written to
1210:Generated_Source\PSoC6\pdl\middleware\em_eeprom/cy_em_eeprom.c **** * the active EEPROM row data locations. Non zero value indicates that there is
1211:Generated_Source\PSoC6\pdl\middleware\em_eeprom/cy_em_eeprom.c **** * no data to be written
1212:Generated_Source\PSoC6\pdl\middleware\em_eeprom/cy_em_eeprom.c **** *
1213:Generated_Source\PSoC6\pdl\middleware\em_eeprom/cy_em_eeprom.c **** *******************************************************************************/
1214:Generated_Source\PSoC6\pdl\middleware\em_eeprom/cy_em_eeprom.c **** static uint32_t GetAddresses(uint32_t *startAddr, 
1215:Generated_Source\PSoC6\pdl\middleware\em_eeprom/cy_em_eeprom.c ****                         uint32_t *endAddr, 
1216:Generated_Source\PSoC6\pdl\middleware\em_eeprom/cy_em_eeprom.c ****                         uint32_t *offset,
1217:Generated_Source\PSoC6\pdl\middleware\em_eeprom/cy_em_eeprom.c ****                         uint32_t rowNum,
1218:Generated_Source\PSoC6\pdl\middleware\em_eeprom/cy_em_eeprom.c ****                         uint32_t addr,
1219:Generated_Source\PSoC6\pdl\middleware\em_eeprom/cy_em_eeprom.c ****                         uint32_t len)
ARM GAS  C:\Users\eduar\AppData\Local\Temp\cctEoJXe.s 			page 30


1220:Generated_Source\PSoC6\pdl\middleware\em_eeprom/cy_em_eeprom.c **** {
 421              		.loc 1 1220 0
 422              		.cfi_startproc
 423              		@ args = 8, pretend = 0, frame = 0
 424              		@ frame_needed = 0, uses_anonymous_args = 0
 425              	.LVL54:
 426 0000 F0B5     		push	{r4, r5, r6, r7, lr}
 427              		.cfi_def_cfa_offset 20
 428              		.cfi_offset 4, -20
 429              		.cfi_offset 5, -16
 430              		.cfi_offset 6, -12
 431              		.cfi_offset 7, -8
 432              		.cfi_offset 14, -4
 433 0002 059C     		ldr	r4, [sp, #20]
 434              	.LVL55:
1221:Generated_Source\PSoC6\pdl\middleware\em_eeprom/cy_em_eeprom.c ****     uint32_t skip = 0u;
1222:Generated_Source\PSoC6\pdl\middleware\em_eeprom/cy_em_eeprom.c **** 
1223:Generated_Source\PSoC6\pdl\middleware\em_eeprom/cy_em_eeprom.c ****     *offset =0u;
 435              		.loc 1 1223 0
 436 0004 0025     		movs	r5, #0
 437 0006 1560     		str	r5, [r2]
1224:Generated_Source\PSoC6\pdl\middleware\em_eeprom/cy_em_eeprom.c **** 
1225:Generated_Source\PSoC6\pdl\middleware\em_eeprom/cy_em_eeprom.c ****     if(0u != CY_EM_EEPROM_IS_ADDR_IN_ROW_RANGE(addr, rowNum))
 438              		.loc 1 1225 0
 439 0008 1D02     		lsls	r5, r3, #8
 440 000a A542     		cmp	r5, r4
 441 000c 06D8     		bhi	.L41
 442              		.loc 1 1225 0 is_stmt 0 discriminator 1
 443 000e 5E1C     		adds	r6, r3, #1
 444 0010 3602     		lsls	r6, r6, #8
 445 0012 013E     		subs	r6, r6, #1
 446 0014 B442     		cmp	r4, r6
 447 0016 03D9     		bls	.L42
 448              		.loc 1 1225 0
 449 0018 0026     		movs	r6, #0
 450 001a 02E0     		b	.L35
 451              	.L41:
 452 001c 0026     		movs	r6, #0
 453 001e 00E0     		b	.L35
 454              	.L42:
 455 0020 0126     		movs	r6, #1
 456              	.L35:
 457              		.loc 1 1225 0 discriminator 6
 458 0022 002E     		cmp	r6, #0
 459 0024 20D0     		beq	.L36
1226:Generated_Source\PSoC6\pdl\middleware\em_eeprom/cy_em_eeprom.c ****     {
1227:Generated_Source\PSoC6\pdl\middleware\em_eeprom/cy_em_eeprom.c ****         *startAddr = CY_EM_EEPROM_EEPROM_DATA_LEN + (addr % CY_EM_EEPROM_EEPROM_DATA_LEN);
 460              		.loc 1 1227 0 is_stmt 1
 461 0026 FF22     		movs	r2, #255
 462              	.LVL56:
 463 0028 2240     		ands	r2, r4
 464 002a 0132     		adds	r2, r2, #1
 465 002c FF32     		adds	r2, r2, #255
 466 002e 0260     		str	r2, [r0]
1228:Generated_Source\PSoC6\pdl\middleware\em_eeprom/cy_em_eeprom.c **** 
1229:Generated_Source\PSoC6\pdl\middleware\em_eeprom/cy_em_eeprom.c ****         if(0u != CY_EM_EEPROM_IS_ADDR_IN_ROW_RANGE(addr + len, rowNum))
 467              		.loc 1 1229 0
ARM GAS  C:\Users\eduar\AppData\Local\Temp\cctEoJXe.s 			page 31


 468 0030 0698     		ldr	r0, [sp, #24]
 469              	.LVL57:
 470 0032 8446     		mov	ip, r0
 471 0034 6444     		add	r4, r4, ip
 472 0036 A542     		cmp	r5, r4
 473 0038 06D8     		bhi	.L43
 474              		.loc 1 1229 0 is_stmt 0 discriminator 1
 475 003a 0133     		adds	r3, r3, #1
 476              	.LVL58:
 477 003c 1B02     		lsls	r3, r3, #8
 478              	.LVL59:
 479 003e 013B     		subs	r3, r3, #1
 480 0040 9C42     		cmp	r4, r3
 481 0042 03D9     		bls	.L44
 482              		.loc 1 1229 0
 483 0044 0023     		movs	r3, #0
 484 0046 02E0     		b	.L37
 485              	.LVL60:
 486              	.L43:
 487 0048 0023     		movs	r3, #0
 488              	.LVL61:
 489 004a 00E0     		b	.L37
 490              	.L44:
 491 004c 0123     		movs	r3, #1
 492              	.L37:
 493              		.loc 1 1229 0 discriminator 6
 494 004e 002B     		cmp	r3, #0
 495 0050 05D0     		beq	.L38
1230:Generated_Source\PSoC6\pdl\middleware\em_eeprom/cy_em_eeprom.c ****         {
1231:Generated_Source\PSoC6\pdl\middleware\em_eeprom/cy_em_eeprom.c ****             *endAddr = *startAddr + len;
 496              		.loc 1 1231 0 is_stmt 1
 497 0052 069B     		ldr	r3, [sp, #24]
 498 0054 9C46     		mov	ip, r3
 499 0056 6244     		add	r2, r2, ip
 500 0058 0A60     		str	r2, [r1]
1221:Generated_Source\PSoC6\pdl\middleware\em_eeprom/cy_em_eeprom.c **** 
 501              		.loc 1 1221 0
 502 005a 0020     		movs	r0, #0
 503 005c 25E0     		b	.L39
 504              	.L38:
1232:Generated_Source\PSoC6\pdl\middleware\em_eeprom/cy_em_eeprom.c ****         }
1233:Generated_Source\PSoC6\pdl\middleware\em_eeprom/cy_em_eeprom.c ****         else
1234:Generated_Source\PSoC6\pdl\middleware\em_eeprom/cy_em_eeprom.c ****         {
1235:Generated_Source\PSoC6\pdl\middleware\em_eeprom/cy_em_eeprom.c ****             *endAddr = CY_EM_EEPROM_FLASH_SIZEOF_ROW;
 505              		.loc 1 1235 0
 506 005e 8023     		movs	r3, #128
 507 0060 9B00     		lsls	r3, r3, #2
 508 0062 0B60     		str	r3, [r1]
1221:Generated_Source\PSoC6\pdl\middleware\em_eeprom/cy_em_eeprom.c **** 
 509              		.loc 1 1221 0
 510 0064 0020     		movs	r0, #0
 511 0066 20E0     		b	.L39
 512              	.LVL62:
 513              	.L36:
1236:Generated_Source\PSoC6\pdl\middleware\em_eeprom/cy_em_eeprom.c ****         }
1237:Generated_Source\PSoC6\pdl\middleware\em_eeprom/cy_em_eeprom.c ****     }
1238:Generated_Source\PSoC6\pdl\middleware\em_eeprom/cy_em_eeprom.c ****     else
ARM GAS  C:\Users\eduar\AppData\Local\Temp\cctEoJXe.s 			page 32


1239:Generated_Source\PSoC6\pdl\middleware\em_eeprom/cy_em_eeprom.c ****     {
1240:Generated_Source\PSoC6\pdl\middleware\em_eeprom/cy_em_eeprom.c **** 
1241:Generated_Source\PSoC6\pdl\middleware\em_eeprom/cy_em_eeprom.c ****         if(0u != CY_EM_EEPROM_IS_ADDR_IN_ROW_RANGE(addr + len, rowNum))
 514              		.loc 1 1241 0
 515 0068 069F     		ldr	r7, [sp, #24]
 516 006a E719     		adds	r7, r4, r7
 517 006c BD42     		cmp	r5, r7
 518 006e 05D8     		bhi	.L40
 519              		.loc 1 1241 0 is_stmt 0 discriminator 1
 520 0070 0133     		adds	r3, r3, #1
 521              	.LVL63:
 522 0072 1B02     		lsls	r3, r3, #8
 523              	.LVL64:
 524 0074 013B     		subs	r3, r3, #1
 525 0076 9F42     		cmp	r7, r3
 526 0078 00D8     		bhi	.L40
 527              		.loc 1 1241 0
 528 007a 0126     		movs	r6, #1
 529              	.L40:
 530              		.loc 1 1241 0 discriminator 6
 531 007c 002E     		cmp	r6, #0
 532 007e 13D0     		beq	.L46
1242:Generated_Source\PSoC6\pdl\middleware\em_eeprom/cy_em_eeprom.c ****         {
1243:Generated_Source\PSoC6\pdl\middleware\em_eeprom/cy_em_eeprom.c ****             *startAddr = CY_EM_EEPROM_EEPROM_DATA_LEN;
 533              		.loc 1 1243 0 is_stmt 1
 534 0080 8023     		movs	r3, #128
 535 0082 5B00     		lsls	r3, r3, #1
 536 0084 0360     		str	r3, [r0]
1244:Generated_Source\PSoC6\pdl\middleware\em_eeprom/cy_em_eeprom.c ****             *endAddr = (*startAddr + len) - (*startAddr - (addr % CY_EM_EEPROM_EEPROM_DATA_LEN));
 537              		.loc 1 1244 0
 538 0086 069B     		ldr	r3, [sp, #24]
 539 0088 0133     		adds	r3, r3, #1
 540 008a FF33     		adds	r3, r3, #255
 541 008c FF25     		movs	r5, #255
 542 008e 2C40     		ands	r4, r5
 543 0090 013C     		subs	r4, r4, #1
 544 0092 FF3C     		subs	r4, r4, #255
 545 0094 1C19     		adds	r4, r3, r4
 546 0096 0C60     		str	r4, [r1]
1245:Generated_Source\PSoC6\pdl\middleware\em_eeprom/cy_em_eeprom.c ****             *offset = len - (*endAddr - *startAddr);
 547              		.loc 1 1245 0
 548 0098 0368     		ldr	r3, [r0]
 549 009a 1C1B     		subs	r4, r3, r4
 550 009c 069B     		ldr	r3, [sp, #24]
 551 009e 9C46     		mov	ip, r3
 552 00a0 6444     		add	r4, r4, ip
 553 00a2 1460     		str	r4, [r2]
1221:Generated_Source\PSoC6\pdl\middleware\em_eeprom/cy_em_eeprom.c **** 
 554              		.loc 1 1221 0
 555 00a4 0020     		movs	r0, #0
 556              	.LVL65:
 557 00a6 00E0     		b	.L39
 558              	.LVL66:
 559              	.L46:
1246:Generated_Source\PSoC6\pdl\middleware\em_eeprom/cy_em_eeprom.c ****         }
1247:Generated_Source\PSoC6\pdl\middleware\em_eeprom/cy_em_eeprom.c ****         else
1248:Generated_Source\PSoC6\pdl\middleware\em_eeprom/cy_em_eeprom.c ****         {
ARM GAS  C:\Users\eduar\AppData\Local\Temp\cctEoJXe.s 			page 33


1249:Generated_Source\PSoC6\pdl\middleware\em_eeprom/cy_em_eeprom.c ****             skip++;
 560              		.loc 1 1249 0
 561 00a8 0120     		movs	r0, #1
 562              	.LVL67:
 563              	.L39:
1250:Generated_Source\PSoC6\pdl\middleware\em_eeprom/cy_em_eeprom.c ****         }
1251:Generated_Source\PSoC6\pdl\middleware\em_eeprom/cy_em_eeprom.c ****     }
1252:Generated_Source\PSoC6\pdl\middleware\em_eeprom/cy_em_eeprom.c **** 
1253:Generated_Source\PSoC6\pdl\middleware\em_eeprom/cy_em_eeprom.c ****     return (skip);
1254:Generated_Source\PSoC6\pdl\middleware\em_eeprom/cy_em_eeprom.c **** }
 564              		.loc 1 1254 0
 565              		@ sp needed
 566 00aa F0BD     		pop	{r4, r5, r6, r7, pc}
 567              		.cfi_endproc
 568              	.LFE58:
 569              		.size	GetAddresses, .-GetAddresses
 570              		.section	.text.WriteRow,"ax",%progbits
 571              		.align	2
 572              		.code	16
 573              		.thumb_func
 574              		.type	WriteRow, %function
 575              	WriteRow:
 576              	.LFB55:
 972:Generated_Source\PSoC6\pdl\middleware\em_eeprom/cy_em_eeprom.c ****     cy_en_em_eeprom_status_t ret = CY_EM_EEPROM_WRITE_FAIL;
 577              		.loc 1 972 0
 578              		.cfi_startproc
 579              		@ args = 0, pretend = 0, frame = 0
 580              		@ frame_needed = 0, uses_anonymous_args = 0
 581              	.LVL68:
 582 0000 10B5     		push	{r4, lr}
 583              		.cfi_def_cfa_offset 8
 584              		.cfi_offset 4, -8
 585              		.cfi_offset 14, -4
 586              	.LVL69:
 974:Generated_Source\PSoC6\pdl\middleware\em_eeprom/cy_em_eeprom.c ****     {
 587              		.loc 1 974 0
 588 0002 537D     		ldrb	r3, [r2, #21]
 589 0004 002B     		cmp	r3, #0
 590 0006 05D0     		beq	.L48
 977:Generated_Source\PSoC6\pdl\middleware\em_eeprom/cy_em_eeprom.c ****         {
 591              		.loc 1 977 0
 592 0008 FFF7FEFF 		bl	Cy_Flash_WriteRow
 593              	.LVL70:
 594 000c 0028     		cmp	r0, #0
 595 000e 16D0     		beq	.L52
 973:Generated_Source\PSoC6\pdl\middleware\em_eeprom/cy_em_eeprom.c ****     if(0u != context->blockingWrite)
 596              		.loc 1 973 0
 597 0010 0E48     		ldr	r0, .L55
 598 0012 19E0     		b	.L49
 599              	.LVL71:
 600              	.L48:
 985:Generated_Source\PSoC6\pdl\middleware\em_eeprom/cy_em_eeprom.c ****         {
 601              		.loc 1 985 0
 602 0014 FFF7FEFF 		bl	Cy_Flash_StartWrite
 603              	.LVL72:
 604 0018 0D4B     		ldr	r3, .L55+4
 605 001a 9842     		cmp	r0, r3
ARM GAS  C:\Users\eduar\AppData\Local\Temp\cctEoJXe.s 			page 34


 606 001c 11D1     		bne	.L53
 607 001e 3224     		movs	r4, #50
 608              	.L51:
 609              	.LVL73:
 610              	.LBB2:
 992:Generated_Source\PSoC6\pdl\middleware\em_eeprom/cy_em_eeprom.c ****                 rc = Cy_Flash_IsWriteComplete();     /* Check if write completed */
 611              		.loc 1 992 0 discriminator 2
 612 0020 0120     		movs	r0, #1
 613 0022 FFF7FEFF 		bl	Cy_SysLib_Delay
 614              	.LVL74:
 993:Generated_Source\PSoC6\pdl\middleware\em_eeprom/cy_em_eeprom.c ****                 countMs--;
 615              		.loc 1 993 0 discriminator 2
 616 0026 FFF7FEFF 		bl	Cy_Flash_IsOperationComplete
 617              	.LVL75:
 994:Generated_Source\PSoC6\pdl\middleware\em_eeprom/cy_em_eeprom.c ****             }
 618              		.loc 1 994 0 discriminator 2
 619 002a 013C     		subs	r4, r4, #1
 620              	.LVL76:
 996:Generated_Source\PSoC6\pdl\middleware\em_eeprom/cy_em_eeprom.c **** 
 621              		.loc 1 996 0 discriminator 2
 622 002c 094B     		ldr	r3, .L55+8
 623 002e 9842     		cmp	r0, r3
 624 0030 01D1     		bne	.L50
 996:Generated_Source\PSoC6\pdl\middleware\em_eeprom/cy_em_eeprom.c **** 
 625              		.loc 1 996 0 is_stmt 0 discriminator 1
 626 0032 002C     		cmp	r4, #0
 627 0034 F4D1     		bne	.L51
 628              	.L50:
 998:Generated_Source\PSoC6\pdl\middleware\em_eeprom/cy_em_eeprom.c ****             {
 629              		.loc 1 998 0 is_stmt 1
 630 0036 0028     		cmp	r0, #0
 631 0038 05D0     		beq	.L54
 632              	.LBE2:
 973:Generated_Source\PSoC6\pdl\middleware\em_eeprom/cy_em_eeprom.c ****     if(0u != context->blockingWrite)
 633              		.loc 1 973 0
 634 003a 0448     		ldr	r0, .L55
 635              	.LVL77:
 636 003c 04E0     		b	.L49
 637              	.LVL78:
 638              	.L52:
 979:Generated_Source\PSoC6\pdl\middleware\em_eeprom/cy_em_eeprom.c ****         }
 639              		.loc 1 979 0
 640 003e 0020     		movs	r0, #0
 641 0040 02E0     		b	.L49
 642              	.L53:
 973:Generated_Source\PSoC6\pdl\middleware\em_eeprom/cy_em_eeprom.c ****     if(0u != context->blockingWrite)
 643              		.loc 1 973 0
 644 0042 0248     		ldr	r0, .L55
 645 0044 00E0     		b	.L49
 646              	.LVL79:
 647              	.L54:
 648              	.LBB3:
1000:Generated_Source\PSoC6\pdl\middleware\em_eeprom/cy_em_eeprom.c ****             }
 649              		.loc 1 1000 0
 650 0046 0020     		movs	r0, #0
 651              	.LVL80:
 652              	.L49:
ARM GAS  C:\Users\eduar\AppData\Local\Temp\cctEoJXe.s 			page 35


 653              	.LBE3:
1006:Generated_Source\PSoC6\pdl\middleware\em_eeprom/cy_em_eeprom.c **** 
 654              		.loc 1 1006 0
 655              		@ sp needed
 656 0048 10BD     		pop	{r4, pc}
 657              	.L56:
 658 004a C046     		.align	2
 659              	.L55:
 660 004c 04006E00 		.word	7208964
 661 0050 01005000 		.word	5242881
 662 0054 02005000 		.word	5242882
 663              		.cfi_endproc
 664              	.LFE55:
 665              		.size	WriteRow, .-WriteRow
 666              		.section	.text.FillChecksum,"ax",%progbits
 667              		.align	2
 668              		.code	16
 669              		.thumb_func
 670              		.type	FillChecksum, %function
 671              	FillChecksum:
 672              	.LFB59:
1255:Generated_Source\PSoC6\pdl\middleware\em_eeprom/cy_em_eeprom.c **** 
1256:Generated_Source\PSoC6\pdl\middleware\em_eeprom/cy_em_eeprom.c **** 
1257:Generated_Source\PSoC6\pdl\middleware\em_eeprom/cy_em_eeprom.c **** /*******************************************************************************
1258:Generated_Source\PSoC6\pdl\middleware\em_eeprom/cy_em_eeprom.c **** * Function Name: FillChecksum
1259:Generated_Source\PSoC6\pdl\middleware\em_eeprom/cy_em_eeprom.c **** ****************************************************************************//**
1260:Generated_Source\PSoC6\pdl\middleware\em_eeprom/cy_em_eeprom.c **** *
1261:Generated_Source\PSoC6\pdl\middleware\em_eeprom/cy_em_eeprom.c **** * Performs calculation of the checksum on each row in the Em_EEPROM and fills
1262:Generated_Source\PSoC6\pdl\middleware\em_eeprom/cy_em_eeprom.c **** * the Em_EEPROM headers checksum field with the calculated checksums.
1263:Generated_Source\PSoC6\pdl\middleware\em_eeprom/cy_em_eeprom.c **** *
1264:Generated_Source\PSoC6\pdl\middleware\em_eeprom/cy_em_eeprom.c **** * \param context
1265:Generated_Source\PSoC6\pdl\middleware\em_eeprom/cy_em_eeprom.c **** * The pointer to the EEPROM context structure.
1266:Generated_Source\PSoC6\pdl\middleware\em_eeprom/cy_em_eeprom.c **** *
1267:Generated_Source\PSoC6\pdl\middleware\em_eeprom/cy_em_eeprom.c **** * \return
1268:Generated_Source\PSoC6\pdl\middleware\em_eeprom/cy_em_eeprom.c **** * error / status code. See \ref cy_en_em_eeprom_status_t.
1269:Generated_Source\PSoC6\pdl\middleware\em_eeprom/cy_em_eeprom.c **** *
1270:Generated_Source\PSoC6\pdl\middleware\em_eeprom/cy_em_eeprom.c **** * \theory 
1271:Generated_Source\PSoC6\pdl\middleware\em_eeprom/cy_em_eeprom.c **** * In case if redundant copy option is used the Em_EEPROM would return bad 
1272:Generated_Source\PSoC6\pdl\middleware\em_eeprom/cy_em_eeprom.c **** * checksum while trying to read the EEPROM rows which were not yet written by 
1273:Generated_Source\PSoC6\pdl\middleware\em_eeprom/cy_em_eeprom.c **** * the user. E.g. any read after device reprogramming without previous Write() 
1274:Generated_Source\PSoC6\pdl\middleware\em_eeprom/cy_em_eeprom.c **** * operation to the EEPROM would fail. This would happen because the Em_EEPROM 
1275:Generated_Source\PSoC6\pdl\middleware\em_eeprom/cy_em_eeprom.c **** * headers checksum field values (which is zero at the moment) would not be 
1276:Generated_Source\PSoC6\pdl\middleware\em_eeprom/cy_em_eeprom.c **** * equal to the actual data checksum. This function allows to avoid read failure
1277:Generated_Source\PSoC6\pdl\middleware\em_eeprom/cy_em_eeprom.c **** * after device reprogramming. 
1278:Generated_Source\PSoC6\pdl\middleware\em_eeprom/cy_em_eeprom.c **** *
1279:Generated_Source\PSoC6\pdl\middleware\em_eeprom/cy_em_eeprom.c **** * \note
1280:Generated_Source\PSoC6\pdl\middleware\em_eeprom/cy_em_eeprom.c **** * This function uses a buffer of the flash row size to perform read
1281:Generated_Source\PSoC6\pdl\middleware\em_eeprom/cy_em_eeprom.c **** * operation. For the size of the row refer to the specific PSoC device
1282:Generated_Source\PSoC6\pdl\middleware\em_eeprom/cy_em_eeprom.c **** * datasheet.
1283:Generated_Source\PSoC6\pdl\middleware\em_eeprom/cy_em_eeprom.c **** *
1284:Generated_Source\PSoC6\pdl\middleware\em_eeprom/cy_em_eeprom.c **** *******************************************************************************/
1285:Generated_Source\PSoC6\pdl\middleware\em_eeprom/cy_em_eeprom.c **** static cy_en_em_eeprom_status_t FillChecksum(cy_stc_eeprom_context_t * context)
1286:Generated_Source\PSoC6\pdl\middleware\em_eeprom/cy_em_eeprom.c **** {
 673              		.loc 1 1286 0
 674              		.cfi_startproc
 675              		@ args = 0, pretend = 0, frame = 520
 676              		@ frame_needed = 0, uses_anonymous_args = 0
ARM GAS  C:\Users\eduar\AppData\Local\Temp\cctEoJXe.s 			page 36


 677              	.LVL81:
 678 0000 F0B5     		push	{r4, r5, r6, r7, lr}
 679              		.cfi_def_cfa_offset 20
 680              		.cfi_offset 4, -20
 681              		.cfi_offset 5, -16
 682              		.cfi_offset 6, -12
 683              		.cfi_offset 7, -8
 684              		.cfi_offset 14, -4
 685 0002 1E4C     		ldr	r4, .L60
 686 0004 A544     		add	sp, sp, r4
 687              		.cfi_def_cfa_offset 544
 688 0006 0400     		movs	r4, r0
1287:Generated_Source\PSoC6\pdl\middleware\em_eeprom/cy_em_eeprom.c ****     uint32_t i;
1288:Generated_Source\PSoC6\pdl\middleware\em_eeprom/cy_em_eeprom.c ****     uint32_t rdAddr;
1289:Generated_Source\PSoC6\pdl\middleware\em_eeprom/cy_em_eeprom.c ****     uint32_t writeRamBuffer[CY_EM_EEPROM_FLASH_SIZEOF_ROW / CY_EM_EEPROM_U32_DIV];
1290:Generated_Source\PSoC6\pdl\middleware\em_eeprom/cy_em_eeprom.c ****     uint32_t wrAddr = context->lastWrRowAddr;
 689              		.loc 1 1290 0
 690 0008 8368     		ldr	r3, [r0, #8]
 691 000a 0093     		str	r3, [sp]
1291:Generated_Source\PSoC6\pdl\middleware\em_eeprom/cy_em_eeprom.c ****     uint32_t tmpRowAddr;
1292:Generated_Source\PSoC6\pdl\middleware\em_eeprom/cy_em_eeprom.c ****     /* Get the sequence number (number of writes) */
1293:Generated_Source\PSoC6\pdl\middleware\em_eeprom/cy_em_eeprom.c ****     uint32_t seqNum = CY_EM_EEPROM_GET_SEQ_NUM(wrAddr);
 692              		.loc 1 1293 0
 693 000c 1D68     		ldr	r5, [r3]
 694              	.LVL82:
1294:Generated_Source\PSoC6\pdl\middleware\em_eeprom/cy_em_eeprom.c ****     cy_en_em_eeprom_status_t ret = CY_EM_EEPROM_BAD_PARAM;
 695              		.loc 1 1294 0
 696 000e 1C4E     		ldr	r6, .L60+4
1295:Generated_Source\PSoC6\pdl\middleware\em_eeprom/cy_em_eeprom.c **** 
1296:Generated_Source\PSoC6\pdl\middleware\em_eeprom/cy_em_eeprom.c ****     for(i = 0u; i < (context->numberOfRows * context->wearLevelingFactor); i++)
 697              		.loc 1 1296 0
 698 0010 0027     		movs	r7, #0
 699 0012 28E0     		b	.L58
 700              	.LVL83:
 701              	.L59:
1297:Generated_Source\PSoC6\pdl\middleware\em_eeprom/cy_em_eeprom.c ****     {
1298:Generated_Source\PSoC6\pdl\middleware\em_eeprom/cy_em_eeprom.c ****         /* Copy the EEPROM row from Flash to RAM */
1299:Generated_Source\PSoC6\pdl\middleware\em_eeprom/cy_em_eeprom.c ****         (void)memcpy((void *)&writeRamBuffer[0u], (void *)(wrAddr), CY_EM_EEPROM_FLASH_SIZEOF_ROW);
 702              		.loc 1 1299 0 discriminator 3
 703 0014 009E     		ldr	r6, [sp]
 704              	.LVL84:
 705 0016 8022     		movs	r2, #128
 706 0018 9200     		lsls	r2, r2, #2
 707 001a 3100     		movs	r1, r6
 708 001c 01A8     		add	r0, sp, #4
 709 001e FFF7FEFF 		bl	memcpy
 710              	.LVL85:
1300:Generated_Source\PSoC6\pdl\middleware\em_eeprom/cy_em_eeprom.c **** 
1301:Generated_Source\PSoC6\pdl\middleware\em_eeprom/cy_em_eeprom.c ****         /* Increment the sequence number */
1302:Generated_Source\PSoC6\pdl\middleware\em_eeprom/cy_em_eeprom.c ****         seqNum++;
 711              		.loc 1 1302 0 discriminator 3
 712 0022 0135     		adds	r5, r5, #1
 713              	.LVL86:
1303:Generated_Source\PSoC6\pdl\middleware\em_eeprom/cy_em_eeprom.c ****         writeRamBuffer[CY_EM_EEPROM_HEADER_SEQ_NUM_OFFSET_U32] = seqNum;
 714              		.loc 1 1303 0 discriminator 3
 715 0024 0195     		str	r5, [sp, #4]
1304:Generated_Source\PSoC6\pdl\middleware\em_eeprom/cy_em_eeprom.c **** 
ARM GAS  C:\Users\eduar\AppData\Local\Temp\cctEoJXe.s 			page 37


1305:Generated_Source\PSoC6\pdl\middleware\em_eeprom/cy_em_eeprom.c ****         /* Calculate and fill the checksum to the Em_EEPROM header */
1306:Generated_Source\PSoC6\pdl\middleware\em_eeprom/cy_em_eeprom.c ****         writeRamBuffer[CY_EM_EEPROM_HEADER_CHECKSUM_OFFSET_U32] = (uint32_t)
1307:Generated_Source\PSoC6\pdl\middleware\em_eeprom/cy_em_eeprom.c ****                     CalcChecksum((uint8_t *) &writeRamBuffer[CY_EM_EEPROM_EEPROM_DATA_OFFSET_U32],
 716              		.loc 1 1307 0 discriminator 3
 717 0026 8021     		movs	r1, #128
 718 0028 4900     		lsls	r1, r1, #1
 719 002a 41A8     		add	r0, sp, #260
 720 002c FFF7FEFF 		bl	CalcChecksum
 721              	.LVL87:
1306:Generated_Source\PSoC6\pdl\middleware\em_eeprom/cy_em_eeprom.c ****                     CalcChecksum((uint8_t *) &writeRamBuffer[CY_EM_EEPROM_EEPROM_DATA_OFFSET_U32],
 722              		.loc 1 1306 0 discriminator 3
 723 0030 FC23     		movs	r3, #252
 724 0032 6A46     		mov	r2, sp
 725 0034 0432     		adds	r2, r2, #4
 726 0036 D050     		str	r0, [r2, r3]
1308:Generated_Source\PSoC6\pdl\middleware\em_eeprom/cy_em_eeprom.c ****                                               CY_EM_EEPROM_EEPROM_DATA_LEN);
1309:Generated_Source\PSoC6\pdl\middleware\em_eeprom/cy_em_eeprom.c **** 
1310:Generated_Source\PSoC6\pdl\middleware\em_eeprom/cy_em_eeprom.c ****         /* Write the data to the specified flash row */
1311:Generated_Source\PSoC6\pdl\middleware\em_eeprom/cy_em_eeprom.c ****         ret = WriteRow(wrAddr, writeRamBuffer, context);
 727              		.loc 1 1311 0 discriminator 3
 728 0038 2200     		movs	r2, r4
 729 003a 01A9     		add	r1, sp, #4
 730 003c 3000     		movs	r0, r6
 731 003e FFF7FEFF 		bl	WriteRow
 732              	.LVL88:
1312:Generated_Source\PSoC6\pdl\middleware\em_eeprom/cy_em_eeprom.c **** 
1313:Generated_Source\PSoC6\pdl\middleware\em_eeprom/cy_em_eeprom.c ****         /* Update the row address to point to the relevant row in the redundant 
1314:Generated_Source\PSoC6\pdl\middleware\em_eeprom/cy_em_eeprom.c ****         * EEPROM's copy.
1315:Generated_Source\PSoC6\pdl\middleware\em_eeprom/cy_em_eeprom.c ****         */
1316:Generated_Source\PSoC6\pdl\middleware\em_eeprom/cy_em_eeprom.c ****         tmpRowAddr = (wrAddr - context->userFlashStartAddr) + context->wlEndAddr;
 733              		.loc 1 1316 0 discriminator 3
 734 0042 009B     		ldr	r3, [sp]
 735 0044 A269     		ldr	r2, [r4, #24]
 736 0046 981A     		subs	r0, r3, r2
 737 0048 2368     		ldr	r3, [r4]
 738 004a 9C46     		mov	ip, r3
 739 004c 6044     		add	r0, r0, ip
 740              	.LVL89:
1317:Generated_Source\PSoC6\pdl\middleware\em_eeprom/cy_em_eeprom.c **** 
1318:Generated_Source\PSoC6\pdl\middleware\em_eeprom/cy_em_eeprom.c ****         /* Write the data to the specified flash row */
1319:Generated_Source\PSoC6\pdl\middleware\em_eeprom/cy_em_eeprom.c ****         ret = WriteRow(tmpRowAddr, writeRamBuffer, context);
 741              		.loc 1 1319 0 discriminator 3
 742 004e 2200     		movs	r2, r4
 743 0050 01A9     		add	r1, sp, #4
 744 0052 FFF7FEFF 		bl	WriteRow
 745              	.LVL90:
 746 0056 0600     		movs	r6, r0
 747              	.LVL91:
1320:Generated_Source\PSoC6\pdl\middleware\em_eeprom/cy_em_eeprom.c **** 
1321:Generated_Source\PSoC6\pdl\middleware\em_eeprom/cy_em_eeprom.c ****         /* Get the address of the next row to be written. 
1322:Generated_Source\PSoC6\pdl\middleware\em_eeprom/cy_em_eeprom.c ****         * "rdAddr" is not used in this function but provided to prevent NULL 
1323:Generated_Source\PSoC6\pdl\middleware\em_eeprom/cy_em_eeprom.c ****         * pointer exception in GetNextRowToWrite().
1324:Generated_Source\PSoC6\pdl\middleware\em_eeprom/cy_em_eeprom.c ****         */
1325:Generated_Source\PSoC6\pdl\middleware\em_eeprom/cy_em_eeprom.c ****         GetNextRowToWrite(seqNum, &wrAddr, &rdAddr, context);
 748              		.loc 1 1325 0 discriminator 3
 749 0058 2300     		movs	r3, r4
 750 005a 81AA     		add	r2, sp, #516
ARM GAS  C:\Users\eduar\AppData\Local\Temp\cctEoJXe.s 			page 38


 751 005c 6946     		mov	r1, sp
 752 005e 2800     		movs	r0, r5
 753              	.LVL92:
 754 0060 FFF7FEFF 		bl	GetNextRowToWrite
 755              	.LVL93:
1296:Generated_Source\PSoC6\pdl\middleware\em_eeprom/cy_em_eeprom.c ****     {
 756              		.loc 1 1296 0 discriminator 3
 757 0064 0137     		adds	r7, r7, #1
 758              	.LVL94:
 759              	.L58:
1296:Generated_Source\PSoC6\pdl\middleware\em_eeprom/cy_em_eeprom.c ****     {
 760              		.loc 1 1296 0 is_stmt 0 discriminator 1
 761 0066 2369     		ldr	r3, [r4, #16]
 762 0068 6268     		ldr	r2, [r4, #4]
 763 006a 5343     		muls	r3, r2
 764 006c 9F42     		cmp	r7, r3
 765 006e D1D3     		bcc	.L59
1326:Generated_Source\PSoC6\pdl\middleware\em_eeprom/cy_em_eeprom.c ****     }
1327:Generated_Source\PSoC6\pdl\middleware\em_eeprom/cy_em_eeprom.c ****     
1328:Generated_Source\PSoC6\pdl\middleware\em_eeprom/cy_em_eeprom.c ****     return(ret);
1329:Generated_Source\PSoC6\pdl\middleware\em_eeprom/cy_em_eeprom.c **** }
 766              		.loc 1 1329 0 is_stmt 1
 767 0070 3000     		movs	r0, r6
 768 0072 8323     		movs	r3, #131
 769 0074 9B00     		lsls	r3, r3, #2
 770 0076 9D44     		add	sp, sp, r3
 771              		@ sp needed
 772              	.LVL95:
 773              	.LVL96:
 774              	.LVL97:
 775              	.LVL98:
 776 0078 F0BD     		pop	{r4, r5, r6, r7, pc}
 777              	.L61:
 778 007a C046     		.align	2
 779              	.L60:
 780 007c F4FDFFFF 		.word	-524
 781 0080 01006E00 		.word	7208961
 782              		.cfi_endproc
 783              	.LFE59:
 784              		.size	FillChecksum, .-FillChecksum
 785              		.section	.text.CheckCrcAndCopy,"ax",%progbits
 786              		.align	2
 787              		.code	16
 788              		.thumb_func
 789              		.type	CheckCrcAndCopy, %function
 790              	CheckCrcAndCopy:
 791              	.LFB57:
1135:Generated_Source\PSoC6\pdl\middleware\em_eeprom/cy_em_eeprom.c ****     cy_en_em_eeprom_status_t ret;
 792              		.loc 1 1135 0
 793              		.cfi_startproc
 794              		@ args = 4, pretend = 0, frame = 528
 795              		@ frame_needed = 0, uses_anonymous_args = 0
 796              	.LVL99:
 797 0000 F0B5     		push	{r4, r5, r6, r7, lr}
 798              		.cfi_def_cfa_offset 20
 799              		.cfi_offset 4, -20
 800              		.cfi_offset 5, -16
ARM GAS  C:\Users\eduar\AppData\Local\Temp\cctEoJXe.s 			page 39


 801              		.cfi_offset 6, -12
 802              		.cfi_offset 7, -8
 803              		.cfi_offset 14, -4
 804 0002 234C     		ldr	r4, .L66
 805 0004 A544     		add	sp, sp, r4
 806              		.cfi_def_cfa_offset 552
 807 0006 0600     		movs	r6, r0
 808 0008 0191     		str	r1, [sp, #4]
 809 000a 0292     		str	r2, [sp, #8]
 810 000c 0393     		str	r3, [sp, #12]
 811 000e 8A9F     		ldr	r7, [sp, #552]
1140:Generated_Source\PSoC6\pdl\middleware\em_eeprom/cy_em_eeprom.c **** 
 812              		.loc 1 1140 0
 813 0010 BB69     		ldr	r3, [r7, #24]
 814              	.LVL100:
 815 0012 C41A     		subs	r4, r0, r3
 816 0014 3B68     		ldr	r3, [r7]
 817 0016 9C46     		mov	ip, r3
 818 0018 6444     		add	r4, r4, ip
 819              	.LVL101:
1143:Generated_Source\PSoC6\pdl\middleware\em_eeprom/cy_em_eeprom.c ****         ((uint32_t) CalcChecksum((uint8_t *)(startAddr + CY_EM_EEPROM_EEPROM_DATA_OFFSET),
 820              		.loc 1 1143 0
 821 001a 0300     		movs	r3, r0
 822 001c FC33     		adds	r3, r3, #252
 823 001e 1D68     		ldr	r5, [r3]
1144:Generated_Source\PSoC6\pdl\middleware\em_eeprom/cy_em_eeprom.c ****             CY_EM_EEPROM_EEPROM_DATA_LEN)))
 824              		.loc 1 1144 0
 825 0020 0130     		adds	r0, r0, #1
 826              	.LVL102:
 827 0022 FF30     		adds	r0, r0, #255
 828 0024 8021     		movs	r1, #128
 829              	.LVL103:
 830 0026 4900     		lsls	r1, r1, #1
 831 0028 FFF7FEFF 		bl	CalcChecksum
 832              	.LVL104:
1143:Generated_Source\PSoC6\pdl\middleware\em_eeprom/cy_em_eeprom.c ****         ((uint32_t) CalcChecksum((uint8_t *)(startAddr + CY_EM_EEPROM_EEPROM_DATA_OFFSET),
 833              		.loc 1 1143 0
 834 002c 8542     		cmp	r5, r0
 835 002e 07D1     		bne	.L63
1147:Generated_Source\PSoC6\pdl\middleware\em_eeprom/cy_em_eeprom.c **** 
 836              		.loc 1 1147 0
 837 0030 029B     		ldr	r3, [sp, #8]
 838 0032 F118     		adds	r1, r6, r3
 839 0034 039A     		ldr	r2, [sp, #12]
 840 0036 0198     		ldr	r0, [sp, #4]
 841 0038 FFF7FEFF 		bl	memcpy
 842              	.LVL105:
1149:Generated_Source\PSoC6\pdl\middleware\em_eeprom/cy_em_eeprom.c ****     }
 843              		.loc 1 1149 0
 844 003c 0024     		movs	r4, #0
 845              	.LVL106:
 846 003e 22E0     		b	.L64
 847              	.LVL107:
 848              	.L63:
1152:Generated_Source\PSoC6\pdl\middleware\em_eeprom/cy_em_eeprom.c ****             ((uint32_t) CalcChecksum((uint8_t *)(rcStartRowAddr + CY_EM_EEPROM_EEPROM_DATA_OFFSET),
 849              		.loc 1 1152 0
 850 0040 2300     		movs	r3, r4
ARM GAS  C:\Users\eduar\AppData\Local\Temp\cctEoJXe.s 			page 40


 851 0042 FC33     		adds	r3, r3, #252
 852 0044 1D68     		ldr	r5, [r3]
1153:Generated_Source\PSoC6\pdl\middleware\em_eeprom/cy_em_eeprom.c ****                 CY_EM_EEPROM_EEPROM_DATA_LEN)))
 853              		.loc 1 1153 0
 854 0046 601C     		adds	r0, r4, #1
 855 0048 FF30     		adds	r0, r0, #255
 856 004a 8021     		movs	r1, #128
 857 004c 4900     		lsls	r1, r1, #1
 858 004e FFF7FEFF 		bl	CalcChecksum
 859              	.LVL108:
1152:Generated_Source\PSoC6\pdl\middleware\em_eeprom/cy_em_eeprom.c ****             ((uint32_t) CalcChecksum((uint8_t *)(rcStartRowAddr + CY_EM_EEPROM_EEPROM_DATA_OFFSET),
 860              		.loc 1 1152 0
 861 0052 8542     		cmp	r5, r0
 862 0054 16D1     		bne	.L65
1160:Generated_Source\PSoC6\pdl\middleware\em_eeprom/cy_em_eeprom.c **** 
 863              		.loc 1 1160 0
 864 0056 8022     		movs	r2, #128
 865 0058 9200     		lsls	r2, r2, #2
 866 005a 2100     		movs	r1, r4
 867 005c 04A8     		add	r0, sp, #16
 868 005e FFF7FEFF 		bl	memcpy
 869              	.LVL109:
1163:Generated_Source\PSoC6\pdl\middleware\em_eeprom/cy_em_eeprom.c **** 
 870              		.loc 1 1163 0
 871 0062 3A00     		movs	r2, r7
 872 0064 04A9     		add	r1, sp, #16
 873 0066 3000     		movs	r0, r6
 874 0068 FFF7FEFF 		bl	WriteRow
 875              	.LVL110:
 876 006c 041E     		subs	r4, r0, #0
 877              	.LVL111:
1165:Generated_Source\PSoC6\pdl\middleware\em_eeprom/cy_em_eeprom.c ****         {
 878              		.loc 1 1165 0
 879 006e 0AD1     		bne	.L64
1167:Generated_Source\PSoC6\pdl\middleware\em_eeprom/cy_em_eeprom.c ****         }
 880              		.loc 1 1167 0
 881 0070 029B     		ldr	r3, [sp, #8]
 882 0072 9900     		lsls	r1, r3, #2
 883 0074 04AB     		add	r3, sp, #16
 884 0076 9C46     		mov	ip, r3
 885 0078 6144     		add	r1, r1, ip
 886 007a 039A     		ldr	r2, [sp, #12]
 887 007c 0198     		ldr	r0, [sp, #4]
 888              	.LVL112:
 889 007e FFF7FEFF 		bl	memcpy
 890              	.LVL113:
 891 0082 00E0     		b	.L64
 892              	.LVL114:
 893              	.L65:
1172:Generated_Source\PSoC6\pdl\middleware\em_eeprom/cy_em_eeprom.c ****     }
 894              		.loc 1 1172 0
 895 0084 034C     		ldr	r4, .L66+4
 896              	.LVL115:
 897              	.L64:
1176:Generated_Source\PSoC6\pdl\middleware\em_eeprom/cy_em_eeprom.c **** 
 898              		.loc 1 1176 0
 899 0086 2000     		movs	r0, r4
ARM GAS  C:\Users\eduar\AppData\Local\Temp\cctEoJXe.s 			page 41


 900 0088 8523     		movs	r3, #133
 901 008a 9B00     		lsls	r3, r3, #2
 902 008c 9D44     		add	sp, sp, r3
 903              		@ sp needed
 904              	.LVL116:
 905              	.LVL117:
 906 008e F0BD     		pop	{r4, r5, r6, r7, pc}
 907              	.L67:
 908              		.align	2
 909              	.L66:
 910 0090 ECFDFFFF 		.word	-532
 911 0094 02006E00 		.word	7208962
 912              		.cfi_endproc
 913              	.LFE57:
 914              		.size	CheckCrcAndCopy, .-CheckCrcAndCopy
 915              		.section	.text.EraseRow,"ax",%progbits
 916              		.align	2
 917              		.code	16
 918              		.thumb_func
 919              		.type	EraseRow, %function
 920              	EraseRow:
 921              	.LFB56:
1034:Generated_Source\PSoC6\pdl\middleware\em_eeprom/cy_em_eeprom.c ****     uint32_t emEepromRowAddr = rowAddr;
 922              		.loc 1 1034 0
 923              		.cfi_startproc
 924              		@ args = 0, pretend = 0, frame = 0
 925              		@ frame_needed = 0, uses_anonymous_args = 0
 926              	.LVL118:
 927 0000 F0B5     		push	{r4, r5, r6, r7, lr}
 928              		.cfi_def_cfa_offset 20
 929              		.cfi_offset 4, -20
 930              		.cfi_offset 5, -16
 931              		.cfi_offset 6, -12
 932              		.cfi_offset 7, -8
 933              		.cfi_offset 14, -4
 934 0002 4746     		mov	r7, r8
 935 0004 80B4     		push	{r7}
 936              		.cfi_def_cfa_offset 24
 937              		.cfi_offset 8, -24
 938 0006 0500     		movs	r5, r0
 939 0008 1600     		movs	r6, r2
 940              	.LVL119:
1041:Generated_Source\PSoC6\pdl\middleware\em_eeprom/cy_em_eeprom.c ****     {
 941              		.loc 1 1041 0
 942 000a 137D     		ldrb	r3, [r2, #20]
 943 000c 002B     		cmp	r3, #0
 944 000e 01D1     		bne	.L76
1037:Generated_Source\PSoC6\pdl\middleware\em_eeprom/cy_em_eeprom.c **** 
 945              		.loc 1 1037 0
 946 0010 0127     		movs	r7, #1
 947 0012 00E0     		b	.L69
 948              	.L76:
1043:Generated_Source\PSoC6\pdl\middleware\em_eeprom/cy_em_eeprom.c ****     }
 949              		.loc 1 1043 0
 950 0014 0227     		movs	r7, #2
 951              	.L69:
 952 0016 1A4B     		ldr	r3, .L79
ARM GAS  C:\Users\eduar\AppData\Local\Temp\cctEoJXe.s 			page 42


 953 0018 9846     		mov	r8, r3
 954              	.LVL120:
 955              	.L75:
1048:Generated_Source\PSoC6\pdl\middleware\em_eeprom/cy_em_eeprom.c ****         {
 956              		.loc 1 1048 0
 957 001a 737D     		ldrb	r3, [r6, #21]
 958 001c 002B     		cmp	r3, #0
 959 001e 05D0     		beq	.L70
1051:Generated_Source\PSoC6\pdl\middleware\em_eeprom/cy_em_eeprom.c ****             {
 960              		.loc 1 1051 0
 961 0020 2800     		movs	r0, r5
 962 0022 FFF7FEFF 		bl	Cy_Flash_EraseRow
 963              	.LVL121:
 964 0026 0028     		cmp	r0, #0
 965 0028 15D0     		beq	.L77
 966 002a 19E0     		b	.L71
 967              	.L70:
1059:Generated_Source\PSoC6\pdl\middleware\em_eeprom/cy_em_eeprom.c ****             {
 968              		.loc 1 1059 0
 969 002c 2800     		movs	r0, r5
 970 002e FFF7FEFF 		bl	Cy_Flash_StartErase
 971              	.LVL122:
 972 0032 144B     		ldr	r3, .L79+4
 973 0034 9842     		cmp	r0, r3
 974 0036 13D1     		bne	.L71
 975 0038 3224     		movs	r4, #50
 976              	.L73:
 977              	.LVL123:
 978              	.LBB4:
1066:Generated_Source\PSoC6\pdl\middleware\em_eeprom/cy_em_eeprom.c ****                     rc = Cy_Flash_IsWriteComplete();     /* Check if erase completed */
 979              		.loc 1 1066 0 discriminator 2
 980 003a 0120     		movs	r0, #1
 981 003c FFF7FEFF 		bl	Cy_SysLib_Delay
 982              	.LVL124:
1067:Generated_Source\PSoC6\pdl\middleware\em_eeprom/cy_em_eeprom.c ****                     countMs--;
 983              		.loc 1 1067 0 discriminator 2
 984 0040 FFF7FEFF 		bl	Cy_Flash_IsOperationComplete
 985              	.LVL125:
1068:Generated_Source\PSoC6\pdl\middleware\em_eeprom/cy_em_eeprom.c ****                 }
 986              		.loc 1 1068 0 discriminator 2
 987 0044 013C     		subs	r4, r4, #1
 988              	.LVL126:
1070:Generated_Source\PSoC6\pdl\middleware\em_eeprom/cy_em_eeprom.c **** 
 989              		.loc 1 1070 0 discriminator 2
 990 0046 104B     		ldr	r3, .L79+8
 991 0048 9842     		cmp	r0, r3
 992 004a 01D1     		bne	.L72
1070:Generated_Source\PSoC6\pdl\middleware\em_eeprom/cy_em_eeprom.c **** 
 993              		.loc 1 1070 0 is_stmt 0 discriminator 1
 994 004c 002C     		cmp	r4, #0
 995 004e F4D1     		bne	.L73
 996              	.L72:
1072:Generated_Source\PSoC6\pdl\middleware\em_eeprom/cy_em_eeprom.c ****                 {
 997              		.loc 1 1072 0 is_stmt 1
 998 0050 0028     		cmp	r0, #0
 999 0052 03D0     		beq	.L78
 1000 0054 04E0     		b	.L71
ARM GAS  C:\Users\eduar\AppData\Local\Temp\cctEoJXe.s 			page 43


 1001              	.LVL127:
 1002              	.L77:
 1003              	.LBE4:
1053:Generated_Source\PSoC6\pdl\middleware\em_eeprom/cy_em_eeprom.c ****             }
 1004              		.loc 1 1053 0
 1005 0056 0023     		movs	r3, #0
 1006 0058 9846     		mov	r8, r3
 1007              	.LVL128:
 1008 005a 01E0     		b	.L71
 1009              	.LVL129:
 1010              	.L78:
 1011              	.LBB5:
1074:Generated_Source\PSoC6\pdl\middleware\em_eeprom/cy_em_eeprom.c ****                 }
 1012              		.loc 1 1074 0
 1013 005c 0023     		movs	r3, #0
 1014 005e 9846     		mov	r8, r3
 1015              	.LVL130:
 1016              	.L71:
 1017              	.LBE5:
1079:Generated_Source\PSoC6\pdl\middleware\em_eeprom/cy_em_eeprom.c ****         {
 1018              		.loc 1 1079 0
 1019 0060 4346     		mov	r3, r8
 1020 0062 002B     		cmp	r3, #0
 1021 0064 07D1     		bne	.L74
1082:Generated_Source\PSoC6\pdl\middleware\em_eeprom/cy_em_eeprom.c ****         }
 1022              		.loc 1 1082 0
 1023 0066 B369     		ldr	r3, [r6, #24]
 1024 0068 ED1A     		subs	r5, r5, r3
 1025              	.LVL131:
 1026 006a 3368     		ldr	r3, [r6]
 1027 006c 9C46     		mov	ip, r3
 1028 006e 6544     		add	r5, r5, ip
 1029              	.LVL132:
1088:Generated_Source\PSoC6\pdl\middleware\em_eeprom/cy_em_eeprom.c ****     } while (0u != i);
 1030              		.loc 1 1088 0
 1031 0070 013F     		subs	r7, r7, #1
 1032              	.LVL133:
1089:Generated_Source\PSoC6\pdl\middleware\em_eeprom/cy_em_eeprom.c **** 
 1033              		.loc 1 1089 0
 1034 0072 002F     		cmp	r7, #0
 1035 0074 D1D1     		bne	.L75
 1036              	.L74:
1092:Generated_Source\PSoC6\pdl\middleware\em_eeprom/cy_em_eeprom.c **** 
 1037              		.loc 1 1092 0
 1038 0076 4046     		mov	r0, r8
 1039              		@ sp needed
 1040              	.LVL134:
 1041              	.LVL135:
 1042              	.LVL136:
 1043              	.LVL137:
 1044 0078 04BC     		pop	{r2}
 1045 007a 9046     		mov	r8, r2
 1046 007c F0BD     		pop	{r4, r5, r6, r7, pc}
 1047              	.L80:
 1048 007e C046     		.align	2
 1049              	.L79:
 1050 0080 04006E00 		.word	7208964
ARM GAS  C:\Users\eduar\AppData\Local\Temp\cctEoJXe.s 			page 44


 1051 0084 01005000 		.word	5242881
 1052 0088 02005000 		.word	5242882
 1053              		.cfi_endproc
 1054              	.LFE56:
 1055              		.size	EraseRow, .-EraseRow
 1056              		.section	.text.Cy_Em_EEPROM_Init,"ax",%progbits
 1057              		.align	2
 1058              		.global	Cy_Em_EEPROM_Init
 1059              		.code	16
 1060              		.thumb_func
 1061              		.type	Cy_Em_EEPROM_Init, %function
 1062              	Cy_Em_EEPROM_Init:
 1063              	.LFB45:
  91:Generated_Source\PSoC6\pdl\middleware\em_eeprom/cy_em_eeprom.c ****     cy_en_em_eeprom_status_t ret = CY_EM_EEPROM_BAD_PARAM;
 1064              		.loc 1 91 0
 1065              		.cfi_startproc
 1066              		@ args = 0, pretend = 0, frame = 0
 1067              		@ frame_needed = 0, uses_anonymous_args = 0
 1068              	.LVL138:
 1069 0000 F8B5     		push	{r3, r4, r5, r6, r7, lr}
 1070              		.cfi_def_cfa_offset 24
 1071              		.cfi_offset 3, -24
 1072              		.cfi_offset 4, -20
 1073              		.cfi_offset 5, -16
 1074              		.cfi_offset 6, -12
 1075              		.cfi_offset 7, -8
 1076              		.cfi_offset 14, -4
 1077 0002 0400     		movs	r4, r0
 1078 0004 0D1E     		subs	r5, r1, #0
 1079              	.LVL139:
  94:Generated_Source\PSoC6\pdl\middleware\em_eeprom/cy_em_eeprom.c ****         (config->wearLevelingFactor <= CY_EM_EEPROM_MAX_WEAR_LEVELING_FACTOR) && (config->eepromSiz
 1080              		.loc 1 94 0
 1081 0006 3BD0     		beq	.L84
  94:Generated_Source\PSoC6\pdl\middleware\em_eeprom/cy_em_eeprom.c ****         (config->wearLevelingFactor <= CY_EM_EEPROM_MAX_WEAR_LEVELING_FACTOR) && (config->eepromSiz
 1082              		.loc 1 94 0 is_stmt 0 discriminator 1
 1083 0008 0028     		cmp	r0, #0
 1084 000a 3BD0     		beq	.L85
  94:Generated_Source\PSoC6\pdl\middleware\em_eeprom/cy_em_eeprom.c ****         (config->wearLevelingFactor <= CY_EM_EEPROM_MAX_WEAR_LEVELING_FACTOR) && (config->eepromSiz
 1085              		.loc 1 94 0 discriminator 2
 1086 000c C368     		ldr	r3, [r0, #12]
 1087 000e 002B     		cmp	r3, #0
 1088 0010 3AD0     		beq	.L86
  94:Generated_Source\PSoC6\pdl\middleware\em_eeprom/cy_em_eeprom.c ****         (config->wearLevelingFactor <= CY_EM_EEPROM_MAX_WEAR_LEVELING_FACTOR) && (config->eepromSiz
 1089              		.loc 1 94 0 discriminator 3
 1090 0012 4368     		ldr	r3, [r0, #4]
 1091 0014 0A2B     		cmp	r3, #10
 1092 0016 39D8     		bhi	.L87
  95:Generated_Source\PSoC6\pdl\middleware\em_eeprom/cy_em_eeprom.c ****     {
 1093              		.loc 1 95 0 is_stmt 1
 1094 0018 0768     		ldr	r7, [r0]
 1095 001a 002F     		cmp	r7, #0
 1096 001c 38D0     		beq	.L88
  97:Generated_Source\PSoC6\pdl\middleware\em_eeprom/cy_em_eeprom.c **** 
 1097              		.loc 1 97 0
 1098 001e FFF7FEFF 		bl	CheckRanges
 1099              	.LVL140:
 1100 0022 061E     		subs	r6, r0, #0
ARM GAS  C:\Users\eduar\AppData\Local\Temp\cctEoJXe.s 			page 45


 1101              	.LVL141:
  99:Generated_Source\PSoC6\pdl\middleware\em_eeprom/cy_em_eeprom.c ****         {
 1102              		.loc 1 99 0
 1103 0024 35D1     		bne	.L82
 102:Generated_Source\PSoC6\pdl\middleware\em_eeprom/cy_em_eeprom.c ****             context->wearLevelingFactor = config->wearLevelingFactor;
 1104              		.loc 1 102 0
 1105 0026 EF60     		str	r7, [r5, #12]
 103:Generated_Source\PSoC6\pdl\middleware\em_eeprom/cy_em_eeprom.c ****             context->redundantCopy = config->redundantCopy;
 1106              		.loc 1 103 0
 1107 0028 6368     		ldr	r3, [r4, #4]
 1108 002a 2B61     		str	r3, [r5, #16]
 104:Generated_Source\PSoC6\pdl\middleware\em_eeprom/cy_em_eeprom.c ****             context->blockingWrite = config->blockingWrite;
 1109              		.loc 1 104 0
 1110 002c 237A     		ldrb	r3, [r4, #8]
 1111 002e 2B75     		strb	r3, [r5, #20]
 105:Generated_Source\PSoC6\pdl\middleware\em_eeprom/cy_em_eeprom.c ****             context->userFlashStartAddr = config->userFlashStartAddr;
 1112              		.loc 1 105 0
 1113 0030 637A     		ldrb	r3, [r4, #9]
 1114 0032 6B75     		strb	r3, [r5, #21]
 106:Generated_Source\PSoC6\pdl\middleware\em_eeprom/cy_em_eeprom.c ****             /* Store frequently used data for internal use */
 1115              		.loc 1 106 0
 1116 0034 E368     		ldr	r3, [r4, #12]
 1117 0036 AB61     		str	r3, [r5, #24]
 108:Generated_Source\PSoC6\pdl\middleware\em_eeprom/cy_em_eeprom.c ****             context->wlEndAddr = ((CY_EM_EEPROM_GET_EEPROM_SIZE(context->numberOfRows) * config->we
 1118              		.loc 1 108 0
 1119 0038 2268     		ldr	r2, [r4]
 1120 003a 110A     		lsrs	r1, r2, #8
 1121 003c FF23     		movs	r3, #255
 1122 003e 1340     		ands	r3, r2
 1123 0040 00D0     		beq	.L83
 1124 0042 0123     		movs	r3, #1
 1125              	.L83:
 108:Generated_Source\PSoC6\pdl\middleware\em_eeprom/cy_em_eeprom.c ****             context->wlEndAddr = ((CY_EM_EEPROM_GET_EEPROM_SIZE(context->numberOfRows) * config->we
 1126              		.loc 1 108 0 is_stmt 0 discriminator 4
 1127 0044 5B18     		adds	r3, r3, r1
 1128 0046 6B60     		str	r3, [r5, #4]
 109:Generated_Source\PSoC6\pdl\middleware\em_eeprom/cy_em_eeprom.c ****                     config->userFlashStartAddr);
 1129              		.loc 1 109 0 is_stmt 1 discriminator 4
 1130 0048 6268     		ldr	r2, [r4, #4]
 1131 004a 5343     		muls	r3, r2
 1132 004c 5B02     		lsls	r3, r3, #9
 110:Generated_Source\PSoC6\pdl\middleware\em_eeprom/cy_em_eeprom.c ****             /* Find last written EEPROM row and store it for quick access */
 1133              		.loc 1 110 0 discriminator 4
 1134 004e E268     		ldr	r2, [r4, #12]
 109:Generated_Source\PSoC6\pdl\middleware\em_eeprom/cy_em_eeprom.c ****                     config->userFlashStartAddr);
 1135              		.loc 1 109 0 discriminator 4
 1136 0050 9B18     		adds	r3, r3, r2
 1137 0052 2B60     		str	r3, [r5]
 112:Generated_Source\PSoC6\pdl\middleware\em_eeprom/cy_em_eeprom.c **** 
 1138              		.loc 1 112 0 discriminator 4
 1139 0054 2C00     		movs	r4, r5
 1140              	.LVL142:
 1141 0056 0834     		adds	r4, r4, #8
 1142 0058 2900     		movs	r1, r5
 1143 005a 2000     		movs	r0, r4
 1144              	.LVL143:
 1145 005c FFF7FEFF 		bl	FindLastWrittenRow
ARM GAS  C:\Users\eduar\AppData\Local\Temp\cctEoJXe.s 			page 46


 1146              	.LVL144:
 114:Generated_Source\PSoC6\pdl\middleware\em_eeprom/cy_em_eeprom.c ****             {
 1147              		.loc 1 114 0 discriminator 4
 1148 0060 AB68     		ldr	r3, [r5, #8]
 1149 0062 1B68     		ldr	r3, [r3]
 1150 0064 002B     		cmp	r3, #0
 1151 0066 14D1     		bne	.L82
 114:Generated_Source\PSoC6\pdl\middleware\em_eeprom/cy_em_eeprom.c ****             {
 1152              		.loc 1 114 0 is_stmt 0 discriminator 1
 1153 0068 2B7D     		ldrb	r3, [r5, #20]
 1154 006a 002B     		cmp	r3, #0
 1155 006c 11D0     		beq	.L82
 119:Generated_Source\PSoC6\pdl\middleware\em_eeprom/cy_em_eeprom.c ****                 
 1156              		.loc 1 119 0 is_stmt 1
 1157 006e 2800     		movs	r0, r5
 1158 0070 FFF7FEFF 		bl	FillChecksum
 1159              	.LVL145:
 1160 0074 0600     		movs	r6, r0
 1161              	.LVL146:
 122:Generated_Source\PSoC6\pdl\middleware\em_eeprom/cy_em_eeprom.c ****             }
 1162              		.loc 1 122 0
 1163 0076 2900     		movs	r1, r5
 1164 0078 2000     		movs	r0, r4
 1165              	.LVL147:
 1166 007a FFF7FEFF 		bl	FindLastWrittenRow
 1167              	.LVL148:
 1168 007e 08E0     		b	.L82
 1169              	.LVL149:
 1170              	.L84:
  92:Generated_Source\PSoC6\pdl\middleware\em_eeprom/cy_em_eeprom.c **** 
 1171              		.loc 1 92 0
 1172 0080 054E     		ldr	r6, .L89
 1173 0082 06E0     		b	.L82
 1174              	.L85:
 1175 0084 044E     		ldr	r6, .L89
 1176 0086 04E0     		b	.L82
 1177              	.L86:
 1178 0088 034E     		ldr	r6, .L89
 1179 008a 02E0     		b	.L82
 1180              	.L87:
 1181 008c 024E     		ldr	r6, .L89
 1182 008e 00E0     		b	.L82
 1183              	.L88:
 1184 0090 014E     		ldr	r6, .L89
 1185              	.LVL150:
 1186              	.L82:
 128:Generated_Source\PSoC6\pdl\middleware\em_eeprom/cy_em_eeprom.c **** 
 1187              		.loc 1 128 0
 1188 0092 3000     		movs	r0, r6
 1189              		@ sp needed
 1190              	.LVL151:
 1191              	.LVL152:
 1192 0094 F8BD     		pop	{r3, r4, r5, r6, r7, pc}
 1193              	.L90:
 1194 0096 C046     		.align	2
 1195              	.L89:
 1196 0098 01006E00 		.word	7208961
ARM GAS  C:\Users\eduar\AppData\Local\Temp\cctEoJXe.s 			page 47


 1197              		.cfi_endproc
 1198              	.LFE45:
 1199              		.size	Cy_Em_EEPROM_Init, .-Cy_Em_EEPROM_Init
 1200              		.global	__aeabi_uidiv
 1201              		.section	.text.Cy_Em_EEPROM_Read,"ax",%progbits
 1202              		.align	2
 1203              		.global	Cy_Em_EEPROM_Read
 1204              		.code	16
 1205              		.thumb_func
 1206              		.type	Cy_Em_EEPROM_Read, %function
 1207              	Cy_Em_EEPROM_Read:
 1208              	.LFB46:
 168:Generated_Source\PSoC6\pdl\middleware\em_eeprom/cy_em_eeprom.c ****     cy_en_em_eeprom_status_t ret = CY_EM_EEPROM_BAD_PARAM;
 1209              		.loc 1 168 0
 1210              		.cfi_startproc
 1211              		@ args = 0, pretend = 0, frame = 32
 1212              		@ frame_needed = 0, uses_anonymous_args = 0
 1213              	.LVL153:
 1214 0000 F0B5     		push	{r4, r5, r6, r7, lr}
 1215              		.cfi_def_cfa_offset 20
 1216              		.cfi_offset 4, -20
 1217              		.cfi_offset 5, -16
 1218              		.cfi_offset 6, -12
 1219              		.cfi_offset 7, -8
 1220              		.cfi_offset 14, -4
 1221 0002 5F46     		mov	r7, fp
 1222 0004 5646     		mov	r6, r10
 1223 0006 4D46     		mov	r5, r9
 1224 0008 4446     		mov	r4, r8
 1225 000a F0B4     		push	{r4, r5, r6, r7}
 1226              		.cfi_def_cfa_offset 36
 1227              		.cfi_offset 8, -36
 1228              		.cfi_offset 9, -32
 1229              		.cfi_offset 10, -28
 1230              		.cfi_offset 11, -24
 1231 000c 8BB0     		sub	sp, sp, #44
 1232              		.cfi_def_cfa_offset 80
 1233 000e 8146     		mov	r9, r0
 1234 0010 0C00     		movs	r4, r1
 1235 0012 9046     		mov	r8, r2
 1236 0014 1E00     		movs	r6, r3
 1237              	.LVL154:
 178:Generated_Source\PSoC6\pdl\middleware\em_eeprom/cy_em_eeprom.c **** 
 1238              		.loc 1 178 0
 1239 0016 0591     		str	r1, [sp, #20]
 1240              	.LVL155:
 181:Generated_Source\PSoC6\pdl\middleware\em_eeprom/cy_em_eeprom.c ****     {
 1241              		.loc 1 181 0
 1242 0018 131E     		subs	r3, r2, #0
 1243              	.LVL156:
 1244 001a 00D1     		bne	.LCB1314
 1245 001c FDE0     		b	.L116	@long jump
 1246              	.LCB1314:
 181:Generated_Source\PSoC6\pdl\middleware\em_eeprom/cy_em_eeprom.c ****     {
 1247              		.loc 1 181 0 is_stmt 0 discriminator 1
 1248 001e 4B44     		add	r3, r3, r9
 1249 0020 0793     		str	r3, [sp, #28]
ARM GAS  C:\Users\eduar\AppData\Local\Temp\cctEoJXe.s 			page 48


 1250 0022 F268     		ldr	r2, [r6, #12]
 1251              	.LVL157:
 1252 0024 9342     		cmp	r3, r2
 1253 0026 00D9     		bls	.LCB1321
 1254 0028 FAE0     		b	.L117	@long jump
 1255              	.LCB1321:
 181:Generated_Source\PSoC6\pdl\middleware\em_eeprom/cy_em_eeprom.c ****     {
 1256              		.loc 1 181 0 discriminator 2
 1257 002a 0029     		cmp	r1, #0
 1258 002c 00D1     		bne	.LCB1323
 1259 002e FAE0     		b	.L118	@long jump
 1260              	.LCB1323:
 1261              	.LVL158:
 1262              	.LBB6:
 186:Generated_Source\PSoC6\pdl\middleware\em_eeprom/cy_em_eeprom.c ****         uint32_t updateAddrFlag = 0u;
 1263              		.loc 1 186 0 is_stmt 1
 1264 0030 B368     		ldr	r3, [r6, #8]
 1265 0032 9A46     		mov	r10, r3
 1266 0034 1B68     		ldr	r3, [r3]
 1267 0036 0993     		str	r3, [sp, #36]
 1268              	.LVL159:
 192:Generated_Source\PSoC6\pdl\middleware\em_eeprom/cy_em_eeprom.c ****                               (rdAddr / CY_EM_EEPROM_EEPROM_DATA_LEN)) + 1u;
 1269              		.loc 1 192 0
 1270 0038 079B     		ldr	r3, [sp, #28]
 1271              	.LVL160:
 1272 003a 013B     		subs	r3, r3, #1
 1273 003c 1B0A     		lsrs	r3, r3, #8
 193:Generated_Source\PSoC6\pdl\middleware\em_eeprom/cy_em_eeprom.c **** 
 1274              		.loc 1 193 0
 1275 003e 020A     		lsrs	r2, r0, #8
 192:Generated_Source\PSoC6\pdl\middleware\em_eeprom/cy_em_eeprom.c ****                               (rdAddr / CY_EM_EEPROM_EEPROM_DATA_LEN)) + 1u;
 1276              		.loc 1 192 0
 1277 0040 9B1A     		subs	r3, r3, r2
 1278 0042 0133     		adds	r3, r3, #1
 1279 0044 9B46     		mov	fp, r3
 1280              	.LVL161:
 199:Generated_Source\PSoC6\pdl\middleware\em_eeprom/cy_em_eeprom.c ****                               (CY_EM_EEPROM_FLASH_SIZEOF_ROW * context->numberOfRows)) *
 1281              		.loc 1 199 0
 1282 0046 B569     		ldr	r5, [r6, #24]
 1283 0048 5346     		mov	r3, r10
 1284              	.LVL162:
 1285 004a 581B     		subs	r0, r3, r5
 1286              	.LVL163:
 200:Generated_Source\PSoC6\pdl\middleware\em_eeprom/cy_em_eeprom.c ****                               (CY_EM_EEPROM_FLASH_SIZEOF_ROW * context->numberOfRows)) +
 1287              		.loc 1 200 0
 1288 004c 7768     		ldr	r7, [r6, #4]
 1289 004e 7902     		lsls	r1, r7, #9
 1290              	.LVL164:
 199:Generated_Source\PSoC6\pdl\middleware\em_eeprom/cy_em_eeprom.c ****                               (CY_EM_EEPROM_FLASH_SIZEOF_ROW * context->numberOfRows)) *
 1291              		.loc 1 199 0
 1292 0050 FFF7FEFF 		bl	__aeabi_uidiv
 1293              	.LVL165:
 200:Generated_Source\PSoC6\pdl\middleware\em_eeprom/cy_em_eeprom.c ****                               (CY_EM_EEPROM_FLASH_SIZEOF_ROW * context->numberOfRows)) +
 1294              		.loc 1 200 0
 1295 0054 7843     		muls	r0, r7
 1296 0056 4002     		lsls	r0, r0, #9
 199:Generated_Source\PSoC6\pdl\middleware\em_eeprom/cy_em_eeprom.c ****                               (CY_EM_EEPROM_FLASH_SIZEOF_ROW * context->numberOfRows)) *
ARM GAS  C:\Users\eduar\AppData\Local\Temp\cctEoJXe.s 			page 49


 1297              		.loc 1 199 0
 1298 0058 2B18     		adds	r3, r5, r0
 1299 005a 0393     		str	r3, [sp, #12]
 1300              	.LVL166:
 205:Generated_Source\PSoC6\pdl\middleware\em_eeprom/cy_em_eeprom.c ****         {
 1301              		.loc 1 205 0
 1302 005c 0025     		movs	r5, #0
 1303 005e 4A46     		mov	r2, r9
 1304 0060 0FE0     		b	.L93
 1305              	.LVL167:
 1306              	.L96:
 207:Generated_Source\PSoC6\pdl\middleware\em_eeprom/cy_em_eeprom.c ****             {
 1307              		.loc 1 207 0
 1308 0062 2B02     		lsls	r3, r5, #8
 1309 0064 9A42     		cmp	r2, r3
 1310 0066 06D3     		bcc	.L119
 207:Generated_Source\PSoC6\pdl\middleware\em_eeprom/cy_em_eeprom.c ****             {
 1311              		.loc 1 207 0 is_stmt 0 discriminator 1
 1312 0068 6B1C     		adds	r3, r5, #1
 1313 006a 1B02     		lsls	r3, r3, #8
 1314 006c 013B     		subs	r3, r3, #1
 1315 006e 9A42     		cmp	r2, r3
 1316 0070 03D9     		bls	.L120
 207:Generated_Source\PSoC6\pdl\middleware\em_eeprom/cy_em_eeprom.c ****             {
 1317              		.loc 1 207 0
 1318 0072 0023     		movs	r3, #0
 1319 0074 02E0     		b	.L94
 1320              	.L119:
 1321 0076 0023     		movs	r3, #0
 1322 0078 00E0     		b	.L94
 1323              	.L120:
 1324 007a 0123     		movs	r3, #1
 1325              	.L94:
 207:Generated_Source\PSoC6\pdl\middleware\em_eeprom/cy_em_eeprom.c ****             {
 1326              		.loc 1 207 0 discriminator 6
 1327 007c 002B     		cmp	r3, #0
 1328 007e 05D1     		bne	.L127
 205:Generated_Source\PSoC6\pdl\middleware\em_eeprom/cy_em_eeprom.c ****         {
 1329              		.loc 1 205 0 is_stmt 1 discriminator 2
 1330 0080 0135     		adds	r5, r5, #1
 1331              	.LVL168:
 1332              	.L93:
 205:Generated_Source\PSoC6\pdl\middleware\em_eeprom/cy_em_eeprom.c ****         {
 1333              		.loc 1 205 0 is_stmt 0 discriminator 1
 1334 0082 BD42     		cmp	r5, r7
 1335 0084 EDD3     		bcc	.L96
 1336 0086 9146     		mov	r9, r2
 1337              	.LVL169:
 1338              	.LBE6:
 176:Generated_Source\PSoC6\pdl\middleware\em_eeprom/cy_em_eeprom.c ****     uint32_t dataStartEepromRowNum = 0u;
 1339              		.loc 1 176 0 is_stmt 1
 1340 0088 0025     		movs	r5, #0
 1341              	.LVL170:
 1342 008a 00E0     		b	.L95
 1343              	.LVL171:
 1344              	.L127:
 1345 008c 9146     		mov	r9, r2
ARM GAS  C:\Users\eduar\AppData\Local\Temp\cctEoJXe.s 			page 50


 1346              	.LVL172:
 1347              	.L95:
 1348              	.LBB13:
 216:Generated_Source\PSoC6\pdl\middleware\em_eeprom/cy_em_eeprom.c **** 
 1349              		.loc 1 216 0
 1350 008e 5346     		mov	r3, r10
 1351 0090 039A     		ldr	r2, [sp, #12]
 1352              	.LVL173:
 1353 0092 9B1A     		subs	r3, r3, r2
 1354 0094 5B0A     		lsrs	r3, r3, #9
 1355 0096 1900     		movs	r1, r3
 1356 0098 0693     		str	r3, [sp, #24]
 1357              	.LVL174:
 219:Generated_Source\PSoC6\pdl\middleware\em_eeprom/cy_em_eeprom.c ****         {
 1358              		.loc 1 219 0
 1359 009a 3369     		ldr	r3, [r6, #16]
 1360 009c 012B     		cmp	r3, #1
 1361 009e 09D9     		bls	.L121
 1362              	.LBB7:
 221:Generated_Source\PSoC6\pdl\middleware\em_eeprom/cy_em_eeprom.c **** 
 1363              		.loc 1 221 0
 1364 00a0 5B46     		mov	r3, fp
 1365 00a2 EB18     		adds	r3, r5, r3
 1366 00a4 013B     		subs	r3, r3, #1
 1367              	.LVL175:
 224:Generated_Source\PSoC6\pdl\middleware\em_eeprom/cy_em_eeprom.c ****                               ((dataEndEepromRowNum > actEepromRowNum) ? 1u : 0u);
 1368              		.loc 1 224 0
 1369 00a6 8D42     		cmp	r5, r1
 1370 00a8 07D8     		bhi	.L122
 224:Generated_Source\PSoC6\pdl\middleware\em_eeprom/cy_em_eeprom.c ****                               ((dataEndEepromRowNum > actEepromRowNum) ? 1u : 0u);
 1371              		.loc 1 224 0 is_stmt 0 discriminator 1
 1372 00aa 9942     		cmp	r1, r3
 1373 00ac 08D2     		bcs	.L123
 224:Generated_Source\PSoC6\pdl\middleware\em_eeprom/cy_em_eeprom.c ****                               ((dataEndEepromRowNum > actEepromRowNum) ? 1u : 0u);
 1374              		.loc 1 224 0
 1375 00ae 0123     		movs	r3, #1
 1376              	.LVL176:
 1377 00b0 0493     		str	r3, [sp, #16]
 1378 00b2 07E0     		b	.L97
 1379              	.LVL177:
 1380              	.L121:
 1381              	.LBE7:
 187:Generated_Source\PSoC6\pdl\middleware\em_eeprom/cy_em_eeprom.c **** 
 1382              		.loc 1 187 0 is_stmt 1
 1383 00b4 0023     		movs	r3, #0
 1384 00b6 0493     		str	r3, [sp, #16]
 1385 00b8 04E0     		b	.L97
 1386              	.LVL178:
 1387              	.L122:
 1388              	.LBB8:
 224:Generated_Source\PSoC6\pdl\middleware\em_eeprom/cy_em_eeprom.c ****                               ((dataEndEepromRowNum > actEepromRowNum) ? 1u : 0u);
 1389              		.loc 1 224 0
 1390 00ba 0123     		movs	r3, #1
 1391              	.LVL179:
 1392 00bc 0493     		str	r3, [sp, #16]
 1393 00be 01E0     		b	.L97
 1394              	.LVL180:
ARM GAS  C:\Users\eduar\AppData\Local\Temp\cctEoJXe.s 			page 51


 1395              	.L123:
 1396 00c0 0023     		movs	r3, #0
 1397              	.LVL181:
 1398 00c2 0493     		str	r3, [sp, #16]
 1399              	.LVL182:
 1400              	.L97:
 1401              	.LBE8:
 183:Generated_Source\PSoC6\pdl\middleware\em_eeprom/cy_em_eeprom.c ****         uint32_t rdSize = size;
 1402              		.loc 1 183 0
 1403 00c4 CA46     		mov	r10, r9
 229:Generated_Source\PSoC6\pdl\middleware\em_eeprom/cy_em_eeprom.c ****         {
 1404              		.loc 1 229 0
 1405 00c6 0027     		movs	r7, #0
 1406              	.LBE13:
 169:Generated_Source\PSoC6\pdl\middleware\em_eeprom/cy_em_eeprom.c ****     uint32_t i;
 1407              		.loc 1 169 0
 1408 00c8 5C4B     		ldr	r3, .L128
 1409 00ca 1800     		movs	r0, r3
 1410 00cc 4B46     		mov	r3, r9
 1411 00ce 0893     		str	r3, [sp, #32]
 1412 00d0 A146     		mov	r9, r4
 1413              	.LVL183:
 1414 00d2 3300     		movs	r3, r6
 1415              	.LVL184:
 1416 00d4 5646     		mov	r6, r10
 1417              	.LVL185:
 1418 00d6 9A46     		mov	r10, r3
 1419              	.LVL186:
 1420              	.LBB14:
 229:Generated_Source\PSoC6\pdl\middleware\em_eeprom/cy_em_eeprom.c ****         {
 1421              		.loc 1 229 0
 1422 00d8 3FE0     		b	.L98
 1423              	.LVL187:
 1424              	.L104:
 231:Generated_Source\PSoC6\pdl\middleware\em_eeprom/cy_em_eeprom.c ****             curRowOffset = CY_EM_EEPROM_EEPROM_DATA_LEN + (rdAddr % CY_EM_EEPROM_EEPROM_DATA_LEN);
 1425              		.loc 1 231 0
 1426 00da 6802     		lsls	r0, r5, #9
 1427              	.LVL188:
 1428 00dc 039B     		ldr	r3, [sp, #12]
 1429 00de 9C46     		mov	ip, r3
 1430 00e0 6044     		add	r0, r0, ip
 1431              	.LVL189:
 232:Generated_Source\PSoC6\pdl\middleware\em_eeprom/cy_em_eeprom.c **** 
 1432              		.loc 1 232 0
 1433 00e2 FF24     		movs	r4, #255
 1434 00e4 3440     		ands	r4, r6
 1435 00e6 621C     		adds	r2, r4, #1
 1436 00e8 FF32     		adds	r2, r2, #255
 1437              	.LVL190:
 237:Generated_Source\PSoC6\pdl\middleware\em_eeprom/cy_em_eeprom.c ****             {
 1438              		.loc 1 237 0
 1439 00ea 0137     		adds	r7, r7, #1
 1440              	.LVL191:
 1441 00ec BB45     		cmp	fp, r7
 1442 00ee 03D9     		bls	.L124
 239:Generated_Source\PSoC6\pdl\middleware\em_eeprom/cy_em_eeprom.c ****             }
 1443              		.loc 1 239 0
ARM GAS  C:\Users\eduar\AppData\Local\Temp\cctEoJXe.s 			page 52


 1444 00f0 8023     		movs	r3, #128
 1445 00f2 5B00     		lsls	r3, r3, #1
 1446 00f4 1C1B     		subs	r4, r3, r4
 1447              	.LVL192:
 1448 00f6 00E0     		b	.L99
 1449              	.LVL193:
 1450              	.L124:
 243:Generated_Source\PSoC6\pdl\middleware\em_eeprom/cy_em_eeprom.c ****             }
 1451              		.loc 1 243 0
 1452 00f8 4446     		mov	r4, r8
 1453              	.L99:
 1454              	.LVL194:
 249:Generated_Source\PSoC6\pdl\middleware\em_eeprom/cy_em_eeprom.c ****             {
 1455              		.loc 1 249 0
 1456 00fa 049B     		ldr	r3, [sp, #16]
 1457 00fc 002B     		cmp	r3, #0
 1458 00fe 0FD0     		beq	.L100
 249:Generated_Source\PSoC6\pdl\middleware\em_eeprom/cy_em_eeprom.c ****             {
 1459              		.loc 1 249 0 is_stmt 0 discriminator 1
 1460 0100 069B     		ldr	r3, [sp, #24]
 1461 0102 9D42     		cmp	r5, r3
 1462 0104 0CD9     		bls	.L100
 251:Generated_Source\PSoC6\pdl\middleware\em_eeprom/cy_em_eeprom.c **** 
 1463              		.loc 1 251 0 is_stmt 1
 1464 0106 5346     		mov	r3, r10
 1465 0108 5B68     		ldr	r3, [r3, #4]
 1466 010a 5902     		lsls	r1, r3, #9
 1467 010c 401A     		subs	r0, r0, r1
 1468              	.LVL195:
 253:Generated_Source\PSoC6\pdl\middleware\em_eeprom/cy_em_eeprom.c ****                 {
 1469              		.loc 1 253 0
 1470 010e 5146     		mov	r1, r10
 1471 0110 8969     		ldr	r1, [r1, #24]
 1472 0112 8842     		cmp	r0, r1
 1473 0114 04D2     		bcs	.L100
 256:Generated_Source\PSoC6\pdl\middleware\em_eeprom/cy_em_eeprom.c ****                 }
 1474              		.loc 1 256 0
 1475 0116 581B     		subs	r0, r3, r5
 1476              	.LVL196:
 1477 0118 4302     		lsls	r3, r0, #9
 1478              	.LVL197:
 255:Generated_Source\PSoC6\pdl\middleware\em_eeprom/cy_em_eeprom.c ****                         ((context->numberOfRows - curRdEepromRowNum) * CY_EM_EEPROM_FLASH_SIZEOF_RO
 1479              		.loc 1 255 0
 1480 011a 5146     		mov	r1, r10
 1481 011c 0968     		ldr	r1, [r1]
 1482 011e C81A     		subs	r0, r1, r3
 1483              	.LVL198:
 1484              	.L100:
 260:Generated_Source\PSoC6\pdl\middleware\em_eeprom/cy_em_eeprom.c ****             {
 1485              		.loc 1 260 0
 1486 0120 5346     		mov	r3, r10
 1487 0122 1B7D     		ldrb	r3, [r3, #20]
 1488 0124 002B     		cmp	r3, #0
 1489 0126 0CD0     		beq	.L101
 265:Generated_Source\PSoC6\pdl\middleware\em_eeprom/cy_em_eeprom.c **** 
 1490              		.loc 1 265 0
 1491 0128 5346     		mov	r3, r10
ARM GAS  C:\Users\eduar\AppData\Local\Temp\cctEoJXe.s 			page 53


 1492 012a 0093     		str	r3, [sp]
 1493 012c 2300     		movs	r3, r4
 1494 012e 4946     		mov	r1, r9
 1495 0130 FFF7FEFF 		bl	CheckCrcAndCopy
 1496              	.LVL199:
 267:Generated_Source\PSoC6\pdl\middleware\em_eeprom/cy_em_eeprom.c ****                 {
 1497              		.loc 1 267 0
 1498 0134 0028     		cmp	r0, #0
 1499 0136 0AD0     		beq	.L103
 1500 0138 0390     		str	r0, [sp, #12]
 1501              	.LVL200:
 1502 013a 089B     		ldr	r3, [sp, #32]
 1503 013c 9946     		mov	r9, r3
 1504              	.LVL201:
 1505 013e 5646     		mov	r6, r10
 1506              	.LVL202:
 1507 0140 11E0     		b	.L102
 1508              	.LVL203:
 1509              	.L101:
 276:Generated_Source\PSoC6\pdl\middleware\em_eeprom/cy_em_eeprom.c ****                              numBytesToRead);
 1510              		.loc 1 276 0
 1511 0142 8118     		adds	r1, r0, r2
 275:Generated_Source\PSoC6\pdl\middleware\em_eeprom/cy_em_eeprom.c ****                              (void *)(startRowAddr + curRowOffset),
 1512              		.loc 1 275 0
 1513 0144 2200     		movs	r2, r4
 1514              	.LVL204:
 1515 0146 4846     		mov	r0, r9
 1516              	.LVL205:
 1517 0148 FFF7FEFF 		bl	memcpy
 1518              	.LVL206:
 280:Generated_Source\PSoC6\pdl\middleware\em_eeprom/cy_em_eeprom.c ****             }
 1519              		.loc 1 280 0
 1520 014c 0020     		movs	r0, #0
 1521              	.LVL207:
 1522              	.L103:
 284:Generated_Source\PSoC6\pdl\middleware\em_eeprom/cy_em_eeprom.c ****             rdSize -= numBytesToRead;
 1523              		.loc 1 284 0 discriminator 2
 1524 014e 3619     		adds	r6, r6, r4
 1525              	.LVL208:
 285:Generated_Source\PSoC6\pdl\middleware\em_eeprom/cy_em_eeprom.c ****             eeData += numBytesToRead;
 1526              		.loc 1 285 0 discriminator 2
 1527 0150 4346     		mov	r3, r8
 1528 0152 1B1B     		subs	r3, r3, r4
 1529 0154 9846     		mov	r8, r3
 1530              	.LVL209:
 286:Generated_Source\PSoC6\pdl\middleware\em_eeprom/cy_em_eeprom.c ****             curRdEepromRowNum++;
 1531              		.loc 1 286 0 discriminator 2
 1532 0156 A144     		add	r9, r9, r4
 1533              	.LVL210:
 287:Generated_Source\PSoC6\pdl\middleware\em_eeprom/cy_em_eeprom.c ****         }
 1534              		.loc 1 287 0 discriminator 2
 1535 0158 0135     		adds	r5, r5, #1
 1536              	.LVL211:
 1537              	.L98:
 229:Generated_Source\PSoC6\pdl\middleware\em_eeprom/cy_em_eeprom.c ****         {
 1538              		.loc 1 229 0 discriminator 1
 1539 015a 5F45     		cmp	r7, fp
ARM GAS  C:\Users\eduar\AppData\Local\Temp\cctEoJXe.s 			page 54


 1540 015c BDD3     		bcc	.L104
 1541 015e 0390     		str	r0, [sp, #12]
 1542              	.LVL212:
 1543 0160 089B     		ldr	r3, [sp, #32]
 1544 0162 9946     		mov	r9, r3
 1545              	.LVL213:
 1546 0164 5646     		mov	r6, r10
 1547              	.LVL214:
 1548              	.L102:
 298:Generated_Source\PSoC6\pdl\middleware\em_eeprom/cy_em_eeprom.c ****         {
 1549              		.loc 1 298 0
 1550 0166 039B     		ldr	r3, [sp, #12]
 1551 0168 002B     		cmp	r3, #0
 1552 016a 5ED1     		bne	.L92
 298:Generated_Source\PSoC6\pdl\middleware\em_eeprom/cy_em_eeprom.c ****         {
 1553              		.loc 1 298 0 is_stmt 0 discriminator 1
 1554 016c 099A     		ldr	r2, [sp, #36]
 1555 016e 002A     		cmp	r2, #0
 1556 0170 5BD0     		beq	.L92
 300:Generated_Source\PSoC6\pdl\middleware\em_eeprom/cy_em_eeprom.c ****             numRowReads--;
 1557              		.loc 1 300 0 is_stmt 1
 1558 0172 7368     		ldr	r3, [r6, #4]
 1559 0174 1400     		movs	r4, r2
 1560 0176 9A42     		cmp	r2, r3
 1561 0178 00D9     		bls	.L105
 1562 017a 1C00     		movs	r4, r3
 1563              	.L105:
 1564              	.LVL215:
 301:Generated_Source\PSoC6\pdl\middleware\em_eeprom/cy_em_eeprom.c **** 
 1565              		.loc 1 301 0
 1566 017c 013C     		subs	r4, r4, #1
 1567              	.LVL216:
 303:Generated_Source\PSoC6\pdl\middleware\em_eeprom/cy_em_eeprom.c ****             {
 1568              		.loc 1 303 0
 1569 017e 099B     		ldr	r3, [sp, #36]
 1570 0180 1C1B     		subs	r4, r3, r4
 1571              	.LVL217:
 1572 0182 079A     		ldr	r2, [sp, #28]
 1573 0184 9046     		mov	r8, r2
 1574              	.LVL218:
 1575 0186 1D00     		movs	r5, r3
 1576              	.LVL219:
 1577 0188 4F46     		mov	r7, r9
 1578 018a 43E0     		b	.L106
 1579              	.L115:
 305:Generated_Source\PSoC6\pdl\middleware\em_eeprom/cy_em_eeprom.c **** 
 1580              		.loc 1 305 0
 1581 018c 3100     		movs	r1, r6
 1582 018e 2000     		movs	r0, r4
 1583 0190 FFF7FEFF 		bl	GetRowAddrBySeqNum
 1584              	.LVL220:
 307:Generated_Source\PSoC6\pdl\middleware\em_eeprom/cy_em_eeprom.c ****                 {
 1585              		.loc 1 307 0
 1586 0194 0028     		cmp	r0, #0
 1587 0196 3CD0     		beq	.L107
 1588              	.LBB9:
 310:Generated_Source\PSoC6\pdl\middleware\em_eeprom/cy_em_eeprom.c ****                     uint32_t endAddr    = startAddr + (*(uint32_t *)(startRowAddr + CY_EM_EEPROM_HE
ARM GAS  C:\Users\eduar\AppData\Local\Temp\cctEoJXe.s 			page 55


 1589              		.loc 1 310 0
 1590 0198 4168     		ldr	r1, [r0, #4]
 1591              	.LVL221:
 311:Generated_Source\PSoC6\pdl\middleware\em_eeprom/cy_em_eeprom.c **** 
 1592              		.loc 1 311 0
 1593 019a 8368     		ldr	r3, [r0, #8]
 1594 019c CB18     		adds	r3, r1, r3
 1595              	.LVL222:
 314:Generated_Source\PSoC6\pdl\middleware\em_eeprom/cy_em_eeprom.c ****                     {
 1596              		.loc 1 314 0
 1597 019e 8F42     		cmp	r7, r1
 1598 01a0 03D2     		bcs	.L108
 314:Generated_Source\PSoC6\pdl\middleware\em_eeprom/cy_em_eeprom.c ****                     {
 1599              		.loc 1 314 0 is_stmt 0 discriminator 1
 1600 01a2 4145     		cmp	r1, r8
 1601 01a4 9241     		sbcs	r2, r2, r2
 1602 01a6 5242     		rsbs	r2, r2, #0
 1603 01a8 02E0     		b	.L109
 1604              	.L108:
 314:Generated_Source\PSoC6\pdl\middleware\em_eeprom/cy_em_eeprom.c ****                     {
 1605              		.loc 1 314 0 discriminator 2
 1606 01aa 9F42     		cmp	r7, r3
 1607 01ac 9241     		sbcs	r2, r2, r2
 1608 01ae 5242     		rsbs	r2, r2, #0
 1609              	.L109:
 314:Generated_Source\PSoC6\pdl\middleware\em_eeprom/cy_em_eeprom.c ****                     {
 1610              		.loc 1 314 0 discriminator 4
 1611 01b0 002A     		cmp	r2, #0
 1612 01b2 2ED0     		beq	.L107
 1613              	.LBB10:
 316:Generated_Source\PSoC6\pdl\middleware\em_eeprom/cy_em_eeprom.c ****                         uint32_t dstOffset = (startAddr > addr) ? (startAddr - addr): (0u);
 1614              		.loc 1 316 0 is_stmt 1
 1615 01b4 8F42     		cmp	r7, r1
 1616 01b6 02D3     		bcc	.L125
 316:Generated_Source\PSoC6\pdl\middleware\em_eeprom/cy_em_eeprom.c ****                         uint32_t dstOffset = (startAddr > addr) ? (startAddr - addr): (0u);
 1617              		.loc 1 316 0 is_stmt 0 discriminator 1
 1618 01b8 7A1A     		subs	r2, r7, r1
 1619 01ba 9446     		mov	ip, r2
 1620 01bc 01E0     		b	.L110
 1621              	.L125:
 316:Generated_Source\PSoC6\pdl\middleware\em_eeprom/cy_em_eeprom.c ****                         uint32_t dstOffset = (startAddr > addr) ? (startAddr - addr): (0u);
 1622              		.loc 1 316 0
 1623 01be 0022     		movs	r2, #0
 1624 01c0 9446     		mov	ip, r2
 1625              	.L110:
 1626              	.LVL223:
 317:Generated_Source\PSoC6\pdl\middleware\em_eeprom/cy_em_eeprom.c ****                         rdAddr = (startAddr > addr) ? (startAddr) : (addr);
 1627              		.loc 1 317 0 is_stmt 1 discriminator 4
 1628 01c2 8F42     		cmp	r7, r1
 1629 01c4 02D2     		bcs	.L126
 317:Generated_Source\PSoC6\pdl\middleware\em_eeprom/cy_em_eeprom.c ****                         rdAddr = (startAddr > addr) ? (startAddr) : (addr);
 1630              		.loc 1 317 0 is_stmt 0 discriminator 1
 1631 01c6 CA1B     		subs	r2, r1, r7
 1632 01c8 9346     		mov	fp, r2
 1633 01ca 01E0     		b	.L111
 1634              	.L126:
 317:Generated_Source\PSoC6\pdl\middleware\em_eeprom/cy_em_eeprom.c ****                         rdAddr = (startAddr > addr) ? (startAddr) : (addr);
ARM GAS  C:\Users\eduar\AppData\Local\Temp\cctEoJXe.s 			page 56


 1635              		.loc 1 317 0
 1636 01cc 0022     		movs	r2, #0
 1637 01ce 9346     		mov	fp, r2
 1638              	.L111:
 1639              	.LVL224:
 318:Generated_Source\PSoC6\pdl\middleware\em_eeprom/cy_em_eeprom.c **** 
 1640              		.loc 1 318 0 is_stmt 1 discriminator 4
 1641 01d0 3A00     		movs	r2, r7
 1642 01d2 8F42     		cmp	r7, r1
 1643 01d4 00D2     		bcs	.L112
 1644 01d6 0A00     		movs	r2, r1
 1645              	.L112:
 1646              	.LVL225:
 320:Generated_Source\PSoC6\pdl\middleware\em_eeprom/cy_em_eeprom.c **** 
 1647              		.loc 1 320 0 discriminator 4
 1648 01d8 0C21     		movs	r1, #12
 1649              	.LVL226:
 1650 01da 8946     		mov	r9, r1
 1651 01dc CC44     		add	ip, ip, r9
 1652              	.LVL227:
 323:Generated_Source\PSoC6\pdl\middleware\em_eeprom/cy_em_eeprom.c **** 
 1653              		.loc 1 323 0 discriminator 4
 1654 01de 4146     		mov	r1, r8
 1655 01e0 9845     		cmp	r8, r3
 1656 01e2 00D9     		bls	.L113
 1657 01e4 1900     		movs	r1, r3
 1658              	.L113:
 1659 01e6 8A1A     		subs	r2, r1, r2
 1660              	.LVL228:
 326:Generated_Source\PSoC6\pdl\middleware\em_eeprom/cy_em_eeprom.c **** 
 1661              		.loc 1 326 0 discriminator 4
 1662 01e8 059B     		ldr	r3, [sp, #20]
 1663              	.LVL229:
 1664 01ea 9946     		mov	r9, r3
 1665 01ec CB44     		add	fp, fp, r9
 1666              	.LVL230:
 333:Generated_Source\PSoC6\pdl\middleware\em_eeprom/cy_em_eeprom.c ****                         {
 1667              		.loc 1 333 0 discriminator 4
 1668 01ee 337D     		ldrb	r3, [r6, #20]
 1669 01f0 002B     		cmp	r3, #0
 1670 01f2 09D0     		beq	.L114
 335:Generated_Source\PSoC6\pdl\middleware\em_eeprom/cy_em_eeprom.c **** 
 1671              		.loc 1 335 0
 1672 01f4 0096     		str	r6, [sp]
 1673              	.LVL231:
 1674 01f6 1300     		movs	r3, r2
 1675 01f8 6246     		mov	r2, ip
 1676              	.LVL232:
 1677 01fa 5946     		mov	r1, fp
 1678 01fc FFF7FEFF 		bl	CheckCrcAndCopy
 1679              	.LVL233:
 1680 0200 0390     		str	r0, [sp, #12]
 1681              	.LVL234:
 337:Generated_Source\PSoC6\pdl\middleware\em_eeprom/cy_em_eeprom.c ****                             {
 1682              		.loc 1 337 0
 1683 0202 0028     		cmp	r0, #0
 1684 0204 05D0     		beq	.L107
ARM GAS  C:\Users\eduar\AppData\Local\Temp\cctEoJXe.s 			page 57


 1685              	.LBE10:
 1686              	.LBE9:
 1687 0206 10E0     		b	.L92
 1688              	.LVL235:
 1689              	.L114:
 1690              	.LBB12:
 1691              	.LBB11:
 344:Generated_Source\PSoC6\pdl\middleware\em_eeprom/cy_em_eeprom.c ****                         }
 1692              		.loc 1 344 0
 1693 0208 0100     		movs	r1, r0
 1694 020a 6144     		add	r1, r1, ip
 1695 020c 5846     		mov	r0, fp
 1696              	.LVL236:
 1697 020e FFF7FEFF 		bl	memcpy
 1698              	.LVL237:
 1699              	.L107:
 1700              	.LBE11:
 1701              	.LBE12:
 303:Generated_Source\PSoC6\pdl\middleware\em_eeprom/cy_em_eeprom.c ****             {
 1702              		.loc 1 303 0 discriminator 2
 1703 0212 0134     		adds	r4, r4, #1
 1704              	.LVL238:
 1705              	.L106:
 303:Generated_Source\PSoC6\pdl\middleware\em_eeprom/cy_em_eeprom.c ****             {
 1706              		.loc 1 303 0 is_stmt 0 discriminator 1
 1707 0214 AC42     		cmp	r4, r5
 1708 0216 B9D9     		bls	.L115
 1709 0218 07E0     		b	.L92
 1710              	.LVL239:
 1711              	.L116:
 1712              	.LBE14:
 169:Generated_Source\PSoC6\pdl\middleware\em_eeprom/cy_em_eeprom.c ****     uint32_t i;
 1713              		.loc 1 169 0 is_stmt 1
 1714 021a 084B     		ldr	r3, .L128
 1715 021c 0393     		str	r3, [sp, #12]
 1716 021e 04E0     		b	.L92
 1717              	.LVL240:
 1718              	.L117:
 1719 0220 064B     		ldr	r3, .L128
 1720 0222 0393     		str	r3, [sp, #12]
 1721 0224 01E0     		b	.L92
 1722              	.L118:
 1723 0226 054B     		ldr	r3, .L128
 1724 0228 0393     		str	r3, [sp, #12]
 1725              	.LVL241:
 1726              	.L92:
 353:Generated_Source\PSoC6\pdl\middleware\em_eeprom/cy_em_eeprom.c **** 
 1727              		.loc 1 353 0
 1728 022a 0398     		ldr	r0, [sp, #12]
 1729 022c 0BB0     		add	sp, sp, #44
 1730              		@ sp needed
 1731              	.LVL242:
 1732 022e 3CBC     		pop	{r2, r3, r4, r5}
 1733 0230 9046     		mov	r8, r2
 1734 0232 9946     		mov	r9, r3
 1735 0234 A246     		mov	r10, r4
 1736 0236 AB46     		mov	fp, r5
ARM GAS  C:\Users\eduar\AppData\Local\Temp\cctEoJXe.s 			page 58


 1737 0238 F0BD     		pop	{r4, r5, r6, r7, pc}
 1738              	.L129:
 1739 023a C046     		.align	2
 1740              	.L128:
 1741 023c 01006E00 		.word	7208961
 1742              		.cfi_endproc
 1743              	.LFE46:
 1744              		.size	Cy_Em_EEPROM_Read, .-Cy_Em_EEPROM_Read
 1745              		.global	__aeabi_uidivmod
 1746              		.section	.text.Cy_Em_EEPROM_Write,"ax",%progbits
 1747              		.align	2
 1748              		.global	Cy_Em_EEPROM_Write
 1749              		.code	16
 1750              		.thumb_func
 1751              		.type	Cy_Em_EEPROM_Write, %function
 1752              	Cy_Em_EEPROM_Write:
 1753              	.LFB47:
 410:Generated_Source\PSoC6\pdl\middleware\em_eeprom/cy_em_eeprom.c ****     cy_en_em_eeprom_status_t ret = CY_EM_EEPROM_BAD_PARAM;
 1754              		.loc 1 410 0
 1755              		.cfi_startproc
 1756              		@ args = 0, pretend = 0, frame = 552
 1757              		@ frame_needed = 0, uses_anonymous_args = 0
 1758              	.LVL243:
 1759 0000 F0B5     		push	{r4, r5, r6, r7, lr}
 1760              		.cfi_def_cfa_offset 20
 1761              		.cfi_offset 4, -20
 1762              		.cfi_offset 5, -16
 1763              		.cfi_offset 6, -12
 1764              		.cfi_offset 7, -8
 1765              		.cfi_offset 14, -4
 1766 0002 5F46     		mov	r7, fp
 1767 0004 5646     		mov	r6, r10
 1768 0006 4D46     		mov	r5, r9
 1769 0008 4446     		mov	r4, r8
 1770 000a F0B4     		push	{r4, r5, r6, r7}
 1771              		.cfi_def_cfa_offset 36
 1772              		.cfi_offset 8, -36
 1773              		.cfi_offset 9, -32
 1774              		.cfi_offset 10, -28
 1775              		.cfi_offset 11, -24
 1776 000c 664C     		ldr	r4, .L153
 1777 000e A544     		add	sp, sp, r4
 1778              		.cfi_def_cfa_offset 600
 1779 0010 8246     		mov	r10, r0
 1780 0012 9146     		mov	r9, r2
 1781 0014 1D00     		movs	r5, r3
 1782              	.LVL244:
 416:Generated_Source\PSoC6\pdl\middleware\em_eeprom/cy_em_eeprom.c ****     uint32_t endAddr = 0u;
 1783              		.loc 1 416 0
 1784 0016 0023     		movs	r3, #0
 1785              	.LVL245:
 1786 0018 0B93     		str	r3, [sp, #44]
 417:Generated_Source\PSoC6\pdl\middleware\em_eeprom/cy_em_eeprom.c ****     uint32_t tmpRowAddr;
 1787              		.loc 1 417 0
 1788 001a 0A93     		str	r3, [sp, #40]
 419:Generated_Source\PSoC6\pdl\middleware\em_eeprom/cy_em_eeprom.c ****     uint32_t emEepromRowRdAddr;
 1789              		.loc 1 419 0
ARM GAS  C:\Users\eduar\AppData\Local\Temp\cctEoJXe.s 			page 59


 1790 001c AB68     		ldr	r3, [r5, #8]
 1791 001e 0993     		str	r3, [sp, #36]
 422:Generated_Source\PSoC6\pdl\middleware\em_eeprom/cy_em_eeprom.c **** 
 1792              		.loc 1 422 0
 1793 0020 0391     		str	r1, [sp, #12]
 1794              	.LVL246:
 425:Generated_Source\PSoC6\pdl\middleware\em_eeprom/cy_em_eeprom.c ****     {
 1795              		.loc 1 425 0
 1796 0022 131E     		subs	r3, r2, #0
 1797 0024 00D1     		bne	.LCB2010
 1798 0026 B1E0     		b	.L148	@long jump
 1799              	.LCB2010:
 425:Generated_Source\PSoC6\pdl\middleware\em_eeprom/cy_em_eeprom.c ****     {
 1800              		.loc 1 425 0 is_stmt 0 discriminator 1
 1801 0028 5344     		add	r3, r3, r10
 1802 002a EA68     		ldr	r2, [r5, #12]
 1803              	.LVL247:
 1804 002c 9342     		cmp	r3, r2
 1805 002e 00D9     		bls	.LCB2016
 1806 0030 AEE0     		b	.L149	@long jump
 1807              	.LCB2016:
 425:Generated_Source\PSoC6\pdl\middleware\em_eeprom/cy_em_eeprom.c ****     {
 1808              		.loc 1 425 0 discriminator 2
 1809 0032 0029     		cmp	r1, #0
 1810 0034 00D1     		bne	.LCB2018
 1811 0036 ADE0     		b	.L150	@long jump
 1812              	.LCB2018:
 1813              	.LBB15:
 427:Generated_Source\PSoC6\pdl\middleware\em_eeprom/cy_em_eeprom.c ****         uint32_t eeHeaderDataOffset = 0u;
 1814              		.loc 1 427 0 is_stmt 1
 1815 0038 4B46     		mov	r3, r9
 1816 003a 581E     		subs	r0, r3, #1
 1817              	.LVL248:
 1818 003c F021     		movs	r1, #240
 1819              	.LVL249:
 1820 003e FFF7FEFF 		bl	__aeabi_uidiv
 1821              	.LVL250:
 1822 0042 0300     		movs	r3, r0
 1823 0044 0590     		str	r0, [sp, #20]
 1824 0046 0133     		adds	r3, r3, #1
 1825 0048 0493     		str	r3, [sp, #16]
 1826              	.LVL251:
 428:Generated_Source\PSoC6\pdl\middleware\em_eeprom/cy_em_eeprom.c **** 
 1827              		.loc 1 428 0
 1828 004a 0023     		movs	r3, #0
 1829              	.LVL252:
 1830 004c 0793     		str	r3, [sp, #28]
 1831              	.LVL253:
 430:Generated_Source\PSoC6\pdl\middleware\em_eeprom/cy_em_eeprom.c ****         {
 1832              		.loc 1 430 0
 1833 004e 9B46     		mov	fp, r3
 1834              	.LBE15:
 411:Generated_Source\PSoC6\pdl\middleware\em_eeprom/cy_em_eeprom.c ****     uint32_t i;
 1835              		.loc 1 411 0
 1836 0050 5648     		ldr	r0, .L153+4
 1837              	.LBB18:
 430:Generated_Source\PSoC6\pdl\middleware\em_eeprom/cy_em_eeprom.c ****         {
ARM GAS  C:\Users\eduar\AppData\Local\Temp\cctEoJXe.s 			page 60


 1838              		.loc 1 430 0
 1839 0052 96E0     		b	.L132
 1840              	.LVL254:
 1841              	.L147:
 1842              	.LBB16:
 434:Generated_Source\PSoC6\pdl\middleware\em_eeprom/cy_em_eeprom.c **** 
 1843              		.loc 1 434 0
 1844 0054 099B     		ldr	r3, [sp, #36]
 1845 0056 1C68     		ldr	r4, [r3]
 1846              	.LVL255:
 441:Generated_Source\PSoC6\pdl\middleware\em_eeprom/cy_em_eeprom.c **** 
 1847              		.loc 1 441 0
 1848 0058 2B00     		movs	r3, r5
 1849 005a 08AA     		add	r2, sp, #32
 1850 005c 09A9     		add	r1, sp, #36
 1851 005e 2000     		movs	r0, r4
 1852              	.LVL256:
 1853 0060 FFF7FEFF 		bl	GetNextRowToWrite
 1854              	.LVL257:
 444:Generated_Source\PSoC6\pdl\middleware\em_eeprom/cy_em_eeprom.c **** 
 1855              		.loc 1 444 0
 1856 0064 8022     		movs	r2, #128
 1857 0066 9200     		lsls	r2, r2, #2
 1858 0068 0021     		movs	r1, #0
 1859 006a 0CA8     		add	r0, sp, #48
 1860 006c FFF7FEFF 		bl	memset
 1861              	.LVL258:
 447:Generated_Source\PSoC6\pdl\middleware\em_eeprom/cy_em_eeprom.c ****             writeRamBuffer[CY_EM_EEPROM_HEADER_SEQ_NUM_OFFSET_U32] = seqNum;
 1862              		.loc 1 447 0
 1863 0070 631C     		adds	r3, r4, #1
 1864 0072 9846     		mov	r8, r3
 1865              	.LVL259:
 448:Generated_Source\PSoC6\pdl\middleware\em_eeprom/cy_em_eeprom.c ****             writeRamBuffer[CY_EM_EEPROM_HEADER_ADDR_OFFSET_U32] = addr;
 1866              		.loc 1 448 0
 1867 0074 0C93     		str	r3, [sp, #48]
 449:Generated_Source\PSoC6\pdl\middleware\em_eeprom/cy_em_eeprom.c ****             tmpData = (void *) eeData;
 1868              		.loc 1 449 0
 1869 0076 5346     		mov	r3, r10
 1870              	.LVL260:
 1871 0078 0D93     		str	r3, [sp, #52]
 450:Generated_Source\PSoC6\pdl\middleware\em_eeprom/cy_em_eeprom.c **** 
 1872              		.loc 1 450 0
 1873 007a 0399     		ldr	r1, [sp, #12]
 1874              	.LVL261:
 453:Generated_Source\PSoC6\pdl\middleware\em_eeprom/cy_em_eeprom.c ****             {
 1875              		.loc 1 453 0
 1876 007c 059B     		ldr	r3, [sp, #20]
 1877 007e 9B45     		cmp	fp, r3
 1878 0080 02D1     		bne	.L133
 456:Generated_Source\PSoC6\pdl\middleware\em_eeprom/cy_em_eeprom.c ****             }
 1879              		.loc 1 456 0
 1880 0082 4B46     		mov	r3, r9
 1881 0084 0E93     		str	r3, [sp, #56]
 1882 0086 0CE0     		b	.L134
 1883              	.L133:
 464:Generated_Source\PSoC6\pdl\middleware\em_eeprom/cy_em_eeprom.c ****                 size -= CY_EM_EEPROM_HEADER_DATA_LEN;
 1884              		.loc 1 464 0
ARM GAS  C:\Users\eduar\AppData\Local\Temp\cctEoJXe.s 			page 61


 1885 0088 F023     		movs	r3, #240
 1886 008a 0E93     		str	r3, [sp, #56]
 465:Generated_Source\PSoC6\pdl\middleware\em_eeprom/cy_em_eeprom.c ****                 addr += CY_EM_EEPROM_HEADER_DATA_LEN;
 1887              		.loc 1 465 0
 1888 008c E13B     		subs	r3, r3, #225
 1889 008e FF3B     		subs	r3, r3, #255
 1890 0090 9C46     		mov	ip, r3
 1891 0092 E144     		add	r9, r9, ip
 1892              	.LVL262:
 466:Generated_Source\PSoC6\pdl\middleware\em_eeprom/cy_em_eeprom.c ****                 eeData += CY_EM_EEPROM_HEADER_DATA_LEN;
 1893              		.loc 1 466 0
 1894 0094 E133     		adds	r3, r3, #225
 1895 0096 FF33     		adds	r3, r3, #255
 1896 0098 9C46     		mov	ip, r3
 1897 009a E244     		add	r10, r10, ip
 1898              	.LVL263:
 467:Generated_Source\PSoC6\pdl\middleware\em_eeprom/cy_em_eeprom.c ****             }
 1899              		.loc 1 467 0
 1900 009c 039B     		ldr	r3, [sp, #12]
 1901 009e F033     		adds	r3, r3, #240
 1902 00a0 0393     		str	r3, [sp, #12]
 1903              	.LVL264:
 1904              	.L134:
 471:Generated_Source\PSoC6\pdl\middleware\em_eeprom/cy_em_eeprom.c ****                          tmpData,
 1905              		.loc 1 471 0
 1906 00a2 0E9A     		ldr	r2, [sp, #56]
 1907 00a4 0FA8     		add	r0, sp, #60
 1908 00a6 FFF7FEFF 		bl	memcpy
 1909              	.LVL265:
 475:Generated_Source\PSoC6\pdl\middleware\em_eeprom/cy_em_eeprom.c ****             {
 1910              		.loc 1 475 0
 1911 00aa 0899     		ldr	r1, [sp, #32]
 1912 00ac 0029     		cmp	r1, #0
 1913 00ae 06D0     		beq	.L135
 479:Generated_Source\PSoC6\pdl\middleware\em_eeprom/cy_em_eeprom.c ****                              CY_EM_EEPROM_EEPROM_DATA_LEN);
 1914              		.loc 1 479 0
 1915 00b0 0131     		adds	r1, r1, #1
 1916 00b2 FF31     		adds	r1, r1, #255
 478:Generated_Source\PSoC6\pdl\middleware\em_eeprom/cy_em_eeprom.c ****                              (void *)(emEepromRowRdAddr + CY_EM_EEPROM_EEPROM_DATA_LEN),
 1917              		.loc 1 478 0
 1918 00b4 8022     		movs	r2, #128
 1919 00b6 5200     		lsls	r2, r2, #1
 1920 00b8 4CA8     		add	r0, sp, #304
 1921 00ba FFF7FEFF 		bl	memcpy
 1922              	.LVL266:
 1923              	.L135:
 487:Generated_Source\PSoC6\pdl\middleware\em_eeprom/cy_em_eeprom.c **** 
 1924              		.loc 1 487 0
 1925 00be 6C68     		ldr	r4, [r5, #4]
 1926 00c0 A045     		cmp	r8, r4
 1927 00c2 03D9     		bls	.L151
 487:Generated_Source\PSoC6\pdl\middleware\em_eeprom/cy_em_eeprom.c **** 
 1928              		.loc 1 487 0 is_stmt 0 discriminator 1
 1929 00c4 4346     		mov	r3, r8
 1930 00c6 1C1B     		subs	r4, r3, r4
 1931 00c8 0134     		adds	r4, r4, #1
 1932 00ca 00E0     		b	.L136
ARM GAS  C:\Users\eduar\AppData\Local\Temp\cctEoJXe.s 			page 62


 1933              	.L151:
 487:Generated_Source\PSoC6\pdl\middleware\em_eeprom/cy_em_eeprom.c **** 
 1934              		.loc 1 487 0
 1935 00cc 0124     		movs	r4, #1
 1936              	.L136:
 487:Generated_Source\PSoC6\pdl\middleware\em_eeprom/cy_em_eeprom.c **** 
 1937              		.loc 1 487 0 discriminator 1
 1938 00ce 0027     		movs	r7, #0
 1939 00d0 3AE0     		b	.L137
 1940              	.LVL267:
 1941              	.L144:
 491:Generated_Source\PSoC6\pdl\middleware\em_eeprom/cy_em_eeprom.c ****                 {
 1942              		.loc 1 491 0 is_stmt 1
 1943 00d2 4445     		cmp	r4, r8
 1944 00d4 01D1     		bne	.L138
 497:Generated_Source\PSoC6\pdl\middleware\em_eeprom/cy_em_eeprom.c ****                 }
 1945              		.loc 1 497 0
 1946 00d6 0CAE     		add	r6, sp, #48
 1947              	.LVL268:
 1948 00d8 04E0     		b	.L139
 1949              	.LVL269:
 1950              	.L138:
 504:Generated_Source\PSoC6\pdl\middleware\em_eeprom/cy_em_eeprom.c ****                 }
 1951              		.loc 1 504 0
 1952 00da 2900     		movs	r1, r5
 1953 00dc 2000     		movs	r0, r4
 1954 00de FFF7FEFF 		bl	GetRowAddrBySeqNum
 1955              	.LVL270:
 1956 00e2 0600     		movs	r6, r0
 1957              	.LVL271:
 1958              	.L139:
 507:Generated_Source\PSoC6\pdl\middleware\em_eeprom/cy_em_eeprom.c ****                                                                            context->numberOfRows,
 1959              		.loc 1 507 0
 1960 00e4 099B     		ldr	r3, [sp, #36]
 1961 00e6 AA69     		ldr	r2, [r5, #24]
 1962 00e8 981A     		subs	r0, r3, r2
 1963 00ea 400A     		lsrs	r0, r0, #9
 1964 00ec 6968     		ldr	r1, [r5, #4]
 1965 00ee FFF7FEFF 		bl	__aeabi_uidivmod
 1966              	.LVL272:
 510:Generated_Source\PSoC6\pdl\middleware\em_eeprom/cy_em_eeprom.c ****                 {
 1967              		.loc 1 510 0
 1968 00f2 002E     		cmp	r6, #0
 1969 00f4 0BD0     		beq	.L140
 513:Generated_Source\PSoC6\pdl\middleware\em_eeprom/cy_em_eeprom.c ****                                               &startAddr,
 1970              		.loc 1 513 0
 1971 00f6 7368     		ldr	r3, [r6, #4]
 1972 00f8 B268     		ldr	r2, [r6, #8]
 1973 00fa 0192     		str	r2, [sp, #4]
 1974 00fc 0093     		str	r3, [sp]
 1975 00fe 0B00     		movs	r3, r1
 1976 0100 07AA     		add	r2, sp, #28
 1977 0102 0AA9     		add	r1, sp, #40
 1978              	.LVL273:
 1979 0104 0BA8     		add	r0, sp, #44
 1980 0106 FFF7FEFF 		bl	GetAddresses
 1981              	.LVL274:
ARM GAS  C:\Users\eduar\AppData\Local\Temp\cctEoJXe.s 			page 63


 1982 010a 0700     		movs	r7, r0
 1983              	.LVL275:
 1984 010c 00E0     		b	.L141
 1985              	.LVL276:
 1986              	.L140:
 524:Generated_Source\PSoC6\pdl\middleware\em_eeprom/cy_em_eeprom.c ****                 }
 1987              		.loc 1 524 0
 1988 010e 0137     		adds	r7, r7, #1
 1989              	.LVL277:
 1990              	.L141:
 528:Generated_Source\PSoC6\pdl\middleware\em_eeprom/cy_em_eeprom.c ****                 {
 1991              		.loc 1 528 0
 1992 0110 002F     		cmp	r7, #0
 1993 0112 0BD1     		bne	.L142
 1994              	.LBB17:
 530:Generated_Source\PSoC6\pdl\middleware\em_eeprom/cy_em_eeprom.c **** 
 1995              		.loc 1 530 0
 1996 0114 0B9A     		ldr	r2, [sp, #44]
 1997 0116 0CAB     		add	r3, sp, #48
 1998 0118 9818     		adds	r0, r3, r2
 1999              	.LVL278:
 535:Generated_Source\PSoC6\pdl\middleware\em_eeprom/cy_em_eeprom.c ****                     (void)memcpy((void *)(dataAddr), (void *)(tmpRowAddr), endAddr - startAddr);
 2000              		.loc 1 535 0
 2001 011a 079B     		ldr	r3, [sp, #28]
 2002 011c 9C46     		mov	ip, r3
 2003 011e 6644     		add	r6, r6, ip
 2004              	.LVL279:
 2005 0120 3100     		movs	r1, r6
 2006 0122 0C31     		adds	r1, r1, #12
 2007              	.LVL280:
 536:Generated_Source\PSoC6\pdl\middleware\em_eeprom/cy_em_eeprom.c ****                 }
 2008              		.loc 1 536 0
 2009 0124 0A9B     		ldr	r3, [sp, #40]
 2010 0126 9A1A     		subs	r2, r3, r2
 2011 0128 FFF7FEFF 		bl	memcpy
 2012              	.LVL281:
 2013              	.L142:
 2014              	.LBE17:
 540:Generated_Source\PSoC6\pdl\middleware\em_eeprom/cy_em_eeprom.c ****                 {
 2015              		.loc 1 540 0
 2016 012c 2B7D     		ldrb	r3, [r5, #20]
 2017 012e 002B     		cmp	r3, #0
 2018 0130 09D0     		beq	.L143
 543:Generated_Source\PSoC6\pdl\middleware\em_eeprom/cy_em_eeprom.c ****                                                   CY_EM_EEPROM_EEPROM_DATA_LEN);
 2019              		.loc 1 543 0
 2020 0132 8021     		movs	r1, #128
 2021 0134 4900     		lsls	r1, r1, #1
 2022 0136 4CA8     		add	r0, sp, #304
 2023 0138 FFF7FEFF 		bl	CalcChecksum
 2024              	.LVL282:
 542:Generated_Source\PSoC6\pdl\middleware\em_eeprom/cy_em_eeprom.c ****                         CalcChecksum((uint8_t *) &writeRamBuffer[CY_EM_EEPROM_EEPROM_DATA_OFFSET_U3
 2025              		.loc 1 542 0
 2026 013c FC23     		movs	r3, #252
 2027 013e 04AA     		add	r2, sp, #16
 2028              	.LVL283:
 2029 0140 2021     		movs	r1, #32
 2030 0142 5218     		adds	r2, r2, r1
ARM GAS  C:\Users\eduar\AppData\Local\Temp\cctEoJXe.s 			page 64


 2031              	.LVL284:
 2032 0144 D050     		str	r0, [r2, r3]
 2033              	.LVL285:
 2034              	.L143:
 489:Generated_Source\PSoC6\pdl\middleware\em_eeprom/cy_em_eeprom.c ****             {
 2035              		.loc 1 489 0
 2036 0146 0134     		adds	r4, r4, #1
 2037              	.LVL286:
 2038              	.L137:
 489:Generated_Source\PSoC6\pdl\middleware\em_eeprom/cy_em_eeprom.c ****             {
 2039              		.loc 1 489 0 is_stmt 0 discriminator 1
 2040 0148 4445     		cmp	r4, r8
 2041 014a C2D9     		bls	.L144
 549:Generated_Source\PSoC6\pdl\middleware\em_eeprom/cy_em_eeprom.c ****             tmpRowAddr = emEepromRowAddr;
 2042              		.loc 1 549 0 is_stmt 1
 2043 014c 2A00     		movs	r2, r5
 2044 014e 0CA9     		add	r1, sp, #48
 2045 0150 0998     		ldr	r0, [sp, #36]
 2046 0152 FFF7FEFF 		bl	WriteRow
 2047              	.LVL287:
 553:Generated_Source\PSoC6\pdl\middleware\em_eeprom/cy_em_eeprom.c ****             {
 2048              		.loc 1 553 0
 2049 0156 2B7D     		ldrb	r3, [r5, #20]
 2050 0158 002B     		cmp	r3, #0
 2051 015a 0BD0     		beq	.L145
 553:Generated_Source\PSoC6\pdl\middleware\em_eeprom/cy_em_eeprom.c ****             {
 2052              		.loc 1 553 0 is_stmt 0 discriminator 1
 2053 015c 0028     		cmp	r0, #0
 2054 015e 09D1     		bne	.L145
 556:Generated_Source\PSoC6\pdl\middleware\em_eeprom/cy_em_eeprom.c **** 
 2055              		.loc 1 556 0 is_stmt 1
 2056 0160 099B     		ldr	r3, [sp, #36]
 2057 0162 AA69     		ldr	r2, [r5, #24]
 2058 0164 981A     		subs	r0, r3, r2
 2059              	.LVL288:
 2060 0166 2B68     		ldr	r3, [r5]
 2061 0168 9C46     		mov	ip, r3
 2062 016a 6044     		add	r0, r0, ip
 2063              	.LVL289:
 559:Generated_Source\PSoC6\pdl\middleware\em_eeprom/cy_em_eeprom.c ****             }
 2064              		.loc 1 559 0
 2065 016c 2A00     		movs	r2, r5
 2066 016e 0CA9     		add	r1, sp, #48
 2067 0170 FFF7FEFF 		bl	WriteRow
 2068              	.LVL290:
 2069              	.L145:
 562:Generated_Source\PSoC6\pdl\middleware\em_eeprom/cy_em_eeprom.c ****             {
 2070              		.loc 1 562 0
 2071 0174 0028     		cmp	r0, #0
 2072 0176 0ED1     		bne	.L131
 567:Generated_Source\PSoC6\pdl\middleware\em_eeprom/cy_em_eeprom.c ****             }
 2073              		.loc 1 567 0 discriminator 2
 2074 0178 099B     		ldr	r3, [sp, #36]
 2075 017a AB60     		str	r3, [r5, #8]
 2076              	.LBE16:
 430:Generated_Source\PSoC6\pdl\middleware\em_eeprom/cy_em_eeprom.c ****         {
 2077              		.loc 1 430 0 discriminator 2
ARM GAS  C:\Users\eduar\AppData\Local\Temp\cctEoJXe.s 			page 65


 2078 017c 0123     		movs	r3, #1
 2079 017e 9C46     		mov	ip, r3
 2080 0180 E344     		add	fp, fp, ip
 2081              	.LVL291:
 2082              	.L132:
 430:Generated_Source\PSoC6\pdl\middleware\em_eeprom/cy_em_eeprom.c ****         {
 2083              		.loc 1 430 0 is_stmt 0 discriminator 1
 2084 0182 049B     		ldr	r3, [sp, #16]
 2085 0184 9B45     		cmp	fp, r3
 2086 0186 00D2     		bcs	.LCB2351
 2087 0188 64E7     		b	.L147	@long jump
 2088              	.LCB2351:
 2089 018a 04E0     		b	.L131
 2090              	.LVL292:
 2091              	.L148:
 2092              	.LBE18:
 411:Generated_Source\PSoC6\pdl\middleware\em_eeprom/cy_em_eeprom.c ****     uint32_t i;
 2093              		.loc 1 411 0 is_stmt 1
 2094 018c 0748     		ldr	r0, .L153+4
 2095              	.LVL293:
 2096 018e 02E0     		b	.L131
 2097              	.LVL294:
 2098              	.L149:
 2099 0190 0648     		ldr	r0, .L153+4
 2100              	.LVL295:
 2101 0192 00E0     		b	.L131
 2102              	.LVL296:
 2103              	.L150:
 2104 0194 0548     		ldr	r0, .L153+4
 2105              	.LVL297:
 2106              	.L131:
 576:Generated_Source\PSoC6\pdl\middleware\em_eeprom/cy_em_eeprom.c **** 
 2107              		.loc 1 576 0
 2108 0196 8D23     		movs	r3, #141
 2109 0198 9B00     		lsls	r3, r3, #2
 2110 019a 9D44     		add	sp, sp, r3
 2111              		@ sp needed
 2112              	.LVL298:
 2113              	.LVL299:
 2114              	.LVL300:
 2115 019c 3CBC     		pop	{r2, r3, r4, r5}
 2116 019e 9046     		mov	r8, r2
 2117 01a0 9946     		mov	r9, r3
 2118 01a2 A246     		mov	r10, r4
 2119 01a4 AB46     		mov	fp, r5
 2120 01a6 F0BD     		pop	{r4, r5, r6, r7, pc}
 2121              	.L154:
 2122              		.align	2
 2123              	.L153:
 2124 01a8 CCFDFFFF 		.word	-564
 2125 01ac 01006E00 		.word	7208961
 2126              		.cfi_endproc
 2127              	.LFE47:
 2128              		.size	Cy_Em_EEPROM_Write, .-Cy_Em_EEPROM_Write
 2129              		.section	.text.Cy_Em_EEPROM_Erase,"ax",%progbits
 2130              		.align	2
 2131              		.global	Cy_Em_EEPROM_Erase
ARM GAS  C:\Users\eduar\AppData\Local\Temp\cctEoJXe.s 			page 66


 2132              		.code	16
 2133              		.thumb_func
 2134              		.type	Cy_Em_EEPROM_Erase, %function
 2135              	Cy_Em_EEPROM_Erase:
 2136              	.LFB48:
 625:Generated_Source\PSoC6\pdl\middleware\em_eeprom/cy_em_eeprom.c ****     uint32_t i;
 2137              		.loc 1 625 0
 2138              		.cfi_startproc
 2139              		@ args = 0, pretend = 0, frame = 528
 2140              		@ frame_needed = 0, uses_anonymous_args = 0
 2141              	.LVL301:
 2142 0000 F0B5     		push	{r4, r5, r6, r7, lr}
 2143              		.cfi_def_cfa_offset 20
 2144              		.cfi_offset 4, -20
 2145              		.cfi_offset 5, -16
 2146              		.cfi_offset 6, -12
 2147              		.cfi_offset 7, -8
 2148              		.cfi_offset 14, -4
 2149 0002 5746     		mov	r7, r10
 2150 0004 4E46     		mov	r6, r9
 2151 0006 C0B4     		push	{r6, r7}
 2152              		.cfi_def_cfa_offset 28
 2153              		.cfi_offset 9, -28
 2154              		.cfi_offset 10, -24
 2155 0008 2B4C     		ldr	r4, .L163
 2156 000a A544     		add	sp, sp, r4
 2157              		.cfi_def_cfa_offset 560
 2158 000c 0600     		movs	r6, r0
 628:Generated_Source\PSoC6\pdl\middleware\em_eeprom/cy_em_eeprom.c ****     uint32_t emEepromRowRdAddr;
 2159              		.loc 1 628 0
 2160 000e 8568     		ldr	r5, [r0, #8]
 2161              	.LVL302:
 631:Generated_Source\PSoC6\pdl\middleware\em_eeprom/cy_em_eeprom.c ****     uint32_t emEepromStoredRowAddr = context->lastWrRowAddr;
 2162              		.loc 1 631 0
 2163 0010 8022     		movs	r2, #128
 2164 0012 9200     		lsls	r2, r2, #2
 2165 0014 0021     		movs	r1, #0
 2166 0016 03A8     		add	r0, sp, #12
 2167              	.LVL303:
 2168 0018 FFF7FEFF 		bl	memset
 2169              	.LVL304:
 632:Generated_Source\PSoC6\pdl\middleware\em_eeprom/cy_em_eeprom.c ****     uint32_t storedSeqNum;
 2170              		.loc 1 632 0
 2171 001c B368     		ldr	r3, [r6, #8]
 2172 001e 0293     		str	r3, [sp, #8]
 636:Generated_Source\PSoC6\pdl\middleware\em_eeprom/cy_em_eeprom.c **** 
 2173              		.loc 1 636 0
 2174 0020 2C68     		ldr	r4, [r5]
 2175              	.LVL305:
 639:Generated_Source\PSoC6\pdl\middleware\em_eeprom/cy_em_eeprom.c ****     {
 2176              		.loc 1 639 0
 2177 0022 002C     		cmp	r4, #0
 2178 0024 3DD0     		beq	.L162
 2179              	.LBB19:
 642:Generated_Source\PSoC6\pdl\middleware\em_eeprom/cy_em_eeprom.c **** 
 2180              		.loc 1 642 0
 2181 0026 3369     		ldr	r3, [r6, #16]
ARM GAS  C:\Users\eduar\AppData\Local\Temp\cctEoJXe.s 			page 67


 2182 0028 7268     		ldr	r2, [r6, #4]
 2183 002a 5343     		muls	r3, r2
 2184 002c 9946     		mov	r9, r3
 2185              	.LVL306:
 644:Generated_Source\PSoC6\pdl\middleware\em_eeprom/cy_em_eeprom.c ****         storedSeqNum = seqNum + 1u;
 2186              		.loc 1 644 0
 2187 002e 3300     		movs	r3, r6
 2188              	.LVL307:
 2189 0030 83AA     		add	r2, sp, #524
 2190 0032 02A9     		add	r1, sp, #8
 2191 0034 2000     		movs	r0, r4
 2192 0036 FFF7FEFF 		bl	GetNextRowToWrite
 2193              	.LVL308:
 645:Generated_Source\PSoC6\pdl\middleware\em_eeprom/cy_em_eeprom.c **** 
 2194              		.loc 1 645 0
 2195 003a 631C     		adds	r3, r4, #1
 2196 003c 9A46     		mov	r10, r3
 2197              	.LVL309:
 647:Generated_Source\PSoC6\pdl\middleware\em_eeprom/cy_em_eeprom.c ****         {
 2198              		.loc 1 647 0
 2199 003e 337D     		ldrb	r3, [r6, #20]
 2200              	.LVL310:
 2201 0040 002B     		cmp	r3, #0
 2202 0042 07D0     		beq	.L157
 650:Generated_Source\PSoC6\pdl\middleware\em_eeprom/cy_em_eeprom.c ****                                                   CY_EM_EEPROM_EEPROM_DATA_LEN);
 2203              		.loc 1 650 0
 2204 0044 8021     		movs	r1, #128
 2205 0046 4900     		lsls	r1, r1, #1
 2206 0048 43A8     		add	r0, sp, #268
 2207 004a FFF7FEFF 		bl	CalcChecksum
 2208              	.LVL311:
 649:Generated_Source\PSoC6\pdl\middleware\em_eeprom/cy_em_eeprom.c ****                         CalcChecksum((uint8_t *) &writeRamBuffer[CY_EM_EEPROM_EEPROM_DATA_OFFSET_U3
 2209              		.loc 1 649 0
 2210 004e FC23     		movs	r3, #252
 2211 0050 03AA     		add	r2, sp, #12
 2212 0052 D050     		str	r0, [r2, r3]
 2213              	.L157:
 2214              	.LBE19:
 625:Generated_Source\PSoC6\pdl\middleware\em_eeprom/cy_em_eeprom.c ****     uint32_t i;
 2215              		.loc 1 625 0 discriminator 1
 2216 0054 194B     		ldr	r3, .L163+4
 2217 0056 0193     		str	r3, [sp, #4]
 2218 0058 0027     		movs	r7, #0
 2219 005a 10E0     		b	.L158
 2220              	.LVL312:
 2221              	.L161:
 2222              	.LBB20:
 661:Generated_Source\PSoC6\pdl\middleware\em_eeprom/cy_em_eeprom.c ****             {
 2223              		.loc 1 661 0
 2224 005c 002D     		cmp	r5, #0
 2225 005e 05D0     		beq	.L159
 663:Generated_Source\PSoC6\pdl\middleware\em_eeprom/cy_em_eeprom.c ****             }
 2226              		.loc 1 663 0
 2227 0060 3200     		movs	r2, r6
 2228 0062 03A9     		add	r1, sp, #12
 2229 0064 2800     		movs	r0, r5
 2230 0066 FFF7FEFF 		bl	EraseRow
ARM GAS  C:\Users\eduar\AppData\Local\Temp\cctEoJXe.s 			page 68


 2231              	.LVL313:
 2232 006a 0190     		str	r0, [sp, #4]
 2233              	.LVL314:
 2234              	.L159:
 666:Generated_Source\PSoC6\pdl\middleware\em_eeprom/cy_em_eeprom.c **** 
 2235              		.loc 1 666 0
 2236 006c 013C     		subs	r4, r4, #1
 2237              	.LVL315:
 668:Generated_Source\PSoC6\pdl\middleware\em_eeprom/cy_em_eeprom.c ****             {
 2238              		.loc 1 668 0
 2239 006e 002C     		cmp	r4, #0
 2240 0070 07D0     		beq	.L160
 673:Generated_Source\PSoC6\pdl\middleware\em_eeprom/cy_em_eeprom.c ****         }
 2241              		.loc 1 673 0 discriminator 2
 2242 0072 3100     		movs	r1, r6
 2243 0074 2000     		movs	r0, r4
 2244 0076 FFF7FEFF 		bl	GetRowAddrBySeqNum
 2245              	.LVL316:
 2246 007a 0500     		movs	r5, r0
 2247              	.LVL317:
 654:Generated_Source\PSoC6\pdl\middleware\em_eeprom/cy_em_eeprom.c ****         {
 2248              		.loc 1 654 0 discriminator 2
 2249 007c 0137     		adds	r7, r7, #1
 2250              	.LVL318:
 2251              	.L158:
 654:Generated_Source\PSoC6\pdl\middleware\em_eeprom/cy_em_eeprom.c ****         {
 2252              		.loc 1 654 0 is_stmt 0 discriminator 1
 2253 007e 4F45     		cmp	r7, r9
 2254 0080 ECD3     		bcc	.L161
 2255              	.L160:
 676:Generated_Source\PSoC6\pdl\middleware\em_eeprom/cy_em_eeprom.c ****         {
 2256              		.loc 1 676 0 is_stmt 1
 2257 0082 019B     		ldr	r3, [sp, #4]
 2258 0084 002B     		cmp	r3, #0
 2259 0086 0ED1     		bne	.L156
 678:Generated_Source\PSoC6\pdl\middleware\em_eeprom/cy_em_eeprom.c **** 
 2260              		.loc 1 678 0
 2261 0088 5346     		mov	r3, r10
 2262 008a 0393     		str	r3, [sp, #12]
 684:Generated_Source\PSoC6\pdl\middleware\em_eeprom/cy_em_eeprom.c **** 
 2263              		.loc 1 684 0
 2264 008c 3200     		movs	r2, r6
 2265 008e 03A9     		add	r1, sp, #12
 2266 0090 0298     		ldr	r0, [sp, #8]
 2267 0092 FFF7FEFF 		bl	WriteRow
 2268              	.LVL319:
 2269 0096 0190     		str	r0, [sp, #4]
 2270              	.LVL320:
 686:Generated_Source\PSoC6\pdl\middleware\em_eeprom/cy_em_eeprom.c ****             {
 2271              		.loc 1 686 0
 2272 0098 0028     		cmp	r0, #0
 2273 009a 04D1     		bne	.L156
 688:Generated_Source\PSoC6\pdl\middleware\em_eeprom/cy_em_eeprom.c ****             }
 2274              		.loc 1 688 0
 2275 009c 029B     		ldr	r3, [sp, #8]
 2276 009e B360     		str	r3, [r6, #8]
 2277 00a0 01E0     		b	.L156
ARM GAS  C:\Users\eduar\AppData\Local\Temp\cctEoJXe.s 			page 69


 2278              	.LVL321:
 2279              	.L162:
 2280              	.LBE20:
 630:Generated_Source\PSoC6\pdl\middleware\em_eeprom/cy_em_eeprom.c ****     uint32_t writeRamBuffer[CY_EM_EEPROM_FLASH_SIZEOF_ROW / CY_EM_EEPROM_U32_DIV] = {0u};
 2281              		.loc 1 630 0
 2282 00a2 064B     		ldr	r3, .L163+4
 2283 00a4 0193     		str	r3, [sp, #4]
 2284              	.LVL322:
 2285              	.L156:
 694:Generated_Source\PSoC6\pdl\middleware\em_eeprom/cy_em_eeprom.c **** 
 2286              		.loc 1 694 0
 2287 00a6 0198     		ldr	r0, [sp, #4]
 2288 00a8 8523     		movs	r3, #133
 2289 00aa 9B00     		lsls	r3, r3, #2
 2290 00ac 9D44     		add	sp, sp, r3
 2291              		@ sp needed
 2292              	.LVL323:
 2293              	.LVL324:
 2294              	.LVL325:
 2295 00ae 0CBC     		pop	{r2, r3}
 2296 00b0 9146     		mov	r9, r2
 2297 00b2 9A46     		mov	r10, r3
 2298 00b4 F0BD     		pop	{r4, r5, r6, r7, pc}
 2299              	.L164:
 2300 00b6 C046     		.align	2
 2301              	.L163:
 2302 00b8 ECFDFFFF 		.word	-532
 2303 00bc 04006E00 		.word	7208964
 2304              		.cfi_endproc
 2305              	.LFE48:
 2306              		.size	Cy_Em_EEPROM_Erase, .-Cy_Em_EEPROM_Erase
 2307              		.section	.text.Cy_Em_EEPROM_NumWrites,"ax",%progbits
 2308              		.align	2
 2309              		.global	Cy_Em_EEPROM_NumWrites
 2310              		.code	16
 2311              		.thumb_func
 2312              		.type	Cy_Em_EEPROM_NumWrites, %function
 2313              	Cy_Em_EEPROM_NumWrites:
 2314              	.LFB49:
 711:Generated_Source\PSoC6\pdl\middleware\em_eeprom/cy_em_eeprom.c ****     return(CY_EM_EEPROM_GET_SEQ_NUM(context->lastWrRowAddr));
 2315              		.loc 1 711 0
 2316              		.cfi_startproc
 2317              		@ args = 0, pretend = 0, frame = 0
 2318              		@ frame_needed = 0, uses_anonymous_args = 0
 2319              		@ link register save eliminated.
 2320              	.LVL326:
 712:Generated_Source\PSoC6\pdl\middleware\em_eeprom/cy_em_eeprom.c **** }
 2321              		.loc 1 712 0
 2322 0000 8368     		ldr	r3, [r0, #8]
 2323 0002 1868     		ldr	r0, [r3]
 2324              	.LVL327:
 713:Generated_Source\PSoC6\pdl\middleware\em_eeprom/cy_em_eeprom.c **** 
 2325              		.loc 1 713 0
 2326              		@ sp needed
 2327 0004 7047     		bx	lr
 2328              		.cfi_endproc
 2329              	.LFE49:
ARM GAS  C:\Users\eduar\AppData\Local\Temp\cctEoJXe.s 			page 70


 2330              		.size	Cy_Em_EEPROM_NumWrites, .-Cy_Em_EEPROM_NumWrites
 2331 0006 C046     		.text
 2332              	.Letext0:
 2333              		.file 2 "c:\\program files (x86)\\cypress\\psoc creator\\4.4\\psoc creator\\import\\gnu\\arm\\5.4.
 2334              		.file 3 "c:\\program files (x86)\\cypress\\psoc creator\\4.4\\psoc creator\\import\\gnu\\arm\\5.4.
 2335              		.file 4 "Generated_Source\\PSoC6\\pdl\\drivers/peripheral/flash/cy_flash.h"
 2336              		.file 5 "Generated_Source\\PSoC6\\pdl\\middleware\\em_eeprom\\cy_em_eeprom.h"
 2337              		.file 6 "Generated_Source\\PSoC6\\pdl\\drivers/peripheral/syslib/cy_syslib.h"
 2338              		.section	.debug_info,"",%progbits
 2339              	.Ldebug_info0:
 2340 0000 84100000 		.4byte	0x1084
 2341 0004 0400     		.2byte	0x4
 2342 0006 00000000 		.4byte	.Ldebug_abbrev0
 2343 000a 04       		.byte	0x4
 2344 000b 01       		.uleb128 0x1
 2345 000c C6050000 		.4byte	.LASF126
 2346 0010 0C       		.byte	0xc
 2347 0011 82070000 		.4byte	.LASF127
 2348 0015 17050000 		.4byte	.LASF128
 2349 0019 C8000000 		.4byte	.Ldebug_ranges0+0xc8
 2350 001d 00000000 		.4byte	0
 2351 0021 00000000 		.4byte	.Ldebug_line0
 2352 0025 02       		.uleb128 0x2
 2353 0026 04       		.byte	0x4
 2354 0027 05       		.byte	0x5
 2355 0028 696E7400 		.ascii	"int\000"
 2356 002c 03       		.uleb128 0x3
 2357 002d 04       		.byte	0x4
 2358 002e 07       		.byte	0x7
 2359 002f 29020000 		.4byte	.LASF0
 2360 0033 03       		.uleb128 0x3
 2361 0034 08       		.byte	0x8
 2362 0035 05       		.byte	0x5
 2363 0036 BA000000 		.4byte	.LASF1
 2364 003a 03       		.uleb128 0x3
 2365 003b 08       		.byte	0x8
 2366 003c 04       		.byte	0x4
 2367 003d 6E060000 		.4byte	.LASF2
 2368 0041 03       		.uleb128 0x3
 2369 0042 01       		.byte	0x1
 2370 0043 06       		.byte	0x6
 2371 0044 C8000000 		.4byte	.LASF3
 2372 0048 04       		.uleb128 0x4
 2373 0049 53000000 		.4byte	.LASF6
 2374 004d 02       		.byte	0x2
 2375 004e 1D       		.byte	0x1d
 2376 004f 53000000 		.4byte	0x53
 2377 0053 03       		.uleb128 0x3
 2378 0054 01       		.byte	0x1
 2379 0055 08       		.byte	0x8
 2380 0056 9C040000 		.4byte	.LASF4
 2381 005a 03       		.uleb128 0x3
 2382 005b 02       		.byte	0x2
 2383 005c 05       		.byte	0x5
 2384 005d D1040000 		.4byte	.LASF5
 2385 0061 04       		.uleb128 0x4
 2386 0062 AD060000 		.4byte	.LASF7
ARM GAS  C:\Users\eduar\AppData\Local\Temp\cctEoJXe.s 			page 71


 2387 0066 02       		.byte	0x2
 2388 0067 2B       		.byte	0x2b
 2389 0068 6C000000 		.4byte	0x6c
 2390 006c 03       		.uleb128 0x3
 2391 006d 02       		.byte	0x2
 2392 006e 07       		.byte	0x7
 2393 006f E8060000 		.4byte	.LASF8
 2394 0073 03       		.uleb128 0x3
 2395 0074 04       		.byte	0x4
 2396 0075 05       		.byte	0x5
 2397 0076 2C010000 		.4byte	.LASF9
 2398 007a 04       		.uleb128 0x4
 2399 007b BA010000 		.4byte	.LASF10
 2400 007f 02       		.byte	0x2
 2401 0080 41       		.byte	0x41
 2402 0081 85000000 		.4byte	0x85
 2403 0085 03       		.uleb128 0x3
 2404 0086 04       		.byte	0x4
 2405 0087 07       		.byte	0x7
 2406 0088 4A020000 		.4byte	.LASF11
 2407 008c 03       		.uleb128 0x3
 2408 008d 08       		.byte	0x8
 2409 008e 07       		.byte	0x7
 2410 008f 93000000 		.4byte	.LASF12
 2411 0093 03       		.uleb128 0x3
 2412 0094 04       		.byte	0x4
 2413 0095 07       		.byte	0x7
 2414 0096 5A030000 		.4byte	.LASF13
 2415 009a 05       		.uleb128 0x5
 2416 009b 04       		.byte	0x4
 2417 009c 03       		.uleb128 0x3
 2418 009d 01       		.byte	0x1
 2419 009e 08       		.byte	0x8
 2420 009f 7A060000 		.4byte	.LASF14
 2421 00a3 04       		.uleb128 0x4
 2422 00a4 D4060000 		.4byte	.LASF15
 2423 00a8 03       		.byte	0x3
 2424 00a9 18       		.byte	0x18
 2425 00aa 48000000 		.4byte	0x48
 2426 00ae 04       		.uleb128 0x4
 2427 00af 61010000 		.4byte	.LASF16
 2428 00b3 03       		.byte	0x3
 2429 00b4 24       		.byte	0x24
 2430 00b5 61000000 		.4byte	0x61
 2431 00b9 04       		.uleb128 0x4
 2432 00ba 78050000 		.4byte	.LASF17
 2433 00be 03       		.byte	0x3
 2434 00bf 30       		.byte	0x30
 2435 00c0 7A000000 		.4byte	0x7a
 2436 00c4 03       		.uleb128 0x3
 2437 00c5 04       		.byte	0x4
 2438 00c6 04       		.byte	0x4
 2439 00c7 4F040000 		.4byte	.LASF18
 2440 00cb 03       		.uleb128 0x3
 2441 00cc 08       		.byte	0x8
 2442 00cd 04       		.byte	0x4
 2443 00ce 6A010000 		.4byte	.LASF19
ARM GAS  C:\Users\eduar\AppData\Local\Temp\cctEoJXe.s 			page 72


 2444 00d2 06       		.uleb128 0x6
 2445 00d3 DE070000 		.4byte	.LASF129
 2446 00d7 04       		.byte	0x4
 2447 00d8 2C000000 		.4byte	0x2c
 2448 00dc 04       		.byte	0x4
 2449 00dd 7E01     		.2byte	0x17e
 2450 00df 4D010000 		.4byte	0x14d
 2451 00e3 07       		.uleb128 0x7
 2452 00e4 65080000 		.4byte	.LASF20
 2453 00e8 00       		.byte	0
 2454 00e9 08       		.uleb128 0x8
 2455 00ea 0A020000 		.4byte	.LASF21
 2456 00ee 00005200 		.4byte	0x520000
 2457 00f2 08       		.uleb128 0x8
 2458 00f3 63030000 		.4byte	.LASF22
 2459 00f7 01005200 		.4byte	0x520001
 2460 00fb 08       		.uleb128 0x8
 2461 00fc 13000000 		.4byte	.LASF23
 2462 0100 02005200 		.4byte	0x520002
 2463 0104 08       		.uleb128 0x8
 2464 0105 E7030000 		.4byte	.LASF24
 2465 0109 03005200 		.4byte	0x520003
 2466 010d 08       		.uleb128 0x8
 2467 010e 58060000 		.4byte	.LASF25
 2468 0112 05005200 		.4byte	0x520005
 2469 0116 08       		.uleb128 0x8
 2470 0117 A0050000 		.4byte	.LASF26
 2471 011b 06005200 		.4byte	0x520006
 2472 011f 08       		.uleb128 0x8
 2473 0120 86030000 		.4byte	.LASF27
 2474 0124 22005200 		.4byte	0x520022
 2475 0128 08       		.uleb128 0x8
 2476 0129 3A040000 		.4byte	.LASF28
 2477 012d FF005200 		.4byte	0x5200ff
 2478 0131 08       		.uleb128 0x8
 2479 0132 AA040000 		.4byte	.LASF29
 2480 0136 00005000 		.4byte	0x500000
 2481 013a 08       		.uleb128 0x8
 2482 013b 5D040000 		.4byte	.LASF30
 2483 013f 01005000 		.4byte	0x500001
 2484 0143 08       		.uleb128 0x8
 2485 0144 4C080000 		.4byte	.LASF31
 2486 0148 02005000 		.4byte	0x500002
 2487 014c 00       		.byte	0
 2488 014d 09       		.uleb128 0x9
 2489 014e 7F060000 		.4byte	.LASF32
 2490 0152 04       		.byte	0x4
 2491 0153 8C01     		.2byte	0x18c
 2492 0155 D2000000 		.4byte	0xd2
 2493 0159 0A       		.uleb128 0xa
 2494 015a 10       		.byte	0x10
 2495 015b 05       		.byte	0x5
 2496 015c 9801     		.2byte	0x198
 2497 015e A4010000 		.4byte	0x1a4
 2498 0162 0B       		.uleb128 0xb
 2499 0163 AF000000 		.4byte	.LASF33
 2500 0167 05       		.byte	0x5
ARM GAS  C:\Users\eduar\AppData\Local\Temp\cctEoJXe.s 			page 73


 2501 0168 9B01     		.2byte	0x19b
 2502 016a B9000000 		.4byte	0xb9
 2503 016e 00       		.byte	0
 2504 016f 0B       		.uleb128 0xb
 2505 0170 4C070000 		.4byte	.LASF34
 2506 0174 05       		.byte	0x5
 2507 0175 A001     		.2byte	0x1a0
 2508 0177 B9000000 		.4byte	0xb9
 2509 017b 04       		.byte	0x4
 2510 017c 0B       		.uleb128 0xb
 2511 017d FC010000 		.4byte	.LASF35
 2512 0181 05       		.byte	0x5
 2513 0182 A301     		.2byte	0x1a3
 2514 0184 A3000000 		.4byte	0xa3
 2515 0188 08       		.byte	0x8
 2516 0189 0B       		.uleb128 0xb
 2517 018a F4070000 		.4byte	.LASF36
 2518 018e 05       		.byte	0x5
 2519 018f A801     		.2byte	0x1a8
 2520 0191 A3000000 		.4byte	0xa3
 2521 0195 09       		.byte	0x9
 2522 0196 0B       		.uleb128 0xb
 2523 0197 47010000 		.4byte	.LASF37
 2524 019b 05       		.byte	0x5
 2525 019c AD01     		.2byte	0x1ad
 2526 019e B9000000 		.4byte	0xb9
 2527 01a2 0C       		.byte	0xc
 2528 01a3 00       		.byte	0
 2529 01a4 09       		.uleb128 0x9
 2530 01a5 2E070000 		.4byte	.LASF38
 2531 01a9 05       		.byte	0x5
 2532 01aa AE01     		.2byte	0x1ae
 2533 01ac 59010000 		.4byte	0x159
 2534 01b0 0A       		.uleb128 0xa
 2535 01b1 1C       		.byte	0x1c
 2536 01b2 05       		.byte	0x5
 2537 01b3 B501     		.2byte	0x1b5
 2538 01b5 22020000 		.4byte	0x222
 2539 01b9 0B       		.uleb128 0xb
 2540 01ba 92040000 		.4byte	.LASF39
 2541 01be 05       		.byte	0x5
 2542 01bf BA01     		.2byte	0x1ba
 2543 01c1 B9000000 		.4byte	0xb9
 2544 01c5 00       		.byte	0
 2545 01c6 0B       		.uleb128 0xb
 2546 01c7 4D030000 		.4byte	.LASF40
 2547 01cb 05       		.byte	0x5
 2548 01cc BF01     		.2byte	0x1bf
 2549 01ce B9000000 		.4byte	0xb9
 2550 01d2 04       		.byte	0x4
 2551 01d3 0B       		.uleb128 0xb
 2552 01d4 FB060000 		.4byte	.LASF41
 2553 01d8 05       		.byte	0x5
 2554 01d9 C201     		.2byte	0x1c2
 2555 01db B9000000 		.4byte	0xb9
 2556 01df 08       		.byte	0x8
 2557 01e0 0B       		.uleb128 0xb
ARM GAS  C:\Users\eduar\AppData\Local\Temp\cctEoJXe.s 			page 74


 2558 01e1 AF000000 		.4byte	.LASF33
 2559 01e5 05       		.byte	0x5
 2560 01e6 C501     		.2byte	0x1c5
 2561 01e8 B9000000 		.4byte	0xb9
 2562 01ec 0C       		.byte	0xc
 2563 01ed 0B       		.uleb128 0xb
 2564 01ee 4C070000 		.4byte	.LASF34
 2565 01f2 05       		.byte	0x5
 2566 01f3 CA01     		.2byte	0x1ca
 2567 01f5 B9000000 		.4byte	0xb9
 2568 01f9 10       		.byte	0x10
 2569 01fa 0B       		.uleb128 0xb
 2570 01fb FC010000 		.4byte	.LASF35
 2571 01ff 05       		.byte	0x5
 2572 0200 CD01     		.2byte	0x1cd
 2573 0202 A3000000 		.4byte	0xa3
 2574 0206 14       		.byte	0x14
 2575 0207 0B       		.uleb128 0xb
 2576 0208 F4070000 		.4byte	.LASF36
 2577 020c 05       		.byte	0x5
 2578 020d D201     		.2byte	0x1d2
 2579 020f A3000000 		.4byte	0xa3
 2580 0213 15       		.byte	0x15
 2581 0214 0B       		.uleb128 0xb
 2582 0215 47010000 		.4byte	.LASF37
 2583 0219 05       		.byte	0x5
 2584 021a D501     		.2byte	0x1d5
 2585 021c B9000000 		.4byte	0xb9
 2586 0220 18       		.byte	0x18
 2587 0221 00       		.byte	0
 2588 0222 09       		.uleb128 0x9
 2589 0223 CF030000 		.4byte	.LASF42
 2590 0227 05       		.byte	0x5
 2591 0228 D601     		.2byte	0x1d6
 2592 022a B0010000 		.4byte	0x1b0
 2593 022e 0C       		.uleb128 0xc
 2594 022f 04       		.byte	0x4
 2595 0230 2C000000 		.4byte	0x2c
 2596 0234 05       		.byte	0x5
 2597 0235 EA01     		.2byte	0x1ea
 2598 0237 66020000 		.4byte	0x266
 2599 023b 07       		.uleb128 0x7
 2600 023c 5F070000 		.4byte	.LASF43
 2601 0240 00       		.byte	0
 2602 0241 08       		.uleb128 0x8
 2603 0242 1C030000 		.4byte	.LASF44
 2604 0246 01006E00 		.4byte	0x6e0001
 2605 024a 08       		.uleb128 0x8
 2606 024b 33030000 		.4byte	.LASF45
 2607 024f 02006E00 		.4byte	0x6e0002
 2608 0253 08       		.uleb128 0x8
 2609 0254 7C040000 		.4byte	.LASF46
 2610 0258 03006E00 		.4byte	0x6e0003
 2611 025c 08       		.uleb128 0x8
 2612 025d FD000000 		.4byte	.LASF47
 2613 0261 04006E00 		.4byte	0x6e0004
 2614 0265 00       		.byte	0
ARM GAS  C:\Users\eduar\AppData\Local\Temp\cctEoJXe.s 			page 75


 2615 0266 09       		.uleb128 0x9
 2616 0267 33000000 		.4byte	.LASF48
 2617 026b 05       		.byte	0x5
 2618 026c F001     		.2byte	0x1f0
 2619 026e 2E020000 		.4byte	0x22e
 2620 0272 0D       		.uleb128 0xd
 2621 0273 DD000000 		.4byte	.LASF55
 2622 0277 01       		.byte	0x1
 2623 0278 E002     		.2byte	0x2e0
 2624 027a 00000000 		.4byte	.LFB50
 2625 027e 30000000 		.4byte	.LFE50-.LFB50
 2626 0282 01       		.uleb128 0x1
 2627 0283 9C       		.byte	0x9c
 2628 0284 E3020000 		.4byte	0x2e3
 2629 0288 0E       		.uleb128 0xe
 2630 0289 5C020000 		.4byte	.LASF49
 2631 028d 01       		.byte	0x1
 2632 028e E002     		.2byte	0x2e0
 2633 0290 E3020000 		.4byte	0x2e3
 2634 0294 01       		.uleb128 0x1
 2635 0295 50       		.byte	0x50
 2636 0296 0E       		.uleb128 0xe
 2637 0297 83020000 		.4byte	.LASF50
 2638 029b 01       		.byte	0x1
 2639 029c E002     		.2byte	0x2e0
 2640 029e E9020000 		.4byte	0x2e9
 2641 02a2 01       		.uleb128 0x1
 2642 02a3 51       		.byte	0x51
 2643 02a4 0F       		.uleb128 0xf
 2644 02a5 C8030000 		.4byte	.LASF51
 2645 02a9 01       		.byte	0x1
 2646 02aa E202     		.2byte	0x2e2
 2647 02ac B9000000 		.4byte	0xb9
 2648 02b0 00000000 		.4byte	.LLST0
 2649 02b4 0F       		.uleb128 0xf
 2650 02b5 3F020000 		.4byte	.LASF52
 2651 02b9 01       		.byte	0x1
 2652 02ba E302     		.2byte	0x2e3
 2653 02bc B9000000 		.4byte	0xb9
 2654 02c0 1F000000 		.4byte	.LLST1
 2655 02c4 0F       		.uleb128 0xf
 2656 02c5 D4010000 		.4byte	.LASF53
 2657 02c9 01       		.byte	0x1
 2658 02ca E402     		.2byte	0x2e4
 2659 02cc B9000000 		.4byte	0xb9
 2660 02d0 54000000 		.4byte	.LLST2
 2661 02d4 10       		.uleb128 0x10
 2662 02d5 09070000 		.4byte	.LASF54
 2663 02d9 01       		.byte	0x1
 2664 02da E502     		.2byte	0x2e5
 2665 02dc B9000000 		.4byte	0xb9
 2666 02e0 01       		.uleb128 0x1
 2667 02e1 52       		.byte	0x52
 2668 02e2 00       		.byte	0
 2669 02e3 11       		.uleb128 0x11
 2670 02e4 04       		.byte	0x4
 2671 02e5 B9000000 		.4byte	0xb9
ARM GAS  C:\Users\eduar\AppData\Local\Temp\cctEoJXe.s 			page 76


 2672 02e9 11       		.uleb128 0x11
 2673 02ea 04       		.byte	0x4
 2674 02eb 22020000 		.4byte	0x222
 2675 02ef 12       		.uleb128 0x12
 2676 02f0 CB070000 		.4byte	.LASF59
 2677 02f4 01       		.byte	0x1
 2678 02f5 0C03     		.2byte	0x30c
 2679 02f7 B9000000 		.4byte	0xb9
 2680 02fb 00000000 		.4byte	.LFB51
 2681 02ff 20000000 		.4byte	.LFE51-.LFB51
 2682 0303 01       		.uleb128 0x1
 2683 0304 9C       		.byte	0x9c
 2684 0305 36030000 		.4byte	0x336
 2685 0309 13       		.uleb128 0x13
 2686 030a C8030000 		.4byte	.LASF51
 2687 030e 01       		.byte	0x1
 2688 030f 0C03     		.2byte	0x30c
 2689 0311 B9000000 		.4byte	0xb9
 2690 0315 73000000 		.4byte	.LLST3
 2691 0319 0E       		.uleb128 0xe
 2692 031a 83020000 		.4byte	.LASF50
 2693 031e 01       		.byte	0x1
 2694 031f 0C03     		.2byte	0x30c
 2695 0321 E9020000 		.4byte	0x2e9
 2696 0325 01       		.uleb128 0x1
 2697 0326 51       		.byte	0x51
 2698 0327 10       		.uleb128 0x10
 2699 0328 09070000 		.4byte	.LASF54
 2700 032c 01       		.byte	0x1
 2701 032d 0E03     		.2byte	0x30e
 2702 032f B9000000 		.4byte	0xb9
 2703 0333 01       		.uleb128 0x1
 2704 0334 53       		.byte	0x53
 2705 0335 00       		.byte	0
 2706 0336 0D       		.uleb128 0xd
 2707 0337 C2060000 		.4byte	.LASF56
 2708 033b 01       		.byte	0x1
 2709 033c 3903     		.2byte	0x339
 2710 033e 00000000 		.4byte	.LFB52
 2711 0342 5C000000 		.4byte	.LFE52-.LFB52
 2712 0346 01       		.uleb128 0x1
 2713 0347 9C       		.byte	0x9c
 2714 0348 8B030000 		.4byte	0x38b
 2715 034c 13       		.uleb128 0x13
 2716 034d C8030000 		.4byte	.LASF51
 2717 0351 01       		.byte	0x1
 2718 0352 3903     		.2byte	0x339
 2719 0354 B9000000 		.4byte	0xb9
 2720 0358 94000000 		.4byte	.LLST4
 2721 035c 13       		.uleb128 0x13
 2722 035d 00000000 		.4byte	.LASF57
 2723 0361 01       		.byte	0x1
 2724 0362 3A03     		.2byte	0x33a
 2725 0364 E3020000 		.4byte	0x2e3
 2726 0368 CE000000 		.4byte	.LLST5
 2727 036c 0E       		.uleb128 0xe
 2728 036d CC020000 		.4byte	.LASF58
ARM GAS  C:\Users\eduar\AppData\Local\Temp\cctEoJXe.s 			page 77


 2729 0371 01       		.byte	0x1
 2730 0372 3B03     		.2byte	0x33b
 2731 0374 E3020000 		.4byte	0x2e3
 2732 0378 01       		.uleb128 0x1
 2733 0379 52       		.byte	0x52
 2734 037a 13       		.uleb128 0x13
 2735 037b 83020000 		.4byte	.LASF50
 2736 037f 01       		.byte	0x1
 2737 0380 3C03     		.2byte	0x33c
 2738 0382 E9020000 		.4byte	0x2e9
 2739 0386 08010000 		.4byte	.LLST6
 2740 038a 00       		.byte	0
 2741 038b 12       		.uleb128 0x12
 2742 038c 14080000 		.4byte	.LASF60
 2743 0390 01       		.byte	0x1
 2744 0391 8503     		.2byte	0x385
 2745 0393 A3000000 		.4byte	0xa3
 2746 0397 00000000 		.4byte	.LFB53
 2747 039b 3A000000 		.4byte	.LFE53-.LFB53
 2748 039f 01       		.uleb128 0x1
 2749 03a0 9C       		.byte	0x9c
 2750 03a1 F2030000 		.4byte	0x3f2
 2751 03a5 13       		.uleb128 0x13
 2752 03a6 21080000 		.4byte	.LASF61
 2753 03aa 01       		.byte	0x1
 2754 03ab 8503     		.2byte	0x385
 2755 03ad F2030000 		.4byte	0x3f2
 2756 03b1 42010000 		.4byte	.LLST7
 2757 03b5 14       		.uleb128 0x14
 2758 03b6 6C656E00 		.ascii	"len\000"
 2759 03ba 01       		.byte	0x1
 2760 03bb 8503     		.2byte	0x385
 2761 03bd B9000000 		.4byte	0xb9
 2762 03c1 01       		.uleb128 0x1
 2763 03c2 51       		.byte	0x51
 2764 03c3 15       		.uleb128 0x15
 2765 03c4 63726300 		.ascii	"crc\000"
 2766 03c8 01       		.byte	0x1
 2767 03c9 8703     		.2byte	0x387
 2768 03cb A3000000 		.4byte	0xa3
 2769 03cf 6E010000 		.4byte	.LLST8
 2770 03d3 15       		.uleb128 0x15
 2771 03d4 6900     		.ascii	"i\000"
 2772 03d6 01       		.byte	0x1
 2773 03d7 8803     		.2byte	0x388
 2774 03d9 A3000000 		.4byte	0xa3
 2775 03dd BA010000 		.4byte	.LLST9
 2776 03e1 15       		.uleb128 0x15
 2777 03e2 636E7400 		.ascii	"cnt\000"
 2778 03e6 01       		.byte	0x1
 2779 03e7 8903     		.2byte	0x389
 2780 03e9 AE000000 		.4byte	0xae
 2781 03ed E4010000 		.4byte	.LLST10
 2782 03f1 00       		.byte	0
 2783 03f2 11       		.uleb128 0x11
 2784 03f3 04       		.byte	0x4
 2785 03f4 A3000000 		.4byte	0xa3
ARM GAS  C:\Users\eduar\AppData\Local\Temp\cctEoJXe.s 			page 78


 2786 03f8 12       		.uleb128 0x12
 2787 03f9 21040000 		.4byte	.LASF62
 2788 03fd 01       		.byte	0x1
 2789 03fe A603     		.2byte	0x3a6
 2790 0400 66020000 		.4byte	0x266
 2791 0404 00000000 		.4byte	.LFB54
 2792 0408 5C000000 		.4byte	.LFE54-.LFB54
 2793 040c 01       		.uleb128 0x1
 2794 040d 9C       		.byte	0x9c
 2795 040e 51040000 		.4byte	0x451
 2796 0412 13       		.uleb128 0x13
 2797 0413 97060000 		.4byte	.LASF63
 2798 0417 01       		.byte	0x1
 2799 0418 A603     		.2byte	0x3a6
 2800 041a 51040000 		.4byte	0x451
 2801 041e 0E020000 		.4byte	.LLST11
 2802 0422 15       		.uleb128 0x15
 2803 0423 72657400 		.ascii	"ret\000"
 2804 0427 01       		.byte	0x1
 2805 0428 A803     		.2byte	0x3a8
 2806 042a 66020000 		.4byte	0x266
 2807 042e 7A020000 		.4byte	.LLST12
 2808 0432 0F       		.uleb128 0xf
 2809 0433 B8060000 		.4byte	.LASF64
 2810 0437 01       		.byte	0x1
 2811 0438 A903     		.2byte	0x3a9
 2812 043a B9000000 		.4byte	0xb9
 2813 043e 9D020000 		.4byte	.LLST13
 2814 0442 10       		.uleb128 0x10
 2815 0443 55040000 		.4byte	.LASF65
 2816 0447 01       		.byte	0x1
 2817 0448 AA03     		.2byte	0x3aa
 2818 044a B9000000 		.4byte	0xb9
 2819 044e 01       		.uleb128 0x1
 2820 044f 53       		.byte	0x53
 2821 0450 00       		.byte	0
 2822 0451 11       		.uleb128 0x11
 2823 0452 04       		.byte	0x4
 2824 0453 A4010000 		.4byte	0x1a4
 2825 0457 12       		.uleb128 0x12
 2826 0458 90020000 		.4byte	.LASF66
 2827 045c 01       		.byte	0x1
 2828 045d BE04     		.2byte	0x4be
 2829 045f B9000000 		.4byte	0xb9
 2830 0463 00000000 		.4byte	.LFB58
 2831 0467 AC000000 		.4byte	.LFE58-.LFB58
 2832 046b 01       		.uleb128 0x1
 2833 046c 9C       		.byte	0x9c
 2834 046d DE040000 		.4byte	0x4de
 2835 0471 13       		.uleb128 0x13
 2836 0472 B8060000 		.4byte	.LASF64
 2837 0476 01       		.byte	0x1
 2838 0477 BE04     		.2byte	0x4be
 2839 0479 E3020000 		.4byte	0x2e3
 2840 047d BF020000 		.4byte	.LLST14
 2841 0481 0E       		.uleb128 0xe
 2842 0482 55040000 		.4byte	.LASF65
ARM GAS  C:\Users\eduar\AppData\Local\Temp\cctEoJXe.s 			page 79


 2843 0486 01       		.byte	0x1
 2844 0487 BF04     		.2byte	0x4bf
 2845 0489 E3020000 		.4byte	0x2e3
 2846 048d 01       		.uleb128 0x1
 2847 048e 51       		.byte	0x51
 2848 048f 13       		.uleb128 0x13
 2849 0490 E1060000 		.4byte	.LASF67
 2850 0494 01       		.byte	0x1
 2851 0495 C004     		.2byte	0x4c0
 2852 0497 E3020000 		.4byte	0x2e3
 2853 049b 12030000 		.4byte	.LLST15
 2854 049f 13       		.uleb128 0x13
 2855 04a0 4C000000 		.4byte	.LASF68
 2856 04a4 01       		.byte	0x1
 2857 04a5 C104     		.2byte	0x4c1
 2858 04a7 B9000000 		.4byte	0xb9
 2859 04ab 4C030000 		.4byte	.LLST16
 2860 04af 0E       		.uleb128 0xe
 2861 04b0 AA000000 		.4byte	.LASF69
 2862 04b4 01       		.byte	0x1
 2863 04b5 C204     		.2byte	0x4c2
 2864 04b7 B9000000 		.4byte	0xb9
 2865 04bb 02       		.uleb128 0x2
 2866 04bc 91       		.byte	0x91
 2867 04bd 00       		.sleb128 0
 2868 04be 14       		.uleb128 0x14
 2869 04bf 6C656E00 		.ascii	"len\000"
 2870 04c3 01       		.byte	0x1
 2871 04c4 C304     		.2byte	0x4c3
 2872 04c6 B9000000 		.4byte	0xb9
 2873 04ca 02       		.uleb128 0x2
 2874 04cb 91       		.byte	0x91
 2875 04cc 04       		.sleb128 4
 2876 04cd 0F       		.uleb128 0xf
 2877 04ce DC060000 		.4byte	.LASF70
 2878 04d2 01       		.byte	0x1
 2879 04d3 C504     		.2byte	0x4c5
 2880 04d5 B9000000 		.4byte	0xb9
 2881 04d9 B9030000 		.4byte	.LLST17
 2882 04dd 00       		.byte	0
 2883 04de 12       		.uleb128 0x12
 2884 04df D4000000 		.4byte	.LASF71
 2885 04e3 01       		.byte	0x1
 2886 04e4 C903     		.2byte	0x3c9
 2887 04e6 66020000 		.4byte	0x266
 2888 04ea 00000000 		.4byte	.LFB55
 2889 04ee 58000000 		.4byte	.LFE55-.LFB55
 2890 04f2 01       		.uleb128 0x1
 2891 04f3 9C       		.byte	0x9c
 2892 04f4 A3050000 		.4byte	0x5a3
 2893 04f8 13       		.uleb128 0x13
 2894 04f9 C9040000 		.4byte	.LASF72
 2895 04fd 01       		.byte	0x1
 2896 04fe C903     		.2byte	0x3c9
 2897 0500 B9000000 		.4byte	0xb9
 2898 0504 D8030000 		.4byte	.LLST18
 2899 0508 13       		.uleb128 0x13
ARM GAS  C:\Users\eduar\AppData\Local\Temp\cctEoJXe.s 			page 80


 2900 0509 21080000 		.4byte	.LASF61
 2901 050d 01       		.byte	0x1
 2902 050e CA03     		.2byte	0x3ca
 2903 0510 E3020000 		.4byte	0x2e3
 2904 0514 12040000 		.4byte	.LLST19
 2905 0518 13       		.uleb128 0x13
 2906 0519 83020000 		.4byte	.LASF50
 2907 051d 01       		.byte	0x1
 2908 051e CB03     		.2byte	0x3cb
 2909 0520 E9020000 		.4byte	0x2e9
 2910 0524 4C040000 		.4byte	.LLST20
 2911 0528 15       		.uleb128 0x15
 2912 0529 72657400 		.ascii	"ret\000"
 2913 052d 01       		.byte	0x1
 2914 052e CD03     		.2byte	0x3cd
 2915 0530 66020000 		.4byte	0x266
 2916 0534 86040000 		.4byte	.LLST21
 2917 0538 16       		.uleb128 0x16
 2918 0539 00000000 		.4byte	.Ldebug_ranges0+0
 2919 053d 7D050000 		.4byte	0x57d
 2920 0541 0F       		.uleb128 0xf
 2921 0542 7E030000 		.4byte	.LASF73
 2922 0546 01       		.byte	0x1
 2923 0547 DB03     		.2byte	0x3db
 2924 0549 B9000000 		.4byte	0xb9
 2925 054d A9040000 		.4byte	.LLST22
 2926 0551 15       		.uleb128 0x15
 2927 0552 726300   		.ascii	"rc\000"
 2928 0555 01       		.byte	0x1
 2929 0556 DC03     		.2byte	0x3dc
 2930 0558 4D010000 		.4byte	0x14d
 2931 055c C7040000 		.4byte	.LLST23
 2932 0560 17       		.uleb128 0x17
 2933 0561 26000000 		.4byte	.LVL74
 2934 0565 2D100000 		.4byte	0x102d
 2935 0569 73050000 		.4byte	0x573
 2936 056d 18       		.uleb128 0x18
 2937 056e 01       		.uleb128 0x1
 2938 056f 50       		.byte	0x50
 2939 0570 01       		.uleb128 0x1
 2940 0571 31       		.byte	0x31
 2941 0572 00       		.byte	0
 2942 0573 19       		.uleb128 0x19
 2943 0574 2A000000 		.4byte	.LVL75
 2944 0578 39100000 		.4byte	0x1039
 2945 057c 00       		.byte	0
 2946 057d 17       		.uleb128 0x17
 2947 057e 0C000000 		.4byte	.LVL70
 2948 0582 45100000 		.4byte	0x1045
 2949 0586 99050000 		.4byte	0x599
 2950 058a 18       		.uleb128 0x18
 2951 058b 01       		.uleb128 0x1
 2952 058c 50       		.byte	0x50
 2953 058d 03       		.uleb128 0x3
 2954 058e F3       		.byte	0xf3
 2955 058f 01       		.uleb128 0x1
 2956 0590 50       		.byte	0x50
ARM GAS  C:\Users\eduar\AppData\Local\Temp\cctEoJXe.s 			page 81


 2957 0591 18       		.uleb128 0x18
 2958 0592 01       		.uleb128 0x1
 2959 0593 51       		.byte	0x51
 2960 0594 03       		.uleb128 0x3
 2961 0595 F3       		.byte	0xf3
 2962 0596 01       		.uleb128 0x1
 2963 0597 51       		.byte	0x51
 2964 0598 00       		.byte	0
 2965 0599 19       		.uleb128 0x19
 2966 059a 18000000 		.4byte	.LVL72
 2967 059e 51100000 		.4byte	0x1051
 2968 05a2 00       		.byte	0
 2969 05a3 12       		.uleb128 0x12
 2970 05a4 02040000 		.4byte	.LASF74
 2971 05a8 01       		.byte	0x1
 2972 05a9 0505     		.2byte	0x505
 2973 05ab 66020000 		.4byte	0x266
 2974 05af 00000000 		.4byte	.LFB59
 2975 05b3 84000000 		.4byte	.LFE59-.LFB59
 2976 05b7 01       		.uleb128 0x1
 2977 05b8 9C       		.byte	0x9c
 2978 05b9 D8060000 		.4byte	0x6d8
 2979 05bd 13       		.uleb128 0x13
 2980 05be 83020000 		.4byte	.LASF50
 2981 05c2 01       		.byte	0x1
 2982 05c3 0505     		.2byte	0x505
 2983 05c5 E9020000 		.4byte	0x2e9
 2984 05c9 E5040000 		.4byte	.LLST24
 2985 05cd 15       		.uleb128 0x15
 2986 05ce 6900     		.ascii	"i\000"
 2987 05d0 01       		.byte	0x1
 2988 05d1 0705     		.2byte	0x507
 2989 05d3 B9000000 		.4byte	0xb9
 2990 05d7 11050000 		.4byte	.LLST25
 2991 05db 10       		.uleb128 0x10
 2992 05dc 7B070000 		.4byte	.LASF75
 2993 05e0 01       		.byte	0x1
 2994 05e1 0805     		.2byte	0x508
 2995 05e3 B9000000 		.4byte	0xb9
 2996 05e7 02       		.uleb128 0x2
 2997 05e8 91       		.byte	0x91
 2998 05e9 64       		.sleb128 -28
 2999 05ea 10       		.uleb128 0x10
 3000 05eb 5F050000 		.4byte	.LASF76
 3001 05ef 01       		.byte	0x1
 3002 05f0 0905     		.2byte	0x509
 3003 05f2 D8060000 		.4byte	0x6d8
 3004 05f6 03       		.uleb128 0x3
 3005 05f7 91       		.byte	0x91
 3006 05f8 E47B     		.sleb128 -540
 3007 05fa 10       		.uleb128 0x10
 3008 05fb 2D040000 		.4byte	.LASF77
 3009 05ff 01       		.byte	0x1
 3010 0600 0A05     		.2byte	0x50a
 3011 0602 B9000000 		.4byte	0xb9
 3012 0606 03       		.uleb128 0x3
 3013 0607 91       		.byte	0x91
ARM GAS  C:\Users\eduar\AppData\Local\Temp\cctEoJXe.s 			page 82


 3014 0608 E07B     		.sleb128 -544
 3015 060a 0F       		.uleb128 0xf
 3016 060b 16070000 		.4byte	.LASF78
 3017 060f 01       		.byte	0x1
 3018 0610 0B05     		.2byte	0x50b
 3019 0612 B9000000 		.4byte	0xb9
 3020 0616 30050000 		.4byte	.LLST26
 3021 061a 0F       		.uleb128 0xf
 3022 061b C8030000 		.4byte	.LASF51
 3023 061f 01       		.byte	0x1
 3024 0620 0D05     		.2byte	0x50d
 3025 0622 B9000000 		.4byte	0xb9
 3026 0626 43050000 		.4byte	.LLST27
 3027 062a 15       		.uleb128 0x15
 3028 062b 72657400 		.ascii	"ret\000"
 3029 062f 01       		.byte	0x1
 3030 0630 0E05     		.2byte	0x50e
 3031 0632 66020000 		.4byte	0x266
 3032 0636 56050000 		.4byte	.LLST28
 3033 063a 17       		.uleb128 0x17
 3034 063b 22000000 		.4byte	.LVL85
 3035 063f 5D100000 		.4byte	0x105d
 3036 0643 5C060000 		.4byte	0x65c
 3037 0647 18       		.uleb128 0x18
 3038 0648 01       		.uleb128 0x1
 3039 0649 50       		.byte	0x50
 3040 064a 03       		.uleb128 0x3
 3041 064b 91       		.byte	0x91
 3042 064c E47B     		.sleb128 -540
 3043 064e 18       		.uleb128 0x18
 3044 064f 01       		.uleb128 0x1
 3045 0650 51       		.byte	0x51
 3046 0651 02       		.uleb128 0x2
 3047 0652 76       		.byte	0x76
 3048 0653 00       		.sleb128 0
 3049 0654 18       		.uleb128 0x18
 3050 0655 01       		.uleb128 0x1
 3051 0656 52       		.byte	0x52
 3052 0657 03       		.uleb128 0x3
 3053 0658 0A       		.byte	0xa
 3054 0659 0002     		.2byte	0x200
 3055 065b 00       		.byte	0
 3056 065c 17       		.uleb128 0x17
 3057 065d 30000000 		.4byte	.LVL87
 3058 0661 8B030000 		.4byte	0x38b
 3059 0665 78060000 		.4byte	0x678
 3060 0669 18       		.uleb128 0x18
 3061 066a 01       		.uleb128 0x1
 3062 066b 50       		.byte	0x50
 3063 066c 03       		.uleb128 0x3
 3064 066d 91       		.byte	0x91
 3065 066e E47D     		.sleb128 -284
 3066 0670 18       		.uleb128 0x18
 3067 0671 01       		.uleb128 0x1
 3068 0672 51       		.byte	0x51
 3069 0673 03       		.uleb128 0x3
 3070 0674 0A       		.byte	0xa
ARM GAS  C:\Users\eduar\AppData\Local\Temp\cctEoJXe.s 			page 83


 3071 0675 0001     		.2byte	0x100
 3072 0677 00       		.byte	0
 3073 0678 17       		.uleb128 0x17
 3074 0679 42000000 		.4byte	.LVL88
 3075 067d DE040000 		.4byte	0x4de
 3076 0681 99060000 		.4byte	0x699
 3077 0685 18       		.uleb128 0x18
 3078 0686 01       		.uleb128 0x1
 3079 0687 50       		.byte	0x50
 3080 0688 02       		.uleb128 0x2
 3081 0689 76       		.byte	0x76
 3082 068a 00       		.sleb128 0
 3083 068b 18       		.uleb128 0x18
 3084 068c 01       		.uleb128 0x1
 3085 068d 51       		.byte	0x51
 3086 068e 03       		.uleb128 0x3
 3087 068f 91       		.byte	0x91
 3088 0690 E47B     		.sleb128 -540
 3089 0692 18       		.uleb128 0x18
 3090 0693 01       		.uleb128 0x1
 3091 0694 52       		.byte	0x52
 3092 0695 02       		.uleb128 0x2
 3093 0696 74       		.byte	0x74
 3094 0697 00       		.sleb128 0
 3095 0698 00       		.byte	0
 3096 0699 17       		.uleb128 0x17
 3097 069a 56000000 		.4byte	.LVL90
 3098 069e DE040000 		.4byte	0x4de
 3099 06a2 B4060000 		.4byte	0x6b4
 3100 06a6 18       		.uleb128 0x18
 3101 06a7 01       		.uleb128 0x1
 3102 06a8 51       		.byte	0x51
 3103 06a9 03       		.uleb128 0x3
 3104 06aa 91       		.byte	0x91
 3105 06ab E47B     		.sleb128 -540
 3106 06ad 18       		.uleb128 0x18
 3107 06ae 01       		.uleb128 0x1
 3108 06af 52       		.byte	0x52
 3109 06b0 02       		.uleb128 0x2
 3110 06b1 74       		.byte	0x74
 3111 06b2 00       		.sleb128 0
 3112 06b3 00       		.byte	0
 3113 06b4 1A       		.uleb128 0x1a
 3114 06b5 64000000 		.4byte	.LVL93
 3115 06b9 36030000 		.4byte	0x336
 3116 06bd 18       		.uleb128 0x18
 3117 06be 01       		.uleb128 0x1
 3118 06bf 50       		.byte	0x50
 3119 06c0 02       		.uleb128 0x2
 3120 06c1 75       		.byte	0x75
 3121 06c2 00       		.sleb128 0
 3122 06c3 18       		.uleb128 0x18
 3123 06c4 01       		.uleb128 0x1
 3124 06c5 51       		.byte	0x51
 3125 06c6 03       		.uleb128 0x3
 3126 06c7 91       		.byte	0x91
 3127 06c8 E07B     		.sleb128 -544
ARM GAS  C:\Users\eduar\AppData\Local\Temp\cctEoJXe.s 			page 84


 3128 06ca 18       		.uleb128 0x18
 3129 06cb 01       		.uleb128 0x1
 3130 06cc 52       		.byte	0x52
 3131 06cd 02       		.uleb128 0x2
 3132 06ce 91       		.byte	0x91
 3133 06cf 64       		.sleb128 -28
 3134 06d0 18       		.uleb128 0x18
 3135 06d1 01       		.uleb128 0x1
 3136 06d2 53       		.byte	0x53
 3137 06d3 02       		.uleb128 0x2
 3138 06d4 74       		.byte	0x74
 3139 06d5 00       		.sleb128 0
 3140 06d6 00       		.byte	0
 3141 06d7 00       		.byte	0
 3142 06d8 1B       		.uleb128 0x1b
 3143 06d9 B9000000 		.4byte	0xb9
 3144 06dd E8060000 		.4byte	0x6e8
 3145 06e1 1C       		.uleb128 0x1c
 3146 06e2 93000000 		.4byte	0x93
 3147 06e6 7F       		.byte	0x7f
 3148 06e7 00       		.byte	0
 3149 06e8 12       		.uleb128 0x12
 3150 06e9 69020000 		.4byte	.LASF79
 3151 06ed 01       		.byte	0x1
 3152 06ee 6A04     		.2byte	0x46a
 3153 06f0 66020000 		.4byte	0x266
 3154 06f4 00000000 		.4byte	.LFB57
 3155 06f8 98000000 		.4byte	.LFE57-.LFB57
 3156 06fc 01       		.uleb128 0x1
 3157 06fd 9C       		.byte	0x9c
 3158 06fe 51080000 		.4byte	0x851
 3159 0702 13       		.uleb128 0x13
 3160 0703 B8060000 		.4byte	.LASF64
 3161 0707 01       		.byte	0x1
 3162 0708 6A04     		.2byte	0x46a
 3163 070a B9000000 		.4byte	0xb9
 3164 070e 9A050000 		.4byte	.LLST29
 3165 0712 13       		.uleb128 0x13
 3166 0713 5D000000 		.4byte	.LASF80
 3167 0717 01       		.byte	0x1
 3168 0718 6B04     		.2byte	0x46b
 3169 071a B9000000 		.4byte	0xb9
 3170 071e C6050000 		.4byte	.LLST30
 3171 0722 13       		.uleb128 0x13
 3172 0723 6E050000 		.4byte	.LASF81
 3173 0727 01       		.byte	0x1
 3174 0728 6C04     		.2byte	0x46c
 3175 072a B9000000 		.4byte	0xb9
 3176 072e E6050000 		.4byte	.LLST31
 3177 0732 13       		.uleb128 0x13
 3178 0733 36020000 		.4byte	.LASF82
 3179 0737 01       		.byte	0x1
 3180 0738 6D04     		.2byte	0x46d
 3181 073a B9000000 		.4byte	0xb9
 3182 073e 06060000 		.4byte	.LLST32
 3183 0742 0E       		.uleb128 0xe
 3184 0743 83020000 		.4byte	.LASF50
ARM GAS  C:\Users\eduar\AppData\Local\Temp\cctEoJXe.s 			page 85


 3185 0747 01       		.byte	0x1
 3186 0748 6E04     		.2byte	0x46e
 3187 074a E9020000 		.4byte	0x2e9
 3188 074e 02       		.uleb128 0x2
 3189 074f 91       		.byte	0x91
 3190 0750 00       		.sleb128 0
 3191 0751 15       		.uleb128 0x15
 3192 0752 72657400 		.ascii	"ret\000"
 3193 0756 01       		.byte	0x1
 3194 0757 7004     		.2byte	0x470
 3195 0759 66020000 		.4byte	0x266
 3196 075d 26060000 		.4byte	.LLST33
 3197 0761 10       		.uleb128 0x10
 3198 0762 5F050000 		.4byte	.LASF76
 3199 0766 01       		.byte	0x1
 3200 0767 7104     		.2byte	0x471
 3201 0769 D8060000 		.4byte	0x6d8
 3202 076d 03       		.uleb128 0x3
 3203 076e 91       		.byte	0x91
 3204 076f E87B     		.sleb128 -536
 3205 0771 0F       		.uleb128 0xf
 3206 0772 81050000 		.4byte	.LASF83
 3207 0776 01       		.byte	0x1
 3208 0777 7404     		.2byte	0x474
 3209 0779 B9000000 		.4byte	0xb9
 3210 077d 66060000 		.4byte	.LLST34
 3211 0781 17       		.uleb128 0x17
 3212 0782 2C000000 		.4byte	.LVL104
 3213 0786 8B030000 		.4byte	0x38b
 3214 078a 9D070000 		.4byte	0x79d
 3215 078e 18       		.uleb128 0x18
 3216 078f 01       		.uleb128 0x1
 3217 0790 50       		.byte	0x50
 3218 0791 03       		.uleb128 0x3
 3219 0792 76       		.byte	0x76
 3220 0793 8002     		.sleb128 256
 3221 0795 18       		.uleb128 0x18
 3222 0796 01       		.uleb128 0x1
 3223 0797 51       		.byte	0x51
 3224 0798 03       		.uleb128 0x3
 3225 0799 0A       		.byte	0xa
 3226 079a 0001     		.2byte	0x100
 3227 079c 00       		.byte	0
 3228 079d 17       		.uleb128 0x17
 3229 079e 3C000000 		.4byte	.LVL105
 3230 07a2 5D100000 		.4byte	0x105d
 3231 07a6 C6070000 		.4byte	0x7c6
 3232 07aa 18       		.uleb128 0x18
 3233 07ab 01       		.uleb128 0x1
 3234 07ac 50       		.byte	0x50
 3235 07ad 04       		.uleb128 0x4
 3236 07ae 91       		.byte	0x91
 3237 07af DC7B     		.sleb128 -548
 3238 07b1 06       		.byte	0x6
 3239 07b2 18       		.uleb128 0x18
 3240 07b3 01       		.uleb128 0x1
 3241 07b4 51       		.byte	0x51
ARM GAS  C:\Users\eduar\AppData\Local\Temp\cctEoJXe.s 			page 86


 3242 07b5 07       		.uleb128 0x7
 3243 07b6 76       		.byte	0x76
 3244 07b7 00       		.sleb128 0
 3245 07b8 91       		.byte	0x91
 3246 07b9 E07B     		.sleb128 -544
 3247 07bb 06       		.byte	0x6
 3248 07bc 22       		.byte	0x22
 3249 07bd 18       		.uleb128 0x18
 3250 07be 01       		.uleb128 0x1
 3251 07bf 52       		.byte	0x52
 3252 07c0 04       		.uleb128 0x4
 3253 07c1 91       		.byte	0x91
 3254 07c2 E47B     		.sleb128 -540
 3255 07c4 06       		.byte	0x6
 3256 07c5 00       		.byte	0
 3257 07c6 17       		.uleb128 0x17
 3258 07c7 52000000 		.4byte	.LVL108
 3259 07cb 8B030000 		.4byte	0x38b
 3260 07cf E2070000 		.4byte	0x7e2
 3261 07d3 18       		.uleb128 0x18
 3262 07d4 01       		.uleb128 0x1
 3263 07d5 50       		.byte	0x50
 3264 07d6 03       		.uleb128 0x3
 3265 07d7 74       		.byte	0x74
 3266 07d8 8002     		.sleb128 256
 3267 07da 18       		.uleb128 0x18
 3268 07db 01       		.uleb128 0x1
 3269 07dc 51       		.byte	0x51
 3270 07dd 03       		.uleb128 0x3
 3271 07de 0A       		.byte	0xa
 3272 07df 0001     		.2byte	0x100
 3273 07e1 00       		.byte	0
 3274 07e2 17       		.uleb128 0x17
 3275 07e3 62000000 		.4byte	.LVL109
 3276 07e7 5D100000 		.4byte	0x105d
 3277 07eb 04080000 		.4byte	0x804
 3278 07ef 18       		.uleb128 0x18
 3279 07f0 01       		.uleb128 0x1
 3280 07f1 50       		.byte	0x50
 3281 07f2 03       		.uleb128 0x3
 3282 07f3 91       		.byte	0x91
 3283 07f4 E87B     		.sleb128 -536
 3284 07f6 18       		.uleb128 0x18
 3285 07f7 01       		.uleb128 0x1
 3286 07f8 51       		.byte	0x51
 3287 07f9 02       		.uleb128 0x2
 3288 07fa 74       		.byte	0x74
 3289 07fb 00       		.sleb128 0
 3290 07fc 18       		.uleb128 0x18
 3291 07fd 01       		.uleb128 0x1
 3292 07fe 52       		.byte	0x52
 3293 07ff 03       		.uleb128 0x3
 3294 0800 0A       		.byte	0xa
 3295 0801 0002     		.2byte	0x200
 3296 0803 00       		.byte	0
 3297 0804 17       		.uleb128 0x17
 3298 0805 6C000000 		.4byte	.LVL110
ARM GAS  C:\Users\eduar\AppData\Local\Temp\cctEoJXe.s 			page 87


 3299 0809 DE040000 		.4byte	0x4de
 3300 080d 25080000 		.4byte	0x825
 3301 0811 18       		.uleb128 0x18
 3302 0812 01       		.uleb128 0x1
 3303 0813 50       		.byte	0x50
 3304 0814 02       		.uleb128 0x2
 3305 0815 76       		.byte	0x76
 3306 0816 00       		.sleb128 0
 3307 0817 18       		.uleb128 0x18
 3308 0818 01       		.uleb128 0x1
 3309 0819 51       		.byte	0x51
 3310 081a 03       		.uleb128 0x3
 3311 081b 91       		.byte	0x91
 3312 081c E87B     		.sleb128 -536
 3313 081e 18       		.uleb128 0x18
 3314 081f 01       		.uleb128 0x1
 3315 0820 52       		.byte	0x52
 3316 0821 02       		.uleb128 0x2
 3317 0822 77       		.byte	0x77
 3318 0823 00       		.sleb128 0
 3319 0824 00       		.byte	0
 3320 0825 1A       		.uleb128 0x1a
 3321 0826 82000000 		.4byte	.LVL113
 3322 082a 5D100000 		.4byte	0x105d
 3323 082e 18       		.uleb128 0x18
 3324 082f 01       		.uleb128 0x1
 3325 0830 50       		.byte	0x50
 3326 0831 04       		.uleb128 0x4
 3327 0832 91       		.byte	0x91
 3328 0833 DC7B     		.sleb128 -548
 3329 0835 06       		.byte	0x6
 3330 0836 18       		.uleb128 0x18
 3331 0837 01       		.uleb128 0x1
 3332 0838 51       		.byte	0x51
 3333 0839 0D       		.uleb128 0xd
 3334 083a 91       		.byte	0x91
 3335 083b E07B     		.sleb128 -544
 3336 083d 06       		.byte	0x6
 3337 083e 32       		.byte	0x32
 3338 083f 24       		.byte	0x24
 3339 0840 91       		.byte	0x91
 3340 0841 00       		.sleb128 0
 3341 0842 22       		.byte	0x22
 3342 0843 0A       		.byte	0xa
 3343 0844 1802     		.2byte	0x218
 3344 0846 1C       		.byte	0x1c
 3345 0847 18       		.uleb128 0x18
 3346 0848 01       		.uleb128 0x1
 3347 0849 52       		.byte	0x52
 3348 084a 04       		.uleb128 0x4
 3349 084b 91       		.byte	0x91
 3350 084c E47B     		.sleb128 -540
 3351 084e 06       		.byte	0x6
 3352 084f 00       		.byte	0
 3353 0850 00       		.byte	0
 3354 0851 12       		.uleb128 0x12
 3355 0852 13030000 		.4byte	.LASF84
ARM GAS  C:\Users\eduar\AppData\Local\Temp\cctEoJXe.s 			page 88


 3356 0856 01       		.byte	0x1
 3357 0857 0704     		.2byte	0x407
 3358 0859 66020000 		.4byte	0x266
 3359 085d 00000000 		.4byte	.LFB56
 3360 0861 8C000000 		.4byte	.LFE56-.LFB56
 3361 0865 01       		.uleb128 0x1
 3362 0866 9C       		.byte	0x9c
 3363 0867 33090000 		.4byte	0x933
 3364 086b 13       		.uleb128 0x13
 3365 086c C9040000 		.4byte	.LASF72
 3366 0870 01       		.byte	0x1
 3367 0871 0704     		.2byte	0x407
 3368 0873 B9000000 		.4byte	0xb9
 3369 0877 8F060000 		.4byte	.LLST35
 3370 087b 13       		.uleb128 0x13
 3371 087c F0010000 		.4byte	.LASF85
 3372 0880 01       		.byte	0x1
 3373 0881 0804     		.2byte	0x408
 3374 0883 B9000000 		.4byte	0xb9
 3375 0887 B0060000 		.4byte	.LLST36
 3376 088b 13       		.uleb128 0x13
 3377 088c 83020000 		.4byte	.LASF50
 3378 0890 01       		.byte	0x1
 3379 0891 0904     		.2byte	0x409
 3380 0893 E9020000 		.4byte	0x2e9
 3381 0897 D1060000 		.4byte	.LLST37
 3382 089b 0F       		.uleb128 0xf
 3383 089c 35080000 		.4byte	.LASF86
 3384 08a0 01       		.byte	0x1
 3385 08a1 0B04     		.2byte	0x40b
 3386 08a3 B9000000 		.4byte	0xb9
 3387 08a7 FD060000 		.4byte	.LLST38
 3388 08ab 15       		.uleb128 0x15
 3389 08ac 72657400 		.ascii	"ret\000"
 3390 08b0 01       		.byte	0x1
 3391 08b1 0C04     		.2byte	0x40c
 3392 08b3 66020000 		.4byte	0x266
 3393 08b7 26070000 		.4byte	.LLST39
 3394 08bb 15       		.uleb128 0x15
 3395 08bc 6900     		.ascii	"i\000"
 3396 08be 01       		.byte	0x1
 3397 08bf 0D04     		.2byte	0x40d
 3398 08c1 B9000000 		.4byte	0xb9
 3399 08c5 5F070000 		.4byte	.LLST40
 3400 08c9 16       		.uleb128 0x16
 3401 08ca 18000000 		.4byte	.Ldebug_ranges0+0x18
 3402 08ce 0E090000 		.4byte	0x90e
 3403 08d2 0F       		.uleb128 0xf
 3404 08d3 7E030000 		.4byte	.LASF73
 3405 08d7 01       		.byte	0x1
 3406 08d8 2504     		.2byte	0x425
 3407 08da B9000000 		.4byte	0xb9
 3408 08de 7E070000 		.4byte	.LLST41
 3409 08e2 15       		.uleb128 0x15
 3410 08e3 726300   		.ascii	"rc\000"
 3411 08e6 01       		.byte	0x1
 3412 08e7 2604     		.2byte	0x426
ARM GAS  C:\Users\eduar\AppData\Local\Temp\cctEoJXe.s 			page 89


 3413 08e9 4D010000 		.4byte	0x14d
 3414 08ed 9C070000 		.4byte	.LLST42
 3415 08f1 17       		.uleb128 0x17
 3416 08f2 40000000 		.4byte	.LVL124
 3417 08f6 2D100000 		.4byte	0x102d
 3418 08fa 04090000 		.4byte	0x904
 3419 08fe 18       		.uleb128 0x18
 3420 08ff 01       		.uleb128 0x1
 3421 0900 50       		.byte	0x50
 3422 0901 01       		.uleb128 0x1
 3423 0902 31       		.byte	0x31
 3424 0903 00       		.byte	0
 3425 0904 19       		.uleb128 0x19
 3426 0905 44000000 		.4byte	.LVL125
 3427 0909 39100000 		.4byte	0x1039
 3428 090d 00       		.byte	0
 3429 090e 17       		.uleb128 0x17
 3430 090f 26000000 		.4byte	.LVL121
 3431 0913 66100000 		.4byte	0x1066
 3432 0917 22090000 		.4byte	0x922
 3433 091b 18       		.uleb128 0x18
 3434 091c 01       		.uleb128 0x1
 3435 091d 50       		.byte	0x50
 3436 091e 02       		.uleb128 0x2
 3437 091f 75       		.byte	0x75
 3438 0920 00       		.sleb128 0
 3439 0921 00       		.byte	0
 3440 0922 1A       		.uleb128 0x1a
 3441 0923 32000000 		.4byte	.LVL122
 3442 0927 72100000 		.4byte	0x1072
 3443 092b 18       		.uleb128 0x18
 3444 092c 01       		.uleb128 0x1
 3445 092d 50       		.byte	0x50
 3446 092e 02       		.uleb128 0x2
 3447 092f 75       		.byte	0x75
 3448 0930 00       		.sleb128 0
 3449 0931 00       		.byte	0
 3450 0932 00       		.byte	0
 3451 0933 1D       		.uleb128 0x1d
 3452 0934 05050000 		.4byte	.LASF87
 3453 0938 01       		.byte	0x1
 3454 0939 5A       		.byte	0x5a
 3455 093a 66020000 		.4byte	0x266
 3456 093e 00000000 		.4byte	.LFB45
 3457 0942 9C000000 		.4byte	.LFE45-.LFB45
 3458 0946 01       		.uleb128 0x1
 3459 0947 9C       		.byte	0x9c
 3460 0948 D2090000 		.4byte	0x9d2
 3461 094c 1E       		.uleb128 0x1e
 3462 094d 97060000 		.4byte	.LASF63
 3463 0951 01       		.byte	0x1
 3464 0952 5A       		.byte	0x5a
 3465 0953 51040000 		.4byte	0x451
 3466 0957 BA070000 		.4byte	.LLST43
 3467 095b 1E       		.uleb128 0x1e
 3468 095c 83020000 		.4byte	.LASF50
 3469 0960 01       		.byte	0x1
ARM GAS  C:\Users\eduar\AppData\Local\Temp\cctEoJXe.s 			page 90


 3470 0961 5A       		.byte	0x5a
 3471 0962 E9020000 		.4byte	0x2e9
 3472 0966 FF070000 		.4byte	.LLST44
 3473 096a 1F       		.uleb128 0x1f
 3474 096b 72657400 		.ascii	"ret\000"
 3475 096f 01       		.byte	0x1
 3476 0970 5C       		.byte	0x5c
 3477 0971 66020000 		.4byte	0x266
 3478 0975 41080000 		.4byte	.LLST45
 3479 0979 17       		.uleb128 0x17
 3480 097a 22000000 		.4byte	.LVL140
 3481 097e F8030000 		.4byte	0x3f8
 3482 0982 8D090000 		.4byte	0x98d
 3483 0986 18       		.uleb128 0x18
 3484 0987 01       		.uleb128 0x1
 3485 0988 50       		.byte	0x50
 3486 0989 02       		.uleb128 0x2
 3487 098a 74       		.byte	0x74
 3488 098b 00       		.sleb128 0
 3489 098c 00       		.byte	0
 3490 098d 17       		.uleb128 0x17
 3491 098e 60000000 		.4byte	.LVL144
 3492 0992 72020000 		.4byte	0x272
 3493 0996 A7090000 		.4byte	0x9a7
 3494 099a 18       		.uleb128 0x18
 3495 099b 01       		.uleb128 0x1
 3496 099c 50       		.byte	0x50
 3497 099d 02       		.uleb128 0x2
 3498 099e 74       		.byte	0x74
 3499 099f 00       		.sleb128 0
 3500 09a0 18       		.uleb128 0x18
 3501 09a1 01       		.uleb128 0x1
 3502 09a2 51       		.byte	0x51
 3503 09a3 02       		.uleb128 0x2
 3504 09a4 75       		.byte	0x75
 3505 09a5 00       		.sleb128 0
 3506 09a6 00       		.byte	0
 3507 09a7 17       		.uleb128 0x17
 3508 09a8 74000000 		.4byte	.LVL145
 3509 09ac A3050000 		.4byte	0x5a3
 3510 09b0 BB090000 		.4byte	0x9bb
 3511 09b4 18       		.uleb128 0x18
 3512 09b5 01       		.uleb128 0x1
 3513 09b6 50       		.byte	0x50
 3514 09b7 02       		.uleb128 0x2
 3515 09b8 75       		.byte	0x75
 3516 09b9 00       		.sleb128 0
 3517 09ba 00       		.byte	0
 3518 09bb 1A       		.uleb128 0x1a
 3519 09bc 7E000000 		.4byte	.LVL148
 3520 09c0 72020000 		.4byte	0x272
 3521 09c4 18       		.uleb128 0x18
 3522 09c5 01       		.uleb128 0x1
 3523 09c6 50       		.byte	0x50
 3524 09c7 02       		.uleb128 0x2
 3525 09c8 74       		.byte	0x74
 3526 09c9 00       		.sleb128 0
ARM GAS  C:\Users\eduar\AppData\Local\Temp\cctEoJXe.s 			page 91


 3527 09ca 18       		.uleb128 0x18
 3528 09cb 01       		.uleb128 0x1
 3529 09cc 51       		.byte	0x51
 3530 09cd 02       		.uleb128 0x2
 3531 09ce 75       		.byte	0x75
 3532 09cf 00       		.sleb128 0
 3533 09d0 00       		.byte	0
 3534 09d1 00       		.byte	0
 3535 09d2 20       		.uleb128 0x20
 3536 09d3 71010000 		.4byte	.LASF88
 3537 09d7 01       		.byte	0x1
 3538 09d8 A4       		.byte	0xa4
 3539 09d9 66020000 		.4byte	0x266
 3540 09dd 00000000 		.4byte	.LFB46
 3541 09e1 40020000 		.4byte	.LFE46-.LFB46
 3542 09e5 01       		.uleb128 0x1
 3543 09e6 9C       		.byte	0x9c
 3544 09e7 F20B0000 		.4byte	0xbf2
 3545 09eb 1E       		.uleb128 0x1e
 3546 09ec AA000000 		.4byte	.LASF69
 3547 09f0 01       		.byte	0x1
 3548 09f1 A4       		.byte	0xa4
 3549 09f2 B9000000 		.4byte	0xb9
 3550 09f6 AB080000 		.4byte	.LLST46
 3551 09fa 1E       		.uleb128 0x1e
 3552 09fb E9020000 		.4byte	.LASF89
 3553 09ff 01       		.byte	0x1
 3554 0a00 A5       		.byte	0xa5
 3555 0a01 9A000000 		.4byte	0x9a
 3556 0a05 25090000 		.4byte	.LLST47
 3557 0a09 1E       		.uleb128 0x1e
 3558 0a0a 8B020000 		.4byte	.LASF90
 3559 0a0e 01       		.byte	0x1
 3560 0a0f A6       		.byte	0xa6
 3561 0a10 B9000000 		.4byte	0xb9
 3562 0a14 66090000 		.4byte	.LLST48
 3563 0a18 1E       		.uleb128 0x1e
 3564 0a19 83020000 		.4byte	.LASF50
 3565 0a1d 01       		.byte	0x1
 3566 0a1e A7       		.byte	0xa7
 3567 0a1f E9020000 		.4byte	0x2e9
 3568 0a23 B6090000 		.4byte	.LLST49
 3569 0a27 1F       		.uleb128 0x1f
 3570 0a28 72657400 		.ascii	"ret\000"
 3571 0a2c 01       		.byte	0x1
 3572 0a2d A9       		.byte	0xa9
 3573 0a2e 66020000 		.4byte	0x266
 3574 0a32 030A0000 		.4byte	.LLST50
 3575 0a36 1F       		.uleb128 0x1f
 3576 0a37 6900     		.ascii	"i\000"
 3577 0a39 01       		.byte	0x1
 3578 0a3a AA       		.byte	0xaa
 3579 0a3b B9000000 		.4byte	0xb9
 3580 0a3f 8A0A0000 		.4byte	.LLST51
 3581 0a43 21       		.uleb128 0x21
 3582 0a44 9E060000 		.4byte	.LASF91
 3583 0a48 01       		.byte	0x1
ARM GAS  C:\Users\eduar\AppData\Local\Temp\cctEoJXe.s 			page 92


 3584 0a49 AB       		.byte	0xab
 3585 0a4a B9000000 		.4byte	0xb9
 3586 0a4e EE0A0000 		.4byte	.LLST52
 3587 0a52 21       		.uleb128 0x21
 3588 0a53 01030000 		.4byte	.LASF92
 3589 0a57 01       		.byte	0x1
 3590 0a58 AC       		.byte	0xac
 3591 0a59 B9000000 		.4byte	0xb9
 3592 0a5d 2D0B0000 		.4byte	.LLST53
 3593 0a61 21       		.uleb128 0x21
 3594 0a62 21070000 		.4byte	.LASF93
 3595 0a66 01       		.byte	0x1
 3596 0a67 AD       		.byte	0xad
 3597 0a68 B9000000 		.4byte	0xb9
 3598 0a6c 5A0B0000 		.4byte	.LLST54
 3599 0a70 21       		.uleb128 0x21
 3600 0a71 F4020000 		.4byte	.LASF94
 3601 0a75 01       		.byte	0x1
 3602 0a76 AE       		.byte	0xae
 3603 0a77 B9000000 		.4byte	0xb9
 3604 0a7b 9E0B0000 		.4byte	.LLST55
 3605 0a7f 21       		.uleb128 0x21
 3606 0a80 83010000 		.4byte	.LASF95
 3607 0a84 01       		.byte	0x1
 3608 0a85 AF       		.byte	0xaf
 3609 0a86 B9000000 		.4byte	0xb9
 3610 0a8a 0C0C0000 		.4byte	.LLST56
 3611 0a8e 21       		.uleb128 0x21
 3612 0a8f 02080000 		.4byte	.LASF96
 3613 0a93 01       		.byte	0x1
 3614 0a94 B0       		.byte	0xb0
 3615 0a95 B9000000 		.4byte	0xb9
 3616 0a99 2B0C0000 		.4byte	.LLST57
 3617 0a9d 21       		.uleb128 0x21
 3618 0a9e EF040000 		.4byte	.LASF97
 3619 0aa2 01       		.byte	0x1
 3620 0aa3 B1       		.byte	0xb1
 3621 0aa4 B9000000 		.4byte	0xb9
 3622 0aa8 560C0000 		.4byte	.LLST58
 3623 0aac 21       		.uleb128 0x21
 3624 0aad 45080000 		.4byte	.LASF98
 3625 0ab1 01       		.byte	0x1
 3626 0ab2 B2       		.byte	0xb2
 3627 0ab3 B9000000 		.4byte	0xb9
 3628 0ab7 810C0000 		.4byte	.LLST59
 3629 0abb 22       		.uleb128 0x22
 3630 0abc 30000000 		.4byte	.Ldebug_ranges0+0x30
 3631 0ac0 21       		.uleb128 0x21
 3632 0ac1 7B070000 		.4byte	.LASF75
 3633 0ac5 01       		.byte	0x1
 3634 0ac6 B7       		.byte	0xb7
 3635 0ac7 B9000000 		.4byte	0xb9
 3636 0acb CB0C0000 		.4byte	.LLST60
 3637 0acf 21       		.uleb128 0x21
 3638 0ad0 45070000 		.4byte	.LASF99
 3639 0ad4 01       		.byte	0x1
 3640 0ad5 B8       		.byte	0xb8
ARM GAS  C:\Users\eduar\AppData\Local\Temp\cctEoJXe.s 			page 93


 3641 0ad6 B9000000 		.4byte	0xb9
 3642 0ada 360D0000 		.4byte	.LLST61
 3643 0ade 21       		.uleb128 0x21
 3644 0adf C8030000 		.4byte	.LASF51
 3645 0ae3 01       		.byte	0x1
 3646 0ae4 BA       		.byte	0xba
 3647 0ae5 B9000000 		.4byte	0xb9
 3648 0ae9 5F0D0000 		.4byte	.LLST62
 3649 0aed 21       		.uleb128 0x21
 3650 0aee C5010000 		.4byte	.LASF100
 3651 0af2 01       		.byte	0x1
 3652 0af3 BB       		.byte	0xbb
 3653 0af4 B9000000 		.4byte	0xb9
 3654 0af8 8A0D0000 		.4byte	.LLST63
 3655 0afc 21       		.uleb128 0x21
 3656 0afd 29080000 		.4byte	.LASF101
 3657 0b01 01       		.byte	0x1
 3658 0b02 C0       		.byte	0xc0
 3659 0b03 B9000000 		.4byte	0xb9
 3660 0b07 AA0D0000 		.4byte	.LLST64
 3661 0b0b 16       		.uleb128 0x16
 3662 0b0c 50000000 		.4byte	.Ldebug_ranges0+0x50
 3663 0b10 240B0000 		.4byte	0xb24
 3664 0b14 21       		.uleb128 0x21
 3665 0b15 DC010000 		.4byte	.LASF102
 3666 0b19 01       		.byte	0x1
 3667 0b1a DD       		.byte	0xdd
 3668 0b1b B9000000 		.4byte	0xb9
 3669 0b1f D30D0000 		.4byte	.LLST65
 3670 0b23 00       		.byte	0
 3671 0b24 16       		.uleb128 0x16
 3672 0b25 68000000 		.4byte	.Ldebug_ranges0+0x68
 3673 0b29 9F0B0000 		.4byte	0xb9f
 3674 0b2d 0F       		.uleb128 0xf
 3675 0b2e B8060000 		.4byte	.LASF64
 3676 0b32 01       		.byte	0x1
 3677 0b33 3601     		.2byte	0x136
 3678 0b35 B9000000 		.4byte	0xb9
 3679 0b39 320E0000 		.4byte	.LLST66
 3680 0b3d 0F       		.uleb128 0xf
 3681 0b3e 55040000 		.4byte	.LASF65
 3682 0b42 01       		.byte	0x1
 3683 0b43 3701     		.2byte	0x137
 3684 0b45 B9000000 		.4byte	0xb9
 3685 0b49 5D0E0000 		.4byte	.LLST67
 3686 0b4d 22       		.uleb128 0x22
 3687 0b4e 80000000 		.4byte	.Ldebug_ranges0+0x80
 3688 0b52 0F       		.uleb128 0xf
 3689 0b53 79020000 		.4byte	.LASF103
 3690 0b57 01       		.byte	0x1
 3691 0b58 3C01     		.2byte	0x13c
 3692 0b5a B9000000 		.4byte	0xb9
 3693 0b5e 940E0000 		.4byte	.LLST68
 3694 0b62 0F       		.uleb128 0xf
 3695 0b63 C1070000 		.4byte	.LASF104
 3696 0b67 01       		.byte	0x1
 3697 0b68 3D01     		.2byte	0x13d
ARM GAS  C:\Users\eduar\AppData\Local\Temp\cctEoJXe.s 			page 94


 3698 0b6a B9000000 		.4byte	0xb9
 3699 0b6e B20E0000 		.4byte	.LLST69
 3700 0b72 17       		.uleb128 0x17
 3701 0b73 00020000 		.4byte	.LVL233
 3702 0b77 E8060000 		.4byte	0x6e8
 3703 0b7b 8D0B0000 		.4byte	0xb8d
 3704 0b7f 18       		.uleb128 0x18
 3705 0b80 01       		.uleb128 0x1
 3706 0b81 51       		.byte	0x51
 3707 0b82 02       		.uleb128 0x2
 3708 0b83 7B       		.byte	0x7b
 3709 0b84 00       		.sleb128 0
 3710 0b85 18       		.uleb128 0x18
 3711 0b86 02       		.uleb128 0x2
 3712 0b87 7D       		.byte	0x7d
 3713 0b88 00       		.sleb128 0
 3714 0b89 02       		.uleb128 0x2
 3715 0b8a 76       		.byte	0x76
 3716 0b8b 00       		.sleb128 0
 3717 0b8c 00       		.byte	0
 3718 0b8d 1A       		.uleb128 0x1a
 3719 0b8e 12020000 		.4byte	.LVL237
 3720 0b92 5D100000 		.4byte	0x105d
 3721 0b96 18       		.uleb128 0x18
 3722 0b97 01       		.uleb128 0x1
 3723 0b98 50       		.byte	0x50
 3724 0b99 02       		.uleb128 0x2
 3725 0b9a 7B       		.byte	0x7b
 3726 0b9b 00       		.sleb128 0
 3727 0b9c 00       		.byte	0
 3728 0b9d 00       		.byte	0
 3729 0b9e 00       		.byte	0
 3730 0b9f 17       		.uleb128 0x17
 3731 0ba0 34010000 		.4byte	.LVL199
 3732 0ba4 E8060000 		.4byte	0x6e8
 3733 0ba8 C00B0000 		.4byte	0xbc0
 3734 0bac 18       		.uleb128 0x18
 3735 0bad 01       		.uleb128 0x1
 3736 0bae 51       		.byte	0x51
 3737 0baf 02       		.uleb128 0x2
 3738 0bb0 79       		.byte	0x79
 3739 0bb1 00       		.sleb128 0
 3740 0bb2 18       		.uleb128 0x18
 3741 0bb3 01       		.uleb128 0x1
 3742 0bb4 53       		.byte	0x53
 3743 0bb5 02       		.uleb128 0x2
 3744 0bb6 74       		.byte	0x74
 3745 0bb7 00       		.sleb128 0
 3746 0bb8 18       		.uleb128 0x18
 3747 0bb9 02       		.uleb128 0x2
 3748 0bba 7D       		.byte	0x7d
 3749 0bbb 00       		.sleb128 0
 3750 0bbc 02       		.uleb128 0x2
 3751 0bbd 7A       		.byte	0x7a
 3752 0bbe 00       		.sleb128 0
 3753 0bbf 00       		.byte	0
 3754 0bc0 17       		.uleb128 0x17
ARM GAS  C:\Users\eduar\AppData\Local\Temp\cctEoJXe.s 			page 95


 3755 0bc1 4C010000 		.4byte	.LVL206
 3756 0bc5 5D100000 		.4byte	0x105d
 3757 0bc9 DA0B0000 		.4byte	0xbda
 3758 0bcd 18       		.uleb128 0x18
 3759 0bce 01       		.uleb128 0x1
 3760 0bcf 50       		.byte	0x50
 3761 0bd0 02       		.uleb128 0x2
 3762 0bd1 79       		.byte	0x79
 3763 0bd2 00       		.sleb128 0
 3764 0bd3 18       		.uleb128 0x18
 3765 0bd4 01       		.uleb128 0x1
 3766 0bd5 52       		.byte	0x52
 3767 0bd6 02       		.uleb128 0x2
 3768 0bd7 74       		.byte	0x74
 3769 0bd8 00       		.sleb128 0
 3770 0bd9 00       		.byte	0
 3771 0bda 1A       		.uleb128 0x1a
 3772 0bdb 94010000 		.4byte	.LVL220
 3773 0bdf EF020000 		.4byte	0x2ef
 3774 0be3 18       		.uleb128 0x18
 3775 0be4 01       		.uleb128 0x1
 3776 0be5 50       		.byte	0x50
 3777 0be6 02       		.uleb128 0x2
 3778 0be7 74       		.byte	0x74
 3779 0be8 00       		.sleb128 0
 3780 0be9 18       		.uleb128 0x18
 3781 0bea 01       		.uleb128 0x1
 3782 0beb 51       		.byte	0x51
 3783 0bec 02       		.uleb128 0x2
 3784 0bed 76       		.byte	0x76
 3785 0bee 00       		.sleb128 0
 3786 0bef 00       		.byte	0
 3787 0bf0 00       		.byte	0
 3788 0bf1 00       		.byte	0
 3789 0bf2 23       		.uleb128 0x23
 3790 0bf3 B5030000 		.4byte	.LASF105
 3791 0bf7 01       		.byte	0x1
 3792 0bf8 9601     		.2byte	0x196
 3793 0bfa 66020000 		.4byte	0x266
 3794 0bfe 00000000 		.4byte	.LFB47
 3795 0c02 B0010000 		.4byte	.LFE47-.LFB47
 3796 0c06 01       		.uleb128 0x1
 3797 0c07 9C       		.byte	0x9c
 3798 0c08 8E0E0000 		.4byte	0xe8e
 3799 0c0c 13       		.uleb128 0x13
 3800 0c0d AA000000 		.4byte	.LASF69
 3801 0c11 01       		.byte	0x1
 3802 0c12 9601     		.2byte	0x196
 3803 0c14 B9000000 		.4byte	0xb9
 3804 0c18 C50E0000 		.4byte	.LLST70
 3805 0c1c 13       		.uleb128 0x13
 3806 0c1d E9020000 		.4byte	.LASF89
 3807 0c21 01       		.byte	0x1
 3808 0c22 9701     		.2byte	0x197
 3809 0c24 9A000000 		.4byte	0x9a
 3810 0c28 250F0000 		.4byte	.LLST71
 3811 0c2c 13       		.uleb128 0x13
ARM GAS  C:\Users\eduar\AppData\Local\Temp\cctEoJXe.s 			page 96


 3812 0c2d 8B020000 		.4byte	.LASF90
 3813 0c31 01       		.byte	0x1
 3814 0c32 9801     		.2byte	0x198
 3815 0c34 B9000000 		.4byte	0xb9
 3816 0c38 6C0F0000 		.4byte	.LLST72
 3817 0c3c 13       		.uleb128 0x13
 3818 0c3d 83020000 		.4byte	.LASF50
 3819 0c41 01       		.byte	0x1
 3820 0c42 9901     		.2byte	0x199
 3821 0c44 E9020000 		.4byte	0x2e9
 3822 0c48 A00F0000 		.4byte	.LLST73
 3823 0c4c 15       		.uleb128 0x15
 3824 0c4d 72657400 		.ascii	"ret\000"
 3825 0c51 01       		.byte	0x1
 3826 0c52 9B01     		.2byte	0x19b
 3827 0c54 66020000 		.4byte	0x266
 3828 0c58 CC0F0000 		.4byte	.LLST74
 3829 0c5c 15       		.uleb128 0x15
 3830 0c5d 6900     		.ascii	"i\000"
 3831 0c5f 01       		.byte	0x1
 3832 0c60 9C01     		.2byte	0x19c
 3833 0c62 B9000000 		.4byte	0xb9
 3834 0c66 20100000 		.4byte	.LLST75
 3835 0c6a 0F       		.uleb128 0xf
 3836 0c6b 34040000 		.4byte	.LASF106
 3837 0c6f 01       		.byte	0x1
 3838 0c70 9D01     		.2byte	0x19d
 3839 0c72 B9000000 		.4byte	0xb9
 3840 0c76 33100000 		.4byte	.LLST76
 3841 0c7a 0F       		.uleb128 0xf
 3842 0c7b BA020000 		.4byte	.LASF107
 3843 0c7f 01       		.byte	0x1
 3844 0c80 9E01     		.2byte	0x19e
 3845 0c82 B9000000 		.4byte	0xb9
 3846 0c86 52100000 		.4byte	.LLST77
 3847 0c8a 10       		.uleb128 0x10
 3848 0c8b 5F050000 		.4byte	.LASF76
 3849 0c8f 01       		.byte	0x1
 3850 0c90 9F01     		.2byte	0x19f
 3851 0c92 D8060000 		.4byte	0x6d8
 3852 0c96 03       		.uleb128 0x3
 3853 0c97 91       		.byte	0x91
 3854 0c98 D87B     		.sleb128 -552
 3855 0c9a 10       		.uleb128 0x10
 3856 0c9b B8060000 		.4byte	.LASF64
 3857 0c9f 01       		.byte	0x1
 3858 0ca0 A001     		.2byte	0x1a0
 3859 0ca2 B9000000 		.4byte	0xb9
 3860 0ca6 03       		.uleb128 0x3
 3861 0ca7 91       		.byte	0x91
 3862 0ca8 D47B     		.sleb128 -556
 3863 0caa 10       		.uleb128 0x10
 3864 0cab 55040000 		.4byte	.LASF65
 3865 0caf 01       		.byte	0x1
 3866 0cb0 A101     		.2byte	0x1a1
 3867 0cb2 B9000000 		.4byte	0xb9
 3868 0cb6 03       		.uleb128 0x3
ARM GAS  C:\Users\eduar\AppData\Local\Temp\cctEoJXe.s 			page 97


 3869 0cb7 91       		.byte	0x91
 3870 0cb8 D07B     		.sleb128 -560
 3871 0cba 0F       		.uleb128 0xf
 3872 0cbb 16070000 		.4byte	.LASF78
 3873 0cbf 01       		.byte	0x1
 3874 0cc0 A201     		.2byte	0x1a2
 3875 0cc2 B9000000 		.4byte	0xb9
 3876 0cc6 7B100000 		.4byte	.LLST78
 3877 0cca 10       		.uleb128 0x10
 3878 0ccb 35080000 		.4byte	.LASF86
 3879 0ccf 01       		.byte	0x1
 3880 0cd0 A301     		.2byte	0x1a3
 3881 0cd2 B9000000 		.4byte	0xb9
 3882 0cd6 03       		.uleb128 0x3
 3883 0cd7 91       		.byte	0x91
 3884 0cd8 CC7B     		.sleb128 -564
 3885 0cda 10       		.uleb128 0x10
 3886 0cdb D7020000 		.4byte	.LASF108
 3887 0cdf 01       		.byte	0x1
 3888 0ce0 A401     		.2byte	0x1a4
 3889 0ce2 B9000000 		.4byte	0xb9
 3890 0ce6 03       		.uleb128 0x3
 3891 0ce7 91       		.byte	0x91
 3892 0ce8 C87B     		.sleb128 -568
 3893 0cea 0F       		.uleb128 0xf
 3894 0ceb 0B000000 		.4byte	.LASF109
 3895 0cef 01       		.byte	0x1
 3896 0cf0 A501     		.2byte	0x1a5
 3897 0cf2 9A000000 		.4byte	0x9a
 3898 0cf6 C9100000 		.4byte	.LLST79
 3899 0cfa 0F       		.uleb128 0xf
 3900 0cfb 45080000 		.4byte	.LASF98
 3901 0cff 01       		.byte	0x1
 3902 0d00 A601     		.2byte	0x1a6
 3903 0d02 B9000000 		.4byte	0xb9
 3904 0d06 DC100000 		.4byte	.LLST80
 3905 0d0a 22       		.uleb128 0x22
 3906 0d0b 98000000 		.4byte	.Ldebug_ranges0+0x98
 3907 0d0f 0F       		.uleb128 0xf
 3908 0d10 89000000 		.4byte	.LASF110
 3909 0d14 01       		.byte	0x1
 3910 0d15 AB01     		.2byte	0x1ab
 3911 0d17 B9000000 		.4byte	0xb9
 3912 0d1b 14110000 		.4byte	.LLST81
 3913 0d1f 10       		.uleb128 0x10
 3914 0d20 93010000 		.4byte	.LASF111
 3915 0d24 01       		.byte	0x1
 3916 0d25 AC01     		.2byte	0x1ac
 3917 0d27 B9000000 		.4byte	0xb9
 3918 0d2b 03       		.uleb128 0x3
 3919 0d2c 91       		.byte	0x91
 3920 0d2d C47B     		.sleb128 -572
 3921 0d2f 24       		.uleb128 0x24
 3922 0d30 54000000 		.4byte	.LBB16
 3923 0d34 28010000 		.4byte	.LBE16-.LBB16
 3924 0d38 0F       		.uleb128 0xf
 3925 0d39 65000000 		.4byte	.LASF112
ARM GAS  C:\Users\eduar\AppData\Local\Temp\cctEoJXe.s 			page 98


 3926 0d3d 01       		.byte	0x1
 3927 0d3e B001     		.2byte	0x1b0
 3928 0d40 B9000000 		.4byte	0xb9
 3929 0d44 59110000 		.4byte	.LLST82
 3930 0d48 0F       		.uleb128 0xf
 3931 0d49 C8030000 		.4byte	.LASF51
 3932 0d4d 01       		.byte	0x1
 3933 0d4e B201     		.2byte	0x1b2
 3934 0d50 B9000000 		.4byte	0xb9
 3935 0d54 8E110000 		.4byte	.LLST83
 3936 0d58 25       		.uleb128 0x25
 3937 0d59 14010000 		.4byte	.LBB17
 3938 0d5d 18000000 		.4byte	.LBE17-.LBB17
 3939 0d61 860D0000 		.4byte	0xd86
 3940 0d65 0F       		.uleb128 0xf
 3941 0d66 20020000 		.4byte	.LASF113
 3942 0d6a 01       		.byte	0x1
 3943 0d6b 1202     		.2byte	0x212
 3944 0d6d B9000000 		.4byte	0xb9
 3945 0d71 B7110000 		.4byte	.LLST84
 3946 0d75 1A       		.uleb128 0x1a
 3947 0d76 2C010000 		.4byte	.LVL281
 3948 0d7a 5D100000 		.4byte	0x105d
 3949 0d7e 18       		.uleb128 0x18
 3950 0d7f 01       		.uleb128 0x1
 3951 0d80 51       		.byte	0x51
 3952 0d81 02       		.uleb128 0x2
 3953 0d82 76       		.byte	0x76
 3954 0d83 0C       		.sleb128 12
 3955 0d84 00       		.byte	0
 3956 0d85 00       		.byte	0
 3957 0d86 17       		.uleb128 0x17
 3958 0d87 64000000 		.4byte	.LVL257
 3959 0d8b 36030000 		.4byte	0x336
 3960 0d8f AE0D0000 		.4byte	0xdae
 3961 0d93 18       		.uleb128 0x18
 3962 0d94 01       		.uleb128 0x1
 3963 0d95 50       		.byte	0x50
 3964 0d96 02       		.uleb128 0x2
 3965 0d97 74       		.byte	0x74
 3966 0d98 00       		.sleb128 0
 3967 0d99 18       		.uleb128 0x18
 3968 0d9a 01       		.uleb128 0x1
 3969 0d9b 51       		.byte	0x51
 3970 0d9c 03       		.uleb128 0x3
 3971 0d9d 91       		.byte	0x91
 3972 0d9e CC7B     		.sleb128 -564
 3973 0da0 18       		.uleb128 0x18
 3974 0da1 01       		.uleb128 0x1
 3975 0da2 52       		.byte	0x52
 3976 0da3 03       		.uleb128 0x3
 3977 0da4 91       		.byte	0x91
 3978 0da5 C87B     		.sleb128 -568
 3979 0da7 18       		.uleb128 0x18
 3980 0da8 01       		.uleb128 0x1
 3981 0da9 53       		.byte	0x53
 3982 0daa 02       		.uleb128 0x2
ARM GAS  C:\Users\eduar\AppData\Local\Temp\cctEoJXe.s 			page 99


 3983 0dab 75       		.byte	0x75
 3984 0dac 00       		.sleb128 0
 3985 0dad 00       		.byte	0
 3986 0dae 17       		.uleb128 0x17
 3987 0daf 70000000 		.4byte	.LVL258
 3988 0db3 7E100000 		.4byte	0x107e
 3989 0db7 CF0D0000 		.4byte	0xdcf
 3990 0dbb 18       		.uleb128 0x18
 3991 0dbc 01       		.uleb128 0x1
 3992 0dbd 50       		.byte	0x50
 3993 0dbe 03       		.uleb128 0x3
 3994 0dbf 91       		.byte	0x91
 3995 0dc0 D87B     		.sleb128 -552
 3996 0dc2 18       		.uleb128 0x18
 3997 0dc3 01       		.uleb128 0x1
 3998 0dc4 51       		.byte	0x51
 3999 0dc5 01       		.uleb128 0x1
 4000 0dc6 30       		.byte	0x30
 4001 0dc7 18       		.uleb128 0x18
 4002 0dc8 01       		.uleb128 0x1
 4003 0dc9 52       		.byte	0x52
 4004 0dca 03       		.uleb128 0x3
 4005 0dcb 0A       		.byte	0xa
 4006 0dcc 0002     		.2byte	0x200
 4007 0dce 00       		.byte	0
 4008 0dcf 17       		.uleb128 0x17
 4009 0dd0 AA000000 		.4byte	.LVL265
 4010 0dd4 5D100000 		.4byte	0x105d
 4011 0dd8 E40D0000 		.4byte	0xde4
 4012 0ddc 18       		.uleb128 0x18
 4013 0ddd 01       		.uleb128 0x1
 4014 0dde 50       		.byte	0x50
 4015 0ddf 03       		.uleb128 0x3
 4016 0de0 91       		.byte	0x91
 4017 0de1 E47B     		.sleb128 -540
 4018 0de3 00       		.byte	0
 4019 0de4 17       		.uleb128 0x17
 4020 0de5 BE000000 		.4byte	.LVL266
 4021 0de9 5D100000 		.4byte	0x105d
 4022 0ded 000E0000 		.4byte	0xe00
 4023 0df1 18       		.uleb128 0x18
 4024 0df2 01       		.uleb128 0x1
 4025 0df3 50       		.byte	0x50
 4026 0df4 03       		.uleb128 0x3
 4027 0df5 91       		.byte	0x91
 4028 0df6 D87D     		.sleb128 -296
 4029 0df8 18       		.uleb128 0x18
 4030 0df9 01       		.uleb128 0x1
 4031 0dfa 52       		.byte	0x52
 4032 0dfb 03       		.uleb128 0x3
 4033 0dfc 0A       		.byte	0xa
 4034 0dfd 0001     		.2byte	0x100
 4035 0dff 00       		.byte	0
 4036 0e00 17       		.uleb128 0x17
 4037 0e01 E2000000 		.4byte	.LVL270
 4038 0e05 EF020000 		.4byte	0x2ef
 4039 0e09 1A0E0000 		.4byte	0xe1a
ARM GAS  C:\Users\eduar\AppData\Local\Temp\cctEoJXe.s 			page 100


 4040 0e0d 18       		.uleb128 0x18
 4041 0e0e 01       		.uleb128 0x1
 4042 0e0f 50       		.byte	0x50
 4043 0e10 02       		.uleb128 0x2
 4044 0e11 74       		.byte	0x74
 4045 0e12 00       		.sleb128 0
 4046 0e13 18       		.uleb128 0x18
 4047 0e14 01       		.uleb128 0x1
 4048 0e15 51       		.byte	0x51
 4049 0e16 02       		.uleb128 0x2
 4050 0e17 75       		.byte	0x75
 4051 0e18 00       		.sleb128 0
 4052 0e19 00       		.byte	0
 4053 0e1a 17       		.uleb128 0x17
 4054 0e1b 0A010000 		.4byte	.LVL274
 4055 0e1f 57040000 		.4byte	0x457
 4056 0e23 3D0E0000 		.4byte	0xe3d
 4057 0e27 18       		.uleb128 0x18
 4058 0e28 01       		.uleb128 0x1
 4059 0e29 50       		.byte	0x50
 4060 0e2a 03       		.uleb128 0x3
 4061 0e2b 91       		.byte	0x91
 4062 0e2c D47B     		.sleb128 -556
 4063 0e2e 18       		.uleb128 0x18
 4064 0e2f 01       		.uleb128 0x1
 4065 0e30 51       		.byte	0x51
 4066 0e31 03       		.uleb128 0x3
 4067 0e32 91       		.byte	0x91
 4068 0e33 D07B     		.sleb128 -560
 4069 0e35 18       		.uleb128 0x18
 4070 0e36 01       		.uleb128 0x1
 4071 0e37 52       		.byte	0x52
 4072 0e38 03       		.uleb128 0x3
 4073 0e39 91       		.byte	0x91
 4074 0e3a C47B     		.sleb128 -572
 4075 0e3c 00       		.byte	0
 4076 0e3d 17       		.uleb128 0x17
 4077 0e3e 3C010000 		.4byte	.LVL282
 4078 0e42 8B030000 		.4byte	0x38b
 4079 0e46 590E0000 		.4byte	0xe59
 4080 0e4a 18       		.uleb128 0x18
 4081 0e4b 01       		.uleb128 0x1
 4082 0e4c 50       		.byte	0x50
 4083 0e4d 03       		.uleb128 0x3
 4084 0e4e 91       		.byte	0x91
 4085 0e4f D87D     		.sleb128 -296
 4086 0e51 18       		.uleb128 0x18
 4087 0e52 01       		.uleb128 0x1
 4088 0e53 51       		.byte	0x51
 4089 0e54 03       		.uleb128 0x3
 4090 0e55 0A       		.byte	0xa
 4091 0e56 0001     		.2byte	0x100
 4092 0e58 00       		.byte	0
 4093 0e59 17       		.uleb128 0x17
 4094 0e5a 56010000 		.4byte	.LVL287
 4095 0e5e DE040000 		.4byte	0x4de
 4096 0e62 740E0000 		.4byte	0xe74
ARM GAS  C:\Users\eduar\AppData\Local\Temp\cctEoJXe.s 			page 101


 4097 0e66 18       		.uleb128 0x18
 4098 0e67 01       		.uleb128 0x1
 4099 0e68 51       		.byte	0x51
 4100 0e69 03       		.uleb128 0x3
 4101 0e6a 91       		.byte	0x91
 4102 0e6b D87B     		.sleb128 -552
 4103 0e6d 18       		.uleb128 0x18
 4104 0e6e 01       		.uleb128 0x1
 4105 0e6f 52       		.byte	0x52
 4106 0e70 02       		.uleb128 0x2
 4107 0e71 75       		.byte	0x75
 4108 0e72 00       		.sleb128 0
 4109 0e73 00       		.byte	0
 4110 0e74 1A       		.uleb128 0x1a
 4111 0e75 74010000 		.4byte	.LVL290
 4112 0e79 DE040000 		.4byte	0x4de
 4113 0e7d 18       		.uleb128 0x18
 4114 0e7e 01       		.uleb128 0x1
 4115 0e7f 51       		.byte	0x51
 4116 0e80 03       		.uleb128 0x3
 4117 0e81 91       		.byte	0x91
 4118 0e82 D87B     		.sleb128 -552
 4119 0e84 18       		.uleb128 0x18
 4120 0e85 01       		.uleb128 0x1
 4121 0e86 52       		.byte	0x52
 4122 0e87 02       		.uleb128 0x2
 4123 0e88 75       		.byte	0x75
 4124 0e89 00       		.sleb128 0
 4125 0e8a 00       		.byte	0
 4126 0e8b 00       		.byte	0
 4127 0e8c 00       		.byte	0
 4128 0e8d 00       		.byte	0
 4129 0e8e 26       		.uleb128 0x26
 4130 0e8f A2030000 		.4byte	.LASF114
 4131 0e93 01       		.byte	0x1
 4132 0e94 7002     		.2byte	0x270
 4133 0e96 66020000 		.4byte	0x266
 4134 0e9a 00000000 		.4byte	.LFB48
 4135 0e9e C0000000 		.4byte	.LFE48-.LFB48
 4136 0ea2 01       		.uleb128 0x1
 4137 0ea3 9C       		.byte	0x9c
 4138 0ea4 02100000 		.4byte	0x1002
 4139 0ea8 13       		.uleb128 0x13
 4140 0ea9 83020000 		.4byte	.LASF50
 4141 0ead 01       		.byte	0x1
 4142 0eae 7002     		.2byte	0x270
 4143 0eb0 E9020000 		.4byte	0x2e9
 4144 0eb4 CA110000 		.4byte	.LLST85
 4145 0eb8 15       		.uleb128 0x15
 4146 0eb9 6900     		.ascii	"i\000"
 4147 0ebb 01       		.byte	0x1
 4148 0ebc 7202     		.2byte	0x272
 4149 0ebe B9000000 		.4byte	0xb9
 4150 0ec2 F6110000 		.4byte	.LLST86
 4151 0ec6 0F       		.uleb128 0xf
 4152 0ec7 C8030000 		.4byte	.LASF51
 4153 0ecb 01       		.byte	0x1
ARM GAS  C:\Users\eduar\AppData\Local\Temp\cctEoJXe.s 			page 102


 4154 0ecc 7302     		.2byte	0x273
 4155 0ece B9000000 		.4byte	0xb9
 4156 0ed2 09120000 		.4byte	.LLST87
 4157 0ed6 0F       		.uleb128 0xf
 4158 0ed7 35080000 		.4byte	.LASF86
 4159 0edb 01       		.byte	0x1
 4160 0edc 7402     		.2byte	0x274
 4161 0ede B9000000 		.4byte	0xb9
 4162 0ee2 1C120000 		.4byte	.LLST88
 4163 0ee6 10       		.uleb128 0x10
 4164 0ee7 D7020000 		.4byte	.LASF108
 4165 0eeb 01       		.byte	0x1
 4166 0eec 7502     		.2byte	0x275
 4167 0eee B9000000 		.4byte	0xb9
 4168 0ef2 02       		.uleb128 0x2
 4169 0ef3 91       		.byte	0x91
 4170 0ef4 5C       		.sleb128 -36
 4171 0ef5 15       		.uleb128 0x15
 4172 0ef6 72657400 		.ascii	"ret\000"
 4173 0efa 01       		.byte	0x1
 4174 0efb 7602     		.2byte	0x276
 4175 0efd 66020000 		.4byte	0x266
 4176 0f01 45120000 		.4byte	.LLST89
 4177 0f05 10       		.uleb128 0x10
 4178 0f06 5F050000 		.4byte	.LASF76
 4179 0f0a 01       		.byte	0x1
 4180 0f0b 7702     		.2byte	0x277
 4181 0f0d D8060000 		.4byte	0x6d8
 4182 0f11 03       		.uleb128 0x3
 4183 0f12 91       		.byte	0x91
 4184 0f13 DC7B     		.sleb128 -548
 4185 0f15 10       		.uleb128 0x10
 4186 0f16 73000000 		.4byte	.LASF115
 4187 0f1a 01       		.byte	0x1
 4188 0f1b 7802     		.2byte	0x278
 4189 0f1d B9000000 		.4byte	0xb9
 4190 0f21 03       		.uleb128 0x3
 4191 0f22 91       		.byte	0x91
 4192 0f23 D87B     		.sleb128 -552
 4193 0f25 0F       		.uleb128 0xf
 4194 0f26 F0000000 		.4byte	.LASF116
 4195 0f2a 01       		.byte	0x1
 4196 0f2b 7902     		.2byte	0x279
 4197 0f2d B9000000 		.4byte	0xb9
 4198 0f31 92120000 		.4byte	.LLST90
 4199 0f35 16       		.uleb128 0x16
 4200 0f36 B0000000 		.4byte	.Ldebug_ranges0+0xb0
 4201 0f3a E40F0000 		.4byte	0xfe4
 4202 0f3e 0F       		.uleb128 0xf
 4203 0f3f 89000000 		.4byte	.LASF110
 4204 0f43 01       		.byte	0x1
 4205 0f44 8202     		.2byte	0x282
 4206 0f46 B9000000 		.4byte	0xb9
 4207 0f4a B0120000 		.4byte	.LLST91
 4208 0f4e 17       		.uleb128 0x17
 4209 0f4f 3A000000 		.4byte	.LVL308
 4210 0f53 36030000 		.4byte	0x336
ARM GAS  C:\Users\eduar\AppData\Local\Temp\cctEoJXe.s 			page 103


 4211 0f57 750F0000 		.4byte	0xf75
 4212 0f5b 18       		.uleb128 0x18
 4213 0f5c 01       		.uleb128 0x1
 4214 0f5d 50       		.byte	0x50
 4215 0f5e 02       		.uleb128 0x2
 4216 0f5f 74       		.byte	0x74
 4217 0f60 00       		.sleb128 0
 4218 0f61 18       		.uleb128 0x18
 4219 0f62 01       		.uleb128 0x1
 4220 0f63 51       		.byte	0x51
 4221 0f64 03       		.uleb128 0x3
 4222 0f65 91       		.byte	0x91
 4223 0f66 D87B     		.sleb128 -552
 4224 0f68 18       		.uleb128 0x18
 4225 0f69 01       		.uleb128 0x1
 4226 0f6a 52       		.byte	0x52
 4227 0f6b 02       		.uleb128 0x2
 4228 0f6c 91       		.byte	0x91
 4229 0f6d 5C       		.sleb128 -36
 4230 0f6e 18       		.uleb128 0x18
 4231 0f6f 01       		.uleb128 0x1
 4232 0f70 53       		.byte	0x53
 4233 0f71 02       		.uleb128 0x2
 4234 0f72 76       		.byte	0x76
 4235 0f73 00       		.sleb128 0
 4236 0f74 00       		.byte	0
 4237 0f75 17       		.uleb128 0x17
 4238 0f76 4E000000 		.4byte	.LVL311
 4239 0f7a 8B030000 		.4byte	0x38b
 4240 0f7e 910F0000 		.4byte	0xf91
 4241 0f82 18       		.uleb128 0x18
 4242 0f83 01       		.uleb128 0x1
 4243 0f84 50       		.byte	0x50
 4244 0f85 03       		.uleb128 0x3
 4245 0f86 91       		.byte	0x91
 4246 0f87 DC7D     		.sleb128 -292
 4247 0f89 18       		.uleb128 0x18
 4248 0f8a 01       		.uleb128 0x1
 4249 0f8b 51       		.byte	0x51
 4250 0f8c 03       		.uleb128 0x3
 4251 0f8d 0A       		.byte	0xa
 4252 0f8e 0001     		.2byte	0x100
 4253 0f90 00       		.byte	0
 4254 0f91 17       		.uleb128 0x17
 4255 0f92 6A000000 		.4byte	.LVL313
 4256 0f96 51080000 		.4byte	0x851
 4257 0f9a B20F0000 		.4byte	0xfb2
 4258 0f9e 18       		.uleb128 0x18
 4259 0f9f 01       		.uleb128 0x1
 4260 0fa0 50       		.byte	0x50
 4261 0fa1 02       		.uleb128 0x2
 4262 0fa2 75       		.byte	0x75
 4263 0fa3 00       		.sleb128 0
 4264 0fa4 18       		.uleb128 0x18
 4265 0fa5 01       		.uleb128 0x1
 4266 0fa6 51       		.byte	0x51
 4267 0fa7 03       		.uleb128 0x3
ARM GAS  C:\Users\eduar\AppData\Local\Temp\cctEoJXe.s 			page 104


 4268 0fa8 91       		.byte	0x91
 4269 0fa9 DC7B     		.sleb128 -548
 4270 0fab 18       		.uleb128 0x18
 4271 0fac 01       		.uleb128 0x1
 4272 0fad 52       		.byte	0x52
 4273 0fae 02       		.uleb128 0x2
 4274 0faf 76       		.byte	0x76
 4275 0fb0 00       		.sleb128 0
 4276 0fb1 00       		.byte	0
 4277 0fb2 17       		.uleb128 0x17
 4278 0fb3 7A000000 		.4byte	.LVL316
 4279 0fb7 EF020000 		.4byte	0x2ef
 4280 0fbb CC0F0000 		.4byte	0xfcc
 4281 0fbf 18       		.uleb128 0x18
 4282 0fc0 01       		.uleb128 0x1
 4283 0fc1 50       		.byte	0x50
 4284 0fc2 02       		.uleb128 0x2
 4285 0fc3 74       		.byte	0x74
 4286 0fc4 00       		.sleb128 0
 4287 0fc5 18       		.uleb128 0x18
 4288 0fc6 01       		.uleb128 0x1
 4289 0fc7 51       		.byte	0x51
 4290 0fc8 02       		.uleb128 0x2
 4291 0fc9 76       		.byte	0x76
 4292 0fca 00       		.sleb128 0
 4293 0fcb 00       		.byte	0
 4294 0fcc 1A       		.uleb128 0x1a
 4295 0fcd 96000000 		.4byte	.LVL319
 4296 0fd1 DE040000 		.4byte	0x4de
 4297 0fd5 18       		.uleb128 0x18
 4298 0fd6 01       		.uleb128 0x1
 4299 0fd7 51       		.byte	0x51
 4300 0fd8 03       		.uleb128 0x3
 4301 0fd9 91       		.byte	0x91
 4302 0fda DC7B     		.sleb128 -548
 4303 0fdc 18       		.uleb128 0x18
 4304 0fdd 01       		.uleb128 0x1
 4305 0fde 52       		.byte	0x52
 4306 0fdf 02       		.uleb128 0x2
 4307 0fe0 76       		.byte	0x76
 4308 0fe1 00       		.sleb128 0
 4309 0fe2 00       		.byte	0
 4310 0fe3 00       		.byte	0
 4311 0fe4 1A       		.uleb128 0x1a
 4312 0fe5 1C000000 		.4byte	.LVL304
 4313 0fe9 7E100000 		.4byte	0x107e
 4314 0fed 18       		.uleb128 0x18
 4315 0fee 01       		.uleb128 0x1
 4316 0fef 50       		.byte	0x50
 4317 0ff0 03       		.uleb128 0x3
 4318 0ff1 91       		.byte	0x91
 4319 0ff2 DC7B     		.sleb128 -548
 4320 0ff4 18       		.uleb128 0x18
 4321 0ff5 01       		.uleb128 0x1
 4322 0ff6 51       		.byte	0x51
 4323 0ff7 01       		.uleb128 0x1
 4324 0ff8 30       		.byte	0x30
ARM GAS  C:\Users\eduar\AppData\Local\Temp\cctEoJXe.s 			page 105


 4325 0ff9 18       		.uleb128 0x18
 4326 0ffa 01       		.uleb128 0x1
 4327 0ffb 52       		.byte	0x52
 4328 0ffc 03       		.uleb128 0x3
 4329 0ffd 0A       		.byte	0xa
 4330 0ffe 0002     		.2byte	0x200
 4331 1000 00       		.byte	0
 4332 1001 00       		.byte	0
 4333 1002 26       		.uleb128 0x26
 4334 1003 15010000 		.4byte	.LASF117
 4335 1007 01       		.byte	0x1
 4336 1008 C602     		.2byte	0x2c6
 4337 100a B9000000 		.4byte	0xb9
 4338 100e 00000000 		.4byte	.LFB49
 4339 1012 06000000 		.4byte	.LFE49-.LFB49
 4340 1016 01       		.uleb128 0x1
 4341 1017 9C       		.byte	0x9c
 4342 1018 2D100000 		.4byte	0x102d
 4343 101c 13       		.uleb128 0x13
 4344 101d 83020000 		.4byte	.LASF50
 4345 1021 01       		.byte	0x1
 4346 1022 C602     		.2byte	0x2c6
 4347 1024 E9020000 		.4byte	0x2e9
 4348 1028 CE120000 		.4byte	.LLST92
 4349 102c 00       		.byte	0
 4350 102d 27       		.uleb128 0x27
 4351 102e 90050000 		.4byte	.LASF118
 4352 1032 90050000 		.4byte	.LASF118
 4353 1036 06       		.byte	0x6
 4354 1037 8903     		.2byte	0x389
 4355 1039 27       		.uleb128 0x27
 4356 103a 9D020000 		.4byte	.LASF119
 4357 103e 9D020000 		.4byte	.LASF119
 4358 1042 04       		.byte	0x4
 4359 1043 AA01     		.2byte	0x1aa
 4360 1045 27       		.uleb128 0x27
 4361 1046 0F040000 		.4byte	.LASF120
 4362 104a 0F040000 		.4byte	.LASF120
 4363 104e 04       		.byte	0x4
 4364 104f A601     		.2byte	0x1a6
 4365 1051 27       		.uleb128 0x27
 4366 1052 DB040000 		.4byte	.LASF121
 4367 1056 DB040000 		.4byte	.LASF121
 4368 105a 04       		.byte	0x4
 4369 105b A701     		.2byte	0x1a7
 4370 105d 28       		.uleb128 0x28
 4371 105e 5A010000 		.4byte	.LASF124
 4372 1062 5A010000 		.4byte	.LASF124
 4373 1066 27       		.uleb128 0x27
 4374 1067 35010000 		.4byte	.LASF122
 4375 106b 35010000 		.4byte	.LASF122
 4376 106f 04       		.byte	0x4
 4377 1070 A401     		.2byte	0x1a4
 4378 1072 27       		.uleb128 0x27
 4379 1073 A6010000 		.4byte	.LASF123
 4380 1077 A6010000 		.4byte	.LASF123
 4381 107b 04       		.byte	0x4
ARM GAS  C:\Users\eduar\AppData\Local\Temp\cctEoJXe.s 			page 106


 4382 107c A901     		.2byte	0x1a9
 4383 107e 28       		.uleb128 0x28
 4384 107f 74070000 		.4byte	.LASF125
 4385 1083 74070000 		.4byte	.LASF125
 4386 1087 00       		.byte	0
 4387              		.section	.debug_abbrev,"",%progbits
 4388              	.Ldebug_abbrev0:
 4389 0000 01       		.uleb128 0x1
 4390 0001 11       		.uleb128 0x11
 4391 0002 01       		.byte	0x1
 4392 0003 25       		.uleb128 0x25
 4393 0004 0E       		.uleb128 0xe
 4394 0005 13       		.uleb128 0x13
 4395 0006 0B       		.uleb128 0xb
 4396 0007 03       		.uleb128 0x3
 4397 0008 0E       		.uleb128 0xe
 4398 0009 1B       		.uleb128 0x1b
 4399 000a 0E       		.uleb128 0xe
 4400 000b 55       		.uleb128 0x55
 4401 000c 17       		.uleb128 0x17
 4402 000d 11       		.uleb128 0x11
 4403 000e 01       		.uleb128 0x1
 4404 000f 10       		.uleb128 0x10
 4405 0010 17       		.uleb128 0x17
 4406 0011 00       		.byte	0
 4407 0012 00       		.byte	0
 4408 0013 02       		.uleb128 0x2
 4409 0014 24       		.uleb128 0x24
 4410 0015 00       		.byte	0
 4411 0016 0B       		.uleb128 0xb
 4412 0017 0B       		.uleb128 0xb
 4413 0018 3E       		.uleb128 0x3e
 4414 0019 0B       		.uleb128 0xb
 4415 001a 03       		.uleb128 0x3
 4416 001b 08       		.uleb128 0x8
 4417 001c 00       		.byte	0
 4418 001d 00       		.byte	0
 4419 001e 03       		.uleb128 0x3
 4420 001f 24       		.uleb128 0x24
 4421 0020 00       		.byte	0
 4422 0021 0B       		.uleb128 0xb
 4423 0022 0B       		.uleb128 0xb
 4424 0023 3E       		.uleb128 0x3e
 4425 0024 0B       		.uleb128 0xb
 4426 0025 03       		.uleb128 0x3
 4427 0026 0E       		.uleb128 0xe
 4428 0027 00       		.byte	0
 4429 0028 00       		.byte	0
 4430 0029 04       		.uleb128 0x4
 4431 002a 16       		.uleb128 0x16
 4432 002b 00       		.byte	0
 4433 002c 03       		.uleb128 0x3
 4434 002d 0E       		.uleb128 0xe
 4435 002e 3A       		.uleb128 0x3a
 4436 002f 0B       		.uleb128 0xb
 4437 0030 3B       		.uleb128 0x3b
 4438 0031 0B       		.uleb128 0xb
ARM GAS  C:\Users\eduar\AppData\Local\Temp\cctEoJXe.s 			page 107


 4439 0032 49       		.uleb128 0x49
 4440 0033 13       		.uleb128 0x13
 4441 0034 00       		.byte	0
 4442 0035 00       		.byte	0
 4443 0036 05       		.uleb128 0x5
 4444 0037 0F       		.uleb128 0xf
 4445 0038 00       		.byte	0
 4446 0039 0B       		.uleb128 0xb
 4447 003a 0B       		.uleb128 0xb
 4448 003b 00       		.byte	0
 4449 003c 00       		.byte	0
 4450 003d 06       		.uleb128 0x6
 4451 003e 04       		.uleb128 0x4
 4452 003f 01       		.byte	0x1
 4453 0040 03       		.uleb128 0x3
 4454 0041 0E       		.uleb128 0xe
 4455 0042 0B       		.uleb128 0xb
 4456 0043 0B       		.uleb128 0xb
 4457 0044 49       		.uleb128 0x49
 4458 0045 13       		.uleb128 0x13
 4459 0046 3A       		.uleb128 0x3a
 4460 0047 0B       		.uleb128 0xb
 4461 0048 3B       		.uleb128 0x3b
 4462 0049 05       		.uleb128 0x5
 4463 004a 01       		.uleb128 0x1
 4464 004b 13       		.uleb128 0x13
 4465 004c 00       		.byte	0
 4466 004d 00       		.byte	0
 4467 004e 07       		.uleb128 0x7
 4468 004f 28       		.uleb128 0x28
 4469 0050 00       		.byte	0
 4470 0051 03       		.uleb128 0x3
 4471 0052 0E       		.uleb128 0xe
 4472 0053 1C       		.uleb128 0x1c
 4473 0054 0B       		.uleb128 0xb
 4474 0055 00       		.byte	0
 4475 0056 00       		.byte	0
 4476 0057 08       		.uleb128 0x8
 4477 0058 28       		.uleb128 0x28
 4478 0059 00       		.byte	0
 4479 005a 03       		.uleb128 0x3
 4480 005b 0E       		.uleb128 0xe
 4481 005c 1C       		.uleb128 0x1c
 4482 005d 06       		.uleb128 0x6
 4483 005e 00       		.byte	0
 4484 005f 00       		.byte	0
 4485 0060 09       		.uleb128 0x9
 4486 0061 16       		.uleb128 0x16
 4487 0062 00       		.byte	0
 4488 0063 03       		.uleb128 0x3
 4489 0064 0E       		.uleb128 0xe
 4490 0065 3A       		.uleb128 0x3a
 4491 0066 0B       		.uleb128 0xb
 4492 0067 3B       		.uleb128 0x3b
 4493 0068 05       		.uleb128 0x5
 4494 0069 49       		.uleb128 0x49
 4495 006a 13       		.uleb128 0x13
ARM GAS  C:\Users\eduar\AppData\Local\Temp\cctEoJXe.s 			page 108


 4496 006b 00       		.byte	0
 4497 006c 00       		.byte	0
 4498 006d 0A       		.uleb128 0xa
 4499 006e 13       		.uleb128 0x13
 4500 006f 01       		.byte	0x1
 4501 0070 0B       		.uleb128 0xb
 4502 0071 0B       		.uleb128 0xb
 4503 0072 3A       		.uleb128 0x3a
 4504 0073 0B       		.uleb128 0xb
 4505 0074 3B       		.uleb128 0x3b
 4506 0075 05       		.uleb128 0x5
 4507 0076 01       		.uleb128 0x1
 4508 0077 13       		.uleb128 0x13
 4509 0078 00       		.byte	0
 4510 0079 00       		.byte	0
 4511 007a 0B       		.uleb128 0xb
 4512 007b 0D       		.uleb128 0xd
 4513 007c 00       		.byte	0
 4514 007d 03       		.uleb128 0x3
 4515 007e 0E       		.uleb128 0xe
 4516 007f 3A       		.uleb128 0x3a
 4517 0080 0B       		.uleb128 0xb
 4518 0081 3B       		.uleb128 0x3b
 4519 0082 05       		.uleb128 0x5
 4520 0083 49       		.uleb128 0x49
 4521 0084 13       		.uleb128 0x13
 4522 0085 38       		.uleb128 0x38
 4523 0086 0B       		.uleb128 0xb
 4524 0087 00       		.byte	0
 4525 0088 00       		.byte	0
 4526 0089 0C       		.uleb128 0xc
 4527 008a 04       		.uleb128 0x4
 4528 008b 01       		.byte	0x1
 4529 008c 0B       		.uleb128 0xb
 4530 008d 0B       		.uleb128 0xb
 4531 008e 49       		.uleb128 0x49
 4532 008f 13       		.uleb128 0x13
 4533 0090 3A       		.uleb128 0x3a
 4534 0091 0B       		.uleb128 0xb
 4535 0092 3B       		.uleb128 0x3b
 4536 0093 05       		.uleb128 0x5
 4537 0094 01       		.uleb128 0x1
 4538 0095 13       		.uleb128 0x13
 4539 0096 00       		.byte	0
 4540 0097 00       		.byte	0
 4541 0098 0D       		.uleb128 0xd
 4542 0099 2E       		.uleb128 0x2e
 4543 009a 01       		.byte	0x1
 4544 009b 03       		.uleb128 0x3
 4545 009c 0E       		.uleb128 0xe
 4546 009d 3A       		.uleb128 0x3a
 4547 009e 0B       		.uleb128 0xb
 4548 009f 3B       		.uleb128 0x3b
 4549 00a0 05       		.uleb128 0x5
 4550 00a1 27       		.uleb128 0x27
 4551 00a2 19       		.uleb128 0x19
 4552 00a3 11       		.uleb128 0x11
ARM GAS  C:\Users\eduar\AppData\Local\Temp\cctEoJXe.s 			page 109


 4553 00a4 01       		.uleb128 0x1
 4554 00a5 12       		.uleb128 0x12
 4555 00a6 06       		.uleb128 0x6
 4556 00a7 40       		.uleb128 0x40
 4557 00a8 18       		.uleb128 0x18
 4558 00a9 9742     		.uleb128 0x2117
 4559 00ab 19       		.uleb128 0x19
 4560 00ac 01       		.uleb128 0x1
 4561 00ad 13       		.uleb128 0x13
 4562 00ae 00       		.byte	0
 4563 00af 00       		.byte	0
 4564 00b0 0E       		.uleb128 0xe
 4565 00b1 05       		.uleb128 0x5
 4566 00b2 00       		.byte	0
 4567 00b3 03       		.uleb128 0x3
 4568 00b4 0E       		.uleb128 0xe
 4569 00b5 3A       		.uleb128 0x3a
 4570 00b6 0B       		.uleb128 0xb
 4571 00b7 3B       		.uleb128 0x3b
 4572 00b8 05       		.uleb128 0x5
 4573 00b9 49       		.uleb128 0x49
 4574 00ba 13       		.uleb128 0x13
 4575 00bb 02       		.uleb128 0x2
 4576 00bc 18       		.uleb128 0x18
 4577 00bd 00       		.byte	0
 4578 00be 00       		.byte	0
 4579 00bf 0F       		.uleb128 0xf
 4580 00c0 34       		.uleb128 0x34
 4581 00c1 00       		.byte	0
 4582 00c2 03       		.uleb128 0x3
 4583 00c3 0E       		.uleb128 0xe
 4584 00c4 3A       		.uleb128 0x3a
 4585 00c5 0B       		.uleb128 0xb
 4586 00c6 3B       		.uleb128 0x3b
 4587 00c7 05       		.uleb128 0x5
 4588 00c8 49       		.uleb128 0x49
 4589 00c9 13       		.uleb128 0x13
 4590 00ca 02       		.uleb128 0x2
 4591 00cb 17       		.uleb128 0x17
 4592 00cc 00       		.byte	0
 4593 00cd 00       		.byte	0
 4594 00ce 10       		.uleb128 0x10
 4595 00cf 34       		.uleb128 0x34
 4596 00d0 00       		.byte	0
 4597 00d1 03       		.uleb128 0x3
 4598 00d2 0E       		.uleb128 0xe
 4599 00d3 3A       		.uleb128 0x3a
 4600 00d4 0B       		.uleb128 0xb
 4601 00d5 3B       		.uleb128 0x3b
 4602 00d6 05       		.uleb128 0x5
 4603 00d7 49       		.uleb128 0x49
 4604 00d8 13       		.uleb128 0x13
 4605 00d9 02       		.uleb128 0x2
 4606 00da 18       		.uleb128 0x18
 4607 00db 00       		.byte	0
 4608 00dc 00       		.byte	0
 4609 00dd 11       		.uleb128 0x11
ARM GAS  C:\Users\eduar\AppData\Local\Temp\cctEoJXe.s 			page 110


 4610 00de 0F       		.uleb128 0xf
 4611 00df 00       		.byte	0
 4612 00e0 0B       		.uleb128 0xb
 4613 00e1 0B       		.uleb128 0xb
 4614 00e2 49       		.uleb128 0x49
 4615 00e3 13       		.uleb128 0x13
 4616 00e4 00       		.byte	0
 4617 00e5 00       		.byte	0
 4618 00e6 12       		.uleb128 0x12
 4619 00e7 2E       		.uleb128 0x2e
 4620 00e8 01       		.byte	0x1
 4621 00e9 03       		.uleb128 0x3
 4622 00ea 0E       		.uleb128 0xe
 4623 00eb 3A       		.uleb128 0x3a
 4624 00ec 0B       		.uleb128 0xb
 4625 00ed 3B       		.uleb128 0x3b
 4626 00ee 05       		.uleb128 0x5
 4627 00ef 27       		.uleb128 0x27
 4628 00f0 19       		.uleb128 0x19
 4629 00f1 49       		.uleb128 0x49
 4630 00f2 13       		.uleb128 0x13
 4631 00f3 11       		.uleb128 0x11
 4632 00f4 01       		.uleb128 0x1
 4633 00f5 12       		.uleb128 0x12
 4634 00f6 06       		.uleb128 0x6
 4635 00f7 40       		.uleb128 0x40
 4636 00f8 18       		.uleb128 0x18
 4637 00f9 9742     		.uleb128 0x2117
 4638 00fb 19       		.uleb128 0x19
 4639 00fc 01       		.uleb128 0x1
 4640 00fd 13       		.uleb128 0x13
 4641 00fe 00       		.byte	0
 4642 00ff 00       		.byte	0
 4643 0100 13       		.uleb128 0x13
 4644 0101 05       		.uleb128 0x5
 4645 0102 00       		.byte	0
 4646 0103 03       		.uleb128 0x3
 4647 0104 0E       		.uleb128 0xe
 4648 0105 3A       		.uleb128 0x3a
 4649 0106 0B       		.uleb128 0xb
 4650 0107 3B       		.uleb128 0x3b
 4651 0108 05       		.uleb128 0x5
 4652 0109 49       		.uleb128 0x49
 4653 010a 13       		.uleb128 0x13
 4654 010b 02       		.uleb128 0x2
 4655 010c 17       		.uleb128 0x17
 4656 010d 00       		.byte	0
 4657 010e 00       		.byte	0
 4658 010f 14       		.uleb128 0x14
 4659 0110 05       		.uleb128 0x5
 4660 0111 00       		.byte	0
 4661 0112 03       		.uleb128 0x3
 4662 0113 08       		.uleb128 0x8
 4663 0114 3A       		.uleb128 0x3a
 4664 0115 0B       		.uleb128 0xb
 4665 0116 3B       		.uleb128 0x3b
 4666 0117 05       		.uleb128 0x5
ARM GAS  C:\Users\eduar\AppData\Local\Temp\cctEoJXe.s 			page 111


 4667 0118 49       		.uleb128 0x49
 4668 0119 13       		.uleb128 0x13
 4669 011a 02       		.uleb128 0x2
 4670 011b 18       		.uleb128 0x18
 4671 011c 00       		.byte	0
 4672 011d 00       		.byte	0
 4673 011e 15       		.uleb128 0x15
 4674 011f 34       		.uleb128 0x34
 4675 0120 00       		.byte	0
 4676 0121 03       		.uleb128 0x3
 4677 0122 08       		.uleb128 0x8
 4678 0123 3A       		.uleb128 0x3a
 4679 0124 0B       		.uleb128 0xb
 4680 0125 3B       		.uleb128 0x3b
 4681 0126 05       		.uleb128 0x5
 4682 0127 49       		.uleb128 0x49
 4683 0128 13       		.uleb128 0x13
 4684 0129 02       		.uleb128 0x2
 4685 012a 17       		.uleb128 0x17
 4686 012b 00       		.byte	0
 4687 012c 00       		.byte	0
 4688 012d 16       		.uleb128 0x16
 4689 012e 0B       		.uleb128 0xb
 4690 012f 01       		.byte	0x1
 4691 0130 55       		.uleb128 0x55
 4692 0131 17       		.uleb128 0x17
 4693 0132 01       		.uleb128 0x1
 4694 0133 13       		.uleb128 0x13
 4695 0134 00       		.byte	0
 4696 0135 00       		.byte	0
 4697 0136 17       		.uleb128 0x17
 4698 0137 898201   		.uleb128 0x4109
 4699 013a 01       		.byte	0x1
 4700 013b 11       		.uleb128 0x11
 4701 013c 01       		.uleb128 0x1
 4702 013d 31       		.uleb128 0x31
 4703 013e 13       		.uleb128 0x13
 4704 013f 01       		.uleb128 0x1
 4705 0140 13       		.uleb128 0x13
 4706 0141 00       		.byte	0
 4707 0142 00       		.byte	0
 4708 0143 18       		.uleb128 0x18
 4709 0144 8A8201   		.uleb128 0x410a
 4710 0147 00       		.byte	0
 4711 0148 02       		.uleb128 0x2
 4712 0149 18       		.uleb128 0x18
 4713 014a 9142     		.uleb128 0x2111
 4714 014c 18       		.uleb128 0x18
 4715 014d 00       		.byte	0
 4716 014e 00       		.byte	0
 4717 014f 19       		.uleb128 0x19
 4718 0150 898201   		.uleb128 0x4109
 4719 0153 00       		.byte	0
 4720 0154 11       		.uleb128 0x11
 4721 0155 01       		.uleb128 0x1
 4722 0156 31       		.uleb128 0x31
 4723 0157 13       		.uleb128 0x13
ARM GAS  C:\Users\eduar\AppData\Local\Temp\cctEoJXe.s 			page 112


 4724 0158 00       		.byte	0
 4725 0159 00       		.byte	0
 4726 015a 1A       		.uleb128 0x1a
 4727 015b 898201   		.uleb128 0x4109
 4728 015e 01       		.byte	0x1
 4729 015f 11       		.uleb128 0x11
 4730 0160 01       		.uleb128 0x1
 4731 0161 31       		.uleb128 0x31
 4732 0162 13       		.uleb128 0x13
 4733 0163 00       		.byte	0
 4734 0164 00       		.byte	0
 4735 0165 1B       		.uleb128 0x1b
 4736 0166 01       		.uleb128 0x1
 4737 0167 01       		.byte	0x1
 4738 0168 49       		.uleb128 0x49
 4739 0169 13       		.uleb128 0x13
 4740 016a 01       		.uleb128 0x1
 4741 016b 13       		.uleb128 0x13
 4742 016c 00       		.byte	0
 4743 016d 00       		.byte	0
 4744 016e 1C       		.uleb128 0x1c
 4745 016f 21       		.uleb128 0x21
 4746 0170 00       		.byte	0
 4747 0171 49       		.uleb128 0x49
 4748 0172 13       		.uleb128 0x13
 4749 0173 2F       		.uleb128 0x2f
 4750 0174 0B       		.uleb128 0xb
 4751 0175 00       		.byte	0
 4752 0176 00       		.byte	0
 4753 0177 1D       		.uleb128 0x1d
 4754 0178 2E       		.uleb128 0x2e
 4755 0179 01       		.byte	0x1
 4756 017a 3F       		.uleb128 0x3f
 4757 017b 19       		.uleb128 0x19
 4758 017c 03       		.uleb128 0x3
 4759 017d 0E       		.uleb128 0xe
 4760 017e 3A       		.uleb128 0x3a
 4761 017f 0B       		.uleb128 0xb
 4762 0180 3B       		.uleb128 0x3b
 4763 0181 0B       		.uleb128 0xb
 4764 0182 27       		.uleb128 0x27
 4765 0183 19       		.uleb128 0x19
 4766 0184 49       		.uleb128 0x49
 4767 0185 13       		.uleb128 0x13
 4768 0186 11       		.uleb128 0x11
 4769 0187 01       		.uleb128 0x1
 4770 0188 12       		.uleb128 0x12
 4771 0189 06       		.uleb128 0x6
 4772 018a 40       		.uleb128 0x40
 4773 018b 18       		.uleb128 0x18
 4774 018c 9742     		.uleb128 0x2117
 4775 018e 19       		.uleb128 0x19
 4776 018f 01       		.uleb128 0x1
 4777 0190 13       		.uleb128 0x13
 4778 0191 00       		.byte	0
 4779 0192 00       		.byte	0
 4780 0193 1E       		.uleb128 0x1e
ARM GAS  C:\Users\eduar\AppData\Local\Temp\cctEoJXe.s 			page 113


 4781 0194 05       		.uleb128 0x5
 4782 0195 00       		.byte	0
 4783 0196 03       		.uleb128 0x3
 4784 0197 0E       		.uleb128 0xe
 4785 0198 3A       		.uleb128 0x3a
 4786 0199 0B       		.uleb128 0xb
 4787 019a 3B       		.uleb128 0x3b
 4788 019b 0B       		.uleb128 0xb
 4789 019c 49       		.uleb128 0x49
 4790 019d 13       		.uleb128 0x13
 4791 019e 02       		.uleb128 0x2
 4792 019f 17       		.uleb128 0x17
 4793 01a0 00       		.byte	0
 4794 01a1 00       		.byte	0
 4795 01a2 1F       		.uleb128 0x1f
 4796 01a3 34       		.uleb128 0x34
 4797 01a4 00       		.byte	0
 4798 01a5 03       		.uleb128 0x3
 4799 01a6 08       		.uleb128 0x8
 4800 01a7 3A       		.uleb128 0x3a
 4801 01a8 0B       		.uleb128 0xb
 4802 01a9 3B       		.uleb128 0x3b
 4803 01aa 0B       		.uleb128 0xb
 4804 01ab 49       		.uleb128 0x49
 4805 01ac 13       		.uleb128 0x13
 4806 01ad 02       		.uleb128 0x2
 4807 01ae 17       		.uleb128 0x17
 4808 01af 00       		.byte	0
 4809 01b0 00       		.byte	0
 4810 01b1 20       		.uleb128 0x20
 4811 01b2 2E       		.uleb128 0x2e
 4812 01b3 01       		.byte	0x1
 4813 01b4 3F       		.uleb128 0x3f
 4814 01b5 19       		.uleb128 0x19
 4815 01b6 03       		.uleb128 0x3
 4816 01b7 0E       		.uleb128 0xe
 4817 01b8 3A       		.uleb128 0x3a
 4818 01b9 0B       		.uleb128 0xb
 4819 01ba 3B       		.uleb128 0x3b
 4820 01bb 0B       		.uleb128 0xb
 4821 01bc 27       		.uleb128 0x27
 4822 01bd 19       		.uleb128 0x19
 4823 01be 49       		.uleb128 0x49
 4824 01bf 13       		.uleb128 0x13
 4825 01c0 11       		.uleb128 0x11
 4826 01c1 01       		.uleb128 0x1
 4827 01c2 12       		.uleb128 0x12
 4828 01c3 06       		.uleb128 0x6
 4829 01c4 40       		.uleb128 0x40
 4830 01c5 18       		.uleb128 0x18
 4831 01c6 9642     		.uleb128 0x2116
 4832 01c8 19       		.uleb128 0x19
 4833 01c9 01       		.uleb128 0x1
 4834 01ca 13       		.uleb128 0x13
 4835 01cb 00       		.byte	0
 4836 01cc 00       		.byte	0
 4837 01cd 21       		.uleb128 0x21
ARM GAS  C:\Users\eduar\AppData\Local\Temp\cctEoJXe.s 			page 114


 4838 01ce 34       		.uleb128 0x34
 4839 01cf 00       		.byte	0
 4840 01d0 03       		.uleb128 0x3
 4841 01d1 0E       		.uleb128 0xe
 4842 01d2 3A       		.uleb128 0x3a
 4843 01d3 0B       		.uleb128 0xb
 4844 01d4 3B       		.uleb128 0x3b
 4845 01d5 0B       		.uleb128 0xb
 4846 01d6 49       		.uleb128 0x49
 4847 01d7 13       		.uleb128 0x13
 4848 01d8 02       		.uleb128 0x2
 4849 01d9 17       		.uleb128 0x17
 4850 01da 00       		.byte	0
 4851 01db 00       		.byte	0
 4852 01dc 22       		.uleb128 0x22
 4853 01dd 0B       		.uleb128 0xb
 4854 01de 01       		.byte	0x1
 4855 01df 55       		.uleb128 0x55
 4856 01e0 17       		.uleb128 0x17
 4857 01e1 00       		.byte	0
 4858 01e2 00       		.byte	0
 4859 01e3 23       		.uleb128 0x23
 4860 01e4 2E       		.uleb128 0x2e
 4861 01e5 01       		.byte	0x1
 4862 01e6 3F       		.uleb128 0x3f
 4863 01e7 19       		.uleb128 0x19
 4864 01e8 03       		.uleb128 0x3
 4865 01e9 0E       		.uleb128 0xe
 4866 01ea 3A       		.uleb128 0x3a
 4867 01eb 0B       		.uleb128 0xb
 4868 01ec 3B       		.uleb128 0x3b
 4869 01ed 05       		.uleb128 0x5
 4870 01ee 27       		.uleb128 0x27
 4871 01ef 19       		.uleb128 0x19
 4872 01f0 49       		.uleb128 0x49
 4873 01f1 13       		.uleb128 0x13
 4874 01f2 11       		.uleb128 0x11
 4875 01f3 01       		.uleb128 0x1
 4876 01f4 12       		.uleb128 0x12
 4877 01f5 06       		.uleb128 0x6
 4878 01f6 40       		.uleb128 0x40
 4879 01f7 18       		.uleb128 0x18
 4880 01f8 9642     		.uleb128 0x2116
 4881 01fa 19       		.uleb128 0x19
 4882 01fb 01       		.uleb128 0x1
 4883 01fc 13       		.uleb128 0x13
 4884 01fd 00       		.byte	0
 4885 01fe 00       		.byte	0
 4886 01ff 24       		.uleb128 0x24
 4887 0200 0B       		.uleb128 0xb
 4888 0201 01       		.byte	0x1
 4889 0202 11       		.uleb128 0x11
 4890 0203 01       		.uleb128 0x1
 4891 0204 12       		.uleb128 0x12
 4892 0205 06       		.uleb128 0x6
 4893 0206 00       		.byte	0
 4894 0207 00       		.byte	0
ARM GAS  C:\Users\eduar\AppData\Local\Temp\cctEoJXe.s 			page 115


 4895 0208 25       		.uleb128 0x25
 4896 0209 0B       		.uleb128 0xb
 4897 020a 01       		.byte	0x1
 4898 020b 11       		.uleb128 0x11
 4899 020c 01       		.uleb128 0x1
 4900 020d 12       		.uleb128 0x12
 4901 020e 06       		.uleb128 0x6
 4902 020f 01       		.uleb128 0x1
 4903 0210 13       		.uleb128 0x13
 4904 0211 00       		.byte	0
 4905 0212 00       		.byte	0
 4906 0213 26       		.uleb128 0x26
 4907 0214 2E       		.uleb128 0x2e
 4908 0215 01       		.byte	0x1
 4909 0216 3F       		.uleb128 0x3f
 4910 0217 19       		.uleb128 0x19
 4911 0218 03       		.uleb128 0x3
 4912 0219 0E       		.uleb128 0xe
 4913 021a 3A       		.uleb128 0x3a
 4914 021b 0B       		.uleb128 0xb
 4915 021c 3B       		.uleb128 0x3b
 4916 021d 05       		.uleb128 0x5
 4917 021e 27       		.uleb128 0x27
 4918 021f 19       		.uleb128 0x19
 4919 0220 49       		.uleb128 0x49
 4920 0221 13       		.uleb128 0x13
 4921 0222 11       		.uleb128 0x11
 4922 0223 01       		.uleb128 0x1
 4923 0224 12       		.uleb128 0x12
 4924 0225 06       		.uleb128 0x6
 4925 0226 40       		.uleb128 0x40
 4926 0227 18       		.uleb128 0x18
 4927 0228 9742     		.uleb128 0x2117
 4928 022a 19       		.uleb128 0x19
 4929 022b 01       		.uleb128 0x1
 4930 022c 13       		.uleb128 0x13
 4931 022d 00       		.byte	0
 4932 022e 00       		.byte	0
 4933 022f 27       		.uleb128 0x27
 4934 0230 2E       		.uleb128 0x2e
 4935 0231 00       		.byte	0
 4936 0232 3F       		.uleb128 0x3f
 4937 0233 19       		.uleb128 0x19
 4938 0234 3C       		.uleb128 0x3c
 4939 0235 19       		.uleb128 0x19
 4940 0236 6E       		.uleb128 0x6e
 4941 0237 0E       		.uleb128 0xe
 4942 0238 03       		.uleb128 0x3
 4943 0239 0E       		.uleb128 0xe
 4944 023a 3A       		.uleb128 0x3a
 4945 023b 0B       		.uleb128 0xb
 4946 023c 3B       		.uleb128 0x3b
 4947 023d 05       		.uleb128 0x5
 4948 023e 00       		.byte	0
 4949 023f 00       		.byte	0
 4950 0240 28       		.uleb128 0x28
 4951 0241 2E       		.uleb128 0x2e
ARM GAS  C:\Users\eduar\AppData\Local\Temp\cctEoJXe.s 			page 116


 4952 0242 00       		.byte	0
 4953 0243 3F       		.uleb128 0x3f
 4954 0244 19       		.uleb128 0x19
 4955 0245 3C       		.uleb128 0x3c
 4956 0246 19       		.uleb128 0x19
 4957 0247 6E       		.uleb128 0x6e
 4958 0248 0E       		.uleb128 0xe
 4959 0249 03       		.uleb128 0x3
 4960 024a 0E       		.uleb128 0xe
 4961 024b 00       		.byte	0
 4962 024c 00       		.byte	0
 4963 024d 00       		.byte	0
 4964              		.section	.debug_loc,"",%progbits
 4965              	.Ldebug_loc0:
 4966              	.LLST0:
 4967 0000 02000000 		.4byte	.LVL1
 4968 0004 0C000000 		.4byte	.LVL4
 4969 0008 0200     		.2byte	0x2
 4970 000a 30       		.byte	0x30
 4971 000b 9F       		.byte	0x9f
 4972 000c 0E000000 		.4byte	.LVL5
 4973 0010 1C000000 		.4byte	.LVL8
 4974 0014 0100     		.2byte	0x1
 4975 0016 53       		.byte	0x53
 4976 0017 00000000 		.4byte	0
 4977 001b 00000000 		.4byte	0
 4978              	.LLST1:
 4979 001f 02000000 		.4byte	.LVL1
 4980 0023 0C000000 		.4byte	.LVL4
 4981 0027 0200     		.2byte	0x2
 4982 0029 30       		.byte	0x30
 4983 002a 9F       		.byte	0x9f
 4984 002b 0C000000 		.4byte	.LVL4
 4985 002f 16000000 		.4byte	.LVL6
 4986 0033 0100     		.2byte	0x1
 4987 0035 55       		.byte	0x55
 4988 0036 16000000 		.4byte	.LVL6
 4989 003a 1A000000 		.4byte	.LVL7
 4990 003e 0100     		.2byte	0x1
 4991 0040 53       		.byte	0x53
 4992 0041 1A000000 		.4byte	.LVL7
 4993 0045 2E000000 		.4byte	.LVL12
 4994 0049 0100     		.2byte	0x1
 4995 004b 55       		.byte	0x55
 4996 004c 00000000 		.4byte	0
 4997 0050 00000000 		.4byte	0
 4998              	.LLST2:
 4999 0054 06000000 		.4byte	.LVL3
 5000 0058 0C000000 		.4byte	.LVL4
 5001 005c 0200     		.2byte	0x2
 5002 005e 30       		.byte	0x30
 5003 005f 9F       		.byte	0x9f
 5004 0060 0C000000 		.4byte	.LVL4
 5005 0064 2E000000 		.4byte	.LVL11
 5006 0068 0100     		.2byte	0x1
 5007 006a 54       		.byte	0x54
 5008 006b 00000000 		.4byte	0
ARM GAS  C:\Users\eduar\AppData\Local\Temp\cctEoJXe.s 			page 117


 5009 006f 00000000 		.4byte	0
 5010              	.LLST3:
 5011 0073 00000000 		.4byte	.LVL13
 5012 0077 1E000000 		.4byte	.LVL17
 5013 007b 0100     		.2byte	0x1
 5014 007d 50       		.byte	0x50
 5015 007e 1E000000 		.4byte	.LVL17
 5016 0082 20000000 		.4byte	.LFE51
 5017 0086 0400     		.2byte	0x4
 5018 0088 F3       		.byte	0xf3
 5019 0089 01       		.uleb128 0x1
 5020 008a 50       		.byte	0x50
 5021 008b 9F       		.byte	0x9f
 5022 008c 00000000 		.4byte	0
 5023 0090 00000000 		.4byte	0
 5024              	.LLST4:
 5025 0094 00000000 		.4byte	.LVL18
 5026 0098 30000000 		.4byte	.LVL19
 5027 009c 0100     		.2byte	0x1
 5028 009e 50       		.byte	0x50
 5029 009f 30000000 		.4byte	.LVL19
 5030 00a3 52000000 		.4byte	.LVL22
 5031 00a7 0400     		.2byte	0x4
 5032 00a9 F3       		.byte	0xf3
 5033 00aa 01       		.uleb128 0x1
 5034 00ab 50       		.byte	0x50
 5035 00ac 9F       		.byte	0x9f
 5036 00ad 52000000 		.4byte	.LVL22
 5037 00b1 56000000 		.4byte	.LVL24
 5038 00b5 0100     		.2byte	0x1
 5039 00b7 50       		.byte	0x50
 5040 00b8 56000000 		.4byte	.LVL24
 5041 00bc 5C000000 		.4byte	.LFE52
 5042 00c0 0400     		.2byte	0x4
 5043 00c2 F3       		.byte	0xf3
 5044 00c3 01       		.uleb128 0x1
 5045 00c4 50       		.byte	0x50
 5046 00c5 9F       		.byte	0x9f
 5047 00c6 00000000 		.4byte	0
 5048 00ca 00000000 		.4byte	0
 5049              	.LLST5:
 5050 00ce 00000000 		.4byte	.LVL18
 5051 00d2 32000000 		.4byte	.LVL20
 5052 00d6 0100     		.2byte	0x1
 5053 00d8 51       		.byte	0x51
 5054 00d9 32000000 		.4byte	.LVL20
 5055 00dd 52000000 		.4byte	.LVL22
 5056 00e1 0400     		.2byte	0x4
 5057 00e3 F3       		.byte	0xf3
 5058 00e4 01       		.uleb128 0x1
 5059 00e5 51       		.byte	0x51
 5060 00e6 9F       		.byte	0x9f
 5061 00e7 52000000 		.4byte	.LVL22
 5062 00eb 56000000 		.4byte	.LVL24
 5063 00ef 0100     		.2byte	0x1
 5064 00f1 51       		.byte	0x51
 5065 00f2 56000000 		.4byte	.LVL24
ARM GAS  C:\Users\eduar\AppData\Local\Temp\cctEoJXe.s 			page 118


 5066 00f6 5C000000 		.4byte	.LFE52
 5067 00fa 0400     		.2byte	0x4
 5068 00fc F3       		.byte	0xf3
 5069 00fd 01       		.uleb128 0x1
 5070 00fe 51       		.byte	0x51
 5071 00ff 9F       		.byte	0x9f
 5072 0100 00000000 		.4byte	0
 5073 0104 00000000 		.4byte	0
 5074              	.LLST6:
 5075 0108 00000000 		.4byte	.LVL18
 5076 010c 36000000 		.4byte	.LVL21
 5077 0110 0100     		.2byte	0x1
 5078 0112 53       		.byte	0x53
 5079 0113 36000000 		.4byte	.LVL21
 5080 0117 52000000 		.4byte	.LVL22
 5081 011b 0400     		.2byte	0x4
 5082 011d F3       		.byte	0xf3
 5083 011e 01       		.uleb128 0x1
 5084 011f 53       		.byte	0x53
 5085 0120 9F       		.byte	0x9f
 5086 0121 52000000 		.4byte	.LVL22
 5087 0125 54000000 		.4byte	.LVL23
 5088 0129 0100     		.2byte	0x1
 5089 012b 53       		.byte	0x53
 5090 012c 54000000 		.4byte	.LVL23
 5091 0130 5C000000 		.4byte	.LFE52
 5092 0134 0400     		.2byte	0x4
 5093 0136 F3       		.byte	0xf3
 5094 0137 01       		.uleb128 0x1
 5095 0138 53       		.byte	0x53
 5096 0139 9F       		.byte	0x9f
 5097 013a 00000000 		.4byte	0
 5098 013e 00000000 		.4byte	0
 5099              	.LLST7:
 5100 0142 00000000 		.4byte	.LVL25
 5101 0146 08000000 		.4byte	.LVL27
 5102 014a 0100     		.2byte	0x1
 5103 014c 50       		.byte	0x50
 5104 014d 08000000 		.4byte	.LVL27
 5105 0151 38000000 		.4byte	.LVL41
 5106 0155 0100     		.2byte	0x1
 5107 0157 55       		.byte	0x55
 5108 0158 38000000 		.4byte	.LVL41
 5109 015c 3A000000 		.4byte	.LFE53
 5110 0160 0400     		.2byte	0x4
 5111 0162 F3       		.byte	0xf3
 5112 0163 01       		.uleb128 0x1
 5113 0164 50       		.byte	0x50
 5114 0165 9F       		.byte	0x9f
 5115 0166 00000000 		.4byte	0
 5116 016a 00000000 		.4byte	0
 5117              	.LLST8:
 5118 016e 04000000 		.4byte	.LVL26
 5119 0172 0A000000 		.4byte	.LVL28
 5120 0176 0300     		.2byte	0x3
 5121 0178 09       		.byte	0x9
 5122 0179 FF       		.byte	0xff
ARM GAS  C:\Users\eduar\AppData\Local\Temp\cctEoJXe.s 			page 119


 5123 017a 9F       		.byte	0x9f
 5124 017b 0A000000 		.4byte	.LVL28
 5125 017f 1A000000 		.4byte	.LVL31
 5126 0183 0100     		.2byte	0x1
 5127 0185 50       		.byte	0x50
 5128 0186 1A000000 		.4byte	.LVL31
 5129 018a 1C000000 		.4byte	.LVL32
 5130 018e 0100     		.2byte	0x1
 5131 0190 53       		.byte	0x53
 5132 0191 24000000 		.4byte	.LVL33
 5133 0195 26000000 		.4byte	.LVL34
 5134 0199 0100     		.2byte	0x1
 5135 019b 50       		.byte	0x50
 5136 019c 26000000 		.4byte	.LVL34
 5137 01a0 28000000 		.4byte	.LVL35
 5138 01a4 0100     		.2byte	0x1
 5139 01a6 53       		.byte	0x53
 5140 01a7 28000000 		.4byte	.LVL35
 5141 01ab 3A000000 		.4byte	.LFE53
 5142 01af 0100     		.2byte	0x1
 5143 01b1 50       		.byte	0x50
 5144 01b2 00000000 		.4byte	0
 5145 01b6 00000000 		.4byte	0
 5146              	.LLST9:
 5147 01ba 0E000000 		.4byte	.LVL29
 5148 01be 12000000 		.4byte	.LVL30
 5149 01c2 0200     		.2byte	0x2
 5150 01c4 30       		.byte	0x30
 5151 01c5 9F       		.byte	0x9f
 5152 01c6 12000000 		.4byte	.LVL30
 5153 01ca 2A000000 		.4byte	.LVL36
 5154 01ce 0100     		.2byte	0x1
 5155 01d0 52       		.byte	0x52
 5156 01d1 2C000000 		.4byte	.LVL37
 5157 01d5 34000000 		.4byte	.LVL39
 5158 01d9 0100     		.2byte	0x1
 5159 01db 52       		.byte	0x52
 5160 01dc 00000000 		.4byte	0
 5161 01e0 00000000 		.4byte	0
 5162              	.LLST10:
 5163 01e4 04000000 		.4byte	.LVL26
 5164 01e8 0A000000 		.4byte	.LVL28
 5165 01ec 0200     		.2byte	0x2
 5166 01ee 30       		.byte	0x30
 5167 01ef 9F       		.byte	0x9f
 5168 01f0 0A000000 		.4byte	.LVL28
 5169 01f4 32000000 		.4byte	.LVL38
 5170 01f8 0100     		.2byte	0x1
 5171 01fa 54       		.byte	0x54
 5172 01fb 34000000 		.4byte	.LVL39
 5173 01ff 38000000 		.4byte	.LVL40
 5174 0203 0100     		.2byte	0x1
 5175 0205 54       		.byte	0x54
 5176 0206 00000000 		.4byte	0
 5177 020a 00000000 		.4byte	0
 5178              	.LLST11:
 5179 020e 00000000 		.4byte	.LVL42
ARM GAS  C:\Users\eduar\AppData\Local\Temp\cctEoJXe.s 			page 120


 5180 0212 3C000000 		.4byte	.LVL46
 5181 0216 0100     		.2byte	0x1
 5182 0218 50       		.byte	0x50
 5183 0219 3C000000 		.4byte	.LVL46
 5184 021d 3E000000 		.4byte	.LVL47
 5185 0221 0400     		.2byte	0x4
 5186 0223 F3       		.byte	0xf3
 5187 0224 01       		.uleb128 0x1
 5188 0225 50       		.byte	0x50
 5189 0226 9F       		.byte	0x9f
 5190 0227 3E000000 		.4byte	.LVL47
 5191 022b 40000000 		.4byte	.LVL48
 5192 022f 0100     		.2byte	0x1
 5193 0231 50       		.byte	0x50
 5194 0232 40000000 		.4byte	.LVL48
 5195 0236 42000000 		.4byte	.LVL49
 5196 023a 0400     		.2byte	0x4
 5197 023c F3       		.byte	0xf3
 5198 023d 01       		.uleb128 0x1
 5199 023e 50       		.byte	0x50
 5200 023f 9F       		.byte	0x9f
 5201 0240 42000000 		.4byte	.LVL49
 5202 0244 44000000 		.4byte	.LVL50
 5203 0248 0100     		.2byte	0x1
 5204 024a 50       		.byte	0x50
 5205 024b 44000000 		.4byte	.LVL50
 5206 024f 46000000 		.4byte	.LVL51
 5207 0253 0400     		.2byte	0x4
 5208 0255 F3       		.byte	0xf3
 5209 0256 01       		.uleb128 0x1
 5210 0257 50       		.byte	0x50
 5211 0258 9F       		.byte	0x9f
 5212 0259 46000000 		.4byte	.LVL51
 5213 025d 48000000 		.4byte	.LVL52
 5214 0261 0100     		.2byte	0x1
 5215 0263 50       		.byte	0x50
 5216 0264 48000000 		.4byte	.LVL52
 5217 0268 5C000000 		.4byte	.LFE54
 5218 026c 0400     		.2byte	0x4
 5219 026e F3       		.byte	0xf3
 5220 026f 01       		.uleb128 0x1
 5221 0270 50       		.byte	0x50
 5222 0271 9F       		.byte	0x9f
 5223 0272 00000000 		.4byte	0
 5224 0276 00000000 		.4byte	0
 5225              	.LLST12:
 5226 027a 02000000 		.4byte	.LVL43
 5227 027e 48000000 		.4byte	.LVL52
 5228 0282 0600     		.2byte	0x6
 5229 0284 0C       		.byte	0xc
 5230 0285 03006E00 		.4byte	0x6e0003
 5231 0289 9F       		.byte	0x9f
 5232 028a 48000000 		.4byte	.LVL52
 5233 028e 5C000000 		.4byte	.LFE54
 5234 0292 0100     		.2byte	0x1
 5235 0294 50       		.byte	0x50
 5236 0295 00000000 		.4byte	0
ARM GAS  C:\Users\eduar\AppData\Local\Temp\cctEoJXe.s 			page 121


 5237 0299 00000000 		.4byte	0
 5238              	.LLST13:
 5239 029d 04000000 		.4byte	.LVL44
 5240 02a1 48000000 		.4byte	.LVL53
 5241 02a5 0100     		.2byte	0x1
 5242 02a7 54       		.byte	0x54
 5243 02a8 48000000 		.4byte	.LVL53
 5244 02ac 5C000000 		.4byte	.LFE54
 5245 02b0 0500     		.2byte	0x5
 5246 02b2 F3       		.byte	0xf3
 5247 02b3 01       		.uleb128 0x1
 5248 02b4 50       		.byte	0x50
 5249 02b5 23       		.byte	0x23
 5250 02b6 0C       		.uleb128 0xc
 5251 02b7 00000000 		.4byte	0
 5252 02bb 00000000 		.4byte	0
 5253              	.LLST14:
 5254 02bf 00000000 		.4byte	.LVL54
 5255 02c3 32000000 		.4byte	.LVL57
 5256 02c7 0100     		.2byte	0x1
 5257 02c9 50       		.byte	0x50
 5258 02ca 32000000 		.4byte	.LVL57
 5259 02ce 68000000 		.4byte	.LVL62
 5260 02d2 0400     		.2byte	0x4
 5261 02d4 F3       		.byte	0xf3
 5262 02d5 01       		.uleb128 0x1
 5263 02d6 50       		.byte	0x50
 5264 02d7 9F       		.byte	0x9f
 5265 02d8 68000000 		.4byte	.LVL62
 5266 02dc A6000000 		.4byte	.LVL65
 5267 02e0 0100     		.2byte	0x1
 5268 02e2 50       		.byte	0x50
 5269 02e3 A6000000 		.4byte	.LVL65
 5270 02e7 A8000000 		.4byte	.LVL66
 5271 02eb 0400     		.2byte	0x4
 5272 02ed F3       		.byte	0xf3
 5273 02ee 01       		.uleb128 0x1
 5274 02ef 50       		.byte	0x50
 5275 02f0 9F       		.byte	0x9f
 5276 02f1 A8000000 		.4byte	.LVL66
 5277 02f5 AA000000 		.4byte	.LVL67
 5278 02f9 0100     		.2byte	0x1
 5279 02fb 50       		.byte	0x50
 5280 02fc AA000000 		.4byte	.LVL67
 5281 0300 AC000000 		.4byte	.LFE58
 5282 0304 0400     		.2byte	0x4
 5283 0306 F3       		.byte	0xf3
 5284 0307 01       		.uleb128 0x1
 5285 0308 50       		.byte	0x50
 5286 0309 9F       		.byte	0x9f
 5287 030a 00000000 		.4byte	0
 5288 030e 00000000 		.4byte	0
 5289              	.LLST15:
 5290 0312 00000000 		.4byte	.LVL54
 5291 0316 28000000 		.4byte	.LVL56
 5292 031a 0100     		.2byte	0x1
 5293 031c 52       		.byte	0x52
ARM GAS  C:\Users\eduar\AppData\Local\Temp\cctEoJXe.s 			page 122


 5294 031d 28000000 		.4byte	.LVL56
 5295 0321 68000000 		.4byte	.LVL62
 5296 0325 0400     		.2byte	0x4
 5297 0327 F3       		.byte	0xf3
 5298 0328 01       		.uleb128 0x1
 5299 0329 52       		.byte	0x52
 5300 032a 9F       		.byte	0x9f
 5301 032b 68000000 		.4byte	.LVL62
 5302 032f AA000000 		.4byte	.LVL67
 5303 0333 0100     		.2byte	0x1
 5304 0335 52       		.byte	0x52
 5305 0336 AA000000 		.4byte	.LVL67
 5306 033a AC000000 		.4byte	.LFE58
 5307 033e 0400     		.2byte	0x4
 5308 0340 F3       		.byte	0xf3
 5309 0341 01       		.uleb128 0x1
 5310 0342 52       		.byte	0x52
 5311 0343 9F       		.byte	0x9f
 5312 0344 00000000 		.4byte	0
 5313 0348 00000000 		.4byte	0
 5314              	.LLST16:
 5315 034c 00000000 		.4byte	.LVL54
 5316 0350 3C000000 		.4byte	.LVL58
 5317 0354 0100     		.2byte	0x1
 5318 0356 53       		.byte	0x53
 5319 0357 3C000000 		.4byte	.LVL58
 5320 035b 3E000000 		.4byte	.LVL59
 5321 035f 0300     		.2byte	0x3
 5322 0361 73       		.byte	0x73
 5323 0362 7F       		.sleb128 -1
 5324 0363 9F       		.byte	0x9f
 5325 0364 3E000000 		.4byte	.LVL59
 5326 0368 48000000 		.4byte	.LVL60
 5327 036c 0400     		.2byte	0x4
 5328 036e F3       		.byte	0xf3
 5329 036f 01       		.uleb128 0x1
 5330 0370 53       		.byte	0x53
 5331 0371 9F       		.byte	0x9f
 5332 0372 48000000 		.4byte	.LVL60
 5333 0376 4A000000 		.4byte	.LVL61
 5334 037a 0100     		.2byte	0x1
 5335 037c 53       		.byte	0x53
 5336 037d 4A000000 		.4byte	.LVL61
 5337 0381 68000000 		.4byte	.LVL62
 5338 0385 0400     		.2byte	0x4
 5339 0387 F3       		.byte	0xf3
 5340 0388 01       		.uleb128 0x1
 5341 0389 53       		.byte	0x53
 5342 038a 9F       		.byte	0x9f
 5343 038b 68000000 		.4byte	.LVL62
 5344 038f 72000000 		.4byte	.LVL63
 5345 0393 0100     		.2byte	0x1
 5346 0395 53       		.byte	0x53
 5347 0396 72000000 		.4byte	.LVL63
 5348 039a 74000000 		.4byte	.LVL64
 5349 039e 0300     		.2byte	0x3
 5350 03a0 73       		.byte	0x73
ARM GAS  C:\Users\eduar\AppData\Local\Temp\cctEoJXe.s 			page 123


 5351 03a1 7F       		.sleb128 -1
 5352 03a2 9F       		.byte	0x9f
 5353 03a3 74000000 		.4byte	.LVL64
 5354 03a7 AC000000 		.4byte	.LFE58
 5355 03ab 0400     		.2byte	0x4
 5356 03ad F3       		.byte	0xf3
 5357 03ae 01       		.uleb128 0x1
 5358 03af 53       		.byte	0x53
 5359 03b0 9F       		.byte	0x9f
 5360 03b1 00000000 		.4byte	0
 5361 03b5 00000000 		.4byte	0
 5362              	.LLST17:
 5363 03b9 04000000 		.4byte	.LVL55
 5364 03bd AA000000 		.4byte	.LVL67
 5365 03c1 0200     		.2byte	0x2
 5366 03c3 30       		.byte	0x30
 5367 03c4 9F       		.byte	0x9f
 5368 03c5 AA000000 		.4byte	.LVL67
 5369 03c9 AC000000 		.4byte	.LFE58
 5370 03cd 0100     		.2byte	0x1
 5371 03cf 50       		.byte	0x50
 5372 03d0 00000000 		.4byte	0
 5373 03d4 00000000 		.4byte	0
 5374              	.LLST18:
 5375 03d8 00000000 		.4byte	.LVL68
 5376 03dc 0B000000 		.4byte	.LVL70-1
 5377 03e0 0100     		.2byte	0x1
 5378 03e2 50       		.byte	0x50
 5379 03e3 0B000000 		.4byte	.LVL70-1
 5380 03e7 14000000 		.4byte	.LVL71
 5381 03eb 0400     		.2byte	0x4
 5382 03ed F3       		.byte	0xf3
 5383 03ee 01       		.uleb128 0x1
 5384 03ef 50       		.byte	0x50
 5385 03f0 9F       		.byte	0x9f
 5386 03f1 14000000 		.4byte	.LVL71
 5387 03f5 17000000 		.4byte	.LVL72-1
 5388 03f9 0100     		.2byte	0x1
 5389 03fb 50       		.byte	0x50
 5390 03fc 17000000 		.4byte	.LVL72-1
 5391 0400 58000000 		.4byte	.LFE55
 5392 0404 0400     		.2byte	0x4
 5393 0406 F3       		.byte	0xf3
 5394 0407 01       		.uleb128 0x1
 5395 0408 50       		.byte	0x50
 5396 0409 9F       		.byte	0x9f
 5397 040a 00000000 		.4byte	0
 5398 040e 00000000 		.4byte	0
 5399              	.LLST19:
 5400 0412 00000000 		.4byte	.LVL68
 5401 0416 0B000000 		.4byte	.LVL70-1
 5402 041a 0100     		.2byte	0x1
 5403 041c 51       		.byte	0x51
 5404 041d 0B000000 		.4byte	.LVL70-1
 5405 0421 14000000 		.4byte	.LVL71
 5406 0425 0400     		.2byte	0x4
 5407 0427 F3       		.byte	0xf3
ARM GAS  C:\Users\eduar\AppData\Local\Temp\cctEoJXe.s 			page 124


 5408 0428 01       		.uleb128 0x1
 5409 0429 51       		.byte	0x51
 5410 042a 9F       		.byte	0x9f
 5411 042b 14000000 		.4byte	.LVL71
 5412 042f 17000000 		.4byte	.LVL72-1
 5413 0433 0100     		.2byte	0x1
 5414 0435 51       		.byte	0x51
 5415 0436 17000000 		.4byte	.LVL72-1
 5416 043a 58000000 		.4byte	.LFE55
 5417 043e 0400     		.2byte	0x4
 5418 0440 F3       		.byte	0xf3
 5419 0441 01       		.uleb128 0x1
 5420 0442 51       		.byte	0x51
 5421 0443 9F       		.byte	0x9f
 5422 0444 00000000 		.4byte	0
 5423 0448 00000000 		.4byte	0
 5424              	.LLST20:
 5425 044c 00000000 		.4byte	.LVL68
 5426 0450 0B000000 		.4byte	.LVL70-1
 5427 0454 0100     		.2byte	0x1
 5428 0456 52       		.byte	0x52
 5429 0457 0B000000 		.4byte	.LVL70-1
 5430 045b 14000000 		.4byte	.LVL71
 5431 045f 0400     		.2byte	0x4
 5432 0461 F3       		.byte	0xf3
 5433 0462 01       		.uleb128 0x1
 5434 0463 52       		.byte	0x52
 5435 0464 9F       		.byte	0x9f
 5436 0465 14000000 		.4byte	.LVL71
 5437 0469 17000000 		.4byte	.LVL72-1
 5438 046d 0100     		.2byte	0x1
 5439 046f 52       		.byte	0x52
 5440 0470 17000000 		.4byte	.LVL72-1
 5441 0474 58000000 		.4byte	.LFE55
 5442 0478 0400     		.2byte	0x4
 5443 047a F3       		.byte	0xf3
 5444 047b 01       		.uleb128 0x1
 5445 047c 52       		.byte	0x52
 5446 047d 9F       		.byte	0x9f
 5447 047e 00000000 		.4byte	0
 5448 0482 00000000 		.4byte	0
 5449              	.LLST21:
 5450 0486 02000000 		.4byte	.LVL69
 5451 048a 48000000 		.4byte	.LVL80
 5452 048e 0600     		.2byte	0x6
 5453 0490 0C       		.byte	0xc
 5454 0491 04006E00 		.4byte	0x6e0004
 5455 0495 9F       		.byte	0x9f
 5456 0496 48000000 		.4byte	.LVL80
 5457 049a 58000000 		.4byte	.LFE55
 5458 049e 0100     		.2byte	0x1
 5459 04a0 50       		.byte	0x50
 5460 04a1 00000000 		.4byte	0
 5461 04a5 00000000 		.4byte	0
 5462              	.LLST22:
 5463 04a9 20000000 		.4byte	.LVL73
 5464 04ad 3E000000 		.4byte	.LVL78
ARM GAS  C:\Users\eduar\AppData\Local\Temp\cctEoJXe.s 			page 125


 5465 04b1 0100     		.2byte	0x1
 5466 04b3 54       		.byte	0x54
 5467 04b4 46000000 		.4byte	.LVL79
 5468 04b8 48000000 		.4byte	.LVL80
 5469 04bc 0100     		.2byte	0x1
 5470 04be 54       		.byte	0x54
 5471 04bf 00000000 		.4byte	0
 5472 04c3 00000000 		.4byte	0
 5473              	.LLST23:
 5474 04c7 2A000000 		.4byte	.LVL75
 5475 04cb 3C000000 		.4byte	.LVL77
 5476 04cf 0100     		.2byte	0x1
 5477 04d1 50       		.byte	0x50
 5478 04d2 46000000 		.4byte	.LVL79
 5479 04d6 48000000 		.4byte	.LVL80
 5480 04da 0100     		.2byte	0x1
 5481 04dc 50       		.byte	0x50
 5482 04dd 00000000 		.4byte	0
 5483 04e1 00000000 		.4byte	0
 5484              	.LLST24:
 5485 04e5 00000000 		.4byte	.LVL81
 5486 04e9 14000000 		.4byte	.LVL83
 5487 04ed 0100     		.2byte	0x1
 5488 04ef 50       		.byte	0x50
 5489 04f0 14000000 		.4byte	.LVL83
 5490 04f4 78000000 		.4byte	.LVL95
 5491 04f8 0100     		.2byte	0x1
 5492 04fa 54       		.byte	0x54
 5493 04fb 78000000 		.4byte	.LVL95
 5494 04ff 84000000 		.4byte	.LFE59
 5495 0503 0400     		.2byte	0x4
 5496 0505 F3       		.byte	0xf3
 5497 0506 01       		.uleb128 0x1
 5498 0507 50       		.byte	0x50
 5499 0508 9F       		.byte	0x9f
 5500 0509 00000000 		.4byte	0
 5501 050d 00000000 		.4byte	0
 5502              	.LLST25:
 5503 0511 0E000000 		.4byte	.LVL82
 5504 0515 14000000 		.4byte	.LVL83
 5505 0519 0200     		.2byte	0x2
 5506 051b 30       		.byte	0x30
 5507 051c 9F       		.byte	0x9f
 5508 051d 14000000 		.4byte	.LVL83
 5509 0521 78000000 		.4byte	.LVL98
 5510 0525 0100     		.2byte	0x1
 5511 0527 57       		.byte	0x57
 5512 0528 00000000 		.4byte	0
 5513 052c 00000000 		.4byte	0
 5514              	.LLST26:
 5515 0530 4E000000 		.4byte	.LVL89
 5516 0534 55000000 		.4byte	.LVL90-1
 5517 0538 0100     		.2byte	0x1
 5518 053a 50       		.byte	0x50
 5519 053b 00000000 		.4byte	0
 5520 053f 00000000 		.4byte	0
 5521              	.LLST27:
ARM GAS  C:\Users\eduar\AppData\Local\Temp\cctEoJXe.s 			page 126


 5522 0543 0E000000 		.4byte	.LVL82
 5523 0547 78000000 		.4byte	.LVL96
 5524 054b 0100     		.2byte	0x1
 5525 054d 55       		.byte	0x55
 5526 054e 00000000 		.4byte	0
 5527 0552 00000000 		.4byte	0
 5528              	.LLST28:
 5529 0556 0E000000 		.4byte	.LVL82
 5530 055a 14000000 		.4byte	.LVL83
 5531 055e 0600     		.2byte	0x6
 5532 0560 0C       		.byte	0xc
 5533 0561 01006E00 		.4byte	0x6e0001
 5534 0565 9F       		.byte	0x9f
 5535 0566 14000000 		.4byte	.LVL83
 5536 056a 16000000 		.4byte	.LVL84
 5537 056e 0100     		.2byte	0x1
 5538 0570 56       		.byte	0x56
 5539 0571 58000000 		.4byte	.LVL91
 5540 0575 60000000 		.4byte	.LVL92
 5541 0579 0100     		.2byte	0x1
 5542 057b 50       		.byte	0x50
 5543 057c 60000000 		.4byte	.LVL92
 5544 0580 78000000 		.4byte	.LVL97
 5545 0584 0100     		.2byte	0x1
 5546 0586 56       		.byte	0x56
 5547 0587 78000000 		.4byte	.LVL97
 5548 058b 84000000 		.4byte	.LFE59
 5549 058f 0100     		.2byte	0x1
 5550 0591 50       		.byte	0x50
 5551 0592 00000000 		.4byte	0
 5552 0596 00000000 		.4byte	0
 5553              	.LLST29:
 5554 059a 00000000 		.4byte	.LVL99
 5555 059e 22000000 		.4byte	.LVL102
 5556 05a2 0100     		.2byte	0x1
 5557 05a4 50       		.byte	0x50
 5558 05a5 22000000 		.4byte	.LVL102
 5559 05a9 8E000000 		.4byte	.LVL117
 5560 05ad 0100     		.2byte	0x1
 5561 05af 56       		.byte	0x56
 5562 05b0 8E000000 		.4byte	.LVL117
 5563 05b4 98000000 		.4byte	.LFE57
 5564 05b8 0400     		.2byte	0x4
 5565 05ba F3       		.byte	0xf3
 5566 05bb 01       		.uleb128 0x1
 5567 05bc 50       		.byte	0x50
 5568 05bd 9F       		.byte	0x9f
 5569 05be 00000000 		.4byte	0
 5570 05c2 00000000 		.4byte	0
 5571              	.LLST30:
 5572 05c6 00000000 		.4byte	.LVL99
 5573 05ca 26000000 		.4byte	.LVL103
 5574 05ce 0100     		.2byte	0x1
 5575 05d0 51       		.byte	0x51
 5576 05d1 26000000 		.4byte	.LVL103
 5577 05d5 98000000 		.4byte	.LFE57
 5578 05d9 0300     		.2byte	0x3
ARM GAS  C:\Users\eduar\AppData\Local\Temp\cctEoJXe.s 			page 127


 5579 05db 91       		.byte	0x91
 5580 05dc DC7B     		.sleb128 -548
 5581 05de 00000000 		.4byte	0
 5582 05e2 00000000 		.4byte	0
 5583              	.LLST31:
 5584 05e6 00000000 		.4byte	.LVL99
 5585 05ea 2B000000 		.4byte	.LVL104-1
 5586 05ee 0100     		.2byte	0x1
 5587 05f0 52       		.byte	0x52
 5588 05f1 2B000000 		.4byte	.LVL104-1
 5589 05f5 98000000 		.4byte	.LFE57
 5590 05f9 0300     		.2byte	0x3
 5591 05fb 91       		.byte	0x91
 5592 05fc E07B     		.sleb128 -544
 5593 05fe 00000000 		.4byte	0
 5594 0602 00000000 		.4byte	0
 5595              	.LLST32:
 5596 0606 00000000 		.4byte	.LVL99
 5597 060a 12000000 		.4byte	.LVL100
 5598 060e 0100     		.2byte	0x1
 5599 0610 53       		.byte	0x53
 5600 0611 12000000 		.4byte	.LVL100
 5601 0615 98000000 		.4byte	.LFE57
 5602 0619 0300     		.2byte	0x3
 5603 061b 91       		.byte	0x91
 5604 061c E47B     		.sleb128 -540
 5605 061e 00000000 		.4byte	0
 5606 0622 00000000 		.4byte	0
 5607              	.LLST33:
 5608 0626 3C000000 		.4byte	.LVL105
 5609 062a 40000000 		.4byte	.LVL107
 5610 062e 0200     		.2byte	0x2
 5611 0630 30       		.byte	0x30
 5612 0631 9F       		.byte	0x9f
 5613 0632 6E000000 		.4byte	.LVL111
 5614 0636 7E000000 		.4byte	.LVL112
 5615 063a 0100     		.2byte	0x1
 5616 063c 50       		.byte	0x50
 5617 063d 7E000000 		.4byte	.LVL112
 5618 0641 84000000 		.4byte	.LVL114
 5619 0645 0100     		.2byte	0x1
 5620 0647 54       		.byte	0x54
 5621 0648 86000000 		.4byte	.LVL115
 5622 064c 8E000000 		.4byte	.LVL116
 5623 0650 0100     		.2byte	0x1
 5624 0652 54       		.byte	0x54
 5625 0653 8E000000 		.4byte	.LVL116
 5626 0657 98000000 		.4byte	.LFE57
 5627 065b 0100     		.2byte	0x1
 5628 065d 50       		.byte	0x50
 5629 065e 00000000 		.4byte	0
 5630 0662 00000000 		.4byte	0
 5631              	.LLST34:
 5632 0666 1A000000 		.4byte	.LVL101
 5633 066a 3E000000 		.4byte	.LVL106
 5634 066e 0100     		.2byte	0x1
 5635 0670 54       		.byte	0x54
ARM GAS  C:\Users\eduar\AppData\Local\Temp\cctEoJXe.s 			page 128


 5636 0671 40000000 		.4byte	.LVL107
 5637 0675 6E000000 		.4byte	.LVL111
 5638 0679 0100     		.2byte	0x1
 5639 067b 54       		.byte	0x54
 5640 067c 84000000 		.4byte	.LVL114
 5641 0680 86000000 		.4byte	.LVL115
 5642 0684 0100     		.2byte	0x1
 5643 0686 54       		.byte	0x54
 5644 0687 00000000 		.4byte	0
 5645 068b 00000000 		.4byte	0
 5646              	.LLST35:
 5647 068f 00000000 		.4byte	.LVL118
 5648 0693 1A000000 		.4byte	.LVL120
 5649 0697 0100     		.2byte	0x1
 5650 0699 50       		.byte	0x50
 5651 069a 1A000000 		.4byte	.LVL120
 5652 069e 8C000000 		.4byte	.LFE56
 5653 06a2 0400     		.2byte	0x4
 5654 06a4 F3       		.byte	0xf3
 5655 06a5 01       		.uleb128 0x1
 5656 06a6 50       		.byte	0x50
 5657 06a7 9F       		.byte	0x9f
 5658 06a8 00000000 		.4byte	0
 5659 06ac 00000000 		.4byte	0
 5660              	.LLST36:
 5661 06b0 00000000 		.4byte	.LVL118
 5662 06b4 1A000000 		.4byte	.LVL120
 5663 06b8 0100     		.2byte	0x1
 5664 06ba 51       		.byte	0x51
 5665 06bb 1A000000 		.4byte	.LVL120
 5666 06bf 8C000000 		.4byte	.LFE56
 5667 06c3 0400     		.2byte	0x4
 5668 06c5 F3       		.byte	0xf3
 5669 06c6 01       		.uleb128 0x1
 5670 06c7 51       		.byte	0x51
 5671 06c8 9F       		.byte	0x9f
 5672 06c9 00000000 		.4byte	0
 5673 06cd 00000000 		.4byte	0
 5674              	.LLST37:
 5675 06d1 00000000 		.4byte	.LVL118
 5676 06d5 1A000000 		.4byte	.LVL120
 5677 06d9 0100     		.2byte	0x1
 5678 06db 52       		.byte	0x52
 5679 06dc 1A000000 		.4byte	.LVL120
 5680 06e0 78000000 		.4byte	.LVL135
 5681 06e4 0100     		.2byte	0x1
 5682 06e6 56       		.byte	0x56
 5683 06e7 78000000 		.4byte	.LVL135
 5684 06eb 8C000000 		.4byte	.LFE56
 5685 06ef 0400     		.2byte	0x4
 5686 06f1 F3       		.byte	0xf3
 5687 06f2 01       		.uleb128 0x1
 5688 06f3 52       		.byte	0x52
 5689 06f4 9F       		.byte	0x9f
 5690 06f5 00000000 		.4byte	0
 5691 06f9 00000000 		.4byte	0
 5692              	.LLST38:
ARM GAS  C:\Users\eduar\AppData\Local\Temp\cctEoJXe.s 			page 129


 5693 06fd 0A000000 		.4byte	.LVL119
 5694 0701 1A000000 		.4byte	.LVL120
 5695 0705 0100     		.2byte	0x1
 5696 0707 50       		.byte	0x50
 5697 0708 1A000000 		.4byte	.LVL120
 5698 070c 6A000000 		.4byte	.LVL131
 5699 0710 0100     		.2byte	0x1
 5700 0712 55       		.byte	0x55
 5701 0713 70000000 		.4byte	.LVL132
 5702 0717 78000000 		.4byte	.LVL134
 5703 071b 0100     		.2byte	0x1
 5704 071d 55       		.byte	0x55
 5705 071e 00000000 		.4byte	0
 5706 0722 00000000 		.4byte	0
 5707              	.LLST39:
 5708 0726 0A000000 		.4byte	.LVL119
 5709 072a 1A000000 		.4byte	.LVL120
 5710 072e 0600     		.2byte	0x6
 5711 0730 0C       		.byte	0xc
 5712 0731 04006E00 		.4byte	0x6e0004
 5713 0735 9F       		.byte	0x9f
 5714 0736 1A000000 		.4byte	.LVL120
 5715 073a 5A000000 		.4byte	.LVL128
 5716 073e 0100     		.2byte	0x1
 5717 0740 58       		.byte	0x58
 5718 0741 5C000000 		.4byte	.LVL129
 5719 0745 78000000 		.4byte	.LVL137
 5720 0749 0100     		.2byte	0x1
 5721 074b 58       		.byte	0x58
 5722 074c 78000000 		.4byte	.LVL137
 5723 0750 8C000000 		.4byte	.LFE56
 5724 0754 0100     		.2byte	0x1
 5725 0756 50       		.byte	0x50
 5726 0757 00000000 		.4byte	0
 5727 075b 00000000 		.4byte	0
 5728              	.LLST40:
 5729 075f 0A000000 		.4byte	.LVL119
 5730 0763 1A000000 		.4byte	.LVL120
 5731 0767 0200     		.2byte	0x2
 5732 0769 31       		.byte	0x31
 5733 076a 9F       		.byte	0x9f
 5734 076b 1A000000 		.4byte	.LVL120
 5735 076f 78000000 		.4byte	.LVL136
 5736 0773 0100     		.2byte	0x1
 5737 0775 57       		.byte	0x57
 5738 0776 00000000 		.4byte	0
 5739 077a 00000000 		.4byte	0
 5740              	.LLST41:
 5741 077e 3A000000 		.4byte	.LVL123
 5742 0782 56000000 		.4byte	.LVL127
 5743 0786 0100     		.2byte	0x1
 5744 0788 54       		.byte	0x54
 5745 0789 5C000000 		.4byte	.LVL129
 5746 078d 60000000 		.4byte	.LVL130
 5747 0791 0100     		.2byte	0x1
 5748 0793 54       		.byte	0x54
 5749 0794 00000000 		.4byte	0
ARM GAS  C:\Users\eduar\AppData\Local\Temp\cctEoJXe.s 			page 130


 5750 0798 00000000 		.4byte	0
 5751              	.LLST42:
 5752 079c 44000000 		.4byte	.LVL125
 5753 07a0 56000000 		.4byte	.LVL127
 5754 07a4 0100     		.2byte	0x1
 5755 07a6 50       		.byte	0x50
 5756 07a7 5C000000 		.4byte	.LVL129
 5757 07ab 60000000 		.4byte	.LVL130
 5758 07af 0100     		.2byte	0x1
 5759 07b1 50       		.byte	0x50
 5760 07b2 00000000 		.4byte	0
 5761 07b6 00000000 		.4byte	0
 5762              	.LLST43:
 5763 07ba 00000000 		.4byte	.LVL138
 5764 07be 21000000 		.4byte	.LVL140-1
 5765 07c2 0100     		.2byte	0x1
 5766 07c4 50       		.byte	0x50
 5767 07c5 21000000 		.4byte	.LVL140-1
 5768 07c9 56000000 		.4byte	.LVL142
 5769 07cd 0100     		.2byte	0x1
 5770 07cf 54       		.byte	0x54
 5771 07d0 56000000 		.4byte	.LVL142
 5772 07d4 80000000 		.4byte	.LVL149
 5773 07d8 0400     		.2byte	0x4
 5774 07da F3       		.byte	0xf3
 5775 07db 01       		.uleb128 0x1
 5776 07dc 50       		.byte	0x50
 5777 07dd 9F       		.byte	0x9f
 5778 07de 80000000 		.4byte	.LVL149
 5779 07e2 92000000 		.4byte	.LVL150
 5780 07e6 0100     		.2byte	0x1
 5781 07e8 50       		.byte	0x50
 5782 07e9 92000000 		.4byte	.LVL150
 5783 07ed 9C000000 		.4byte	.LFE45
 5784 07f1 0400     		.2byte	0x4
 5785 07f3 F3       		.byte	0xf3
 5786 07f4 01       		.uleb128 0x1
 5787 07f5 50       		.byte	0x50
 5788 07f6 9F       		.byte	0x9f
 5789 07f7 00000000 		.4byte	0
 5790 07fb 00000000 		.4byte	0
 5791              	.LLST44:
 5792 07ff 00000000 		.4byte	.LVL138
 5793 0803 21000000 		.4byte	.LVL140-1
 5794 0807 0100     		.2byte	0x1
 5795 0809 51       		.byte	0x51
 5796 080a 21000000 		.4byte	.LVL140-1
 5797 080e 80000000 		.4byte	.LVL149
 5798 0812 0100     		.2byte	0x1
 5799 0814 55       		.byte	0x55
 5800 0815 80000000 		.4byte	.LVL149
 5801 0819 92000000 		.4byte	.LVL150
 5802 081d 0100     		.2byte	0x1
 5803 081f 51       		.byte	0x51
 5804 0820 92000000 		.4byte	.LVL150
 5805 0824 94000000 		.4byte	.LVL151
 5806 0828 0100     		.2byte	0x1
ARM GAS  C:\Users\eduar\AppData\Local\Temp\cctEoJXe.s 			page 131


 5807 082a 55       		.byte	0x55
 5808 082b 94000000 		.4byte	.LVL151
 5809 082f 9C000000 		.4byte	.LFE45
 5810 0833 0400     		.2byte	0x4
 5811 0835 F3       		.byte	0xf3
 5812 0836 01       		.uleb128 0x1
 5813 0837 51       		.byte	0x51
 5814 0838 9F       		.byte	0x9f
 5815 0839 00000000 		.4byte	0
 5816 083d 00000000 		.4byte	0
 5817              	.LLST45:
 5818 0841 06000000 		.4byte	.LVL139
 5819 0845 24000000 		.4byte	.LVL141
 5820 0849 0600     		.2byte	0x6
 5821 084b 0C       		.byte	0xc
 5822 084c 01006E00 		.4byte	0x6e0001
 5823 0850 9F       		.byte	0x9f
 5824 0851 24000000 		.4byte	.LVL141
 5825 0855 5C000000 		.4byte	.LVL143
 5826 0859 0100     		.2byte	0x1
 5827 085b 50       		.byte	0x50
 5828 085c 5C000000 		.4byte	.LVL143
 5829 0860 76000000 		.4byte	.LVL146
 5830 0864 0100     		.2byte	0x1
 5831 0866 56       		.byte	0x56
 5832 0867 76000000 		.4byte	.LVL146
 5833 086b 7A000000 		.4byte	.LVL147
 5834 086f 0100     		.2byte	0x1
 5835 0871 50       		.byte	0x50
 5836 0872 7A000000 		.4byte	.LVL147
 5837 0876 80000000 		.4byte	.LVL149
 5838 087a 0100     		.2byte	0x1
 5839 087c 56       		.byte	0x56
 5840 087d 80000000 		.4byte	.LVL149
 5841 0881 92000000 		.4byte	.LVL150
 5842 0885 0600     		.2byte	0x6
 5843 0887 0C       		.byte	0xc
 5844 0888 01006E00 		.4byte	0x6e0001
 5845 088c 9F       		.byte	0x9f
 5846 088d 92000000 		.4byte	.LVL150
 5847 0891 94000000 		.4byte	.LVL152
 5848 0895 0100     		.2byte	0x1
 5849 0897 56       		.byte	0x56
 5850 0898 94000000 		.4byte	.LVL152
 5851 089c 9C000000 		.4byte	.LFE45
 5852 08a0 0100     		.2byte	0x1
 5853 08a2 50       		.byte	0x50
 5854 08a3 00000000 		.4byte	0
 5855 08a7 00000000 		.4byte	0
 5856              	.LLST46:
 5857 08ab 00000000 		.4byte	.LVL153
 5858 08af 4C000000 		.4byte	.LVL163
 5859 08b3 0100     		.2byte	0x1
 5860 08b5 50       		.byte	0x50
 5861 08b6 4C000000 		.4byte	.LVL163
 5862 08ba 88000000 		.4byte	.LVL169
 5863 08be 0100     		.2byte	0x1
ARM GAS  C:\Users\eduar\AppData\Local\Temp\cctEoJXe.s 			page 132


 5864 08c0 59       		.byte	0x59
 5865 08c1 88000000 		.4byte	.LVL169
 5866 08c5 92000000 		.4byte	.LVL173
 5867 08c9 0100     		.2byte	0x1
 5868 08cb 52       		.byte	0x52
 5869 08cc 92000000 		.4byte	.LVL173
 5870 08d0 D2000000 		.4byte	.LVL183
 5871 08d4 0100     		.2byte	0x1
 5872 08d6 59       		.byte	0x59
 5873 08d7 D2000000 		.4byte	.LVL183
 5874 08db D4000000 		.4byte	.LVL184
 5875 08df 0100     		.2byte	0x1
 5876 08e1 53       		.byte	0x53
 5877 08e2 D4000000 		.4byte	.LVL184
 5878 08e6 D8000000 		.4byte	.LVL186
 5879 08ea 0100     		.2byte	0x1
 5880 08ec 5A       		.byte	0x5a
 5881 08ed D8000000 		.4byte	.LVL186
 5882 08f1 DA000000 		.4byte	.LVL187
 5883 08f5 0100     		.2byte	0x1
 5884 08f7 56       		.byte	0x56
 5885 08f8 DA000000 		.4byte	.LVL187
 5886 08fc 1A020000 		.4byte	.LVL239
 5887 0900 0200     		.2byte	0x2
 5888 0902 91       		.byte	0x91
 5889 0903 50       		.sleb128 -48
 5890 0904 1A020000 		.4byte	.LVL239
 5891 0908 2A020000 		.4byte	.LVL241
 5892 090c 0100     		.2byte	0x1
 5893 090e 50       		.byte	0x50
 5894 090f 2A020000 		.4byte	.LVL241
 5895 0913 40020000 		.4byte	.LFE46
 5896 0917 0400     		.2byte	0x4
 5897 0919 F3       		.byte	0xf3
 5898 091a 01       		.uleb128 0x1
 5899 091b 50       		.byte	0x50
 5900 091c 9F       		.byte	0x9f
 5901 091d 00000000 		.4byte	0
 5902 0921 00000000 		.4byte	0
 5903              	.LLST47:
 5904 0925 00000000 		.4byte	.LVL153
 5905 0929 50000000 		.4byte	.LVL164
 5906 092d 0100     		.2byte	0x1
 5907 092f 51       		.byte	0x51
 5908 0930 50000000 		.4byte	.LVL164
 5909 0934 DA000000 		.4byte	.LVL187
 5910 0938 0100     		.2byte	0x1
 5911 093a 54       		.byte	0x54
 5912 093b DA000000 		.4byte	.LVL187
 5913 093f 1A020000 		.4byte	.LVL239
 5914 0943 0200     		.2byte	0x2
 5915 0945 91       		.byte	0x91
 5916 0946 44       		.sleb128 -60
 5917 0947 1A020000 		.4byte	.LVL239
 5918 094b 2A020000 		.4byte	.LVL241
 5919 094f 0100     		.2byte	0x1
 5920 0951 51       		.byte	0x51
ARM GAS  C:\Users\eduar\AppData\Local\Temp\cctEoJXe.s 			page 133


 5921 0952 2A020000 		.4byte	.LVL241
 5922 0956 40020000 		.4byte	.LFE46
 5923 095a 0200     		.2byte	0x2
 5924 095c 91       		.byte	0x91
 5925 095d 44       		.sleb128 -60
 5926 095e 00000000 		.4byte	0
 5927 0962 00000000 		.4byte	0
 5928              	.LLST48:
 5929 0966 00000000 		.4byte	.LVL153
 5930 096a 24000000 		.4byte	.LVL157
 5931 096e 0100     		.2byte	0x1
 5932 0970 52       		.byte	0x52
 5933 0971 24000000 		.4byte	.LVL157
 5934 0975 DA000000 		.4byte	.LVL187
 5935 0979 0100     		.2byte	0x1
 5936 097b 58       		.byte	0x58
 5937 097c DA000000 		.4byte	.LVL187
 5938 0980 1A020000 		.4byte	.LVL239
 5939 0984 0400     		.2byte	0x4
 5940 0986 F3       		.byte	0xf3
 5941 0987 01       		.uleb128 0x1
 5942 0988 52       		.byte	0x52
 5943 0989 9F       		.byte	0x9f
 5944 098a 1A020000 		.4byte	.LVL239
 5945 098e 20020000 		.4byte	.LVL240
 5946 0992 0100     		.2byte	0x1
 5947 0994 52       		.byte	0x52
 5948 0995 20020000 		.4byte	.LVL240
 5949 0999 2A020000 		.4byte	.LVL241
 5950 099d 0100     		.2byte	0x1
 5951 099f 58       		.byte	0x58
 5952 09a0 2A020000 		.4byte	.LVL241
 5953 09a4 40020000 		.4byte	.LFE46
 5954 09a8 0400     		.2byte	0x4
 5955 09aa F3       		.byte	0xf3
 5956 09ab 01       		.uleb128 0x1
 5957 09ac 52       		.byte	0x52
 5958 09ad 9F       		.byte	0x9f
 5959 09ae 00000000 		.4byte	0
 5960 09b2 00000000 		.4byte	0
 5961              	.LLST49:
 5962 09b6 00000000 		.4byte	.LVL153
 5963 09ba 1A000000 		.4byte	.LVL156
 5964 09be 0100     		.2byte	0x1
 5965 09c0 53       		.byte	0x53
 5966 09c1 1A000000 		.4byte	.LVL156
 5967 09c5 D6000000 		.4byte	.LVL185
 5968 09c9 0100     		.2byte	0x1
 5969 09cb 56       		.byte	0x56
 5970 09cc D6000000 		.4byte	.LVL185
 5971 09d0 DA000000 		.4byte	.LVL187
 5972 09d4 0100     		.2byte	0x1
 5973 09d6 53       		.byte	0x53
 5974 09d7 DA000000 		.4byte	.LVL187
 5975 09db 66010000 		.4byte	.LVL214
 5976 09df 0100     		.2byte	0x1
 5977 09e1 5A       		.byte	0x5a
ARM GAS  C:\Users\eduar\AppData\Local\Temp\cctEoJXe.s 			page 134


 5978 09e2 66010000 		.4byte	.LVL214
 5979 09e6 2E020000 		.4byte	.LVL242
 5980 09ea 0100     		.2byte	0x1
 5981 09ec 56       		.byte	0x56
 5982 09ed 2E020000 		.4byte	.LVL242
 5983 09f1 40020000 		.4byte	.LFE46
 5984 09f5 0400     		.2byte	0x4
 5985 09f7 F3       		.byte	0xf3
 5986 09f8 01       		.uleb128 0x1
 5987 09f9 53       		.byte	0x53
 5988 09fa 9F       		.byte	0x9f
 5989 09fb 00000000 		.4byte	0
 5990 09ff 00000000 		.4byte	0
 5991              	.LLST50:
 5992 0a03 16000000 		.4byte	.LVL154
 5993 0a07 DA000000 		.4byte	.LVL187
 5994 0a0b 0600     		.2byte	0x6
 5995 0a0d 0C       		.byte	0xc
 5996 0a0e 01006E00 		.4byte	0x6e0001
 5997 0a12 9F       		.byte	0x9f
 5998 0a13 DA000000 		.4byte	.LVL187
 5999 0a17 DC000000 		.4byte	.LVL188
 6000 0a1b 0100     		.2byte	0x1
 6001 0a1d 50       		.byte	0x50
 6002 0a1e 34010000 		.4byte	.LVL199
 6003 0a22 42010000 		.4byte	.LVL203
 6004 0a26 0100     		.2byte	0x1
 6005 0a28 50       		.byte	0x50
 6006 0a29 4C010000 		.4byte	.LVL206
 6007 0a2d 4E010000 		.4byte	.LVL207
 6008 0a31 0200     		.2byte	0x2
 6009 0a33 30       		.byte	0x30
 6010 0a34 9F       		.byte	0x9f
 6011 0a35 4E010000 		.4byte	.LVL207
 6012 0a39 66010000 		.4byte	.LVL214
 6013 0a3d 0100     		.2byte	0x1
 6014 0a3f 50       		.byte	0x50
 6015 0a40 66010000 		.4byte	.LVL214
 6016 0a44 02020000 		.4byte	.LVL234
 6017 0a48 0300     		.2byte	0x3
 6018 0a4a 91       		.byte	0x91
 6019 0a4b BC7F     		.sleb128 -68
 6020 0a4d 02020000 		.4byte	.LVL234
 6021 0a51 08020000 		.4byte	.LVL235
 6022 0a55 0100     		.2byte	0x1
 6023 0a57 50       		.byte	0x50
 6024 0a58 08020000 		.4byte	.LVL235
 6025 0a5c 1A020000 		.4byte	.LVL239
 6026 0a60 0300     		.2byte	0x3
 6027 0a62 91       		.byte	0x91
 6028 0a63 BC7F     		.sleb128 -68
 6029 0a65 1A020000 		.4byte	.LVL239
 6030 0a69 2A020000 		.4byte	.LVL241
 6031 0a6d 0600     		.2byte	0x6
 6032 0a6f 0C       		.byte	0xc
 6033 0a70 01006E00 		.4byte	0x6e0001
 6034 0a74 9F       		.byte	0x9f
ARM GAS  C:\Users\eduar\AppData\Local\Temp\cctEoJXe.s 			page 135


 6035 0a75 2A020000 		.4byte	.LVL241
 6036 0a79 40020000 		.4byte	.LFE46
 6037 0a7d 0300     		.2byte	0x3
 6038 0a7f 91       		.byte	0x91
 6039 0a80 BC7F     		.sleb128 -68
 6040 0a82 00000000 		.4byte	0
 6041 0a86 00000000 		.4byte	0
 6042              	.LLST51:
 6043 0a8a 5C000000 		.4byte	.LVL166
 6044 0a8e 62000000 		.4byte	.LVL167
 6045 0a92 0200     		.2byte	0x2
 6046 0a94 30       		.byte	0x30
 6047 0a95 9F       		.byte	0x9f
 6048 0a96 62000000 		.4byte	.LVL167
 6049 0a9a 8A000000 		.4byte	.LVL170
 6050 0a9e 0100     		.2byte	0x1
 6051 0aa0 55       		.byte	0x55
 6052 0aa1 8C000000 		.4byte	.LVL171
 6053 0aa5 8E000000 		.4byte	.LVL172
 6054 0aa9 0100     		.2byte	0x1
 6055 0aab 55       		.byte	0x55
 6056 0aac C4000000 		.4byte	.LVL182
 6057 0ab0 DA000000 		.4byte	.LVL187
 6058 0ab4 0200     		.2byte	0x2
 6059 0ab6 30       		.byte	0x30
 6060 0ab7 9F       		.byte	0x9f
 6061 0ab8 DA000000 		.4byte	.LVL187
 6062 0abc EC000000 		.4byte	.LVL191
 6063 0ac0 0100     		.2byte	0x1
 6064 0ac2 57       		.byte	0x57
 6065 0ac3 EC000000 		.4byte	.LVL191
 6066 0ac7 5A010000 		.4byte	.LVL211
 6067 0acb 0300     		.2byte	0x3
 6068 0acd 77       		.byte	0x77
 6069 0ace 7F       		.sleb128 -1
 6070 0acf 9F       		.byte	0x9f
 6071 0ad0 5A010000 		.4byte	.LVL211
 6072 0ad4 66010000 		.4byte	.LVL214
 6073 0ad8 0100     		.2byte	0x1
 6074 0ada 57       		.byte	0x57
 6075 0adb 82010000 		.4byte	.LVL217
 6076 0adf 1A020000 		.4byte	.LVL239
 6077 0ae3 0100     		.2byte	0x1
 6078 0ae5 54       		.byte	0x54
 6079 0ae6 00000000 		.4byte	0
 6080 0aea 00000000 		.4byte	0
 6081              	.LLST52:
 6082 0aee F6000000 		.4byte	.LVL192
 6083 0af2 F8000000 		.4byte	.LVL193
 6084 0af6 0100     		.2byte	0x1
 6085 0af8 54       		.byte	0x54
 6086 0af9 FA000000 		.4byte	.LVL194
 6087 0afd 5A010000 		.4byte	.LVL211
 6088 0b01 0100     		.2byte	0x1
 6089 0b03 54       		.byte	0x54
 6090 0b04 E8010000 		.4byte	.LVL228
 6091 0b08 FA010000 		.4byte	.LVL232
ARM GAS  C:\Users\eduar\AppData\Local\Temp\cctEoJXe.s 			page 136


 6092 0b0c 0100     		.2byte	0x1
 6093 0b0e 52       		.byte	0x52
 6094 0b0f FA010000 		.4byte	.LVL232
 6095 0b13 FF010000 		.4byte	.LVL233-1
 6096 0b17 0100     		.2byte	0x1
 6097 0b19 53       		.byte	0x53
 6098 0b1a 08020000 		.4byte	.LVL235
 6099 0b1e 11020000 		.4byte	.LVL237-1
 6100 0b22 0100     		.2byte	0x1
 6101 0b24 52       		.byte	0x52
 6102 0b25 00000000 		.4byte	0
 6103 0b29 00000000 		.4byte	0
 6104              	.LLST53:
 6105 0b2d 5C000000 		.4byte	.LVL166
 6106 0b31 62000000 		.4byte	.LVL167
 6107 0b35 0100     		.2byte	0x1
 6108 0b37 53       		.byte	0x53
 6109 0b38 62000000 		.4byte	.LVL167
 6110 0b3c 3A010000 		.4byte	.LVL200
 6111 0b40 0300     		.2byte	0x3
 6112 0b42 91       		.byte	0x91
 6113 0b43 BC7F     		.sleb128 -68
 6114 0b45 42010000 		.4byte	.LVL203
 6115 0b49 60010000 		.4byte	.LVL212
 6116 0b4d 0300     		.2byte	0x3
 6117 0b4f 91       		.byte	0x91
 6118 0b50 BC7F     		.sleb128 -68
 6119 0b52 00000000 		.4byte	0
 6120 0b56 00000000 		.4byte	0
 6121              	.LLST54:
 6122 0b5a EA000000 		.4byte	.LVL190
 6123 0b5e 33010000 		.4byte	.LVL199-1
 6124 0b62 0100     		.2byte	0x1
 6125 0b64 52       		.byte	0x52
 6126 0b65 33010000 		.4byte	.LVL199-1
 6127 0b69 40010000 		.4byte	.LVL202
 6128 0b6d 0900     		.2byte	0x9
 6129 0b6f 76       		.byte	0x76
 6130 0b70 00       		.sleb128 0
 6131 0b71 08       		.byte	0x8
 6132 0b72 FF       		.byte	0xff
 6133 0b73 1A       		.byte	0x1a
 6134 0b74 23       		.byte	0x23
 6135 0b75 8002     		.uleb128 0x100
 6136 0b77 9F       		.byte	0x9f
 6137 0b78 42010000 		.4byte	.LVL203
 6138 0b7c 46010000 		.4byte	.LVL204
 6139 0b80 0100     		.2byte	0x1
 6140 0b82 52       		.byte	0x52
 6141 0b83 46010000 		.4byte	.LVL204
 6142 0b87 50010000 		.4byte	.LVL208
 6143 0b8b 0900     		.2byte	0x9
 6144 0b8d 76       		.byte	0x76
 6145 0b8e 00       		.sleb128 0
 6146 0b8f 08       		.byte	0x8
 6147 0b90 FF       		.byte	0xff
 6148 0b91 1A       		.byte	0x1a
ARM GAS  C:\Users\eduar\AppData\Local\Temp\cctEoJXe.s 			page 137


 6149 0b92 23       		.byte	0x23
 6150 0b93 8002     		.uleb128 0x100
 6151 0b95 9F       		.byte	0x9f
 6152 0b96 00000000 		.4byte	0
 6153 0b9a 00000000 		.4byte	0
 6154              	.LLST55:
 6155 0b9e E2000000 		.4byte	.LVL189
 6156 0ba2 18010000 		.4byte	.LVL196
 6157 0ba6 0100     		.2byte	0x1
 6158 0ba8 50       		.byte	0x50
 6159 0ba9 18010000 		.4byte	.LVL196
 6160 0bad 1A010000 		.4byte	.LVL197
 6161 0bb1 0D00     		.2byte	0xd
 6162 0bb3 75       		.byte	0x75
 6163 0bb4 00       		.sleb128 0
 6164 0bb5 39       		.byte	0x39
 6165 0bb6 24       		.byte	0x24
 6166 0bb7 73       		.byte	0x73
 6167 0bb8 00       		.sleb128 0
 6168 0bb9 39       		.byte	0x39
 6169 0bba 24       		.byte	0x24
 6170 0bbb 1C       		.byte	0x1c
 6171 0bbc 7C       		.byte	0x7c
 6172 0bbd 00       		.sleb128 0
 6173 0bbe 22       		.byte	0x22
 6174 0bbf 9F       		.byte	0x9f
 6175 0bc0 1A010000 		.4byte	.LVL197
 6176 0bc4 20010000 		.4byte	.LVL198
 6177 0bc8 0E00     		.2byte	0xe
 6178 0bca 75       		.byte	0x75
 6179 0bcb 00       		.sleb128 0
 6180 0bcc 39       		.byte	0x39
 6181 0bcd 24       		.byte	0x24
 6182 0bce 7A       		.byte	0x7a
 6183 0bcf 04       		.sleb128 4
 6184 0bd0 06       		.byte	0x6
 6185 0bd1 39       		.byte	0x39
 6186 0bd2 24       		.byte	0x24
 6187 0bd3 1C       		.byte	0x1c
 6188 0bd4 7C       		.byte	0x7c
 6189 0bd5 00       		.sleb128 0
 6190 0bd6 22       		.byte	0x22
 6191 0bd7 9F       		.byte	0x9f
 6192 0bd8 20010000 		.4byte	.LVL198
 6193 0bdc 33010000 		.4byte	.LVL199-1
 6194 0be0 0100     		.2byte	0x1
 6195 0be2 50       		.byte	0x50
 6196 0be3 42010000 		.4byte	.LVL203
 6197 0be7 48010000 		.4byte	.LVL205
 6198 0beb 0100     		.2byte	0x1
 6199 0bed 50       		.byte	0x50
 6200 0bee 94010000 		.4byte	.LVL220
 6201 0bf2 FF010000 		.4byte	.LVL233-1
 6202 0bf6 0100     		.2byte	0x1
 6203 0bf8 50       		.byte	0x50
 6204 0bf9 08020000 		.4byte	.LVL235
 6205 0bfd 0E020000 		.4byte	.LVL236
ARM GAS  C:\Users\eduar\AppData\Local\Temp\cctEoJXe.s 			page 138


 6206 0c01 0100     		.2byte	0x1
 6207 0c03 50       		.byte	0x50
 6208 0c04 00000000 		.4byte	0
 6209 0c08 00000000 		.4byte	0
 6210              	.LLST56:
 6211 0c0c 9A000000 		.4byte	.LVL174
 6212 0c10 DA000000 		.4byte	.LVL187
 6213 0c14 0100     		.2byte	0x1
 6214 0c16 51       		.byte	0x51
 6215 0c17 DA000000 		.4byte	.LVL187
 6216 0c1b 1A020000 		.4byte	.LVL239
 6217 0c1f 0200     		.2byte	0x2
 6218 0c21 91       		.byte	0x91
 6219 0c22 48       		.sleb128 -56
 6220 0c23 00000000 		.4byte	0
 6221 0c27 00000000 		.4byte	0
 6222              	.LLST57:
 6223 0c2b 16000000 		.4byte	.LVL154
 6224 0c2f 8E000000 		.4byte	.LVL172
 6225 0c33 0200     		.2byte	0x2
 6226 0c35 30       		.byte	0x30
 6227 0c36 9F       		.byte	0x9f
 6228 0c37 8E000000 		.4byte	.LVL172
 6229 0c3b 88010000 		.4byte	.LVL219
 6230 0c3f 0100     		.2byte	0x1
 6231 0c41 55       		.byte	0x55
 6232 0c42 1A020000 		.4byte	.LVL239
 6233 0c46 2A020000 		.4byte	.LVL241
 6234 0c4a 0200     		.2byte	0x2
 6235 0c4c 30       		.byte	0x30
 6236 0c4d 9F       		.byte	0x9f
 6237 0c4e 00000000 		.4byte	0
 6238 0c52 00000000 		.4byte	0
 6239              	.LLST58:
 6240 0c56 16000000 		.4byte	.LVL154
 6241 0c5a 8E000000 		.4byte	.LVL172
 6242 0c5e 0200     		.2byte	0x2
 6243 0c60 30       		.byte	0x30
 6244 0c61 9F       		.byte	0x9f
 6245 0c62 8E000000 		.4byte	.LVL172
 6246 0c66 DA000000 		.4byte	.LVL187
 6247 0c6a 0100     		.2byte	0x1
 6248 0c6c 55       		.byte	0x55
 6249 0c6d 1A020000 		.4byte	.LVL239
 6250 0c71 2A020000 		.4byte	.LVL241
 6251 0c75 0200     		.2byte	0x2
 6252 0c77 30       		.byte	0x30
 6253 0c78 9F       		.byte	0x9f
 6254 0c79 00000000 		.4byte	0
 6255 0c7d 00000000 		.4byte	0
 6256              	.LLST59:
 6257 0c81 18000000 		.4byte	.LVL155
 6258 0c85 50000000 		.4byte	.LVL164
 6259 0c89 0100     		.2byte	0x1
 6260 0c8b 51       		.byte	0x51
 6261 0c8c 50000000 		.4byte	.LVL164
 6262 0c90 DA000000 		.4byte	.LVL187
ARM GAS  C:\Users\eduar\AppData\Local\Temp\cctEoJXe.s 			page 139


 6263 0c94 0100     		.2byte	0x1
 6264 0c96 54       		.byte	0x54
 6265 0c97 DA000000 		.4byte	.LVL187
 6266 0c9b 3E010000 		.4byte	.LVL201
 6267 0c9f 0100     		.2byte	0x1
 6268 0ca1 59       		.byte	0x59
 6269 0ca2 42010000 		.4byte	.LVL203
 6270 0ca6 64010000 		.4byte	.LVL213
 6271 0caa 0100     		.2byte	0x1
 6272 0cac 59       		.byte	0x59
 6273 0cad EE010000 		.4byte	.LVL230
 6274 0cb1 12020000 		.4byte	.LVL237
 6275 0cb5 0100     		.2byte	0x1
 6276 0cb7 5B       		.byte	0x5b
 6277 0cb8 1A020000 		.4byte	.LVL239
 6278 0cbc 2A020000 		.4byte	.LVL241
 6279 0cc0 0100     		.2byte	0x1
 6280 0cc2 51       		.byte	0x51
 6281 0cc3 00000000 		.4byte	0
 6282 0cc7 00000000 		.4byte	0
 6283              	.LLST60:
 6284 0ccb 30000000 		.4byte	.LVL158
 6285 0ccf 4C000000 		.4byte	.LVL163
 6286 0cd3 0100     		.2byte	0x1
 6287 0cd5 50       		.byte	0x50
 6288 0cd6 4C000000 		.4byte	.LVL163
 6289 0cda 88000000 		.4byte	.LVL169
 6290 0cde 0100     		.2byte	0x1
 6291 0ce0 59       		.byte	0x59
 6292 0ce1 88000000 		.4byte	.LVL169
 6293 0ce5 92000000 		.4byte	.LVL173
 6294 0ce9 0100     		.2byte	0x1
 6295 0ceb 52       		.byte	0x52
 6296 0cec 92000000 		.4byte	.LVL173
 6297 0cf0 D2000000 		.4byte	.LVL183
 6298 0cf4 0100     		.2byte	0x1
 6299 0cf6 59       		.byte	0x59
 6300 0cf7 D2000000 		.4byte	.LVL183
 6301 0cfb D4000000 		.4byte	.LVL184
 6302 0cff 0100     		.2byte	0x1
 6303 0d01 53       		.byte	0x53
 6304 0d02 D4000000 		.4byte	.LVL184
 6305 0d06 D8000000 		.4byte	.LVL186
 6306 0d0a 0100     		.2byte	0x1
 6307 0d0c 5A       		.byte	0x5a
 6308 0d0d D8000000 		.4byte	.LVL186
 6309 0d11 40010000 		.4byte	.LVL202
 6310 0d15 0100     		.2byte	0x1
 6311 0d17 56       		.byte	0x56
 6312 0d18 42010000 		.4byte	.LVL203
 6313 0d1c 66010000 		.4byte	.LVL214
 6314 0d20 0100     		.2byte	0x1
 6315 0d22 56       		.byte	0x56
 6316 0d23 D8010000 		.4byte	.LVL225
 6317 0d27 E8010000 		.4byte	.LVL228
 6318 0d2b 0100     		.2byte	0x1
 6319 0d2d 52       		.byte	0x52
ARM GAS  C:\Users\eduar\AppData\Local\Temp\cctEoJXe.s 			page 140


 6320 0d2e 00000000 		.4byte	0
 6321 0d32 00000000 		.4byte	0
 6322              	.LLST61:
 6323 0d36 30000000 		.4byte	.LVL158
 6324 0d3a 56010000 		.4byte	.LVL209
 6325 0d3e 0100     		.2byte	0x1
 6326 0d40 58       		.byte	0x58
 6327 0d41 56010000 		.4byte	.LVL209
 6328 0d45 5A010000 		.4byte	.LVL211
 6329 0d49 0100     		.2byte	0x1
 6330 0d4b 53       		.byte	0x53
 6331 0d4c 5A010000 		.4byte	.LVL211
 6332 0d50 86010000 		.4byte	.LVL218
 6333 0d54 0100     		.2byte	0x1
 6334 0d56 58       		.byte	0x58
 6335 0d57 00000000 		.4byte	0
 6336 0d5b 00000000 		.4byte	0
 6337              	.LLST62:
 6338 0d5f 38000000 		.4byte	.LVL159
 6339 0d63 3A000000 		.4byte	.LVL160
 6340 0d67 0100     		.2byte	0x1
 6341 0d69 53       		.byte	0x53
 6342 0d6a 3A000000 		.4byte	.LVL160
 6343 0d6e 53000000 		.4byte	.LVL165-1
 6344 0d72 0200     		.2byte	0x2
 6345 0d74 7A       		.byte	0x7a
 6346 0d75 00       		.sleb128 0
 6347 0d76 53000000 		.4byte	.LVL165-1
 6348 0d7a 1A020000 		.4byte	.LVL239
 6349 0d7e 0200     		.2byte	0x2
 6350 0d80 91       		.byte	0x91
 6351 0d81 54       		.sleb128 -44
 6352 0d82 00000000 		.4byte	0
 6353 0d86 00000000 		.4byte	0
 6354              	.LLST63:
 6355 0d8a 38000000 		.4byte	.LVL159
 6356 0d8e C4000000 		.4byte	.LVL182
 6357 0d92 0200     		.2byte	0x2
 6358 0d94 30       		.byte	0x30
 6359 0d95 9F       		.byte	0x9f
 6360 0d96 C4000000 		.4byte	.LVL182
 6361 0d9a 1A020000 		.4byte	.LVL239
 6362 0d9e 0200     		.2byte	0x2
 6363 0da0 91       		.byte	0x91
 6364 0da1 40       		.sleb128 -64
 6365 0da2 00000000 		.4byte	0
 6366 0da6 00000000 		.4byte	0
 6367              	.LLST64:
 6368 0daa 46000000 		.4byte	.LVL161
 6369 0dae 4A000000 		.4byte	.LVL162
 6370 0db2 0100     		.2byte	0x1
 6371 0db4 53       		.byte	0x53
 6372 0db5 4A000000 		.4byte	.LVL162
 6373 0db9 7C010000 		.4byte	.LVL215
 6374 0dbd 0100     		.2byte	0x1
 6375 0dbf 5B       		.byte	0x5b
 6376 0dc0 7C010000 		.4byte	.LVL215
ARM GAS  C:\Users\eduar\AppData\Local\Temp\cctEoJXe.s 			page 141


 6377 0dc4 82010000 		.4byte	.LVL217
 6378 0dc8 0100     		.2byte	0x1
 6379 0dca 54       		.byte	0x54
 6380 0dcb 00000000 		.4byte	0
 6381 0dcf 00000000 		.4byte	0
 6382              	.LLST65:
 6383 0dd3 A6000000 		.4byte	.LVL175
 6384 0dd7 B0000000 		.4byte	.LVL176
 6385 0ddb 0100     		.2byte	0x1
 6386 0ddd 53       		.byte	0x53
 6387 0dde B0000000 		.4byte	.LVL176
 6388 0de2 B4000000 		.4byte	.LVL177
 6389 0de6 0800     		.2byte	0x8
 6390 0de8 75       		.byte	0x75
 6391 0de9 00       		.sleb128 0
 6392 0dea 7B       		.byte	0x7b
 6393 0deb 00       		.sleb128 0
 6394 0dec 22       		.byte	0x22
 6395 0ded 31       		.byte	0x31
 6396 0dee 1C       		.byte	0x1c
 6397 0def 9F       		.byte	0x9f
 6398 0df0 BA000000 		.4byte	.LVL178
 6399 0df4 BC000000 		.4byte	.LVL179
 6400 0df8 0100     		.2byte	0x1
 6401 0dfa 53       		.byte	0x53
 6402 0dfb BC000000 		.4byte	.LVL179
 6403 0dff C0000000 		.4byte	.LVL180
 6404 0e03 0800     		.2byte	0x8
 6405 0e05 75       		.byte	0x75
 6406 0e06 00       		.sleb128 0
 6407 0e07 7B       		.byte	0x7b
 6408 0e08 00       		.sleb128 0
 6409 0e09 22       		.byte	0x22
 6410 0e0a 31       		.byte	0x31
 6411 0e0b 1C       		.byte	0x1c
 6412 0e0c 9F       		.byte	0x9f
 6413 0e0d C0000000 		.4byte	.LVL180
 6414 0e11 C2000000 		.4byte	.LVL181
 6415 0e15 0100     		.2byte	0x1
 6416 0e17 53       		.byte	0x53
 6417 0e18 C2000000 		.4byte	.LVL181
 6418 0e1c C4000000 		.4byte	.LVL182
 6419 0e20 0800     		.2byte	0x8
 6420 0e22 75       		.byte	0x75
 6421 0e23 00       		.sleb128 0
 6422 0e24 7B       		.byte	0x7b
 6423 0e25 00       		.sleb128 0
 6424 0e26 22       		.byte	0x22
 6425 0e27 31       		.byte	0x31
 6426 0e28 1C       		.byte	0x1c
 6427 0e29 9F       		.byte	0x9f
 6428 0e2a 00000000 		.4byte	0
 6429 0e2e 00000000 		.4byte	0
 6430              	.LLST66:
 6431 0e32 9A010000 		.4byte	.LVL221
 6432 0e36 DA010000 		.4byte	.LVL226
 6433 0e3a 0100     		.2byte	0x1
ARM GAS  C:\Users\eduar\AppData\Local\Temp\cctEoJXe.s 			page 142


 6434 0e3c 51       		.byte	0x51
 6435 0e3d DA010000 		.4byte	.LVL226
 6436 0e41 F6010000 		.4byte	.LVL231
 6437 0e45 0200     		.2byte	0x2
 6438 0e47 70       		.byte	0x70
 6439 0e48 04       		.sleb128 4
 6440 0e49 08020000 		.4byte	.LVL235
 6441 0e4d 0E020000 		.4byte	.LVL236
 6442 0e51 0200     		.2byte	0x2
 6443 0e53 70       		.byte	0x70
 6444 0e54 04       		.sleb128 4
 6445 0e55 00000000 		.4byte	0
 6446 0e59 00000000 		.4byte	0
 6447              	.LLST67:
 6448 0e5d 9E010000 		.4byte	.LVL222
 6449 0e61 EA010000 		.4byte	.LVL229
 6450 0e65 0100     		.2byte	0x1
 6451 0e67 53       		.byte	0x53
 6452 0e68 EA010000 		.4byte	.LVL229
 6453 0e6c F6010000 		.4byte	.LVL231
 6454 0e70 0800     		.2byte	0x8
 6455 0e72 70       		.byte	0x70
 6456 0e73 04       		.sleb128 4
 6457 0e74 06       		.byte	0x6
 6458 0e75 70       		.byte	0x70
 6459 0e76 08       		.sleb128 8
 6460 0e77 06       		.byte	0x6
 6461 0e78 22       		.byte	0x22
 6462 0e79 9F       		.byte	0x9f
 6463 0e7a 08020000 		.4byte	.LVL235
 6464 0e7e 0E020000 		.4byte	.LVL236
 6465 0e82 0800     		.2byte	0x8
 6466 0e84 70       		.byte	0x70
 6467 0e85 04       		.sleb128 4
 6468 0e86 06       		.byte	0x6
 6469 0e87 70       		.byte	0x70
 6470 0e88 08       		.sleb128 8
 6471 0e89 06       		.byte	0x6
 6472 0e8a 22       		.byte	0x22
 6473 0e8b 9F       		.byte	0x9f
 6474 0e8c 00000000 		.4byte	0
 6475 0e90 00000000 		.4byte	0
 6476              	.LLST68:
 6477 0e94 C2010000 		.4byte	.LVL223
 6478 0e98 FF010000 		.4byte	.LVL233-1
 6479 0e9c 0100     		.2byte	0x1
 6480 0e9e 5C       		.byte	0x5c
 6481 0e9f 08020000 		.4byte	.LVL235
 6482 0ea3 11020000 		.4byte	.LVL237-1
 6483 0ea7 0100     		.2byte	0x1
 6484 0ea9 5C       		.byte	0x5c
 6485 0eaa 00000000 		.4byte	0
 6486 0eae 00000000 		.4byte	0
 6487              	.LLST69:
 6488 0eb2 D0010000 		.4byte	.LVL224
 6489 0eb6 EE010000 		.4byte	.LVL230
 6490 0eba 0100     		.2byte	0x1
ARM GAS  C:\Users\eduar\AppData\Local\Temp\cctEoJXe.s 			page 143


 6491 0ebc 5B       		.byte	0x5b
 6492 0ebd 00000000 		.4byte	0
 6493 0ec1 00000000 		.4byte	0
 6494              	.LLST70:
 6495 0ec5 00000000 		.4byte	.LVL243
 6496 0ec9 3C000000 		.4byte	.LVL248
 6497 0ecd 0100     		.2byte	0x1
 6498 0ecf 50       		.byte	0x50
 6499 0ed0 3C000000 		.4byte	.LVL248
 6500 0ed4 8C010000 		.4byte	.LVL292
 6501 0ed8 0100     		.2byte	0x1
 6502 0eda 5A       		.byte	0x5a
 6503 0edb 8C010000 		.4byte	.LVL292
 6504 0edf 8E010000 		.4byte	.LVL293
 6505 0ee3 0100     		.2byte	0x1
 6506 0ee5 50       		.byte	0x50
 6507 0ee6 8E010000 		.4byte	.LVL293
 6508 0eea 90010000 		.4byte	.LVL294
 6509 0eee 0100     		.2byte	0x1
 6510 0ef0 5A       		.byte	0x5a
 6511 0ef1 90010000 		.4byte	.LVL294
 6512 0ef5 92010000 		.4byte	.LVL295
 6513 0ef9 0100     		.2byte	0x1
 6514 0efb 50       		.byte	0x50
 6515 0efc 92010000 		.4byte	.LVL295
 6516 0f00 94010000 		.4byte	.LVL296
 6517 0f04 0100     		.2byte	0x1
 6518 0f06 5A       		.byte	0x5a
 6519 0f07 94010000 		.4byte	.LVL296
 6520 0f0b 96010000 		.4byte	.LVL297
 6521 0f0f 0100     		.2byte	0x1
 6522 0f11 50       		.byte	0x50
 6523 0f12 96010000 		.4byte	.LVL297
 6524 0f16 9C010000 		.4byte	.LVL300
 6525 0f1a 0100     		.2byte	0x1
 6526 0f1c 5A       		.byte	0x5a
 6527 0f1d 00000000 		.4byte	0
 6528 0f21 00000000 		.4byte	0
 6529              	.LLST71:
 6530 0f25 00000000 		.4byte	.LVL243
 6531 0f29 3E000000 		.4byte	.LVL249
 6532 0f2d 0100     		.2byte	0x1
 6533 0f2f 51       		.byte	0x51
 6534 0f30 3E000000 		.4byte	.LVL249
 6535 0f34 54000000 		.4byte	.LVL254
 6536 0f38 0300     		.2byte	0x3
 6537 0f3a 91       		.byte	0x91
 6538 0f3b B47B     		.sleb128 -588
 6539 0f3d 54000000 		.4byte	.LVL254
 6540 0f41 8C010000 		.4byte	.LVL292
 6541 0f45 0400     		.2byte	0x4
 6542 0f47 F3       		.byte	0xf3
 6543 0f48 01       		.uleb128 0x1
 6544 0f49 51       		.byte	0x51
 6545 0f4a 9F       		.byte	0x9f
 6546 0f4b 8C010000 		.4byte	.LVL292
 6547 0f4f 96010000 		.4byte	.LVL297
ARM GAS  C:\Users\eduar\AppData\Local\Temp\cctEoJXe.s 			page 144


 6548 0f53 0100     		.2byte	0x1
 6549 0f55 51       		.byte	0x51
 6550 0f56 96010000 		.4byte	.LVL297
 6551 0f5a B0010000 		.4byte	.LFE47
 6552 0f5e 0400     		.2byte	0x4
 6553 0f60 F3       		.byte	0xf3
 6554 0f61 01       		.uleb128 0x1
 6555 0f62 51       		.byte	0x51
 6556 0f63 9F       		.byte	0x9f
 6557 0f64 00000000 		.4byte	0
 6558 0f68 00000000 		.4byte	0
 6559              	.LLST72:
 6560 0f6c 00000000 		.4byte	.LVL243
 6561 0f70 2C000000 		.4byte	.LVL247
 6562 0f74 0100     		.2byte	0x1
 6563 0f76 52       		.byte	0x52
 6564 0f77 2C000000 		.4byte	.LVL247
 6565 0f7b 8C010000 		.4byte	.LVL292
 6566 0f7f 0100     		.2byte	0x1
 6567 0f81 59       		.byte	0x59
 6568 0f82 8C010000 		.4byte	.LVL292
 6569 0f86 90010000 		.4byte	.LVL294
 6570 0f8a 0100     		.2byte	0x1
 6571 0f8c 52       		.byte	0x52
 6572 0f8d 90010000 		.4byte	.LVL294
 6573 0f91 9C010000 		.4byte	.LVL299
 6574 0f95 0100     		.2byte	0x1
 6575 0f97 59       		.byte	0x59
 6576 0f98 00000000 		.4byte	0
 6577 0f9c 00000000 		.4byte	0
 6578              	.LLST73:
 6579 0fa0 00000000 		.4byte	.LVL243
 6580 0fa4 18000000 		.4byte	.LVL245
 6581 0fa8 0100     		.2byte	0x1
 6582 0faa 53       		.byte	0x53
 6583 0fab 18000000 		.4byte	.LVL245
 6584 0faf 9C010000 		.4byte	.LVL298
 6585 0fb3 0100     		.2byte	0x1
 6586 0fb5 55       		.byte	0x55
 6587 0fb6 9C010000 		.4byte	.LVL298
 6588 0fba B0010000 		.4byte	.LFE47
 6589 0fbe 0400     		.2byte	0x4
 6590 0fc0 F3       		.byte	0xf3
 6591 0fc1 01       		.uleb128 0x1
 6592 0fc2 53       		.byte	0x53
 6593 0fc3 9F       		.byte	0x9f
 6594 0fc4 00000000 		.4byte	0
 6595 0fc8 00000000 		.4byte	0
 6596              	.LLST74:
 6597 0fcc 16000000 		.4byte	.LVL244
 6598 0fd0 54000000 		.4byte	.LVL254
 6599 0fd4 0600     		.2byte	0x6
 6600 0fd6 0C       		.byte	0xc
 6601 0fd7 01006E00 		.4byte	0x6e0001
 6602 0fdb 9F       		.byte	0x9f
 6603 0fdc 54000000 		.4byte	.LVL254
 6604 0fe0 60000000 		.4byte	.LVL256
ARM GAS  C:\Users\eduar\AppData\Local\Temp\cctEoJXe.s 			page 145


 6605 0fe4 0100     		.2byte	0x1
 6606 0fe6 50       		.byte	0x50
 6607 0fe7 56010000 		.4byte	.LVL287
 6608 0feb 66010000 		.4byte	.LVL288
 6609 0fef 0100     		.2byte	0x1
 6610 0ff1 50       		.byte	0x50
 6611 0ff2 74010000 		.4byte	.LVL290
 6612 0ff6 8C010000 		.4byte	.LVL292
 6613 0ffa 0100     		.2byte	0x1
 6614 0ffc 50       		.byte	0x50
 6615 0ffd 8C010000 		.4byte	.LVL292
 6616 1001 96010000 		.4byte	.LVL297
 6617 1005 0600     		.2byte	0x6
 6618 1007 0C       		.byte	0xc
 6619 1008 01006E00 		.4byte	0x6e0001
 6620 100c 9F       		.byte	0x9f
 6621 100d 96010000 		.4byte	.LVL297
 6622 1011 B0010000 		.4byte	.LFE47
 6623 1015 0100     		.2byte	0x1
 6624 1017 50       		.byte	0x50
 6625 1018 00000000 		.4byte	0
 6626 101c 00000000 		.4byte	0
 6627              	.LLST75:
 6628 1020 D2000000 		.4byte	.LVL267
 6629 1024 82010000 		.4byte	.LVL291
 6630 1028 0100     		.2byte	0x1
 6631 102a 54       		.byte	0x54
 6632 102b 00000000 		.4byte	0
 6633 102f 00000000 		.4byte	0
 6634              	.LLST76:
 6635 1033 4E000000 		.4byte	.LVL253
 6636 1037 54000000 		.4byte	.LVL254
 6637 103b 0200     		.2byte	0x2
 6638 103d 30       		.byte	0x30
 6639 103e 9F       		.byte	0x9f
 6640 103f 54000000 		.4byte	.LVL254
 6641 1043 8C010000 		.4byte	.LVL292
 6642 1047 0100     		.2byte	0x1
 6643 1049 5B       		.byte	0x5b
 6644 104a 00000000 		.4byte	0
 6645 104e 00000000 		.4byte	0
 6646              	.LLST77:
 6647 1052 F2000000 		.4byte	.LVL272
 6648 1056 04010000 		.4byte	.LVL273
 6649 105a 0100     		.2byte	0x1
 6650 105c 51       		.byte	0x51
 6651 105d 04010000 		.4byte	.LVL273
 6652 1061 09010000 		.4byte	.LVL274-1
 6653 1065 0100     		.2byte	0x1
 6654 1067 53       		.byte	0x53
 6655 1068 0E010000 		.4byte	.LVL276
 6656 106c 10010000 		.4byte	.LVL277
 6657 1070 0100     		.2byte	0x1
 6658 1072 51       		.byte	0x51
 6659 1073 00000000 		.4byte	0
 6660 1077 00000000 		.4byte	0
 6661              	.LLST78:
ARM GAS  C:\Users\eduar\AppData\Local\Temp\cctEoJXe.s 			page 146


 6662 107b D8000000 		.4byte	.LVL268
 6663 107f DA000000 		.4byte	.LVL269
 6664 1083 0100     		.2byte	0x1
 6665 1085 56       		.byte	0x56
 6666 1086 E4000000 		.4byte	.LVL271
 6667 108a 20010000 		.4byte	.LVL279
 6668 108e 0100     		.2byte	0x1
 6669 1090 56       		.byte	0x56
 6670 1091 24010000 		.4byte	.LVL280
 6671 1095 2B010000 		.4byte	.LVL281-1
 6672 1099 0100     		.2byte	0x1
 6673 109b 51       		.byte	0x51
 6674 109c 2B010000 		.4byte	.LVL281-1
 6675 10a0 2C010000 		.4byte	.LVL281
 6676 10a4 0300     		.2byte	0x3
 6677 10a6 76       		.byte	0x76
 6678 10a7 0C       		.sleb128 12
 6679 10a8 9F       		.byte	0x9f
 6680 10a9 56010000 		.4byte	.LVL287
 6681 10ad 6C010000 		.4byte	.LVL289
 6682 10b1 0300     		.2byte	0x3
 6683 10b3 91       		.byte	0x91
 6684 10b4 CC7B     		.sleb128 -564
 6685 10b6 6C010000 		.4byte	.LVL289
 6686 10ba 73010000 		.4byte	.LVL290-1
 6687 10be 0100     		.2byte	0x1
 6688 10c0 50       		.byte	0x50
 6689 10c1 00000000 		.4byte	0
 6690 10c5 00000000 		.4byte	0
 6691              	.LLST79:
 6692 10c9 7C000000 		.4byte	.LVL261
 6693 10cd A9000000 		.4byte	.LVL265-1
 6694 10d1 0100     		.2byte	0x1
 6695 10d3 51       		.byte	0x51
 6696 10d4 00000000 		.4byte	0
 6697 10d8 00000000 		.4byte	0
 6698              	.LLST80:
 6699 10dc 22000000 		.4byte	.LVL246
 6700 10e0 3E000000 		.4byte	.LVL249
 6701 10e4 0100     		.2byte	0x1
 6702 10e6 51       		.byte	0x51
 6703 10e7 3E000000 		.4byte	.LVL249
 6704 10eb 8C010000 		.4byte	.LVL292
 6705 10ef 0300     		.2byte	0x3
 6706 10f1 91       		.byte	0x91
 6707 10f2 B47B     		.sleb128 -588
 6708 10f4 8C010000 		.4byte	.LVL292
 6709 10f8 96010000 		.4byte	.LVL297
 6710 10fc 0100     		.2byte	0x1
 6711 10fe 51       		.byte	0x51
 6712 10ff 96010000 		.4byte	.LVL297
 6713 1103 B0010000 		.4byte	.LFE47
 6714 1107 0300     		.2byte	0x3
 6715 1109 91       		.byte	0x91
 6716 110a B47B     		.sleb128 -588
 6717 110c 00000000 		.4byte	0
 6718 1110 00000000 		.4byte	0
ARM GAS  C:\Users\eduar\AppData\Local\Temp\cctEoJXe.s 			page 147


 6719              	.LLST81:
 6720 1114 4A000000 		.4byte	.LVL251
 6721 1118 4C000000 		.4byte	.LVL252
 6722 111c 0100     		.2byte	0x1
 6723 111e 53       		.byte	0x53
 6724 111f 4C000000 		.4byte	.LVL252
 6725 1123 40010000 		.4byte	.LVL283
 6726 1127 0300     		.2byte	0x3
 6727 1129 91       		.byte	0x91
 6728 112a B87B     		.sleb128 -584
 6729 112c 40010000 		.4byte	.LVL283
 6730 1130 44010000 		.4byte	.LVL284
 6731 1134 0200     		.2byte	0x2
 6732 1136 72       		.byte	0x72
 6733 1137 00       		.sleb128 0
 6734 1138 44010000 		.4byte	.LVL284
 6735 113c 46010000 		.4byte	.LVL285
 6736 1140 0200     		.2byte	0x2
 6737 1142 72       		.byte	0x72
 6738 1143 60       		.sleb128 -32
 6739 1144 46010000 		.4byte	.LVL285
 6740 1148 8C010000 		.4byte	.LVL292
 6741 114c 0300     		.2byte	0x3
 6742 114e 91       		.byte	0x91
 6743 114f B87B     		.sleb128 -584
 6744 1151 00000000 		.4byte	0
 6745 1155 00000000 		.4byte	0
 6746              	.LLST82:
 6747 1159 54000000 		.4byte	.LVL254
 6748 115d D2000000 		.4byte	.LVL267
 6749 1161 0200     		.2byte	0x2
 6750 1163 30       		.byte	0x30
 6751 1164 9F       		.byte	0x9f
 6752 1165 D2000000 		.4byte	.LVL267
 6753 1169 0C010000 		.4byte	.LVL275
 6754 116d 0100     		.2byte	0x1
 6755 116f 57       		.byte	0x57
 6756 1170 0C010000 		.4byte	.LVL275
 6757 1174 0E010000 		.4byte	.LVL276
 6758 1178 0100     		.2byte	0x1
 6759 117a 50       		.byte	0x50
 6760 117b 0E010000 		.4byte	.LVL276
 6761 117f 82010000 		.4byte	.LVL291
 6762 1183 0100     		.2byte	0x1
 6763 1185 57       		.byte	0x57
 6764 1186 00000000 		.4byte	0
 6765 118a 00000000 		.4byte	0
 6766              	.LLST83:
 6767 118e 58000000 		.4byte	.LVL255
 6768 1192 74000000 		.4byte	.LVL259
 6769 1196 0100     		.2byte	0x1
 6770 1198 54       		.byte	0x54
 6771 1199 74000000 		.4byte	.LVL259
 6772 119d 78000000 		.4byte	.LVL260
 6773 11a1 0100     		.2byte	0x1
 6774 11a3 53       		.byte	0x53
 6775 11a4 78000000 		.4byte	.LVL260
ARM GAS  C:\Users\eduar\AppData\Local\Temp\cctEoJXe.s 			page 148


 6776 11a8 82010000 		.4byte	.LVL291
 6777 11ac 0100     		.2byte	0x1
 6778 11ae 58       		.byte	0x58
 6779 11af 00000000 		.4byte	0
 6780 11b3 00000000 		.4byte	0
 6781              	.LLST84:
 6782 11b7 1A010000 		.4byte	.LVL278
 6783 11bb 2B010000 		.4byte	.LVL281-1
 6784 11bf 0100     		.2byte	0x1
 6785 11c1 50       		.byte	0x50
 6786 11c2 00000000 		.4byte	0
 6787 11c6 00000000 		.4byte	0
 6788              	.LLST85:
 6789 11ca 00000000 		.4byte	.LVL301
 6790 11ce 18000000 		.4byte	.LVL303
 6791 11d2 0100     		.2byte	0x1
 6792 11d4 50       		.byte	0x50
 6793 11d5 18000000 		.4byte	.LVL303
 6794 11d9 AE000000 		.4byte	.LVL325
 6795 11dd 0100     		.2byte	0x1
 6796 11df 56       		.byte	0x56
 6797 11e0 AE000000 		.4byte	.LVL325
 6798 11e4 C0000000 		.4byte	.LFE48
 6799 11e8 0400     		.2byte	0x4
 6800 11ea F3       		.byte	0xf3
 6801 11eb 01       		.uleb128 0x1
 6802 11ec 50       		.byte	0x50
 6803 11ed 9F       		.byte	0x9f
 6804 11ee 00000000 		.4byte	0
 6805 11f2 00000000 		.4byte	0
 6806              	.LLST86:
 6807 11f6 5C000000 		.4byte	.LVL312
 6808 11fa A2000000 		.4byte	.LVL321
 6809 11fe 0100     		.2byte	0x1
 6810 1200 57       		.byte	0x57
 6811 1201 00000000 		.4byte	0
 6812 1205 00000000 		.4byte	0
 6813              	.LLST87:
 6814 1209 22000000 		.4byte	.LVL305
 6815 120d AE000000 		.4byte	.LVL323
 6816 1211 0100     		.2byte	0x1
 6817 1213 54       		.byte	0x54
 6818 1214 00000000 		.4byte	0
 6819 1218 00000000 		.4byte	0
 6820              	.LLST88:
 6821 121c 10000000 		.4byte	.LVL302
 6822 1220 7C000000 		.4byte	.LVL317
 6823 1224 0100     		.2byte	0x1
 6824 1226 55       		.byte	0x55
 6825 1227 7C000000 		.4byte	.LVL317
 6826 122b 7E000000 		.4byte	.LVL318
 6827 122f 0100     		.2byte	0x1
 6828 1231 50       		.byte	0x50
 6829 1232 7E000000 		.4byte	.LVL318
 6830 1236 AE000000 		.4byte	.LVL324
 6831 123a 0100     		.2byte	0x1
 6832 123c 55       		.byte	0x55
ARM GAS  C:\Users\eduar\AppData\Local\Temp\cctEoJXe.s 			page 149


 6833 123d 00000000 		.4byte	0
 6834 1241 00000000 		.4byte	0
 6835              	.LLST89:
 6836 1245 10000000 		.4byte	.LVL302
 6837 1249 5C000000 		.4byte	.LVL312
 6838 124d 0600     		.2byte	0x6
 6839 124f 0C       		.byte	0xc
 6840 1250 04006E00 		.4byte	0x6e0004
 6841 1254 9F       		.byte	0x9f
 6842 1255 5C000000 		.4byte	.LVL312
 6843 1259 98000000 		.4byte	.LVL320
 6844 125d 0300     		.2byte	0x3
 6845 125f 91       		.byte	0x91
 6846 1260 D47B     		.sleb128 -556
 6847 1262 98000000 		.4byte	.LVL320
 6848 1266 A2000000 		.4byte	.LVL321
 6849 126a 0100     		.2byte	0x1
 6850 126c 50       		.byte	0x50
 6851 126d A2000000 		.4byte	.LVL321
 6852 1271 A6000000 		.4byte	.LVL322
 6853 1275 0600     		.2byte	0x6
 6854 1277 0C       		.byte	0xc
 6855 1278 04006E00 		.4byte	0x6e0004
 6856 127c 9F       		.byte	0x9f
 6857 127d A6000000 		.4byte	.LVL322
 6858 1281 C0000000 		.4byte	.LFE48
 6859 1285 0300     		.2byte	0x3
 6860 1287 91       		.byte	0x91
 6861 1288 D47B     		.sleb128 -556
 6862 128a 00000000 		.4byte	0
 6863 128e 00000000 		.4byte	0
 6864              	.LLST90:
 6865 1292 3E000000 		.4byte	.LVL309
 6866 1296 40000000 		.4byte	.LVL310
 6867 129a 0100     		.2byte	0x1
 6868 129c 53       		.byte	0x53
 6869 129d 40000000 		.4byte	.LVL310
 6870 12a1 A2000000 		.4byte	.LVL321
 6871 12a5 0100     		.2byte	0x1
 6872 12a7 5A       		.byte	0x5a
 6873 12a8 00000000 		.4byte	0
 6874 12ac 00000000 		.4byte	0
 6875              	.LLST91:
 6876 12b0 2E000000 		.4byte	.LVL306
 6877 12b4 30000000 		.4byte	.LVL307
 6878 12b8 0100     		.2byte	0x1
 6879 12ba 53       		.byte	0x53
 6880 12bb 30000000 		.4byte	.LVL307
 6881 12bf A2000000 		.4byte	.LVL321
 6882 12c3 0100     		.2byte	0x1
 6883 12c5 59       		.byte	0x59
 6884 12c6 00000000 		.4byte	0
 6885 12ca 00000000 		.4byte	0
 6886              	.LLST92:
 6887 12ce 00000000 		.4byte	.LVL326
 6888 12d2 04000000 		.4byte	.LVL327
 6889 12d6 0100     		.2byte	0x1
ARM GAS  C:\Users\eduar\AppData\Local\Temp\cctEoJXe.s 			page 150


 6890 12d8 50       		.byte	0x50
 6891 12d9 04000000 		.4byte	.LVL327
 6892 12dd 06000000 		.4byte	.LFE49
 6893 12e1 0400     		.2byte	0x4
 6894 12e3 F3       		.byte	0xf3
 6895 12e4 01       		.uleb128 0x1
 6896 12e5 50       		.byte	0x50
 6897 12e6 9F       		.byte	0x9f
 6898 12e7 00000000 		.4byte	0
 6899 12eb 00000000 		.4byte	0
 6900              		.section	.debug_aranges,"",%progbits
 6901 0000 8C000000 		.4byte	0x8c
 6902 0004 0200     		.2byte	0x2
 6903 0006 00000000 		.4byte	.Ldebug_info0
 6904 000a 04       		.byte	0x4
 6905 000b 00       		.byte	0
 6906 000c 0000     		.2byte	0
 6907 000e 0000     		.2byte	0
 6908 0010 00000000 		.4byte	.LFB50
 6909 0014 30000000 		.4byte	.LFE50-.LFB50
 6910 0018 00000000 		.4byte	.LFB51
 6911 001c 20000000 		.4byte	.LFE51-.LFB51
 6912 0020 00000000 		.4byte	.LFB52
 6913 0024 5C000000 		.4byte	.LFE52-.LFB52
 6914 0028 00000000 		.4byte	.LFB53
 6915 002c 3A000000 		.4byte	.LFE53-.LFB53
 6916 0030 00000000 		.4byte	.LFB54
 6917 0034 5C000000 		.4byte	.LFE54-.LFB54
 6918 0038 00000000 		.4byte	.LFB58
 6919 003c AC000000 		.4byte	.LFE58-.LFB58
 6920 0040 00000000 		.4byte	.LFB55
 6921 0044 58000000 		.4byte	.LFE55-.LFB55
 6922 0048 00000000 		.4byte	.LFB59
 6923 004c 84000000 		.4byte	.LFE59-.LFB59
 6924 0050 00000000 		.4byte	.LFB57
 6925 0054 98000000 		.4byte	.LFE57-.LFB57
 6926 0058 00000000 		.4byte	.LFB56
 6927 005c 8C000000 		.4byte	.LFE56-.LFB56
 6928 0060 00000000 		.4byte	.LFB45
 6929 0064 9C000000 		.4byte	.LFE45-.LFB45
 6930 0068 00000000 		.4byte	.LFB46
 6931 006c 40020000 		.4byte	.LFE46-.LFB46
 6932 0070 00000000 		.4byte	.LFB47
 6933 0074 B0010000 		.4byte	.LFE47-.LFB47
 6934 0078 00000000 		.4byte	.LFB48
 6935 007c C0000000 		.4byte	.LFE48-.LFB48
 6936 0080 00000000 		.4byte	.LFB49
 6937 0084 06000000 		.4byte	.LFE49-.LFB49
 6938 0088 00000000 		.4byte	0
 6939 008c 00000000 		.4byte	0
 6940              		.section	.debug_ranges,"",%progbits
 6941              	.Ldebug_ranges0:
 6942 0000 20000000 		.4byte	.LBB2
 6943 0004 3A000000 		.4byte	.LBE2
 6944 0008 46000000 		.4byte	.LBB3
 6945 000c 48000000 		.4byte	.LBE3
 6946 0010 00000000 		.4byte	0
ARM GAS  C:\Users\eduar\AppData\Local\Temp\cctEoJXe.s 			page 151


 6947 0014 00000000 		.4byte	0
 6948 0018 3A000000 		.4byte	.LBB4
 6949 001c 56000000 		.4byte	.LBE4
 6950 0020 5C000000 		.4byte	.LBB5
 6951 0024 60000000 		.4byte	.LBE5
 6952 0028 00000000 		.4byte	0
 6953 002c 00000000 		.4byte	0
 6954 0030 30000000 		.4byte	.LBB6
 6955 0034 88000000 		.4byte	.LBE6
 6956 0038 8E000000 		.4byte	.LBB13
 6957 003c C8000000 		.4byte	.LBE13
 6958 0040 D8000000 		.4byte	.LBB14
 6959 0044 1A020000 		.4byte	.LBE14
 6960 0048 00000000 		.4byte	0
 6961 004c 00000000 		.4byte	0
 6962 0050 A0000000 		.4byte	.LBB7
 6963 0054 B4000000 		.4byte	.LBE7
 6964 0058 BA000000 		.4byte	.LBB8
 6965 005c C4000000 		.4byte	.LBE8
 6966 0060 00000000 		.4byte	0
 6967 0064 00000000 		.4byte	0
 6968 0068 98010000 		.4byte	.LBB9
 6969 006c 06020000 		.4byte	.LBE9
 6970 0070 08020000 		.4byte	.LBB12
 6971 0074 12020000 		.4byte	.LBE12
 6972 0078 00000000 		.4byte	0
 6973 007c 00000000 		.4byte	0
 6974 0080 B4010000 		.4byte	.LBB10
 6975 0084 06020000 		.4byte	.LBE10
 6976 0088 08020000 		.4byte	.LBB11
 6977 008c 12020000 		.4byte	.LBE11
 6978 0090 00000000 		.4byte	0
 6979 0094 00000000 		.4byte	0
 6980 0098 38000000 		.4byte	.LBB15
 6981 009c 50000000 		.4byte	.LBE15
 6982 00a0 52000000 		.4byte	.LBB18
 6983 00a4 8C010000 		.4byte	.LBE18
 6984 00a8 00000000 		.4byte	0
 6985 00ac 00000000 		.4byte	0
 6986 00b0 26000000 		.4byte	.LBB19
 6987 00b4 54000000 		.4byte	.LBE19
 6988 00b8 5C000000 		.4byte	.LBB20
 6989 00bc A2000000 		.4byte	.LBE20
 6990 00c0 00000000 		.4byte	0
 6991 00c4 00000000 		.4byte	0
 6992 00c8 00000000 		.4byte	.LFB50
 6993 00cc 30000000 		.4byte	.LFE50
 6994 00d0 00000000 		.4byte	.LFB51
 6995 00d4 20000000 		.4byte	.LFE51
 6996 00d8 00000000 		.4byte	.LFB52
 6997 00dc 5C000000 		.4byte	.LFE52
 6998 00e0 00000000 		.4byte	.LFB53
 6999 00e4 3A000000 		.4byte	.LFE53
 7000 00e8 00000000 		.4byte	.LFB54
 7001 00ec 5C000000 		.4byte	.LFE54
 7002 00f0 00000000 		.4byte	.LFB58
 7003 00f4 AC000000 		.4byte	.LFE58
ARM GAS  C:\Users\eduar\AppData\Local\Temp\cctEoJXe.s 			page 152


 7004 00f8 00000000 		.4byte	.LFB55
 7005 00fc 58000000 		.4byte	.LFE55
 7006 0100 00000000 		.4byte	.LFB59
 7007 0104 84000000 		.4byte	.LFE59
 7008 0108 00000000 		.4byte	.LFB57
 7009 010c 98000000 		.4byte	.LFE57
 7010 0110 00000000 		.4byte	.LFB56
 7011 0114 8C000000 		.4byte	.LFE56
 7012 0118 00000000 		.4byte	.LFB45
 7013 011c 9C000000 		.4byte	.LFE45
 7014 0120 00000000 		.4byte	.LFB46
 7015 0124 40020000 		.4byte	.LFE46
 7016 0128 00000000 		.4byte	.LFB47
 7017 012c B0010000 		.4byte	.LFE47
 7018 0130 00000000 		.4byte	.LFB48
 7019 0134 C0000000 		.4byte	.LFE48
 7020 0138 00000000 		.4byte	.LFB49
 7021 013c 06000000 		.4byte	.LFE49
 7022 0140 00000000 		.4byte	0
 7023 0144 00000000 		.4byte	0
 7024              		.section	.debug_line,"",%progbits
 7025              	.Ldebug_line0:
 7026 0000 54060000 		.section	.debug_str,"MS",%progbits,1
 7026      0200EA01 
 7026      00000201 
 7026      FB0E0D00 
 7026      01010101 
 7027              	.LASF57:
 7028 0000 726F7754 		.ascii	"rowToWrPtr\000"
 7028      6F577250 
 7028      747200
 7029              	.LASF109:
 7030 000b 746D7044 		.ascii	"tmpData\000"
 7030      61746100 
 7031              	.LASF23:
 7032 0013 43595F46 		.ascii	"CY_FLASH_DRV_INVALID_FLASH_ADDR\000"
 7032      4C415348 
 7032      5F445256 
 7032      5F494E56 
 7032      414C4944 
 7033              	.LASF48:
 7034 0033 63795F65 		.ascii	"cy_en_em_eeprom_status_t\000"
 7034      6E5F656D 
 7034      5F656570 
 7034      726F6D5F 
 7034      73746174 
 7035              	.LASF68:
 7036 004c 726F774E 		.ascii	"rowNum\000"
 7036      756D00
 7037              	.LASF6:
 7038 0053 5F5F7569 		.ascii	"__uint8_t\000"
 7038      6E74385F 
 7038      7400
 7039              	.LASF80:
 7040 005d 64737441 		.ascii	"dstAddr\000"
 7040      64647200 
 7041              	.LASF112:
ARM GAS  C:\Users\eduar\AppData\Local\Temp\cctEoJXe.s 			page 153


 7042 0065 736B6970 		.ascii	"skipOperation\000"
 7042      4F706572 
 7042      6174696F 
 7042      6E00
 7043              	.LASF115:
 7044 0073 656D4565 		.ascii	"emEepromStoredRowAddr\000"
 7044      70726F6D 
 7044      53746F72 
 7044      6564526F 
 7044      77416464 
 7045              	.LASF110:
 7046 0089 6E756D57 		.ascii	"numWrites\000"
 7046      72697465 
 7046      7300
 7047              	.LASF12:
 7048 0093 6C6F6E67 		.ascii	"long long unsigned int\000"
 7048      206C6F6E 
 7048      6720756E 
 7048      7369676E 
 7048      65642069 
 7049              	.LASF69:
 7050 00aa 61646472 		.ascii	"addr\000"
 7050      00
 7051              	.LASF33:
 7052 00af 65657072 		.ascii	"eepromSize\000"
 7052      6F6D5369 
 7052      7A6500
 7053              	.LASF1:
 7054 00ba 6C6F6E67 		.ascii	"long long int\000"
 7054      206C6F6E 
 7054      6720696E 
 7054      7400
 7055              	.LASF3:
 7056 00c8 7369676E 		.ascii	"signed char\000"
 7056      65642063 
 7056      68617200 
 7057              	.LASF71:
 7058 00d4 57726974 		.ascii	"WriteRow\000"
 7058      65526F77 
 7058      00
 7059              	.LASF55:
 7060 00dd 46696E64 		.ascii	"FindLastWrittenRow\000"
 7060      4C617374 
 7060      57726974 
 7060      74656E52 
 7060      6F7700
 7061              	.LASF116:
 7062 00f0 73746F72 		.ascii	"storedSeqNum\000"
 7062      65645365 
 7062      714E756D 
 7062      00
 7063              	.LASF47:
 7064 00fd 43595F45 		.ascii	"CY_EM_EEPROM_WRITE_FAIL\000"
 7064      4D5F4545 
 7064      50524F4D 
 7064      5F575249 
 7064      54455F46 
ARM GAS  C:\Users\eduar\AppData\Local\Temp\cctEoJXe.s 			page 154


 7065              	.LASF117:
 7066 0115 43795F45 		.ascii	"Cy_Em_EEPROM_NumWrites\000"
 7066      6D5F4545 
 7066      50524F4D 
 7066      5F4E756D 
 7066      57726974 
 7067              	.LASF9:
 7068 012c 6C6F6E67 		.ascii	"long int\000"
 7068      20696E74 
 7068      00
 7069              	.LASF122:
 7070 0135 43795F46 		.ascii	"Cy_Flash_EraseRow\000"
 7070      6C617368 
 7070      5F457261 
 7070      7365526F 
 7070      7700
 7071              	.LASF37:
 7072 0147 75736572 		.ascii	"userFlashStartAddr\000"
 7072      466C6173 
 7072      68537461 
 7072      72744164 
 7072      647200
 7073              	.LASF124:
 7074 015a 6D656D63 		.ascii	"memcpy\000"
 7074      707900
 7075              	.LASF16:
 7076 0161 75696E74 		.ascii	"uint16_t\000"
 7076      31365F74 
 7076      00
 7077              	.LASF19:
 7078 016a 646F7562 		.ascii	"double\000"
 7078      6C6500
 7079              	.LASF88:
 7080 0171 43795F45 		.ascii	"Cy_Em_EEPROM_Read\000"
 7080      6D5F4545 
 7080      50524F4D 
 7080      5F526561 
 7080      6400
 7081              	.LASF95:
 7082 0183 61637445 		.ascii	"actEepromRowNum\000"
 7082      6570726F 
 7082      6D526F77 
 7082      4E756D00 
 7083              	.LASF111:
 7084 0193 65654865 		.ascii	"eeHeaderDataOffset\000"
 7084      61646572 
 7084      44617461 
 7084      4F666673 
 7084      657400
 7085              	.LASF123:
 7086 01a6 43795F46 		.ascii	"Cy_Flash_StartErase\000"
 7086      6C617368 
 7086      5F537461 
 7086      72744572 
 7086      61736500 
 7087              	.LASF10:
 7088 01ba 5F5F7569 		.ascii	"__uint32_t\000"
ARM GAS  C:\Users\eduar\AppData\Local\Temp\cctEoJXe.s 			page 155


 7088      6E743332 
 7088      5F7400
 7089              	.LASF100:
 7090 01c5 75706461 		.ascii	"updateAddrFlag\000"
 7090      74654164 
 7090      6472466C 
 7090      616700
 7091              	.LASF53:
 7092 01d4 6E756D52 		.ascii	"numRows\000"
 7092      6F777300 
 7093              	.LASF102:
 7094 01dc 64617461 		.ascii	"dataEndEepromRowNum\000"
 7094      456E6445 
 7094      6570726F 
 7094      6D526F77 
 7094      4E756D00 
 7095              	.LASF85:
 7096 01f0 72616D42 		.ascii	"ramBuffAddr\000"
 7096      75666641 
 7096      64647200 
 7097              	.LASF35:
 7098 01fc 72656475 		.ascii	"redundantCopy\000"
 7098      6E64616E 
 7098      74436F70 
 7098      7900
 7099              	.LASF21:
 7100 020a 43595F46 		.ascii	"CY_FLASH_DRV_INV_PROT\000"
 7100      4C415348 
 7100      5F445256 
 7100      5F494E56 
 7100      5F50524F 
 7101              	.LASF113:
 7102 0220 64617461 		.ascii	"dataAddr\000"
 7102      41646472 
 7102      00
 7103              	.LASF0:
 7104 0229 756E7369 		.ascii	"unsigned int\000"
 7104      676E6564 
 7104      20696E74 
 7104      00
 7105              	.LASF82:
 7106 0236 6E756D42 		.ascii	"numBytes\000"
 7106      79746573 
 7106      00
 7107              	.LASF52:
 7108 023f 70726576 		.ascii	"prevSeqNum\000"
 7108      5365714E 
 7108      756D00
 7109              	.LASF11:
 7110 024a 6C6F6E67 		.ascii	"long unsigned int\000"
 7110      20756E73 
 7110      69676E65 
 7110      6420696E 
 7110      7400
 7111              	.LASF49:
 7112 025c 6C617374 		.ascii	"lastWrRowPtr\000"
 7112      5772526F 
ARM GAS  C:\Users\eduar\AppData\Local\Temp\cctEoJXe.s 			page 156


 7112      77507472 
 7112      00
 7113              	.LASF79:
 7114 0269 43686563 		.ascii	"CheckCrcAndCopy\000"
 7114      6B437263 
 7114      416E6443 
 7114      6F707900 
 7115              	.LASF103:
 7116 0279 7372634F 		.ascii	"srcOffset\000"
 7116      66667365 
 7116      7400
 7117              	.LASF50:
 7118 0283 636F6E74 		.ascii	"context\000"
 7118      65787400 
 7119              	.LASF90:
 7120 028b 73697A65 		.ascii	"size\000"
 7120      00
 7121              	.LASF66:
 7122 0290 47657441 		.ascii	"GetAddresses\000"
 7122      64647265 
 7122      73736573 
 7122      00
 7123              	.LASF119:
 7124 029d 43795F46 		.ascii	"Cy_Flash_IsOperationComplete\000"
 7124      6C617368 
 7124      5F49734F 
 7124      70657261 
 7124      74696F6E 
 7125              	.LASF107:
 7126 02ba 61637445 		.ascii	"actEmEepromRowNum\000"
 7126      6D456570 
 7126      726F6D52 
 7126      6F774E75 
 7126      6D00
 7127              	.LASF58:
 7128 02cc 726F7754 		.ascii	"rowToRdPtr\000"
 7128      6F526450 
 7128      747200
 7129              	.LASF108:
 7130 02d7 656D4565 		.ascii	"emEepromRowRdAddr\000"
 7130      70726F6D 
 7130      526F7752 
 7130      64416464 
 7130      7200
 7131              	.LASF89:
 7132 02e9 65657072 		.ascii	"eepromData\000"
 7132      6F6D4461 
 7132      746100
 7133              	.LASF94:
 7134 02f4 73746172 		.ascii	"startRowAddr\000"
 7134      74526F77 
 7134      41646472 
 7134      00
 7135              	.LASF92:
 7136 0301 63757245 		.ascii	"curEepromBaseAddr\000"
 7136      6570726F 
 7136      6D426173 
ARM GAS  C:\Users\eduar\AppData\Local\Temp\cctEoJXe.s 			page 157


 7136      65416464 
 7136      7200
 7137              	.LASF84:
 7138 0313 45726173 		.ascii	"EraseRow\000"
 7138      65526F77 
 7138      00
 7139              	.LASF44:
 7140 031c 43595F45 		.ascii	"CY_EM_EEPROM_BAD_PARAM\000"
 7140      4D5F4545 
 7140      50524F4D 
 7140      5F424144 
 7140      5F504152 
 7141              	.LASF45:
 7142 0333 43595F45 		.ascii	"CY_EM_EEPROM_BAD_CHECKSUM\000"
 7142      4D5F4545 
 7142      50524F4D 
 7142      5F424144 
 7142      5F434845 
 7143              	.LASF40:
 7144 034d 6E756D62 		.ascii	"numberOfRows\000"
 7144      65724F66 
 7144      526F7773 
 7144      00
 7145              	.LASF13:
 7146 035a 73697A65 		.ascii	"sizetype\000"
 7146      74797065 
 7146      00
 7147              	.LASF22:
 7148 0363 43595F46 		.ascii	"CY_FLASH_DRV_INVALID_FM_PL\000"
 7148      4C415348 
 7148      5F445256 
 7148      5F494E56 
 7148      414C4944 
 7149              	.LASF73:
 7150 037e 636F756E 		.ascii	"countMs\000"
 7150      744D7300 
 7151              	.LASF27:
 7152 0386 43595F46 		.ascii	"CY_FLASH_DRV_PL_ROW_COMP_FA\000"
 7152      4C415348 
 7152      5F445256 
 7152      5F504C5F 
 7152      524F575F 
 7153              	.LASF114:
 7154 03a2 43795F45 		.ascii	"Cy_Em_EEPROM_Erase\000"
 7154      6D5F4545 
 7154      50524F4D 
 7154      5F457261 
 7154      736500
 7155              	.LASF105:
 7156 03b5 43795F45 		.ascii	"Cy_Em_EEPROM_Write\000"
 7156      6D5F4545 
 7156      50524F4D 
 7156      5F577269 
 7156      746500
 7157              	.LASF51:
 7158 03c8 7365714E 		.ascii	"seqNum\000"
 7158      756D00
ARM GAS  C:\Users\eduar\AppData\Local\Temp\cctEoJXe.s 			page 158


 7159              	.LASF42:
 7160 03cf 63795F73 		.ascii	"cy_stc_eeprom_context_t\000"
 7160      74635F65 
 7160      6570726F 
 7160      6D5F636F 
 7160      6E746578 
 7161              	.LASF24:
 7162 03e7 43595F46 		.ascii	"CY_FLASH_DRV_ROW_PROTECTED\000"
 7162      4C415348 
 7162      5F445256 
 7162      5F524F57 
 7162      5F50524F 
 7163              	.LASF74:
 7164 0402 46696C6C 		.ascii	"FillChecksum\000"
 7164      43686563 
 7164      6B73756D 
 7164      00
 7165              	.LASF120:
 7166 040f 43795F46 		.ascii	"Cy_Flash_WriteRow\000"
 7166      6C617368 
 7166      5F577269 
 7166      7465526F 
 7166      7700
 7167              	.LASF62:
 7168 0421 43686563 		.ascii	"CheckRanges\000"
 7168      6B52616E 
 7168      67657300 
 7169              	.LASF77:
 7170 042d 77724164 		.ascii	"wrAddr\000"
 7170      647200
 7171              	.LASF106:
 7172 0434 7772436E 		.ascii	"wrCnt\000"
 7172      7400
 7173              	.LASF28:
 7174 043a 43595F46 		.ascii	"CY_FLASH_DRV_ERR_UNC\000"
 7174      4C415348 
 7174      5F445256 
 7174      5F455252 
 7174      5F554E43 
 7175              	.LASF18:
 7176 044f 666C6F61 		.ascii	"float\000"
 7176      7400
 7177              	.LASF65:
 7178 0455 656E6441 		.ascii	"endAddr\000"
 7178      64647200 
 7179              	.LASF30:
 7180 045d 43595F46 		.ascii	"CY_FLASH_DRV_OPERATION_STARTED\000"
 7180      4C415348 
 7180      5F445256 
 7180      5F4F5045 
 7180      52415449 
 7181              	.LASF46:
 7182 047c 43595F45 		.ascii	"CY_EM_EEPROM_BAD_DATA\000"
 7182      4D5F4545 
 7182      50524F4D 
 7182      5F424144 
 7182      5F444154 
ARM GAS  C:\Users\eduar\AppData\Local\Temp\cctEoJXe.s 			page 159


 7183              	.LASF39:
 7184 0492 776C456E 		.ascii	"wlEndAddr\000"
 7184      64416464 
 7184      7200
 7185              	.LASF4:
 7186 049c 756E7369 		.ascii	"unsigned char\000"
 7186      676E6564 
 7186      20636861 
 7186      7200
 7187              	.LASF29:
 7188 04aa 43595F46 		.ascii	"CY_FLASH_DRV_PROGRESS_NO_ERROR\000"
 7188      4C415348 
 7188      5F445256 
 7188      5F50524F 
 7188      47524553 
 7189              	.LASF72:
 7190 04c9 726F7741 		.ascii	"rowAddr\000"
 7190      64647200 
 7191              	.LASF5:
 7192 04d1 73686F72 		.ascii	"short int\000"
 7192      7420696E 
 7192      7400
 7193              	.LASF121:
 7194 04db 43795F46 		.ascii	"Cy_Flash_StartWrite\000"
 7194      6C617368 
 7194      5F537461 
 7194      72745772 
 7194      69746500 
 7195              	.LASF97:
 7196 04ef 64617461 		.ascii	"dataStartEepromRowNum\000"
 7196      53746172 
 7196      74456570 
 7196      726F6D52 
 7196      6F774E75 
 7197              	.LASF87:
 7198 0505 43795F45 		.ascii	"Cy_Em_EEPROM_Init\000"
 7198      6D5F4545 
 7198      50524F4D 
 7198      5F496E69 
 7198      7400
 7199              	.LASF128:
 7200 0517 433A5C55 		.ascii	"C:\\Users\\eduar\\Documents\\PSoC Creator\\projeto_"
 7200      73657273 
 7200      5C656475 
 7200      61725C44 
 7200      6F63756D 
 7201 0545 49435C64 		.ascii	"IC\\deteccaoDeFalhas.cydsn\000"
 7201      65746563 
 7201      63616F44 
 7201      6546616C 
 7201      6861732E 
 7202              	.LASF76:
 7203 055f 77726974 		.ascii	"writeRamBuffer\000"
 7203      6552616D 
 7203      42756666 
 7203      657200
 7204              	.LASF81:
ARM GAS  C:\Users\eduar\AppData\Local\Temp\cctEoJXe.s 			page 160


 7205 056e 726F774F 		.ascii	"rowOffset\000"
 7205      66667365 
 7205      7400
 7206              	.LASF17:
 7207 0578 75696E74 		.ascii	"uint32_t\000"
 7207      33325F74 
 7207      00
 7208              	.LASF83:
 7209 0581 72635374 		.ascii	"rcStartRowAddr\000"
 7209      61727452 
 7209      6F774164 
 7209      647200
 7210              	.LASF118:
 7211 0590 43795F53 		.ascii	"Cy_SysLib_Delay\000"
 7211      79734C69 
 7211      625F4465 
 7211      6C617900 
 7212              	.LASF26:
 7213 05a0 43595F46 		.ascii	"CY_FLASH_DRV_INVALID_INPUT_PARAMETERS\000"
 7213      4C415348 
 7213      5F445256 
 7213      5F494E56 
 7213      414C4944 
 7214              	.LASF126:
 7215 05c6 474E5520 		.ascii	"GNU C11 5.4.1 20160609 (release) [ARM/embedded-5-br"
 7215      43313120 
 7215      352E342E 
 7215      31203230 
 7215      31363036 
 7216 05f9 616E6368 		.ascii	"anch revision 237715] -mcpu=cortex-m0plus -mthumb -"
 7216      20726576 
 7216      6973696F 
 7216      6E203233 
 7216      37373135 
 7217 062c 67202D4F 		.ascii	"g -Og -ffunction-sections -ffat-lto-objects\000"
 7217      67202D66 
 7217      66756E63 
 7217      74696F6E 
 7217      2D736563 
 7218              	.LASF25:
 7219 0658 43595F46 		.ascii	"CY_FLASH_DRV_IPC_BUSY\000"
 7219      4C415348 
 7219      5F445256 
 7219      5F495043 
 7219      5F425553 
 7220              	.LASF2:
 7221 066e 6C6F6E67 		.ascii	"long double\000"
 7221      20646F75 
 7221      626C6500 
 7222              	.LASF14:
 7223 067a 63686172 		.ascii	"char\000"
 7223      00
 7224              	.LASF32:
 7225 067f 63795F65 		.ascii	"cy_en_flashdrv_status_t\000"
 7225      6E5F666C 
 7225      61736864 
 7225      72765F73 
ARM GAS  C:\Users\eduar\AppData\Local\Temp\cctEoJXe.s 			page 161


 7225      74617475 
 7226              	.LASF63:
 7227 0697 636F6E66 		.ascii	"config\000"
 7227      696700
 7228              	.LASF91:
 7229 069e 6E756D42 		.ascii	"numBytesToRead\000"
 7229      79746573 
 7229      546F5265 
 7229      616400
 7230              	.LASF7:
 7231 06ad 5F5F7569 		.ascii	"__uint16_t\000"
 7231      6E743136 
 7231      5F7400
 7232              	.LASF64:
 7233 06b8 73746172 		.ascii	"startAddr\000"
 7233      74416464 
 7233      7200
 7234              	.LASF56:
 7235 06c2 4765744E 		.ascii	"GetNextRowToWrite\000"
 7235      65787452 
 7235      6F77546F 
 7235      57726974 
 7235      6500
 7236              	.LASF15:
 7237 06d4 75696E74 		.ascii	"uint8_t\000"
 7237      385F7400 
 7238              	.LASF70:
 7239 06dc 736B6970 		.ascii	"skip\000"
 7239      00
 7240              	.LASF67:
 7241 06e1 6F666673 		.ascii	"offset\000"
 7241      657400
 7242              	.LASF8:
 7243 06e8 73686F72 		.ascii	"short unsigned int\000"
 7243      7420756E 
 7243      7369676E 
 7243      65642069 
 7243      6E7400
 7244              	.LASF41:
 7245 06fb 6C617374 		.ascii	"lastWrRowAddr\000"
 7245      5772526F 
 7245      77416464 
 7245      7200
 7246              	.LASF54:
 7247 0709 656D4565 		.ascii	"emEepromAddr\000"
 7247      70726F6D 
 7247      41646472 
 7247      00
 7248              	.LASF78:
 7249 0716 746D7052 		.ascii	"tmpRowAddr\000"
 7249      6F774164 
 7249      647200
 7250              	.LASF93:
 7251 0721 63757252 		.ascii	"curRowOffset\000"
 7251      6F774F66 
 7251      66736574 
 7251      00
ARM GAS  C:\Users\eduar\AppData\Local\Temp\cctEoJXe.s 			page 162


 7252              	.LASF38:
 7253 072e 63795F73 		.ascii	"cy_stc_eeprom_config_t\000"
 7253      74635F65 
 7253      6570726F 
 7253      6D5F636F 
 7253      6E666967 
 7254              	.LASF99:
 7255 0745 72645369 		.ascii	"rdSize\000"
 7255      7A6500
 7256              	.LASF34:
 7257 074c 77656172 		.ascii	"wearLevelingFactor\000"
 7257      4C657665 
 7257      6C696E67 
 7257      46616374 
 7257      6F7200
 7258              	.LASF43:
 7259 075f 43595F45 		.ascii	"CY_EM_EEPROM_SUCCESS\000"
 7259      4D5F4545 
 7259      50524F4D 
 7259      5F535543 
 7259      43455353 
 7260              	.LASF125:
 7261 0774 6D656D73 		.ascii	"memset\000"
 7261      657400
 7262              	.LASF75:
 7263 077b 72644164 		.ascii	"rdAddr\000"
 7263      647200
 7264              	.LASF127:
 7265 0782 47656E65 		.ascii	"Generated_Source\\PSoC6\\pdl\\middleware\\em_eeprom"
 7265      72617465 
 7265      645F536F 
 7265      75726365 
 7265      5C50536F 
 7266 07b1 5C63795F 		.ascii	"\\cy_em_eeprom.c\000"
 7266      656D5F65 
 7266      6570726F 
 7266      6D2E6300 
 7267              	.LASF104:
 7268 07c1 6473744F 		.ascii	"dstOffset\000"
 7268      66667365 
 7268      7400
 7269              	.LASF59:
 7270 07cb 47657452 		.ascii	"GetRowAddrBySeqNum\000"
 7270      6F774164 
 7270      64724279 
 7270      5365714E 
 7270      756D00
 7271              	.LASF129:
 7272 07de 63795F65 		.ascii	"cy_en_flashdrv_status\000"
 7272      6E5F666C 
 7272      61736864 
 7272      72765F73 
 7272      74617475 
 7273              	.LASF36:
 7274 07f4 626C6F63 		.ascii	"blockingWrite\000"
 7274      6B696E67 
 7274      57726974 
ARM GAS  C:\Users\eduar\AppData\Local\Temp\cctEoJXe.s 			page 163


 7274      6500
 7275              	.LASF96:
 7276 0802 63757252 		.ascii	"curRdEepromRowNum\000"
 7276      64456570 
 7276      726F6D52 
 7276      6F774E75 
 7276      6D00
 7277              	.LASF60:
 7278 0814 43616C63 		.ascii	"CalcChecksum\000"
 7278      43686563 
 7278      6B73756D 
 7278      00
 7279              	.LASF61:
 7280 0821 726F7744 		.ascii	"rowData\000"
 7280      61746100 
 7281              	.LASF101:
 7282 0829 6E756D52 		.ascii	"numRowReads\000"
 7282      6F775265 
 7282      61647300 
 7283              	.LASF86:
 7284 0835 656D4565 		.ascii	"emEepromRowAddr\000"
 7284      70726F6D 
 7284      526F7741 
 7284      64647200 
 7285              	.LASF98:
 7286 0845 65654461 		.ascii	"eeData\000"
 7286      746100
 7287              	.LASF31:
 7288 084c 43595F46 		.ascii	"CY_FLASH_DRV_OPCODE_BUSY\000"
 7288      4C415348 
 7288      5F445256 
 7288      5F4F5043 
 7288      4F44455F 
 7289              	.LASF20:
 7290 0865 43595F46 		.ascii	"CY_FLASH_DRV_SUCCESS\000"
 7290      4C415348 
 7290      5F445256 
 7290      5F535543 
 7290      43455353 
 7291              		.ident	"GCC: (GNU Tools for ARM Embedded Processors) 5.4.1 20160609 (release) [ARM/embedded-5-bran
