ARM GAS  C:\Users\eduar\AppData\Local\Temp\cctEoJXe.s 			page 1


   1              		.syntax unified
   2              		.cpu cortex-m0plus
   3              		.fpu softvfp
   4              		.eabi_attribute 20, 1
   5              		.eabi_attribute 21, 1
   6              		.eabi_attribute 23, 3
   7              		.eabi_attribute 24, 1
   8              		.eabi_attribute 25, 1
   9              		.eabi_attribute 26, 1
  10              		.eabi_attribute 30, 1
  11              		.eabi_attribute 34, 0
  12              		.eabi_attribute 18, 4
  13              		.thumb
  14              		.syntax unified
  15              		.file	"cy_em_eeprom.c"
  16              		.text
  17              	.Ltext0:
  18              		.cfi_sections	.debug_frame
  19              		.section	.text.FindLastWrittenRow,"ax",%progbits
  20              		.align	2
  21              		.code	16
  22              		.thumb_func
  23              		.type	FindLastWrittenRow, %function
  24              	FindLastWrittenRow:
  25              	.LFB50:
  26              		.file 1 "Generated_Source\\PSoC6\\pdl\\middleware\\em_eeprom\\cy_em_eeprom.c"
   1:Generated_Source\PSoC6\pdl\middleware\em_eeprom/cy_em_eeprom.c **** /***************************************************************************//**
   2:Generated_Source\PSoC6\pdl\middleware\em_eeprom/cy_em_eeprom.c **** * \file cy_em_eeprom.c
   3:Generated_Source\PSoC6\pdl\middleware\em_eeprom/cy_em_eeprom.c **** * \version 1.10
   4:Generated_Source\PSoC6\pdl\middleware\em_eeprom/cy_em_eeprom.c **** *
   5:Generated_Source\PSoC6\pdl\middleware\em_eeprom/cy_em_eeprom.c **** * \brief
   6:Generated_Source\PSoC6\pdl\middleware\em_eeprom/cy_em_eeprom.c **** *  This file provides source code of the API for the Emulated EEPROM library.
   7:Generated_Source\PSoC6\pdl\middleware\em_eeprom/cy_em_eeprom.c **** *  The Emulated EEPROM API allows creating of an emulated EEPROM in flash that
   8:Generated_Source\PSoC6\pdl\middleware\em_eeprom/cy_em_eeprom.c **** *  has the ability to do wear leveling and restore corrupted data from a
   9:Generated_Source\PSoC6\pdl\middleware\em_eeprom/cy_em_eeprom.c **** *  redundant copy.
  10:Generated_Source\PSoC6\pdl\middleware\em_eeprom/cy_em_eeprom.c **** *
  11:Generated_Source\PSoC6\pdl\middleware\em_eeprom/cy_em_eeprom.c **** ********************************************************************************
  12:Generated_Source\PSoC6\pdl\middleware\em_eeprom/cy_em_eeprom.c **** * \copyright
  13:Generated_Source\PSoC6\pdl\middleware\em_eeprom/cy_em_eeprom.c **** * Copyright 2017-2018, Cypress Semiconductor Corporation.  All rights reserved.
  14:Generated_Source\PSoC6\pdl\middleware\em_eeprom/cy_em_eeprom.c **** * You may use this file only in accordance with the license, terms, conditions,
  15:Generated_Source\PSoC6\pdl\middleware\em_eeprom/cy_em_eeprom.c **** * disclaimers, and limitations in the end user license agreement accompanying
  16:Generated_Source\PSoC6\pdl\middleware\em_eeprom/cy_em_eeprom.c **** * the software package with which this file was provided.
  17:Generated_Source\PSoC6\pdl\middleware\em_eeprom/cy_em_eeprom.c **** *******************************************************************************/
  18:Generated_Source\PSoC6\pdl\middleware\em_eeprom/cy_em_eeprom.c **** 
  19:Generated_Source\PSoC6\pdl\middleware\em_eeprom/cy_em_eeprom.c **** 
  20:Generated_Source\PSoC6\pdl\middleware\em_eeprom/cy_em_eeprom.c **** #include <string.h>
  21:Generated_Source\PSoC6\pdl\middleware\em_eeprom/cy_em_eeprom.c **** 
  22:Generated_Source\PSoC6\pdl\middleware\em_eeprom/cy_em_eeprom.c **** #include "cy_em_eeprom.h"
  23:Generated_Source\PSoC6\pdl\middleware\em_eeprom/cy_em_eeprom.c **** 
  24:Generated_Source\PSoC6\pdl\middleware\em_eeprom/cy_em_eeprom.c **** 
  25:Generated_Source\PSoC6\pdl\middleware\em_eeprom/cy_em_eeprom.c **** #if defined(__cplusplus)
  26:Generated_Source\PSoC6\pdl\middleware\em_eeprom/cy_em_eeprom.c **** extern "C" {
  27:Generated_Source\PSoC6\pdl\middleware\em_eeprom/cy_em_eeprom.c **** #endif
  28:Generated_Source\PSoC6\pdl\middleware\em_eeprom/cy_em_eeprom.c **** 
  29:Generated_Source\PSoC6\pdl\middleware\em_eeprom/cy_em_eeprom.c **** 
  30:Generated_Source\PSoC6\pdl\middleware\em_eeprom/cy_em_eeprom.c **** /***************************************
  31:Generated_Source\PSoC6\pdl\middleware\em_eeprom/cy_em_eeprom.c **** * Private Function Prototypes
ARM GAS  C:\Users\eduar\AppData\Local\Temp\cctEoJXe.s 			page 2


  32:Generated_Source\PSoC6\pdl\middleware\em_eeprom/cy_em_eeprom.c **** ***************************************/
  33:Generated_Source\PSoC6\pdl\middleware\em_eeprom/cy_em_eeprom.c **** static void FindLastWrittenRow(uint32_t * lastWrRowPtr, cy_stc_eeprom_context_t * context);
  34:Generated_Source\PSoC6\pdl\middleware\em_eeprom/cy_em_eeprom.c **** static uint32_t GetRowAddrBySeqNum(uint32_t seqNum, cy_stc_eeprom_context_t * context);
  35:Generated_Source\PSoC6\pdl\middleware\em_eeprom/cy_em_eeprom.c **** static uint8_t CalcChecksum(uint8_t rowData[], uint32_t len);
  36:Generated_Source\PSoC6\pdl\middleware\em_eeprom/cy_em_eeprom.c **** static void GetNextRowToWrite(uint32_t seqNum,
  37:Generated_Source\PSoC6\pdl\middleware\em_eeprom/cy_em_eeprom.c ****                             uint32_t * rowToWrPtr,
  38:Generated_Source\PSoC6\pdl\middleware\em_eeprom/cy_em_eeprom.c ****                             uint32_t * rowToRdPtr,
  39:Generated_Source\PSoC6\pdl\middleware\em_eeprom/cy_em_eeprom.c ****                             cy_stc_eeprom_context_t * context);
  40:Generated_Source\PSoC6\pdl\middleware\em_eeprom/cy_em_eeprom.c **** static cy_en_em_eeprom_status_t CheckRanges(cy_stc_eeprom_config_t* config);
  41:Generated_Source\PSoC6\pdl\middleware\em_eeprom/cy_em_eeprom.c **** static cy_en_em_eeprom_status_t WriteRow(uint32_t rowAddr, uint32_t *rowData, cy_stc_eeprom_context
  42:Generated_Source\PSoC6\pdl\middleware\em_eeprom/cy_em_eeprom.c **** static cy_en_em_eeprom_status_t EraseRow(uint32_t rowAddr, uint32_t ramBuffAddr, cy_stc_eeprom_cont
  43:Generated_Source\PSoC6\pdl\middleware\em_eeprom/cy_em_eeprom.c **** static cy_en_em_eeprom_status_t CheckCrcAndCopy(uint32_t startAddr,
  44:Generated_Source\PSoC6\pdl\middleware\em_eeprom/cy_em_eeprom.c ****                                                 uint32_t dstAddr,
  45:Generated_Source\PSoC6\pdl\middleware\em_eeprom/cy_em_eeprom.c ****                                                 uint32_t rowOffset,
  46:Generated_Source\PSoC6\pdl\middleware\em_eeprom/cy_em_eeprom.c ****                                                 uint32_t numBytes,
  47:Generated_Source\PSoC6\pdl\middleware\em_eeprom/cy_em_eeprom.c ****                                                 cy_stc_eeprom_context_t * context);
  48:Generated_Source\PSoC6\pdl\middleware\em_eeprom/cy_em_eeprom.c **** static uint32_t GetAddresses(uint32_t *startAddr, uint32_t *endAddr, uint32_t *offset, uint32_t row
  49:Generated_Source\PSoC6\pdl\middleware\em_eeprom/cy_em_eeprom.c **** static cy_en_em_eeprom_status_t FillChecksum(cy_stc_eeprom_context_t * context);
  50:Generated_Source\PSoC6\pdl\middleware\em_eeprom/cy_em_eeprom.c **** 
  51:Generated_Source\PSoC6\pdl\middleware\em_eeprom/cy_em_eeprom.c **** /**
  52:Generated_Source\PSoC6\pdl\middleware\em_eeprom/cy_em_eeprom.c **** * \addtogroup group_em_eeprom_functions
  53:Generated_Source\PSoC6\pdl\middleware\em_eeprom/cy_em_eeprom.c **** * \{
  54:Generated_Source\PSoC6\pdl\middleware\em_eeprom/cy_em_eeprom.c **** */
  55:Generated_Source\PSoC6\pdl\middleware\em_eeprom/cy_em_eeprom.c **** 
  56:Generated_Source\PSoC6\pdl\middleware\em_eeprom/cy_em_eeprom.c **** /*******************************************************************************
  57:Generated_Source\PSoC6\pdl\middleware\em_eeprom/cy_em_eeprom.c **** * Function Name: Cy_Em_EEPROM_Init
  58:Generated_Source\PSoC6\pdl\middleware\em_eeprom/cy_em_eeprom.c **** ****************************************************************************//**
  59:Generated_Source\PSoC6\pdl\middleware\em_eeprom/cy_em_eeprom.c **** *
  60:Generated_Source\PSoC6\pdl\middleware\em_eeprom/cy_em_eeprom.c **** * Initializes the Emulated EEPROM library by filling the context structure. 
  61:Generated_Source\PSoC6\pdl\middleware\em_eeprom/cy_em_eeprom.c **** *
  62:Generated_Source\PSoC6\pdl\middleware\em_eeprom/cy_em_eeprom.c **** * \param config
  63:Generated_Source\PSoC6\pdl\middleware\em_eeprom/cy_em_eeprom.c **** * The pointer to a configuration structure. See \ref cy_stc_eeprom_config_t.
  64:Generated_Source\PSoC6\pdl\middleware\em_eeprom/cy_em_eeprom.c **** *
  65:Generated_Source\PSoC6\pdl\middleware\em_eeprom/cy_em_eeprom.c **** * \param context
  66:Generated_Source\PSoC6\pdl\middleware\em_eeprom/cy_em_eeprom.c **** * The pointer to the EEPROM context structure to be filled by the function.
  67:Generated_Source\PSoC6\pdl\middleware\em_eeprom/cy_em_eeprom.c **** * \ref cy_stc_eeprom_context_t.
  68:Generated_Source\PSoC6\pdl\middleware\em_eeprom/cy_em_eeprom.c **** *
  69:Generated_Source\PSoC6\pdl\middleware\em_eeprom/cy_em_eeprom.c **** * \return
  70:Generated_Source\PSoC6\pdl\middleware\em_eeprom/cy_em_eeprom.c **** * error / status code. See \ref cy_en_em_eeprom_status_t.
  71:Generated_Source\PSoC6\pdl\middleware\em_eeprom/cy_em_eeprom.c **** *
  72:Generated_Source\PSoC6\pdl\middleware\em_eeprom/cy_em_eeprom.c **** * \note
  73:Generated_Source\PSoC6\pdl\middleware\em_eeprom/cy_em_eeprom.c **** * The context structure should not be modified by the user after it is filled
  74:Generated_Source\PSoC6\pdl\middleware\em_eeprom/cy_em_eeprom.c **** * with this function. Modification of context structure may cause the 
  75:Generated_Source\PSoC6\pdl\middleware\em_eeprom/cy_em_eeprom.c **** * unexpected behavior of the Cy_Em_EEPROM API functions which rely on it.
  76:Generated_Source\PSoC6\pdl\middleware\em_eeprom/cy_em_eeprom.c **** *
  77:Generated_Source\PSoC6\pdl\middleware\em_eeprom/cy_em_eeprom.c **** * \note
  78:Generated_Source\PSoC6\pdl\middleware\em_eeprom/cy_em_eeprom.c **** * This function uses a buffer of the flash row size to perform read
  79:Generated_Source\PSoC6\pdl\middleware\em_eeprom/cy_em_eeprom.c **** * operation. For the size of the row refer to the specific PSoC device
  80:Generated_Source\PSoC6\pdl\middleware\em_eeprom/cy_em_eeprom.c **** * datasheet.
  81:Generated_Source\PSoC6\pdl\middleware\em_eeprom/cy_em_eeprom.c **** *
  82:Generated_Source\PSoC6\pdl\middleware\em_eeprom/cy_em_eeprom.c **** * \sideeffect 
  83:Generated_Source\PSoC6\pdl\middleware\em_eeprom/cy_em_eeprom.c **** * If the "Redundant Copy" option is used, the function performs a number of 
  84:Generated_Source\PSoC6\pdl\middleware\em_eeprom/cy_em_eeprom.c **** * write operations to the EEPROM to initialize flash rows checksums. Therefore,
  85:Generated_Source\PSoC6\pdl\middleware\em_eeprom/cy_em_eeprom.c **** * Cy_Em_EEPROM_NumWrites(), when it is called right after Cy_Em_EEPROM_Init(), 
  86:Generated_Source\PSoC6\pdl\middleware\em_eeprom/cy_em_eeprom.c **** * will return a non-zero value that identifies the number of writes performed 
  87:Generated_Source\PSoC6\pdl\middleware\em_eeprom/cy_em_eeprom.c **** * by Cy_Em_EEPROM_Init().
  88:Generated_Source\PSoC6\pdl\middleware\em_eeprom/cy_em_eeprom.c **** *
ARM GAS  C:\Users\eduar\AppData\Local\Temp\cctEoJXe.s 			page 3


  89:Generated_Source\PSoC6\pdl\middleware\em_eeprom/cy_em_eeprom.c **** *******************************************************************************/
  90:Generated_Source\PSoC6\pdl\middleware\em_eeprom/cy_em_eeprom.c **** cy_en_em_eeprom_status_t Cy_Em_EEPROM_Init(cy_stc_eeprom_config_t* config, cy_stc_eeprom_context_t 
  91:Generated_Source\PSoC6\pdl\middleware\em_eeprom/cy_em_eeprom.c **** {
  92:Generated_Source\PSoC6\pdl\middleware\em_eeprom/cy_em_eeprom.c ****     cy_en_em_eeprom_status_t ret = CY_EM_EEPROM_BAD_PARAM;
  93:Generated_Source\PSoC6\pdl\middleware\em_eeprom/cy_em_eeprom.c **** 
  94:Generated_Source\PSoC6\pdl\middleware\em_eeprom/cy_em_eeprom.c ****     if((NULL != context) && (NULL != config) && (NULL != ((uint32_t *)config->userFlashStartAddr)) 
  95:Generated_Source\PSoC6\pdl\middleware\em_eeprom/cy_em_eeprom.c ****         (config->wearLevelingFactor <= CY_EM_EEPROM_MAX_WEAR_LEVELING_FACTOR) && (config->eepromSiz
  96:Generated_Source\PSoC6\pdl\middleware\em_eeprom/cy_em_eeprom.c ****     {
  97:Generated_Source\PSoC6\pdl\middleware\em_eeprom/cy_em_eeprom.c ****         ret = CheckRanges(config);
  98:Generated_Source\PSoC6\pdl\middleware\em_eeprom/cy_em_eeprom.c **** 
  99:Generated_Source\PSoC6\pdl\middleware\em_eeprom/cy_em_eeprom.c ****         if(CY_EM_EEPROM_SUCCESS == ret)
 100:Generated_Source\PSoC6\pdl\middleware\em_eeprom/cy_em_eeprom.c ****         {
 101:Generated_Source\PSoC6\pdl\middleware\em_eeprom/cy_em_eeprom.c ****             /* Copy the user config structure fields into context */
 102:Generated_Source\PSoC6\pdl\middleware\em_eeprom/cy_em_eeprom.c ****             context->eepromSize = config->eepromSize;
 103:Generated_Source\PSoC6\pdl\middleware\em_eeprom/cy_em_eeprom.c ****             context->wearLevelingFactor = config->wearLevelingFactor;
 104:Generated_Source\PSoC6\pdl\middleware\em_eeprom/cy_em_eeprom.c ****             context->redundantCopy = config->redundantCopy;
 105:Generated_Source\PSoC6\pdl\middleware\em_eeprom/cy_em_eeprom.c ****             context->blockingWrite = config->blockingWrite;
 106:Generated_Source\PSoC6\pdl\middleware\em_eeprom/cy_em_eeprom.c ****             context->userFlashStartAddr = config->userFlashStartAddr;
 107:Generated_Source\PSoC6\pdl\middleware\em_eeprom/cy_em_eeprom.c ****             /* Store frequently used data for internal use */
 108:Generated_Source\PSoC6\pdl\middleware\em_eeprom/cy_em_eeprom.c ****             context->numberOfRows = CY_EM_EEPROM_GET_NUM_ROWS_IN_EEPROM(config->eepromSize);
 109:Generated_Source\PSoC6\pdl\middleware\em_eeprom/cy_em_eeprom.c ****             context->wlEndAddr = ((CY_EM_EEPROM_GET_EEPROM_SIZE(context->numberOfRows) * config->we
 110:Generated_Source\PSoC6\pdl\middleware\em_eeprom/cy_em_eeprom.c ****                     config->userFlashStartAddr);
 111:Generated_Source\PSoC6\pdl\middleware\em_eeprom/cy_em_eeprom.c ****             /* Find last written EEPROM row and store it for quick access */
 112:Generated_Source\PSoC6\pdl\middleware\em_eeprom/cy_em_eeprom.c ****             FindLastWrittenRow(&context->lastWrRowAddr, context);
 113:Generated_Source\PSoC6\pdl\middleware\em_eeprom/cy_em_eeprom.c **** 
 114:Generated_Source\PSoC6\pdl\middleware\em_eeprom/cy_em_eeprom.c ****             if((0u == CY_EM_EEPROM_GET_SEQ_NUM(context->lastWrRowAddr)) && (0u != context->redundan
 115:Generated_Source\PSoC6\pdl\middleware\em_eeprom/cy_em_eeprom.c ****             {
 116:Generated_Source\PSoC6\pdl\middleware\em_eeprom/cy_em_eeprom.c ****                 /* Call the function only after device reprogramming in case
 117:Generated_Source\PSoC6\pdl\middleware\em_eeprom/cy_em_eeprom.c ****                 * if redundant copy is enabled.
 118:Generated_Source\PSoC6\pdl\middleware\em_eeprom/cy_em_eeprom.c ****                 */
 119:Generated_Source\PSoC6\pdl\middleware\em_eeprom/cy_em_eeprom.c ****                 ret = FillChecksum(context);
 120:Generated_Source\PSoC6\pdl\middleware\em_eeprom/cy_em_eeprom.c ****                 
 121:Generated_Source\PSoC6\pdl\middleware\em_eeprom/cy_em_eeprom.c ****                 /* Update the last written EEPROM row for Cy_Em_EEPROM_NumWrites() */
 122:Generated_Source\PSoC6\pdl\middleware\em_eeprom/cy_em_eeprom.c ****                 FindLastWrittenRow(&context->lastWrRowAddr, context);
 123:Generated_Source\PSoC6\pdl\middleware\em_eeprom/cy_em_eeprom.c ****             }
 124:Generated_Source\PSoC6\pdl\middleware\em_eeprom/cy_em_eeprom.c ****         }
 125:Generated_Source\PSoC6\pdl\middleware\em_eeprom/cy_em_eeprom.c ****     }
 126:Generated_Source\PSoC6\pdl\middleware\em_eeprom/cy_em_eeprom.c **** 
 127:Generated_Source\PSoC6\pdl\middleware\em_eeprom/cy_em_eeprom.c ****     return(ret);
 128:Generated_Source\PSoC6\pdl\middleware\em_eeprom/cy_em_eeprom.c **** }
 129:Generated_Source\PSoC6\pdl\middleware\em_eeprom/cy_em_eeprom.c **** 
 130:Generated_Source\PSoC6\pdl\middleware\em_eeprom/cy_em_eeprom.c **** 
 131:Generated_Source\PSoC6\pdl\middleware\em_eeprom/cy_em_eeprom.c **** /*******************************************************************************
 132:Generated_Source\PSoC6\pdl\middleware\em_eeprom/cy_em_eeprom.c **** * Function Name: Cy_Em_EEPROM_Read
 133:Generated_Source\PSoC6\pdl\middleware\em_eeprom/cy_em_eeprom.c **** ****************************************************************************//**
 134:Generated_Source\PSoC6\pdl\middleware\em_eeprom/cy_em_eeprom.c **** *
 135:Generated_Source\PSoC6\pdl\middleware\em_eeprom/cy_em_eeprom.c **** * This function takes the logical EEPROM address, converts it to the actual
 136:Generated_Source\PSoC6\pdl\middleware\em_eeprom/cy_em_eeprom.c **** * physical address where the data is stored and returns the data to the user.
 137:Generated_Source\PSoC6\pdl\middleware\em_eeprom/cy_em_eeprom.c **** *
 138:Generated_Source\PSoC6\pdl\middleware\em_eeprom/cy_em_eeprom.c **** * \param addr
 139:Generated_Source\PSoC6\pdl\middleware\em_eeprom/cy_em_eeprom.c **** * The logical start address in EEPROM to start reading data from.
 140:Generated_Source\PSoC6\pdl\middleware\em_eeprom/cy_em_eeprom.c **** *
 141:Generated_Source\PSoC6\pdl\middleware\em_eeprom/cy_em_eeprom.c **** * \param eepromData
 142:Generated_Source\PSoC6\pdl\middleware\em_eeprom/cy_em_eeprom.c **** * The pointer to a user array to write data to.
 143:Generated_Source\PSoC6\pdl\middleware\em_eeprom/cy_em_eeprom.c **** *
 144:Generated_Source\PSoC6\pdl\middleware\em_eeprom/cy_em_eeprom.c **** * \param size
 145:Generated_Source\PSoC6\pdl\middleware\em_eeprom/cy_em_eeprom.c **** * The amount of data to read.
ARM GAS  C:\Users\eduar\AppData\Local\Temp\cctEoJXe.s 			page 4


 146:Generated_Source\PSoC6\pdl\middleware\em_eeprom/cy_em_eeprom.c **** *
 147:Generated_Source\PSoC6\pdl\middleware\em_eeprom/cy_em_eeprom.c **** * \param context
 148:Generated_Source\PSoC6\pdl\middleware\em_eeprom/cy_em_eeprom.c **** * The pointer to the EEPROM context structure \ref cy_stc_eeprom_context_t.
 149:Generated_Source\PSoC6\pdl\middleware\em_eeprom/cy_em_eeprom.c **** *
 150:Generated_Source\PSoC6\pdl\middleware\em_eeprom/cy_em_eeprom.c **** * \return
 151:Generated_Source\PSoC6\pdl\middleware\em_eeprom/cy_em_eeprom.c **** * This function returns \ref cy_en_em_eeprom_status_t.
 152:Generated_Source\PSoC6\pdl\middleware\em_eeprom/cy_em_eeprom.c **** *
 153:Generated_Source\PSoC6\pdl\middleware\em_eeprom/cy_em_eeprom.c **** * \note
 154:Generated_Source\PSoC6\pdl\middleware\em_eeprom/cy_em_eeprom.c **** * This function uses a buffer of the flash row size to perform read
 155:Generated_Source\PSoC6\pdl\middleware\em_eeprom/cy_em_eeprom.c **** * operation. For the size of the row refer to the specific PSoC device
 156:Generated_Source\PSoC6\pdl\middleware\em_eeprom/cy_em_eeprom.c **** * datasheet.
 157:Generated_Source\PSoC6\pdl\middleware\em_eeprom/cy_em_eeprom.c **** *
 158:Generated_Source\PSoC6\pdl\middleware\em_eeprom/cy_em_eeprom.c **** * \note
 159:Generated_Source\PSoC6\pdl\middleware\em_eeprom/cy_em_eeprom.c **** * In case if redundant copy option is enabled the function may perform writes
 160:Generated_Source\PSoC6\pdl\middleware\em_eeprom/cy_em_eeprom.c **** * to EEPROM. This is done in case if the data in the EEPPROM is corrupted and
 161:Generated_Source\PSoC6\pdl\middleware\em_eeprom/cy_em_eeprom.c **** * the data in redundant copy is valid based on CRC-8 data integrity check.
 162:Generated_Source\PSoC6\pdl\middleware\em_eeprom/cy_em_eeprom.c **** *
 163:Generated_Source\PSoC6\pdl\middleware\em_eeprom/cy_em_eeprom.c **** *******************************************************************************/
 164:Generated_Source\PSoC6\pdl\middleware\em_eeprom/cy_em_eeprom.c **** cy_en_em_eeprom_status_t Cy_Em_EEPROM_Read(uint32_t addr, 
 165:Generated_Source\PSoC6\pdl\middleware\em_eeprom/cy_em_eeprom.c ****                                         void * eepromData, 
 166:Generated_Source\PSoC6\pdl\middleware\em_eeprom/cy_em_eeprom.c ****                                         uint32_t size,
 167:Generated_Source\PSoC6\pdl\middleware\em_eeprom/cy_em_eeprom.c ****                                         cy_stc_eeprom_context_t * context)
 168:Generated_Source\PSoC6\pdl\middleware\em_eeprom/cy_em_eeprom.c **** {
 169:Generated_Source\PSoC6\pdl\middleware\em_eeprom/cy_em_eeprom.c ****     cy_en_em_eeprom_status_t ret = CY_EM_EEPROM_BAD_PARAM;
 170:Generated_Source\PSoC6\pdl\middleware\em_eeprom/cy_em_eeprom.c ****     uint32_t i;
 171:Generated_Source\PSoC6\pdl\middleware\em_eeprom/cy_em_eeprom.c ****     uint32_t numBytesToRead;
 172:Generated_Source\PSoC6\pdl\middleware\em_eeprom/cy_em_eeprom.c ****     uint32_t curEepromBaseAddr;
 173:Generated_Source\PSoC6\pdl\middleware\em_eeprom/cy_em_eeprom.c ****     uint32_t curRowOffset;
 174:Generated_Source\PSoC6\pdl\middleware\em_eeprom/cy_em_eeprom.c ****     uint32_t startRowAddr;
 175:Generated_Source\PSoC6\pdl\middleware\em_eeprom/cy_em_eeprom.c ****     uint32_t actEepromRowNum;
 176:Generated_Source\PSoC6\pdl\middleware\em_eeprom/cy_em_eeprom.c ****     uint32_t curRdEepromRowNum = 0u;
 177:Generated_Source\PSoC6\pdl\middleware\em_eeprom/cy_em_eeprom.c ****     uint32_t dataStartEepromRowNum = 0u;
 178:Generated_Source\PSoC6\pdl\middleware\em_eeprom/cy_em_eeprom.c ****     uint32_t eeData = (uint32_t) eepromData; /* To avoid the pointer arithmetic with void */
 179:Generated_Source\PSoC6\pdl\middleware\em_eeprom/cy_em_eeprom.c **** 
 180:Generated_Source\PSoC6\pdl\middleware\em_eeprom/cy_em_eeprom.c ****     /* Validate input parameters */
 181:Generated_Source\PSoC6\pdl\middleware\em_eeprom/cy_em_eeprom.c ****     if((0u != size) && ((addr + size) <= (context->eepromSize)) && (NULL != eepromData))
 182:Generated_Source\PSoC6\pdl\middleware\em_eeprom/cy_em_eeprom.c ****     {
 183:Generated_Source\PSoC6\pdl\middleware\em_eeprom/cy_em_eeprom.c ****         uint32_t rdAddr = addr;
 184:Generated_Source\PSoC6\pdl\middleware\em_eeprom/cy_em_eeprom.c ****         uint32_t rdSize = size;
 185:Generated_Source\PSoC6\pdl\middleware\em_eeprom/cy_em_eeprom.c ****         /* Get the sequence number of the last written row */
 186:Generated_Source\PSoC6\pdl\middleware\em_eeprom/cy_em_eeprom.c ****         uint32_t seqNum = CY_EM_EEPROM_GET_SEQ_NUM(context->lastWrRowAddr);
 187:Generated_Source\PSoC6\pdl\middleware\em_eeprom/cy_em_eeprom.c ****         uint32_t updateAddrFlag = 0u;
 188:Generated_Source\PSoC6\pdl\middleware\em_eeprom/cy_em_eeprom.c **** 
 189:Generated_Source\PSoC6\pdl\middleware\em_eeprom/cy_em_eeprom.c ****         /* Calculate the number of the row read operations. Currently this only concerns
 190:Generated_Source\PSoC6\pdl\middleware\em_eeprom/cy_em_eeprom.c ****         * the reads from the EEPROM data locations.
 191:Generated_Source\PSoC6\pdl\middleware\em_eeprom/cy_em_eeprom.c ****         */
 192:Generated_Source\PSoC6\pdl\middleware\em_eeprom/cy_em_eeprom.c ****         uint32_t numRowReads = ((((rdAddr + rdSize) - 1u) / CY_EM_EEPROM_EEPROM_DATA_LEN) -
 193:Generated_Source\PSoC6\pdl\middleware\em_eeprom/cy_em_eeprom.c ****                               (rdAddr / CY_EM_EEPROM_EEPROM_DATA_LEN)) + 1u;
 194:Generated_Source\PSoC6\pdl\middleware\em_eeprom/cy_em_eeprom.c **** 
 195:Generated_Source\PSoC6\pdl\middleware\em_eeprom/cy_em_eeprom.c ****         /* Get the address of the first row of the currently active EEPROM sector. If
 196:Generated_Source\PSoC6\pdl\middleware\em_eeprom/cy_em_eeprom.c ****         * no wear leveling is used - the EEPROM has only one sector, so use the base
 197:Generated_Source\PSoC6\pdl\middleware\em_eeprom/cy_em_eeprom.c ****         * addr stored in "context->userFlashStartAddr".
 198:Generated_Source\PSoC6\pdl\middleware\em_eeprom/cy_em_eeprom.c ****         */
 199:Generated_Source\PSoC6\pdl\middleware\em_eeprom/cy_em_eeprom.c ****         curEepromBaseAddr = (((context->lastWrRowAddr - context->userFlashStartAddr) /
 200:Generated_Source\PSoC6\pdl\middleware\em_eeprom/cy_em_eeprom.c ****                               (CY_EM_EEPROM_FLASH_SIZEOF_ROW * context->numberOfRows)) *
 201:Generated_Source\PSoC6\pdl\middleware\em_eeprom/cy_em_eeprom.c ****                               (CY_EM_EEPROM_FLASH_SIZEOF_ROW * context->numberOfRows)) +
 202:Generated_Source\PSoC6\pdl\middleware\em_eeprom/cy_em_eeprom.c ****                                context->userFlashStartAddr;
ARM GAS  C:\Users\eduar\AppData\Local\Temp\cctEoJXe.s 			page 5


 203:Generated_Source\PSoC6\pdl\middleware\em_eeprom/cy_em_eeprom.c **** 
 204:Generated_Source\PSoC6\pdl\middleware\em_eeprom/cy_em_eeprom.c ****         /* Find the number of the row that contains the start address of the data */
 205:Generated_Source\PSoC6\pdl\middleware\em_eeprom/cy_em_eeprom.c ****         for(i = 0u; i < context->numberOfRows; i++)
 206:Generated_Source\PSoC6\pdl\middleware\em_eeprom/cy_em_eeprom.c ****         {
 207:Generated_Source\PSoC6\pdl\middleware\em_eeprom/cy_em_eeprom.c ****             if(0u != CY_EM_EEPROM_IS_ADDR_IN_ROW_RANGE(rdAddr, i))
 208:Generated_Source\PSoC6\pdl\middleware\em_eeprom/cy_em_eeprom.c ****             {
 209:Generated_Source\PSoC6\pdl\middleware\em_eeprom/cy_em_eeprom.c ****                 dataStartEepromRowNum = i;
 210:Generated_Source\PSoC6\pdl\middleware\em_eeprom/cy_em_eeprom.c ****                 curRdEepromRowNum = dataStartEepromRowNum;
 211:Generated_Source\PSoC6\pdl\middleware\em_eeprom/cy_em_eeprom.c ****                 break;
 212:Generated_Source\PSoC6\pdl\middleware\em_eeprom/cy_em_eeprom.c ****             }
 213:Generated_Source\PSoC6\pdl\middleware\em_eeprom/cy_em_eeprom.c ****         }
 214:Generated_Source\PSoC6\pdl\middleware\em_eeprom/cy_em_eeprom.c **** 
 215:Generated_Source\PSoC6\pdl\middleware\em_eeprom/cy_em_eeprom.c ****         /* Find the row number of the last written row */
 216:Generated_Source\PSoC6\pdl\middleware\em_eeprom/cy_em_eeprom.c ****         actEepromRowNum = (context->lastWrRowAddr - curEepromBaseAddr) / CY_EM_EEPROM_FLASH_SIZEOF_
 217:Generated_Source\PSoC6\pdl\middleware\em_eeprom/cy_em_eeprom.c **** 
 218:Generated_Source\PSoC6\pdl\middleware\em_eeprom/cy_em_eeprom.c ****         /* Check if wear leveling is used */
 219:Generated_Source\PSoC6\pdl\middleware\em_eeprom/cy_em_eeprom.c ****         if(context->wearLevelingFactor > 1u)
 220:Generated_Source\PSoC6\pdl\middleware\em_eeprom/cy_em_eeprom.c ****         {
 221:Generated_Source\PSoC6\pdl\middleware\em_eeprom/cy_em_eeprom.c ****             uint32_t dataEndEepromRowNum = dataStartEepromRowNum + (numRowReads - 1u);
 222:Generated_Source\PSoC6\pdl\middleware\em_eeprom/cy_em_eeprom.c **** 
 223:Generated_Source\PSoC6\pdl\middleware\em_eeprom/cy_em_eeprom.c ****             /* Check if the future validation of the read address is required. */
 224:Generated_Source\PSoC6\pdl\middleware\em_eeprom/cy_em_eeprom.c ****             updateAddrFlag = (dataStartEepromRowNum > actEepromRowNum) ? 1u :
 225:Generated_Source\PSoC6\pdl\middleware\em_eeprom/cy_em_eeprom.c ****                               ((dataEndEepromRowNum > actEepromRowNum) ? 1u : 0u);
 226:Generated_Source\PSoC6\pdl\middleware\em_eeprom/cy_em_eeprom.c ****         }
 227:Generated_Source\PSoC6\pdl\middleware\em_eeprom/cy_em_eeprom.c **** 
 228:Generated_Source\PSoC6\pdl\middleware\em_eeprom/cy_em_eeprom.c ****         /* Copy data from the EEPROM data locations to the user buffer */
 229:Generated_Source\PSoC6\pdl\middleware\em_eeprom/cy_em_eeprom.c ****         for(i = 0u; i < numRowReads; i++)
 230:Generated_Source\PSoC6\pdl\middleware\em_eeprom/cy_em_eeprom.c ****         {
 231:Generated_Source\PSoC6\pdl\middleware\em_eeprom/cy_em_eeprom.c ****             startRowAddr = curEepromBaseAddr + (curRdEepromRowNum * CY_EM_EEPROM_FLASH_SIZEOF_ROW);
 232:Generated_Source\PSoC6\pdl\middleware\em_eeprom/cy_em_eeprom.c ****             curRowOffset = CY_EM_EEPROM_EEPROM_DATA_LEN + (rdAddr % CY_EM_EEPROM_EEPROM_DATA_LEN);
 233:Generated_Source\PSoC6\pdl\middleware\em_eeprom/cy_em_eeprom.c **** 
 234:Generated_Source\PSoC6\pdl\middleware\em_eeprom/cy_em_eeprom.c ****             /* Check if there are more reads pending and update the number of the
 235:Generated_Source\PSoC6\pdl\middleware\em_eeprom/cy_em_eeprom.c ****             * remaining bytes to read respectively.
 236:Generated_Source\PSoC6\pdl\middleware\em_eeprom/cy_em_eeprom.c ****             */
 237:Generated_Source\PSoC6\pdl\middleware\em_eeprom/cy_em_eeprom.c ****             if((i + 1u) < numRowReads)
 238:Generated_Source\PSoC6\pdl\middleware\em_eeprom/cy_em_eeprom.c ****             {
 239:Generated_Source\PSoC6\pdl\middleware\em_eeprom/cy_em_eeprom.c ****                 numBytesToRead = CY_EM_EEPROM_EEPROM_DATA_LEN - (rdAddr % CY_EM_EEPROM_EEPROM_DATA_
 240:Generated_Source\PSoC6\pdl\middleware\em_eeprom/cy_em_eeprom.c ****             }
 241:Generated_Source\PSoC6\pdl\middleware\em_eeprom/cy_em_eeprom.c ****             else
 242:Generated_Source\PSoC6\pdl\middleware\em_eeprom/cy_em_eeprom.c ****             {
 243:Generated_Source\PSoC6\pdl\middleware\em_eeprom/cy_em_eeprom.c ****                 numBytesToRead = rdSize;
 244:Generated_Source\PSoC6\pdl\middleware\em_eeprom/cy_em_eeprom.c ****             }
 245:Generated_Source\PSoC6\pdl\middleware\em_eeprom/cy_em_eeprom.c **** 
 246:Generated_Source\PSoC6\pdl\middleware\em_eeprom/cy_em_eeprom.c ****             /* Check if the read address needs to be updated to point to the correct
 247:Generated_Source\PSoC6\pdl\middleware\em_eeprom/cy_em_eeprom.c ****             * EEPROM sector.
 248:Generated_Source\PSoC6\pdl\middleware\em_eeprom/cy_em_eeprom.c ****             */
 249:Generated_Source\PSoC6\pdl\middleware\em_eeprom/cy_em_eeprom.c ****             if((0u != updateAddrFlag) && (curRdEepromRowNum > actEepromRowNum))
 250:Generated_Source\PSoC6\pdl\middleware\em_eeprom/cy_em_eeprom.c ****             {
 251:Generated_Source\PSoC6\pdl\middleware\em_eeprom/cy_em_eeprom.c ****                 startRowAddr -= context->numberOfRows * CY_EM_EEPROM_FLASH_SIZEOF_ROW;
 252:Generated_Source\PSoC6\pdl\middleware\em_eeprom/cy_em_eeprom.c **** 
 253:Generated_Source\PSoC6\pdl\middleware\em_eeprom/cy_em_eeprom.c ****                 if(startRowAddr < context->userFlashStartAddr)
 254:Generated_Source\PSoC6\pdl\middleware\em_eeprom/cy_em_eeprom.c ****                 {
 255:Generated_Source\PSoC6\pdl\middleware\em_eeprom/cy_em_eeprom.c ****                     startRowAddr = context->wlEndAddr -
 256:Generated_Source\PSoC6\pdl\middleware\em_eeprom/cy_em_eeprom.c ****                         ((context->numberOfRows - curRdEepromRowNum) * CY_EM_EEPROM_FLASH_SIZEOF_RO
 257:Generated_Source\PSoC6\pdl\middleware\em_eeprom/cy_em_eeprom.c ****                 }
 258:Generated_Source\PSoC6\pdl\middleware\em_eeprom/cy_em_eeprom.c ****             }
 259:Generated_Source\PSoC6\pdl\middleware\em_eeprom/cy_em_eeprom.c **** 
ARM GAS  C:\Users\eduar\AppData\Local\Temp\cctEoJXe.s 			page 6


 260:Generated_Source\PSoC6\pdl\middleware\em_eeprom/cy_em_eeprom.c ****             if(0u != context->redundantCopy)
 261:Generated_Source\PSoC6\pdl\middleware\em_eeprom/cy_em_eeprom.c ****             {
 262:Generated_Source\PSoC6\pdl\middleware\em_eeprom/cy_em_eeprom.c ****                 /* Check a checksum of the EEPROM row and if it is bad, check a checksum in
 263:Generated_Source\PSoC6\pdl\middleware\em_eeprom/cy_em_eeprom.c ****                 * the corresponding row in redundant copy, otherwise return failure.
 264:Generated_Source\PSoC6\pdl\middleware\em_eeprom/cy_em_eeprom.c ****                 */
 265:Generated_Source\PSoC6\pdl\middleware\em_eeprom/cy_em_eeprom.c ****                 ret = CheckCrcAndCopy(startRowAddr, eeData, curRowOffset, numBytesToRead, context);
 266:Generated_Source\PSoC6\pdl\middleware\em_eeprom/cy_em_eeprom.c **** 
 267:Generated_Source\PSoC6\pdl\middleware\em_eeprom/cy_em_eeprom.c ****                 if(CY_EM_EEPROM_SUCCESS != ret)
 268:Generated_Source\PSoC6\pdl\middleware\em_eeprom/cy_em_eeprom.c ****                 {
 269:Generated_Source\PSoC6\pdl\middleware\em_eeprom/cy_em_eeprom.c ****                     break;
 270:Generated_Source\PSoC6\pdl\middleware\em_eeprom/cy_em_eeprom.c ****                 }
 271:Generated_Source\PSoC6\pdl\middleware\em_eeprom/cy_em_eeprom.c ****             }
 272:Generated_Source\PSoC6\pdl\middleware\em_eeprom/cy_em_eeprom.c ****             else
 273:Generated_Source\PSoC6\pdl\middleware\em_eeprom/cy_em_eeprom.c ****             {
 274:Generated_Source\PSoC6\pdl\middleware\em_eeprom/cy_em_eeprom.c ****                 /* Copy the data to the user buffer */
 275:Generated_Source\PSoC6\pdl\middleware\em_eeprom/cy_em_eeprom.c ****                 (void)memcpy((void *)(eeData),
 276:Generated_Source\PSoC6\pdl\middleware\em_eeprom/cy_em_eeprom.c ****                              (void *)(startRowAddr + curRowOffset),
 277:Generated_Source\PSoC6\pdl\middleware\em_eeprom/cy_em_eeprom.c ****                              numBytesToRead);
 278:Generated_Source\PSoC6\pdl\middleware\em_eeprom/cy_em_eeprom.c **** 
 279:Generated_Source\PSoC6\pdl\middleware\em_eeprom/cy_em_eeprom.c ****                 /* Indicate success to be able to execute next code block */
 280:Generated_Source\PSoC6\pdl\middleware\em_eeprom/cy_em_eeprom.c ****                 ret = CY_EM_EEPROM_SUCCESS;
 281:Generated_Source\PSoC6\pdl\middleware\em_eeprom/cy_em_eeprom.c ****             }
 282:Generated_Source\PSoC6\pdl\middleware\em_eeprom/cy_em_eeprom.c **** 
 283:Generated_Source\PSoC6\pdl\middleware\em_eeprom/cy_em_eeprom.c ****             /* Update variables anticipated in the read operation */
 284:Generated_Source\PSoC6\pdl\middleware\em_eeprom/cy_em_eeprom.c ****             rdAddr += numBytesToRead;
 285:Generated_Source\PSoC6\pdl\middleware\em_eeprom/cy_em_eeprom.c ****             rdSize -= numBytesToRead;
 286:Generated_Source\PSoC6\pdl\middleware\em_eeprom/cy_em_eeprom.c ****             eeData += numBytesToRead;
 287:Generated_Source\PSoC6\pdl\middleware\em_eeprom/cy_em_eeprom.c ****             curRdEepromRowNum++;
 288:Generated_Source\PSoC6\pdl\middleware\em_eeprom/cy_em_eeprom.c ****         }
 289:Generated_Source\PSoC6\pdl\middleware\em_eeprom/cy_em_eeprom.c **** 
 290:Generated_Source\PSoC6\pdl\middleware\em_eeprom/cy_em_eeprom.c ****         /* This code block will copy the latest data from the EEPROM headers into the
 291:Generated_Source\PSoC6\pdl\middleware\em_eeprom/cy_em_eeprom.c ****         * user buffer. The data previously copied into the user buffer may be updated
 292:Generated_Source\PSoC6\pdl\middleware\em_eeprom/cy_em_eeprom.c ****         * as the EEPROM headers contain more recent data. 
 293:Generated_Source\PSoC6\pdl\middleware\em_eeprom/cy_em_eeprom.c ****         * The code block is executed when two following conditions are true:
 294:Generated_Source\PSoC6\pdl\middleware\em_eeprom/cy_em_eeprom.c ****         *  1) The reads from "historic" data locations were successful;
 295:Generated_Source\PSoC6\pdl\middleware\em_eeprom/cy_em_eeprom.c ****         *  2) The user performed at least one write operation to Em_EEPROM (0u !=
 296:Generated_Source\PSoC6\pdl\middleware\em_eeprom/cy_em_eeprom.c ****         *     seqNum).        
 297:Generated_Source\PSoC6\pdl\middleware\em_eeprom/cy_em_eeprom.c ****         */
 298:Generated_Source\PSoC6\pdl\middleware\em_eeprom/cy_em_eeprom.c ****         if((CY_EM_EEPROM_SUCCESS == ret) && (0u != seqNum))
 299:Generated_Source\PSoC6\pdl\middleware\em_eeprom/cy_em_eeprom.c ****         {
 300:Generated_Source\PSoC6\pdl\middleware\em_eeprom/cy_em_eeprom.c ****             numRowReads = (context->numberOfRows <= seqNum) ? (context->numberOfRows) : (seqNum);
 301:Generated_Source\PSoC6\pdl\middleware\em_eeprom/cy_em_eeprom.c ****             numRowReads--;
 302:Generated_Source\PSoC6\pdl\middleware\em_eeprom/cy_em_eeprom.c **** 
 303:Generated_Source\PSoC6\pdl\middleware\em_eeprom/cy_em_eeprom.c ****             for(i = (seqNum - numRowReads); i <= seqNum; i++)
 304:Generated_Source\PSoC6\pdl\middleware\em_eeprom/cy_em_eeprom.c ****             {
 305:Generated_Source\PSoC6\pdl\middleware\em_eeprom/cy_em_eeprom.c ****                 startRowAddr = GetRowAddrBySeqNum(i, context);
 306:Generated_Source\PSoC6\pdl\middleware\em_eeprom/cy_em_eeprom.c **** 
 307:Generated_Source\PSoC6\pdl\middleware\em_eeprom/cy_em_eeprom.c ****                 if (0u != startRowAddr)
 308:Generated_Source\PSoC6\pdl\middleware\em_eeprom/cy_em_eeprom.c ****                 {
 309:Generated_Source\PSoC6\pdl\middleware\em_eeprom/cy_em_eeprom.c ****                     /* The following variables are introduced to increase code readability. */
 310:Generated_Source\PSoC6\pdl\middleware\em_eeprom/cy_em_eeprom.c ****                     uint32_t startAddr  = *(uint32_t *)(startRowAddr + CY_EM_EEPROM_HEADER_ADDR_OFF
 311:Generated_Source\PSoC6\pdl\middleware\em_eeprom/cy_em_eeprom.c ****                     uint32_t endAddr    = startAddr + (*(uint32_t *)(startRowAddr + CY_EM_EEPROM_HE
 312:Generated_Source\PSoC6\pdl\middleware\em_eeprom/cy_em_eeprom.c **** 
 313:Generated_Source\PSoC6\pdl\middleware\em_eeprom/cy_em_eeprom.c ****                     /* Check if the current row EEPROM header contains the data requested for read 
 314:Generated_Source\PSoC6\pdl\middleware\em_eeprom/cy_em_eeprom.c ****                     if(0u != CY_EM_EEPROM_IS_ADDRESES_CROSSING(startAddr, endAddr, addr, addr + siz
 315:Generated_Source\PSoC6\pdl\middleware\em_eeprom/cy_em_eeprom.c ****                     {
 316:Generated_Source\PSoC6\pdl\middleware\em_eeprom/cy_em_eeprom.c ****                         uint32_t srcOffset = (startAddr > addr) ? (0u) : (addr - startAddr);
ARM GAS  C:\Users\eduar\AppData\Local\Temp\cctEoJXe.s 			page 7


 317:Generated_Source\PSoC6\pdl\middleware\em_eeprom/cy_em_eeprom.c ****                         uint32_t dstOffset = (startAddr > addr) ? (startAddr - addr): (0u);
 318:Generated_Source\PSoC6\pdl\middleware\em_eeprom/cy_em_eeprom.c ****                         rdAddr = (startAddr > addr) ? (startAddr) : (addr);
 319:Generated_Source\PSoC6\pdl\middleware\em_eeprom/cy_em_eeprom.c **** 
 320:Generated_Source\PSoC6\pdl\middleware\em_eeprom/cy_em_eeprom.c ****                         srcOffset += CY_EM_EEPROM_HEADER_DATA_OFFSET;
 321:Generated_Source\PSoC6\pdl\middleware\em_eeprom/cy_em_eeprom.c **** 
 322:Generated_Source\PSoC6\pdl\middleware\em_eeprom/cy_em_eeprom.c ****                         /* Calculate the number of bytes to be read from the current row's EEPROM h
 323:Generated_Source\PSoC6\pdl\middleware\em_eeprom/cy_em_eeprom.c ****                         numBytesToRead = ((endAddr < (addr + size)) ? endAddr : (addr + size)) - rd
 324:Generated_Source\PSoC6\pdl\middleware\em_eeprom/cy_em_eeprom.c **** 
 325:Generated_Source\PSoC6\pdl\middleware\em_eeprom/cy_em_eeprom.c ****                         /* Calculate the offset in the user buffer from which the data will be upda
 326:Generated_Source\PSoC6\pdl\middleware\em_eeprom/cy_em_eeprom.c ****                         eeData = ((uint32_t)eepromData) + dstOffset;
 327:Generated_Source\PSoC6\pdl\middleware\em_eeprom/cy_em_eeprom.c **** 
 328:Generated_Source\PSoC6\pdl\middleware\em_eeprom/cy_em_eeprom.c ****                         /* Check a checksum of the EEPROM row and if it is bad, check a checksum in
 329:Generated_Source\PSoC6\pdl\middleware\em_eeprom/cy_em_eeprom.c ****                         * corresponding row in redundant copy, otherwise return failure. Copy the d
 330:Generated_Source\PSoC6\pdl\middleware\em_eeprom/cy_em_eeprom.c ****                         * from the recent EEPROM headers to the user buffer. This will overwrite th
 331:Generated_Source\PSoC6\pdl\middleware\em_eeprom/cy_em_eeprom.c ****                         * data copied form EEPROM data locations as the data in EEPROM headers is n
 332:Generated_Source\PSoC6\pdl\middleware\em_eeprom/cy_em_eeprom.c ****                         */
 333:Generated_Source\PSoC6\pdl\middleware\em_eeprom/cy_em_eeprom.c ****                         if(0u != context->redundantCopy)
 334:Generated_Source\PSoC6\pdl\middleware\em_eeprom/cy_em_eeprom.c ****                         {
 335:Generated_Source\PSoC6\pdl\middleware\em_eeprom/cy_em_eeprom.c ****                             ret = CheckCrcAndCopy(startRowAddr, eeData, srcOffset, numBytesToRead, 
 336:Generated_Source\PSoC6\pdl\middleware\em_eeprom/cy_em_eeprom.c **** 
 337:Generated_Source\PSoC6\pdl\middleware\em_eeprom/cy_em_eeprom.c ****                             if(CY_EM_EEPROM_SUCCESS != ret)
 338:Generated_Source\PSoC6\pdl\middleware\em_eeprom/cy_em_eeprom.c ****                             {
 339:Generated_Source\PSoC6\pdl\middleware\em_eeprom/cy_em_eeprom.c ****                                 break;
 340:Generated_Source\PSoC6\pdl\middleware\em_eeprom/cy_em_eeprom.c ****                             }
 341:Generated_Source\PSoC6\pdl\middleware\em_eeprom/cy_em_eeprom.c ****                         }
 342:Generated_Source\PSoC6\pdl\middleware\em_eeprom/cy_em_eeprom.c ****                         else
 343:Generated_Source\PSoC6\pdl\middleware\em_eeprom/cy_em_eeprom.c ****                         {
 344:Generated_Source\PSoC6\pdl\middleware\em_eeprom/cy_em_eeprom.c ****                             (void)memcpy((void *)(eeData), (void *)(startRowAddr + srcOffset), numB
 345:Generated_Source\PSoC6\pdl\middleware\em_eeprom/cy_em_eeprom.c ****                         }
 346:Generated_Source\PSoC6\pdl\middleware\em_eeprom/cy_em_eeprom.c ****                     }
 347:Generated_Source\PSoC6\pdl\middleware\em_eeprom/cy_em_eeprom.c ****                 }
 348:Generated_Source\PSoC6\pdl\middleware\em_eeprom/cy_em_eeprom.c ****             }
 349:Generated_Source\PSoC6\pdl\middleware\em_eeprom/cy_em_eeprom.c ****         }
 350:Generated_Source\PSoC6\pdl\middleware\em_eeprom/cy_em_eeprom.c ****     }
 351:Generated_Source\PSoC6\pdl\middleware\em_eeprom/cy_em_eeprom.c **** 
 352:Generated_Source\PSoC6\pdl\middleware\em_eeprom/cy_em_eeprom.c ****     return(ret);
 353:Generated_Source\PSoC6\pdl\middleware\em_eeprom/cy_em_eeprom.c **** }
 354:Generated_Source\PSoC6\pdl\middleware\em_eeprom/cy_em_eeprom.c **** 
 355:Generated_Source\PSoC6\pdl\middleware\em_eeprom/cy_em_eeprom.c **** 
 356:Generated_Source\PSoC6\pdl\middleware\em_eeprom/cy_em_eeprom.c **** /*******************************************************************************
 357:Generated_Source\PSoC6\pdl\middleware\em_eeprom/cy_em_eeprom.c **** * Function Name: Cy_Em_EEPROM_Write
 358:Generated_Source\PSoC6\pdl\middleware\em_eeprom/cy_em_eeprom.c **** ****************************************************************************//**
 359:Generated_Source\PSoC6\pdl\middleware\em_eeprom/cy_em_eeprom.c **** *
 360:Generated_Source\PSoC6\pdl\middleware\em_eeprom/cy_em_eeprom.c **** * This function takes the logical EEPROM address and converts it to the actual
 361:Generated_Source\PSoC6\pdl\middleware\em_eeprom/cy_em_eeprom.c **** * physical address and writes data there. If wear leveling is implemented, the
 362:Generated_Source\PSoC6\pdl\middleware\em_eeprom/cy_em_eeprom.c **** * writing process will use the wear leveling techniques. This is a blocking
 363:Generated_Source\PSoC6\pdl\middleware\em_eeprom/cy_em_eeprom.c **** * function and it does not return until the write operation is completed. The
 364:Generated_Source\PSoC6\pdl\middleware\em_eeprom/cy_em_eeprom.c **** * user firmware should not enter Hibernate mode until write is completed. The
 365:Generated_Source\PSoC6\pdl\middleware\em_eeprom/cy_em_eeprom.c **** * write operation is allowed in Sleep and Deep-Sleep modes. During the flash
 366:Generated_Source\PSoC6\pdl\middleware\em_eeprom/cy_em_eeprom.c **** * operation, the device should not be reset, including the XRES pin, a software
 367:Generated_Source\PSoC6\pdl\middleware\em_eeprom/cy_em_eeprom.c **** * reset, and watchdog reset sources. Also, low-voltage detect circuits should
 368:Generated_Source\PSoC6\pdl\middleware\em_eeprom/cy_em_eeprom.c **** * be configured to generate an interrupt instead of a reset. Otherwise, portions
 369:Generated_Source\PSoC6\pdl\middleware\em_eeprom/cy_em_eeprom.c **** * of flash may undergo unexpected changes.
 370:Generated_Source\PSoC6\pdl\middleware\em_eeprom/cy_em_eeprom.c **** *
 371:Generated_Source\PSoC6\pdl\middleware\em_eeprom/cy_em_eeprom.c **** * \param addr
 372:Generated_Source\PSoC6\pdl\middleware\em_eeprom/cy_em_eeprom.c **** * The logical start address in EEPROM to start writing data from.
 373:Generated_Source\PSoC6\pdl\middleware\em_eeprom/cy_em_eeprom.c **** *
ARM GAS  C:\Users\eduar\AppData\Local\Temp\cctEoJXe.s 			page 8


 374:Generated_Source\PSoC6\pdl\middleware\em_eeprom/cy_em_eeprom.c **** * \param eepromData
 375:Generated_Source\PSoC6\pdl\middleware\em_eeprom/cy_em_eeprom.c **** * Data to write to EEPROM.
 376:Generated_Source\PSoC6\pdl\middleware\em_eeprom/cy_em_eeprom.c **** *
 377:Generated_Source\PSoC6\pdl\middleware\em_eeprom/cy_em_eeprom.c **** * \param size
 378:Generated_Source\PSoC6\pdl\middleware\em_eeprom/cy_em_eeprom.c **** * The amount of data to write to EEPROM.
 379:Generated_Source\PSoC6\pdl\middleware\em_eeprom/cy_em_eeprom.c **** *
 380:Generated_Source\PSoC6\pdl\middleware\em_eeprom/cy_em_eeprom.c **** * \param context
 381:Generated_Source\PSoC6\pdl\middleware\em_eeprom/cy_em_eeprom.c **** * The pointer to the EEPROM context structure \ref cy_stc_eeprom_context_t.
 382:Generated_Source\PSoC6\pdl\middleware\em_eeprom/cy_em_eeprom.c **** *
 383:Generated_Source\PSoC6\pdl\middleware\em_eeprom/cy_em_eeprom.c **** * \return
 384:Generated_Source\PSoC6\pdl\middleware\em_eeprom/cy_em_eeprom.c **** * This function returns \ref cy_en_em_eeprom_status_t.
 385:Generated_Source\PSoC6\pdl\middleware\em_eeprom/cy_em_eeprom.c **** *
 386:Generated_Source\PSoC6\pdl\middleware\em_eeprom/cy_em_eeprom.c **** * \note
 387:Generated_Source\PSoC6\pdl\middleware\em_eeprom/cy_em_eeprom.c **** * This function uses a buffer of the flash row size to perform write
 388:Generated_Source\PSoC6\pdl\middleware\em_eeprom/cy_em_eeprom.c **** * operation. For the size of the row refer to the specific PSoC device
 389:Generated_Source\PSoC6\pdl\middleware\em_eeprom/cy_em_eeprom.c **** * datasheet.
 390:Generated_Source\PSoC6\pdl\middleware\em_eeprom/cy_em_eeprom.c **** *
 391:Generated_Source\PSoC6\pdl\middleware\em_eeprom/cy_em_eeprom.c **** * \sideeffect
 392:Generated_Source\PSoC6\pdl\middleware\em_eeprom/cy_em_eeprom.c **** * In case when blocking write option is used, if this function is called by
 393:Generated_Source\PSoC6\pdl\middleware\em_eeprom/cy_em_eeprom.c **** * the CM4 the user code on CM0P and the user code on CM4 are blocked until erase
 394:Generated_Source\PSoC6\pdl\middleware\em_eeprom/cy_em_eeprom.c **** * flash row operation is finished. If this function is called by the CM0P the
 395:Generated_Source\PSoC6\pdl\middleware\em_eeprom/cy_em_eeprom.c **** * user code on CM4 is not blocked and the user code on CM0P is blocked until
 396:Generated_Source\PSoC6\pdl\middleware\em_eeprom/cy_em_eeprom.c **** * erase flash row operation is finished. Plan your task allocation accordingly.
 397:Generated_Source\PSoC6\pdl\middleware\em_eeprom/cy_em_eeprom.c **** *
 398:Generated_Source\PSoC6\pdl\middleware\em_eeprom/cy_em_eeprom.c **** * \sideeffect
 399:Generated_Source\PSoC6\pdl\middleware\em_eeprom/cy_em_eeprom.c **** * In case if non-blocking write option is used and when user flash is used as
 400:Generated_Source\PSoC6\pdl\middleware\em_eeprom/cy_em_eeprom.c **** * an EEPROM storage care should be taken to prevent the read while write (RWW)
 401:Generated_Source\PSoC6\pdl\middleware\em_eeprom/cy_em_eeprom.c **** * exception. To prevent the RWW exception the user flash macro that includes
 402:Generated_Source\PSoC6\pdl\middleware\em_eeprom/cy_em_eeprom.c **** * the EEPROM storage should not be read while the EEPROM write is not completed.
 403:Generated_Source\PSoC6\pdl\middleware\em_eeprom/cy_em_eeprom.c **** * The read also means the user code execution from the respective flash macro.
 404:Generated_Source\PSoC6\pdl\middleware\em_eeprom/cy_em_eeprom.c **** *
 405:Generated_Source\PSoC6\pdl\middleware\em_eeprom/cy_em_eeprom.c **** *******************************************************************************/
 406:Generated_Source\PSoC6\pdl\middleware\em_eeprom/cy_em_eeprom.c **** cy_en_em_eeprom_status_t Cy_Em_EEPROM_Write(uint32_t addr,
 407:Generated_Source\PSoC6\pdl\middleware\em_eeprom/cy_em_eeprom.c ****                                             void * eepromData,
 408:Generated_Source\PSoC6\pdl\middleware\em_eeprom/cy_em_eeprom.c ****                                             uint32_t size,
 409:Generated_Source\PSoC6\pdl\middleware\em_eeprom/cy_em_eeprom.c ****                                             cy_stc_eeprom_context_t * context)
 410:Generated_Source\PSoC6\pdl\middleware\em_eeprom/cy_em_eeprom.c **** {
 411:Generated_Source\PSoC6\pdl\middleware\em_eeprom/cy_em_eeprom.c ****     cy_en_em_eeprom_status_t ret = CY_EM_EEPROM_BAD_PARAM;
 412:Generated_Source\PSoC6\pdl\middleware\em_eeprom/cy_em_eeprom.c ****     uint32_t i;
 413:Generated_Source\PSoC6\pdl\middleware\em_eeprom/cy_em_eeprom.c ****     uint32_t wrCnt;
 414:Generated_Source\PSoC6\pdl\middleware\em_eeprom/cy_em_eeprom.c ****     uint32_t actEmEepromRowNum;
 415:Generated_Source\PSoC6\pdl\middleware\em_eeprom/cy_em_eeprom.c ****     uint32_t writeRamBuffer[CY_EM_EEPROM_FLASH_SIZEOF_ROW / CY_EM_EEPROM_U32_DIV];
 416:Generated_Source\PSoC6\pdl\middleware\em_eeprom/cy_em_eeprom.c ****     uint32_t startAddr = 0u;
 417:Generated_Source\PSoC6\pdl\middleware\em_eeprom/cy_em_eeprom.c ****     uint32_t endAddr = 0u;
 418:Generated_Source\PSoC6\pdl\middleware\em_eeprom/cy_em_eeprom.c ****     uint32_t tmpRowAddr;
 419:Generated_Source\PSoC6\pdl\middleware\em_eeprom/cy_em_eeprom.c ****     uint32_t emEepromRowAddr = context->lastWrRowAddr;
 420:Generated_Source\PSoC6\pdl\middleware\em_eeprom/cy_em_eeprom.c ****     uint32_t emEepromRowRdAddr;
 421:Generated_Source\PSoC6\pdl\middleware\em_eeprom/cy_em_eeprom.c ****     void * tmpData;
 422:Generated_Source\PSoC6\pdl\middleware\em_eeprom/cy_em_eeprom.c ****     uint32_t eeData = (uint32_t) eepromData; /* To avoid the pointer arithmetic with void */
 423:Generated_Source\PSoC6\pdl\middleware\em_eeprom/cy_em_eeprom.c **** 
 424:Generated_Source\PSoC6\pdl\middleware\em_eeprom/cy_em_eeprom.c ****     /* Check if the EEPROM data does not exceed the EEPROM capacity */
 425:Generated_Source\PSoC6\pdl\middleware\em_eeprom/cy_em_eeprom.c ****     if((0u != size) && ((addr + size) <= (context->eepromSize)) && (NULL != eepromData))
 426:Generated_Source\PSoC6\pdl\middleware\em_eeprom/cy_em_eeprom.c ****     {
 427:Generated_Source\PSoC6\pdl\middleware\em_eeprom/cy_em_eeprom.c ****         uint32_t numWrites = ((size - 1u) / CY_EM_EEPROM_HEADER_DATA_LEN) + 1u;
 428:Generated_Source\PSoC6\pdl\middleware\em_eeprom/cy_em_eeprom.c ****         uint32_t eeHeaderDataOffset = 0u;
 429:Generated_Source\PSoC6\pdl\middleware\em_eeprom/cy_em_eeprom.c **** 
 430:Generated_Source\PSoC6\pdl\middleware\em_eeprom/cy_em_eeprom.c ****         for(wrCnt = 0u; wrCnt < numWrites; wrCnt++)
ARM GAS  C:\Users\eduar\AppData\Local\Temp\cctEoJXe.s 			page 9


 431:Generated_Source\PSoC6\pdl\middleware\em_eeprom/cy_em_eeprom.c ****         {
 432:Generated_Source\PSoC6\pdl\middleware\em_eeprom/cy_em_eeprom.c ****             uint32_t skipOperation = 0u;
 433:Generated_Source\PSoC6\pdl\middleware\em_eeprom/cy_em_eeprom.c ****             /* Get the sequence number of the last written row */
 434:Generated_Source\PSoC6\pdl\middleware\em_eeprom/cy_em_eeprom.c ****             uint32_t seqNum = CY_EM_EEPROM_GET_SEQ_NUM(emEepromRowAddr);
 435:Generated_Source\PSoC6\pdl\middleware\em_eeprom/cy_em_eeprom.c **** 
 436:Generated_Source\PSoC6\pdl\middleware\em_eeprom/cy_em_eeprom.c ****             /* Get the address of the row to be written. The "emEepromRowAddr" may be
 437:Generated_Source\PSoC6\pdl\middleware\em_eeprom/cy_em_eeprom.c ****             * updated with the proper address (if wear leveling is used). The
 438:Generated_Source\PSoC6\pdl\middleware\em_eeprom/cy_em_eeprom.c ****             * "emEepromRowRdAddr" will point to the row address from which the historic
 439:Generated_Source\PSoC6\pdl\middleware\em_eeprom/cy_em_eeprom.c ****             * data will be read into the RAM buffer.
 440:Generated_Source\PSoC6\pdl\middleware\em_eeprom/cy_em_eeprom.c ****             */
 441:Generated_Source\PSoC6\pdl\middleware\em_eeprom/cy_em_eeprom.c ****             GetNextRowToWrite(seqNum, &emEepromRowAddr, &emEepromRowRdAddr, context);
 442:Generated_Source\PSoC6\pdl\middleware\em_eeprom/cy_em_eeprom.c **** 
 443:Generated_Source\PSoC6\pdl\middleware\em_eeprom/cy_em_eeprom.c ****             /* Clear the RAM buffer so to not put junk into flash */
 444:Generated_Source\PSoC6\pdl\middleware\em_eeprom/cy_em_eeprom.c ****             (void)memset(writeRamBuffer, 0, CY_EM_EEPROM_FLASH_SIZEOF_ROW);
 445:Generated_Source\PSoC6\pdl\middleware\em_eeprom/cy_em_eeprom.c **** 
 446:Generated_Source\PSoC6\pdl\middleware\em_eeprom/cy_em_eeprom.c ****             /* Fill the EM_EEPROM header info for the row in the RAM buffer */
 447:Generated_Source\PSoC6\pdl\middleware\em_eeprom/cy_em_eeprom.c ****             seqNum++;
 448:Generated_Source\PSoC6\pdl\middleware\em_eeprom/cy_em_eeprom.c ****             writeRamBuffer[CY_EM_EEPROM_HEADER_SEQ_NUM_OFFSET_U32] = seqNum;
 449:Generated_Source\PSoC6\pdl\middleware\em_eeprom/cy_em_eeprom.c ****             writeRamBuffer[CY_EM_EEPROM_HEADER_ADDR_OFFSET_U32] = addr;
 450:Generated_Source\PSoC6\pdl\middleware\em_eeprom/cy_em_eeprom.c ****             tmpData = (void *) eeData;
 451:Generated_Source\PSoC6\pdl\middleware\em_eeprom/cy_em_eeprom.c **** 
 452:Generated_Source\PSoC6\pdl\middleware\em_eeprom/cy_em_eeprom.c ****             /* Check if this is the last row to write */
 453:Generated_Source\PSoC6\pdl\middleware\em_eeprom/cy_em_eeprom.c ****             if(wrCnt == (numWrites - 1u))
 454:Generated_Source\PSoC6\pdl\middleware\em_eeprom/cy_em_eeprom.c ****             {
 455:Generated_Source\PSoC6\pdl\middleware\em_eeprom/cy_em_eeprom.c ****                 /* Fill in the remaining size value to the EEPROM header. */
 456:Generated_Source\PSoC6\pdl\middleware\em_eeprom/cy_em_eeprom.c ****                 writeRamBuffer[CY_EM_EEPROM_HEADER_LEN_OFFSET_U32] = size;
 457:Generated_Source\PSoC6\pdl\middleware\em_eeprom/cy_em_eeprom.c ****             }
 458:Generated_Source\PSoC6\pdl\middleware\em_eeprom/cy_em_eeprom.c ****             else
 459:Generated_Source\PSoC6\pdl\middleware\em_eeprom/cy_em_eeprom.c ****             {
 460:Generated_Source\PSoC6\pdl\middleware\em_eeprom/cy_em_eeprom.c ****                 /* This is not the last row to write in the current EEPROM write operation.
 461:Generated_Source\PSoC6\pdl\middleware\em_eeprom/cy_em_eeprom.c ****                 * Write the maximum possible data size to the EEPROM header. Update the
 462:Generated_Source\PSoC6\pdl\middleware\em_eeprom/cy_em_eeprom.c ****                 * size, eeData and addr respectively.
 463:Generated_Source\PSoC6\pdl\middleware\em_eeprom/cy_em_eeprom.c ****                 */
 464:Generated_Source\PSoC6\pdl\middleware\em_eeprom/cy_em_eeprom.c ****                 writeRamBuffer[CY_EM_EEPROM_HEADER_LEN_OFFSET_U32] = CY_EM_EEPROM_HEADER_DATA_LEN;
 465:Generated_Source\PSoC6\pdl\middleware\em_eeprom/cy_em_eeprom.c ****                 size -= CY_EM_EEPROM_HEADER_DATA_LEN;
 466:Generated_Source\PSoC6\pdl\middleware\em_eeprom/cy_em_eeprom.c ****                 addr += CY_EM_EEPROM_HEADER_DATA_LEN;
 467:Generated_Source\PSoC6\pdl\middleware\em_eeprom/cy_em_eeprom.c ****                 eeData += CY_EM_EEPROM_HEADER_DATA_LEN;
 468:Generated_Source\PSoC6\pdl\middleware\em_eeprom/cy_em_eeprom.c ****             }
 469:Generated_Source\PSoC6\pdl\middleware\em_eeprom/cy_em_eeprom.c **** 
 470:Generated_Source\PSoC6\pdl\middleware\em_eeprom/cy_em_eeprom.c ****             /* Write the data to the EEPROM header */
 471:Generated_Source\PSoC6\pdl\middleware\em_eeprom/cy_em_eeprom.c ****             (void)memcpy((void *)&writeRamBuffer[CY_EM_EEPROM_HEADER_DATA_OFFSET_U32],
 472:Generated_Source\PSoC6\pdl\middleware\em_eeprom/cy_em_eeprom.c ****                          tmpData,
 473:Generated_Source\PSoC6\pdl\middleware\em_eeprom/cy_em_eeprom.c ****                          writeRamBuffer[CY_EM_EEPROM_HEADER_LEN_OFFSET_U32]);
 474:Generated_Source\PSoC6\pdl\middleware\em_eeprom/cy_em_eeprom.c **** 
 475:Generated_Source\PSoC6\pdl\middleware\em_eeprom/cy_em_eeprom.c ****             if(emEepromRowRdAddr != 0UL)
 476:Generated_Source\PSoC6\pdl\middleware\em_eeprom/cy_em_eeprom.c ****             {
 477:Generated_Source\PSoC6\pdl\middleware\em_eeprom/cy_em_eeprom.c ****                 /* Copy the EEPROM historic data for this row from flash to RAM */
 478:Generated_Source\PSoC6\pdl\middleware\em_eeprom/cy_em_eeprom.c ****                 (void)memcpy((void *)&writeRamBuffer[CY_EM_EEPROM_EEPROM_DATA_OFFSET_U32],
 479:Generated_Source\PSoC6\pdl\middleware\em_eeprom/cy_em_eeprom.c ****                              (void *)(emEepromRowRdAddr + CY_EM_EEPROM_EEPROM_DATA_LEN),
 480:Generated_Source\PSoC6\pdl\middleware\em_eeprom/cy_em_eeprom.c ****                              CY_EM_EEPROM_EEPROM_DATA_LEN);
 481:Generated_Source\PSoC6\pdl\middleware\em_eeprom/cy_em_eeprom.c ****             }
 482:Generated_Source\PSoC6\pdl\middleware\em_eeprom/cy_em_eeprom.c **** 
 483:Generated_Source\PSoC6\pdl\middleware\em_eeprom/cy_em_eeprom.c ****             /* Check if there is data for this location in other EEPROM headers:
 484:Generated_Source\PSoC6\pdl\middleware\em_eeprom/cy_em_eeprom.c ****             * find out the row with the lowest possible sequence number which
 485:Generated_Source\PSoC6\pdl\middleware\em_eeprom/cy_em_eeprom.c ****             * may contain the data for the current row.
 486:Generated_Source\PSoC6\pdl\middleware\em_eeprom/cy_em_eeprom.c ****             */
 487:Generated_Source\PSoC6\pdl\middleware\em_eeprom/cy_em_eeprom.c ****             i = (seqNum > context->numberOfRows) ? ((seqNum - (context->numberOfRows)) + 1u) : 1u;
ARM GAS  C:\Users\eduar\AppData\Local\Temp\cctEoJXe.s 			page 10


 488:Generated_Source\PSoC6\pdl\middleware\em_eeprom/cy_em_eeprom.c **** 
 489:Generated_Source\PSoC6\pdl\middleware\em_eeprom/cy_em_eeprom.c ****             for(; i <= seqNum; i++)
 490:Generated_Source\PSoC6\pdl\middleware\em_eeprom/cy_em_eeprom.c ****             {
 491:Generated_Source\PSoC6\pdl\middleware\em_eeprom/cy_em_eeprom.c ****                 if(i == seqNum)
 492:Generated_Source\PSoC6\pdl\middleware\em_eeprom/cy_em_eeprom.c ****                 {
 493:Generated_Source\PSoC6\pdl\middleware\em_eeprom/cy_em_eeprom.c ****                     /* The code reached the row that is about to be written. Analyze the recently
 494:Generated_Source\PSoC6\pdl\middleware\em_eeprom/cy_em_eeprom.c ****                     * created EEPROM header (stored in the RAM buffer currently): if it contains
 495:Generated_Source\PSoC6\pdl\middleware\em_eeprom/cy_em_eeprom.c ****                     * the data for EEPROM data locations in the row that is about to be written.
 496:Generated_Source\PSoC6\pdl\middleware\em_eeprom/cy_em_eeprom.c ****                     */
 497:Generated_Source\PSoC6\pdl\middleware\em_eeprom/cy_em_eeprom.c ****                     tmpRowAddr = (uint32_t) writeRamBuffer;
 498:Generated_Source\PSoC6\pdl\middleware\em_eeprom/cy_em_eeprom.c ****                 }
 499:Generated_Source\PSoC6\pdl\middleware\em_eeprom/cy_em_eeprom.c ****                 else
 500:Generated_Source\PSoC6\pdl\middleware\em_eeprom/cy_em_eeprom.c ****                 {
 501:Generated_Source\PSoC6\pdl\middleware\em_eeprom/cy_em_eeprom.c ****                     /* Retrieve the address of the previously written row by its sequence number.
 502:Generated_Source\PSoC6\pdl\middleware\em_eeprom/cy_em_eeprom.c ****                     * The pointer will be used to get data from the respective EEPROM header.
 503:Generated_Source\PSoC6\pdl\middleware\em_eeprom/cy_em_eeprom.c ****                     */
 504:Generated_Source\PSoC6\pdl\middleware\em_eeprom/cy_em_eeprom.c ****                     tmpRowAddr = GetRowAddrBySeqNum(i, context);
 505:Generated_Source\PSoC6\pdl\middleware\em_eeprom/cy_em_eeprom.c ****                 }
 506:Generated_Source\PSoC6\pdl\middleware\em_eeprom/cy_em_eeprom.c **** 
 507:Generated_Source\PSoC6\pdl\middleware\em_eeprom/cy_em_eeprom.c ****                 actEmEepromRowNum = CY_EM_EEPROM_GET_ACT_ROW_NUM_FROM_ADDR(emEepromRowAddr,
 508:Generated_Source\PSoC6\pdl\middleware\em_eeprom/cy_em_eeprom.c ****                                                                            context->numberOfRows,
 509:Generated_Source\PSoC6\pdl\middleware\em_eeprom/cy_em_eeprom.c ****                                                                            context->userFlashStartA
 510:Generated_Source\PSoC6\pdl\middleware\em_eeprom/cy_em_eeprom.c ****                 if(0UL != tmpRowAddr)
 511:Generated_Source\PSoC6\pdl\middleware\em_eeprom/cy_em_eeprom.c ****                 {
 512:Generated_Source\PSoC6\pdl\middleware\em_eeprom/cy_em_eeprom.c ****                     /* Calculate the required addressed for the later EEPROM historic data update *
 513:Generated_Source\PSoC6\pdl\middleware\em_eeprom/cy_em_eeprom.c ****                     skipOperation = GetAddresses(
 514:Generated_Source\PSoC6\pdl\middleware\em_eeprom/cy_em_eeprom.c ****                                               &startAddr,
 515:Generated_Source\PSoC6\pdl\middleware\em_eeprom/cy_em_eeprom.c ****                                               &endAddr,
 516:Generated_Source\PSoC6\pdl\middleware\em_eeprom/cy_em_eeprom.c ****                                               &eeHeaderDataOffset,
 517:Generated_Source\PSoC6\pdl\middleware\em_eeprom/cy_em_eeprom.c ****                                               actEmEepromRowNum,
 518:Generated_Source\PSoC6\pdl\middleware\em_eeprom/cy_em_eeprom.c ****                                               *(uint32_t *)(tmpRowAddr + CY_EM_EEPROM_HEADER_ADDR_O
 519:Generated_Source\PSoC6\pdl\middleware\em_eeprom/cy_em_eeprom.c ****                                               *(uint32_t *)(tmpRowAddr + CY_EM_EEPROM_HEADER_LEN_OF
 520:Generated_Source\PSoC6\pdl\middleware\em_eeprom/cy_em_eeprom.c ****                 }
 521:Generated_Source\PSoC6\pdl\middleware\em_eeprom/cy_em_eeprom.c ****                 else
 522:Generated_Source\PSoC6\pdl\middleware\em_eeprom/cy_em_eeprom.c ****                 {
 523:Generated_Source\PSoC6\pdl\middleware\em_eeprom/cy_em_eeprom.c ****                     /* Skip writes to the RAM buffer */
 524:Generated_Source\PSoC6\pdl\middleware\em_eeprom/cy_em_eeprom.c ****                     skipOperation++;
 525:Generated_Source\PSoC6\pdl\middleware\em_eeprom/cy_em_eeprom.c ****                 }
 526:Generated_Source\PSoC6\pdl\middleware\em_eeprom/cy_em_eeprom.c **** 
 527:Generated_Source\PSoC6\pdl\middleware\em_eeprom/cy_em_eeprom.c ****                 /* Write data to the RAM buffer */
 528:Generated_Source\PSoC6\pdl\middleware\em_eeprom/cy_em_eeprom.c ****                 if(0u == skipOperation)
 529:Generated_Source\PSoC6\pdl\middleware\em_eeprom/cy_em_eeprom.c ****                 {
 530:Generated_Source\PSoC6\pdl\middleware\em_eeprom/cy_em_eeprom.c ****                     uint32_t dataAddr = ((uint32_t)((uint8_t *)&writeRamBuffer)) + startAddr;
 531:Generated_Source\PSoC6\pdl\middleware\em_eeprom/cy_em_eeprom.c **** 
 532:Generated_Source\PSoC6\pdl\middleware\em_eeprom/cy_em_eeprom.c ****                     /* Update the address to point to the EEPROM header data and not to
 533:Generated_Source\PSoC6\pdl\middleware\em_eeprom/cy_em_eeprom.c ****                     * the start of the row.
 534:Generated_Source\PSoC6\pdl\middleware\em_eeprom/cy_em_eeprom.c ****                     */
 535:Generated_Source\PSoC6\pdl\middleware\em_eeprom/cy_em_eeprom.c ****                     tmpRowAddr = tmpRowAddr + CY_EM_EEPROM_HEADER_DATA_OFFSET + eeHeaderDataOffset;
 536:Generated_Source\PSoC6\pdl\middleware\em_eeprom/cy_em_eeprom.c ****                     (void)memcpy((void *)(dataAddr), (void *)(tmpRowAddr), endAddr - startAddr);
 537:Generated_Source\PSoC6\pdl\middleware\em_eeprom/cy_em_eeprom.c ****                 }
 538:Generated_Source\PSoC6\pdl\middleware\em_eeprom/cy_em_eeprom.c **** 
 539:Generated_Source\PSoC6\pdl\middleware\em_eeprom/cy_em_eeprom.c ****                 /* Calculate the checksum if redundant copy is enabled */
 540:Generated_Source\PSoC6\pdl\middleware\em_eeprom/cy_em_eeprom.c ****                 if(0u != context->redundantCopy)
 541:Generated_Source\PSoC6\pdl\middleware\em_eeprom/cy_em_eeprom.c ****                 {
 542:Generated_Source\PSoC6\pdl\middleware\em_eeprom/cy_em_eeprom.c ****                     writeRamBuffer[CY_EM_EEPROM_HEADER_CHECKSUM_OFFSET_U32] = (uint32_t)
 543:Generated_Source\PSoC6\pdl\middleware\em_eeprom/cy_em_eeprom.c ****                         CalcChecksum((uint8_t *) &writeRamBuffer[CY_EM_EEPROM_EEPROM_DATA_OFFSET_U3
 544:Generated_Source\PSoC6\pdl\middleware\em_eeprom/cy_em_eeprom.c ****                                                   CY_EM_EEPROM_EEPROM_DATA_LEN);
ARM GAS  C:\Users\eduar\AppData\Local\Temp\cctEoJXe.s 			page 11


 545:Generated_Source\PSoC6\pdl\middleware\em_eeprom/cy_em_eeprom.c ****                 }
 546:Generated_Source\PSoC6\pdl\middleware\em_eeprom/cy_em_eeprom.c ****             }
 547:Generated_Source\PSoC6\pdl\middleware\em_eeprom/cy_em_eeprom.c **** 
 548:Generated_Source\PSoC6\pdl\middleware\em_eeprom/cy_em_eeprom.c ****             /* Write the data to the specified flash row */
 549:Generated_Source\PSoC6\pdl\middleware\em_eeprom/cy_em_eeprom.c ****             ret = WriteRow(emEepromRowAddr, writeRamBuffer, context);
 550:Generated_Source\PSoC6\pdl\middleware\em_eeprom/cy_em_eeprom.c ****             tmpRowAddr = emEepromRowAddr;
 551:Generated_Source\PSoC6\pdl\middleware\em_eeprom/cy_em_eeprom.c **** 
 552:Generated_Source\PSoC6\pdl\middleware\em_eeprom/cy_em_eeprom.c ****             /* Check if redundant copy is used */
 553:Generated_Source\PSoC6\pdl\middleware\em_eeprom/cy_em_eeprom.c ****             if((0u != context->redundantCopy) && (CY_EM_EEPROM_SUCCESS == ret))
 554:Generated_Source\PSoC6\pdl\middleware\em_eeprom/cy_em_eeprom.c ****             {
 555:Generated_Source\PSoC6\pdl\middleware\em_eeprom/cy_em_eeprom.c ****                 /* Update the row address to point to the row in the redundant EEPROM's copy */
 556:Generated_Source\PSoC6\pdl\middleware\em_eeprom/cy_em_eeprom.c ****                 tmpRowAddr = (emEepromRowAddr - context->userFlashStartAddr) + context->wlEndAddr;
 557:Generated_Source\PSoC6\pdl\middleware\em_eeprom/cy_em_eeprom.c **** 
 558:Generated_Source\PSoC6\pdl\middleware\em_eeprom/cy_em_eeprom.c ****                 /* Write the data to the specified flash row */
 559:Generated_Source\PSoC6\pdl\middleware\em_eeprom/cy_em_eeprom.c ****                 ret = WriteRow(tmpRowAddr, writeRamBuffer, context);
 560:Generated_Source\PSoC6\pdl\middleware\em_eeprom/cy_em_eeprom.c ****             }
 561:Generated_Source\PSoC6\pdl\middleware\em_eeprom/cy_em_eeprom.c **** 
 562:Generated_Source\PSoC6\pdl\middleware\em_eeprom/cy_em_eeprom.c ****             if(CY_EM_EEPROM_SUCCESS == ret)
 563:Generated_Source\PSoC6\pdl\middleware\em_eeprom/cy_em_eeprom.c ****             {
 564:Generated_Source\PSoC6\pdl\middleware\em_eeprom/cy_em_eeprom.c ****                 /* Store last written row address only when EEPROM and redundant
 565:Generated_Source\PSoC6\pdl\middleware\em_eeprom/cy_em_eeprom.c ****                 * copy writes were successful.
 566:Generated_Source\PSoC6\pdl\middleware\em_eeprom/cy_em_eeprom.c ****                 */
 567:Generated_Source\PSoC6\pdl\middleware\em_eeprom/cy_em_eeprom.c ****                 context->lastWrRowAddr = emEepromRowAddr;
 568:Generated_Source\PSoC6\pdl\middleware\em_eeprom/cy_em_eeprom.c ****             }
 569:Generated_Source\PSoC6\pdl\middleware\em_eeprom/cy_em_eeprom.c ****             else
 570:Generated_Source\PSoC6\pdl\middleware\em_eeprom/cy_em_eeprom.c ****             {
 571:Generated_Source\PSoC6\pdl\middleware\em_eeprom/cy_em_eeprom.c ****                 break;
 572:Generated_Source\PSoC6\pdl\middleware\em_eeprom/cy_em_eeprom.c ****             }
 573:Generated_Source\PSoC6\pdl\middleware\em_eeprom/cy_em_eeprom.c ****         }
 574:Generated_Source\PSoC6\pdl\middleware\em_eeprom/cy_em_eeprom.c ****     }
 575:Generated_Source\PSoC6\pdl\middleware\em_eeprom/cy_em_eeprom.c ****     return(ret);
 576:Generated_Source\PSoC6\pdl\middleware\em_eeprom/cy_em_eeprom.c **** }
 577:Generated_Source\PSoC6\pdl\middleware\em_eeprom/cy_em_eeprom.c **** 
 578:Generated_Source\PSoC6\pdl\middleware\em_eeprom/cy_em_eeprom.c **** 
 579:Generated_Source\PSoC6\pdl\middleware\em_eeprom/cy_em_eeprom.c **** /*******************************************************************************
 580:Generated_Source\PSoC6\pdl\middleware\em_eeprom/cy_em_eeprom.c **** * Function Name: Cy_Em_EEPROM_Erase
 581:Generated_Source\PSoC6\pdl\middleware\em_eeprom/cy_em_eeprom.c **** ****************************************************************************//**
 582:Generated_Source\PSoC6\pdl\middleware\em_eeprom/cy_em_eeprom.c **** *
 583:Generated_Source\PSoC6\pdl\middleware\em_eeprom/cy_em_eeprom.c **** * This function erases the entire contents of the EEPROM. Erased values are all
 584:Generated_Source\PSoC6\pdl\middleware\em_eeprom/cy_em_eeprom.c **** * zeros. This is a blocking function and it does not return until the write
 585:Generated_Source\PSoC6\pdl\middleware\em_eeprom/cy_em_eeprom.c **** * operation is completed. The user firmware should not enter Hibernate mode until
 586:Generated_Source\PSoC6\pdl\middleware\em_eeprom/cy_em_eeprom.c **** * erase is completed. The erase operation is allowed in Sleep and Deep-Sleep modes.
 587:Generated_Source\PSoC6\pdl\middleware\em_eeprom/cy_em_eeprom.c **** * During the flash operation, the device should not be reset, including the
 588:Generated_Source\PSoC6\pdl\middleware\em_eeprom/cy_em_eeprom.c **** * XRES pin, a software reset, and watchdog reset sources. Also, low-voltage
 589:Generated_Source\PSoC6\pdl\middleware\em_eeprom/cy_em_eeprom.c **** * detect circuits should be configured to generate an interrupt instead of a
 590:Generated_Source\PSoC6\pdl\middleware\em_eeprom/cy_em_eeprom.c **** * reset. Otherwise, portions of flash may undergo unexpected changes.
 591:Generated_Source\PSoC6\pdl\middleware\em_eeprom/cy_em_eeprom.c **** *
 592:Generated_Source\PSoC6\pdl\middleware\em_eeprom/cy_em_eeprom.c **** * \param context
 593:Generated_Source\PSoC6\pdl\middleware\em_eeprom/cy_em_eeprom.c **** * The pointer to the EEPROM context structure \ref cy_stc_eeprom_context_t.
 594:Generated_Source\PSoC6\pdl\middleware\em_eeprom/cy_em_eeprom.c **** *
 595:Generated_Source\PSoC6\pdl\middleware\em_eeprom/cy_em_eeprom.c **** * \return
 596:Generated_Source\PSoC6\pdl\middleware\em_eeprom/cy_em_eeprom.c **** * This function returns \ref cy_en_em_eeprom_status_t.
 597:Generated_Source\PSoC6\pdl\middleware\em_eeprom/cy_em_eeprom.c **** *
 598:Generated_Source\PSoC6\pdl\middleware\em_eeprom/cy_em_eeprom.c **** * \note
 599:Generated_Source\PSoC6\pdl\middleware\em_eeprom/cy_em_eeprom.c **** * For all non PSoC 6 devices the erase operation is performed by clearing
 600:Generated_Source\PSoC6\pdl\middleware\em_eeprom/cy_em_eeprom.c **** * the EEPROM data using flash write. This affects the flash durability.
 601:Generated_Source\PSoC6\pdl\middleware\em_eeprom/cy_em_eeprom.c **** * So it is recommended to use this function in utmost case to prolongate
ARM GAS  C:\Users\eduar\AppData\Local\Temp\cctEoJXe.s 			page 12


 602:Generated_Source\PSoC6\pdl\middleware\em_eeprom/cy_em_eeprom.c **** * flash life.
 603:Generated_Source\PSoC6\pdl\middleware\em_eeprom/cy_em_eeprom.c **** *
 604:Generated_Source\PSoC6\pdl\middleware\em_eeprom/cy_em_eeprom.c **** * \note
 605:Generated_Source\PSoC6\pdl\middleware\em_eeprom/cy_em_eeprom.c **** * This function uses a buffer of the flash row size to perform erase
 606:Generated_Source\PSoC6\pdl\middleware\em_eeprom/cy_em_eeprom.c **** * operation. For the size of the row refer to the specific PSoC device
 607:Generated_Source\PSoC6\pdl\middleware\em_eeprom/cy_em_eeprom.c **** * datasheet.
 608:Generated_Source\PSoC6\pdl\middleware\em_eeprom/cy_em_eeprom.c **** *
 609:Generated_Source\PSoC6\pdl\middleware\em_eeprom/cy_em_eeprom.c **** * \sideeffect
 610:Generated_Source\PSoC6\pdl\middleware\em_eeprom/cy_em_eeprom.c **** * In case when blocking write option is used, if this function is called by
 611:Generated_Source\PSoC6\pdl\middleware\em_eeprom/cy_em_eeprom.c **** * the CM4 the user code on CM0P and the user code on CM4 are blocked until erase
 612:Generated_Source\PSoC6\pdl\middleware\em_eeprom/cy_em_eeprom.c **** * flash row operation is finished. If this function is called by the CM0P the
 613:Generated_Source\PSoC6\pdl\middleware\em_eeprom/cy_em_eeprom.c **** * user code on CM4 is not blocked and the user code on CM0P is blocked until
 614:Generated_Source\PSoC6\pdl\middleware\em_eeprom/cy_em_eeprom.c **** * erase flash row operation is finished. Plan your task allocation accordingly.
 615:Generated_Source\PSoC6\pdl\middleware\em_eeprom/cy_em_eeprom.c **** *
 616:Generated_Source\PSoC6\pdl\middleware\em_eeprom/cy_em_eeprom.c **** * \sideeffect
 617:Generated_Source\PSoC6\pdl\middleware\em_eeprom/cy_em_eeprom.c **** * In case if non-blocking write option is used and when user flash is used as
 618:Generated_Source\PSoC6\pdl\middleware\em_eeprom/cy_em_eeprom.c **** * an EEPROM storage care should be taken to prevent the read while write (RWW)
 619:Generated_Source\PSoC6\pdl\middleware\em_eeprom/cy_em_eeprom.c **** * exception. To prevent the RWW exception the user flash macro that includes
 620:Generated_Source\PSoC6\pdl\middleware\em_eeprom/cy_em_eeprom.c **** * the EEPROM storage should not be read while the EEPROM erase is not completed.
 621:Generated_Source\PSoC6\pdl\middleware\em_eeprom/cy_em_eeprom.c **** * The read also means the user code execution from the respective flash macro.
 622:Generated_Source\PSoC6\pdl\middleware\em_eeprom/cy_em_eeprom.c **** *
 623:Generated_Source\PSoC6\pdl\middleware\em_eeprom/cy_em_eeprom.c **** *******************************************************************************/
 624:Generated_Source\PSoC6\pdl\middleware\em_eeprom/cy_em_eeprom.c **** cy_en_em_eeprom_status_t Cy_Em_EEPROM_Erase(cy_stc_eeprom_context_t * context)
 625:Generated_Source\PSoC6\pdl\middleware\em_eeprom/cy_em_eeprom.c **** {
 626:Generated_Source\PSoC6\pdl\middleware\em_eeprom/cy_em_eeprom.c ****     uint32_t i;
 627:Generated_Source\PSoC6\pdl\middleware\em_eeprom/cy_em_eeprom.c ****     uint32_t seqNum;
 628:Generated_Source\PSoC6\pdl\middleware\em_eeprom/cy_em_eeprom.c ****     uint32_t emEepromRowAddr = context->lastWrRowAddr;
 629:Generated_Source\PSoC6\pdl\middleware\em_eeprom/cy_em_eeprom.c ****     uint32_t emEepromRowRdAddr;
 630:Generated_Source\PSoC6\pdl\middleware\em_eeprom/cy_em_eeprom.c ****     cy_en_em_eeprom_status_t ret = CY_EM_EEPROM_WRITE_FAIL;
 631:Generated_Source\PSoC6\pdl\middleware\em_eeprom/cy_em_eeprom.c ****     uint32_t writeRamBuffer[CY_EM_EEPROM_FLASH_SIZEOF_ROW / CY_EM_EEPROM_U32_DIV] = {0u};
 632:Generated_Source\PSoC6\pdl\middleware\em_eeprom/cy_em_eeprom.c ****     uint32_t emEepromStoredRowAddr = context->lastWrRowAddr;
 633:Generated_Source\PSoC6\pdl\middleware\em_eeprom/cy_em_eeprom.c ****     uint32_t storedSeqNum;
 634:Generated_Source\PSoC6\pdl\middleware\em_eeprom/cy_em_eeprom.c **** 
 635:Generated_Source\PSoC6\pdl\middleware\em_eeprom/cy_em_eeprom.c ****     /* Get the sequence number of the last written row */
 636:Generated_Source\PSoC6\pdl\middleware\em_eeprom/cy_em_eeprom.c ****     seqNum = CY_EM_EEPROM_GET_SEQ_NUM(emEepromRowAddr);
 637:Generated_Source\PSoC6\pdl\middleware\em_eeprom/cy_em_eeprom.c **** 
 638:Generated_Source\PSoC6\pdl\middleware\em_eeprom/cy_em_eeprom.c ****     /* If there were no writes to EEPROM - nothing to erase */
 639:Generated_Source\PSoC6\pdl\middleware\em_eeprom/cy_em_eeprom.c ****     if(0u != seqNum)
 640:Generated_Source\PSoC6\pdl\middleware\em_eeprom/cy_em_eeprom.c ****     {
 641:Generated_Source\PSoC6\pdl\middleware\em_eeprom/cy_em_eeprom.c ****         /* Calculate the number of row erase operations required */
 642:Generated_Source\PSoC6\pdl\middleware\em_eeprom/cy_em_eeprom.c ****         uint32_t numWrites = context->numberOfRows * context->wearLevelingFactor;
 643:Generated_Source\PSoC6\pdl\middleware\em_eeprom/cy_em_eeprom.c **** 
 644:Generated_Source\PSoC6\pdl\middleware\em_eeprom/cy_em_eeprom.c ****         GetNextRowToWrite(seqNum, &emEepromStoredRowAddr, &emEepromRowRdAddr, context);
 645:Generated_Source\PSoC6\pdl\middleware\em_eeprom/cy_em_eeprom.c ****         storedSeqNum = seqNum + 1u;
 646:Generated_Source\PSoC6\pdl\middleware\em_eeprom/cy_em_eeprom.c **** 
 647:Generated_Source\PSoC6\pdl\middleware\em_eeprom/cy_em_eeprom.c ****         if(0u != context->redundantCopy)
 648:Generated_Source\PSoC6\pdl\middleware\em_eeprom/cy_em_eeprom.c ****         {
 649:Generated_Source\PSoC6\pdl\middleware\em_eeprom/cy_em_eeprom.c ****             writeRamBuffer[CY_EM_EEPROM_HEADER_CHECKSUM_OFFSET_U32] = (uint32_t)
 650:Generated_Source\PSoC6\pdl\middleware\em_eeprom/cy_em_eeprom.c ****                         CalcChecksum((uint8_t *) &writeRamBuffer[CY_EM_EEPROM_EEPROM_DATA_OFFSET_U3
 651:Generated_Source\PSoC6\pdl\middleware\em_eeprom/cy_em_eeprom.c ****                                                   CY_EM_EEPROM_EEPROM_DATA_LEN);
 652:Generated_Source\PSoC6\pdl\middleware\em_eeprom/cy_em_eeprom.c ****         }
 653:Generated_Source\PSoC6\pdl\middleware\em_eeprom/cy_em_eeprom.c **** 
 654:Generated_Source\PSoC6\pdl\middleware\em_eeprom/cy_em_eeprom.c ****         for(i = 0u; i < numWrites; i++)
 655:Generated_Source\PSoC6\pdl\middleware\em_eeprom/cy_em_eeprom.c ****         {
 656:Generated_Source\PSoC6\pdl\middleware\em_eeprom/cy_em_eeprom.c ****             /* For PSoC 6 the erase operation moves backwards. From last written row
 657:Generated_Source\PSoC6\pdl\middleware\em_eeprom/cy_em_eeprom.c ****             * identified by "seqNum" down to "seqNum" - "numWrites". If "emEepromRowAddr"
 658:Generated_Source\PSoC6\pdl\middleware\em_eeprom/cy_em_eeprom.c ****             * is zero this means that the row identified by "seqNum" was previously 
ARM GAS  C:\Users\eduar\AppData\Local\Temp\cctEoJXe.s 			page 13


 659:Generated_Source\PSoC6\pdl\middleware\em_eeprom/cy_em_eeprom.c ****             * erased.
 660:Generated_Source\PSoC6\pdl\middleware\em_eeprom/cy_em_eeprom.c ****             */
 661:Generated_Source\PSoC6\pdl\middleware\em_eeprom/cy_em_eeprom.c ****             if(0u != emEepromRowAddr)
 662:Generated_Source\PSoC6\pdl\middleware\em_eeprom/cy_em_eeprom.c ****             {
 663:Generated_Source\PSoC6\pdl\middleware\em_eeprom/cy_em_eeprom.c ****                 ret = EraseRow(emEepromRowAddr, (uint32_t)writeRamBuffer, context);
 664:Generated_Source\PSoC6\pdl\middleware\em_eeprom/cy_em_eeprom.c ****             }
 665:Generated_Source\PSoC6\pdl\middleware\em_eeprom/cy_em_eeprom.c **** 
 666:Generated_Source\PSoC6\pdl\middleware\em_eeprom/cy_em_eeprom.c ****             seqNum--;
 667:Generated_Source\PSoC6\pdl\middleware\em_eeprom/cy_em_eeprom.c **** 
 668:Generated_Source\PSoC6\pdl\middleware\em_eeprom/cy_em_eeprom.c ****             if(0u == seqNum)
 669:Generated_Source\PSoC6\pdl\middleware\em_eeprom/cy_em_eeprom.c ****             {
 670:Generated_Source\PSoC6\pdl\middleware\em_eeprom/cy_em_eeprom.c ****                 /* Exit the loop as there is no more row is EEPROM to be erased */
 671:Generated_Source\PSoC6\pdl\middleware\em_eeprom/cy_em_eeprom.c ****                 break;
 672:Generated_Source\PSoC6\pdl\middleware\em_eeprom/cy_em_eeprom.c ****             }
 673:Generated_Source\PSoC6\pdl\middleware\em_eeprom/cy_em_eeprom.c ****             emEepromRowAddr = GetRowAddrBySeqNum(seqNum, context);
 674:Generated_Source\PSoC6\pdl\middleware\em_eeprom/cy_em_eeprom.c ****         }
 675:Generated_Source\PSoC6\pdl\middleware\em_eeprom/cy_em_eeprom.c **** 
 676:Generated_Source\PSoC6\pdl\middleware\em_eeprom/cy_em_eeprom.c ****         if(CY_EM_EEPROM_SUCCESS == ret)
 677:Generated_Source\PSoC6\pdl\middleware\em_eeprom/cy_em_eeprom.c ****         {
 678:Generated_Source\PSoC6\pdl\middleware\em_eeprom/cy_em_eeprom.c ****             writeRamBuffer[0u] = storedSeqNum;
 679:Generated_Source\PSoC6\pdl\middleware\em_eeprom/cy_em_eeprom.c **** 
 680:Generated_Source\PSoC6\pdl\middleware\em_eeprom/cy_em_eeprom.c ****             /* Write the previously stored sequence number to the flash row which would be
 681:Generated_Source\PSoC6\pdl\middleware\em_eeprom/cy_em_eeprom.c ****             * written next if the erase wouldn't happen. In this case the write to
 682:Generated_Source\PSoC6\pdl\middleware\em_eeprom/cy_em_eeprom.c ****             * redundant copy can be skipped as it does not add any value.
 683:Generated_Source\PSoC6\pdl\middleware\em_eeprom/cy_em_eeprom.c ****             */
 684:Generated_Source\PSoC6\pdl\middleware\em_eeprom/cy_em_eeprom.c ****             ret = WriteRow(emEepromStoredRowAddr, writeRamBuffer, context);
 685:Generated_Source\PSoC6\pdl\middleware\em_eeprom/cy_em_eeprom.c **** 
 686:Generated_Source\PSoC6\pdl\middleware\em_eeprom/cy_em_eeprom.c ****             if(CY_EM_EEPROM_SUCCESS == ret)
 687:Generated_Source\PSoC6\pdl\middleware\em_eeprom/cy_em_eeprom.c ****             {
 688:Generated_Source\PSoC6\pdl\middleware\em_eeprom/cy_em_eeprom.c ****                 context->lastWrRowAddr = emEepromStoredRowAddr;
 689:Generated_Source\PSoC6\pdl\middleware\em_eeprom/cy_em_eeprom.c ****             }
 690:Generated_Source\PSoC6\pdl\middleware\em_eeprom/cy_em_eeprom.c ****         }
 691:Generated_Source\PSoC6\pdl\middleware\em_eeprom/cy_em_eeprom.c **** 
 692:Generated_Source\PSoC6\pdl\middleware\em_eeprom/cy_em_eeprom.c ****     }
 693:Generated_Source\PSoC6\pdl\middleware\em_eeprom/cy_em_eeprom.c ****     return(ret);
 694:Generated_Source\PSoC6\pdl\middleware\em_eeprom/cy_em_eeprom.c **** }
 695:Generated_Source\PSoC6\pdl\middleware\em_eeprom/cy_em_eeprom.c **** 
 696:Generated_Source\PSoC6\pdl\middleware\em_eeprom/cy_em_eeprom.c **** 
 697:Generated_Source\PSoC6\pdl\middleware\em_eeprom/cy_em_eeprom.c **** /*******************************************************************************
 698:Generated_Source\PSoC6\pdl\middleware\em_eeprom/cy_em_eeprom.c **** * Function Name: Cy_Em_EEPROM_NumWrites
 699:Generated_Source\PSoC6\pdl\middleware\em_eeprom/cy_em_eeprom.c **** ****************************************************************************//**
 700:Generated_Source\PSoC6\pdl\middleware\em_eeprom/cy_em_eeprom.c **** *
 701:Generated_Source\PSoC6\pdl\middleware\em_eeprom/cy_em_eeprom.c **** * Returns the number of the EEPROM writes completed so far.
 702:Generated_Source\PSoC6\pdl\middleware\em_eeprom/cy_em_eeprom.c **** *
 703:Generated_Source\PSoC6\pdl\middleware\em_eeprom/cy_em_eeprom.c **** * \param context
 704:Generated_Source\PSoC6\pdl\middleware\em_eeprom/cy_em_eeprom.c **** * The pointer to the EEPROM context structure \ref cy_stc_eeprom_context_t.
 705:Generated_Source\PSoC6\pdl\middleware\em_eeprom/cy_em_eeprom.c **** *
 706:Generated_Source\PSoC6\pdl\middleware\em_eeprom/cy_em_eeprom.c **** * \return
 707:Generated_Source\PSoC6\pdl\middleware\em_eeprom/cy_em_eeprom.c **** * The number of writes performed to the EEPROM.
 708:Generated_Source\PSoC6\pdl\middleware\em_eeprom/cy_em_eeprom.c **** *
 709:Generated_Source\PSoC6\pdl\middleware\em_eeprom/cy_em_eeprom.c **** *******************************************************************************/
 710:Generated_Source\PSoC6\pdl\middleware\em_eeprom/cy_em_eeprom.c **** uint32_t Cy_Em_EEPROM_NumWrites(cy_stc_eeprom_context_t * context)
 711:Generated_Source\PSoC6\pdl\middleware\em_eeprom/cy_em_eeprom.c **** {
 712:Generated_Source\PSoC6\pdl\middleware\em_eeprom/cy_em_eeprom.c ****     return(CY_EM_EEPROM_GET_SEQ_NUM(context->lastWrRowAddr));
 713:Generated_Source\PSoC6\pdl\middleware\em_eeprom/cy_em_eeprom.c **** }
 714:Generated_Source\PSoC6\pdl\middleware\em_eeprom/cy_em_eeprom.c **** 
 715:Generated_Source\PSoC6\pdl\middleware\em_eeprom/cy_em_eeprom.c **** /** \} */
ARM GAS  C:\Users\eduar\AppData\Local\Temp\cctEoJXe.s 			page 14


 716:Generated_Source\PSoC6\pdl\middleware\em_eeprom/cy_em_eeprom.c **** 
 717:Generated_Source\PSoC6\pdl\middleware\em_eeprom/cy_em_eeprom.c **** /** \cond INTERNAL */
 718:Generated_Source\PSoC6\pdl\middleware\em_eeprom/cy_em_eeprom.c **** 
 719:Generated_Source\PSoC6\pdl\middleware\em_eeprom/cy_em_eeprom.c **** 
 720:Generated_Source\PSoC6\pdl\middleware\em_eeprom/cy_em_eeprom.c **** /*******************************************************************************
 721:Generated_Source\PSoC6\pdl\middleware\em_eeprom/cy_em_eeprom.c **** * Function Name: FindLastWrittenRow
 722:Generated_Source\PSoC6\pdl\middleware\em_eeprom/cy_em_eeprom.c **** ****************************************************************************//**
 723:Generated_Source\PSoC6\pdl\middleware\em_eeprom/cy_em_eeprom.c **** *
 724:Generated_Source\PSoC6\pdl\middleware\em_eeprom/cy_em_eeprom.c **** * Performs a search of the last written row address of the EEPROM associated
 725:Generated_Source\PSoC6\pdl\middleware\em_eeprom/cy_em_eeprom.c **** * with the context structure. If there were no writes to the EEPROM the
 726:Generated_Source\PSoC6\pdl\middleware\em_eeprom/cy_em_eeprom.c **** * function returns the start address of the EEPROM. The row address is returned
 727:Generated_Source\PSoC6\pdl\middleware\em_eeprom/cy_em_eeprom.c **** * in the input parameter.
 728:Generated_Source\PSoC6\pdl\middleware\em_eeprom/cy_em_eeprom.c **** *
 729:Generated_Source\PSoC6\pdl\middleware\em_eeprom/cy_em_eeprom.c **** * \param lastWrRowPtr
 730:Generated_Source\PSoC6\pdl\middleware\em_eeprom/cy_em_eeprom.c **** * The pointer to a memory where the last written row will be returned.
 731:Generated_Source\PSoC6\pdl\middleware\em_eeprom/cy_em_eeprom.c **** *
 732:Generated_Source\PSoC6\pdl\middleware\em_eeprom/cy_em_eeprom.c **** * \param context
 733:Generated_Source\PSoC6\pdl\middleware\em_eeprom/cy_em_eeprom.c **** * The pointer to the EEPROM context structure \ref cy_stc_eeprom_context_t.
 734:Generated_Source\PSoC6\pdl\middleware\em_eeprom/cy_em_eeprom.c **** *
 735:Generated_Source\PSoC6\pdl\middleware\em_eeprom/cy_em_eeprom.c **** *******************************************************************************/
 736:Generated_Source\PSoC6\pdl\middleware\em_eeprom/cy_em_eeprom.c **** static void FindLastWrittenRow(uint32_t * lastWrRowPtr, cy_stc_eeprom_context_t * context)
 737:Generated_Source\PSoC6\pdl\middleware\em_eeprom/cy_em_eeprom.c **** {
  27              		.loc 1 737 0
  28              		.cfi_startproc
  29              		@ args = 0, pretend = 0, frame = 0
  30              		@ frame_needed = 0, uses_anonymous_args = 0
  31              	.LVL0:
  32 0000 70B5     		push	{r4, r5, r6, lr}
  33              		.cfi_def_cfa_offset 16
  34              		.cfi_offset 4, -16
  35              		.cfi_offset 5, -12
  36              		.cfi_offset 6, -8
  37              		.cfi_offset 14, -4
  38              	.LVL1:
 738:Generated_Source\PSoC6\pdl\middleware\em_eeprom/cy_em_eeprom.c ****     uint32_t seqNum = 0u;
 739:Generated_Source\PSoC6\pdl\middleware\em_eeprom/cy_em_eeprom.c ****     uint32_t prevSeqNum = 0u;
 740:Generated_Source\PSoC6\pdl\middleware\em_eeprom/cy_em_eeprom.c ****     uint32_t numRows;
 741:Generated_Source\PSoC6\pdl\middleware\em_eeprom/cy_em_eeprom.c ****     uint32_t emEepromAddr = context->userFlashStartAddr;
  39              		.loc 1 741 0
  40 0002 8A69     		ldr	r2, [r1, #24]
  41              	.LVL2:
 742:Generated_Source\PSoC6\pdl\middleware\em_eeprom/cy_em_eeprom.c **** 
 743:Generated_Source\PSoC6\pdl\middleware\em_eeprom/cy_em_eeprom.c ****     *lastWrRowPtr = emEepromAddr;
  42              		.loc 1 743 0
  43 0004 0260     		str	r2, [r0]
  44              	.LVL3:
 744:Generated_Source\PSoC6\pdl\middleware\em_eeprom/cy_em_eeprom.c **** 
 745:Generated_Source\PSoC6\pdl\middleware\em_eeprom/cy_em_eeprom.c ****     for(numRows = 0u; numRows < (context->numberOfRows * context->wearLevelingFactor); numRows++)
  45              		.loc 1 745 0
  46 0006 0024     		movs	r4, #0
 739:Generated_Source\PSoC6\pdl\middleware\em_eeprom/cy_em_eeprom.c ****     uint32_t numRows;
  47              		.loc 1 739 0
  48 0008 0025     		movs	r5, #0
  49              		.loc 1 745 0
  50 000a 0BE0     		b	.L2
  51              	.LVL4:
  52              	.L4:
ARM GAS  C:\Users\eduar\AppData\Local\Temp\cctEoJXe.s 			page 15


 746:Generated_Source\PSoC6\pdl\middleware\em_eeprom/cy_em_eeprom.c ****     {
 747:Generated_Source\PSoC6\pdl\middleware\em_eeprom/cy_em_eeprom.c ****         seqNum = CY_EM_EEPROM_GET_SEQ_NUM(emEepromAddr);
  53              		.loc 1 747 0
  54 000c 1368     		ldr	r3, [r2]
  55              	.LVL5:
 748:Generated_Source\PSoC6\pdl\middleware\em_eeprom/cy_em_eeprom.c ****         if((0u != seqNum) && (seqNum > prevSeqNum))
  56              		.loc 1 748 0
  57 000e 002B     		cmp	r3, #0
  58 0010 03D0     		beq	.L3
  59              		.loc 1 748 0 is_stmt 0 discriminator 1
  60 0012 9D42     		cmp	r5, r3
  61 0014 01D2     		bcs	.L3
  62              	.LVL6:
 749:Generated_Source\PSoC6\pdl\middleware\em_eeprom/cy_em_eeprom.c ****         {
 750:Generated_Source\PSoC6\pdl\middleware\em_eeprom/cy_em_eeprom.c ****             /* Some record in EEPROM was found. Store found sequence
 751:Generated_Source\PSoC6\pdl\middleware\em_eeprom/cy_em_eeprom.c ****             * number and row address.
 752:Generated_Source\PSoC6\pdl\middleware\em_eeprom/cy_em_eeprom.c ****             */
 753:Generated_Source\PSoC6\pdl\middleware\em_eeprom/cy_em_eeprom.c ****             prevSeqNum = seqNum;
 754:Generated_Source\PSoC6\pdl\middleware\em_eeprom/cy_em_eeprom.c ****             *lastWrRowPtr = emEepromAddr;
  63              		.loc 1 754 0 is_stmt 1
  64 0016 0260     		str	r2, [r0]
 753:Generated_Source\PSoC6\pdl\middleware\em_eeprom/cy_em_eeprom.c ****             *lastWrRowPtr = emEepromAddr;
  65              		.loc 1 753 0
  66 0018 1D00     		movs	r5, r3
  67              	.LVL7:
  68              	.L3:
 755:Generated_Source\PSoC6\pdl\middleware\em_eeprom/cy_em_eeprom.c ****         }
 756:Generated_Source\PSoC6\pdl\middleware\em_eeprom/cy_em_eeprom.c **** 
 757:Generated_Source\PSoC6\pdl\middleware\em_eeprom/cy_em_eeprom.c ****         /* Switch to the next row */
 758:Generated_Source\PSoC6\pdl\middleware\em_eeprom/cy_em_eeprom.c ****         emEepromAddr = emEepromAddr + CY_EM_EEPROM_FLASH_SIZEOF_ROW;
  69              		.loc 1 758 0 discriminator 2
  70 001a 8023     		movs	r3, #128
  71              	.LVL8:
  72 001c 9B00     		lsls	r3, r3, #2
  73 001e 9C46     		mov	ip, r3
  74 0020 6244     		add	r2, r2, ip
  75              	.LVL9:
 745:Generated_Source\PSoC6\pdl\middleware\em_eeprom/cy_em_eeprom.c ****     {
  76              		.loc 1 745 0 discriminator 2
  77 0022 0134     		adds	r4, r4, #1
  78              	.LVL10:
  79              	.L2:
 745:Generated_Source\PSoC6\pdl\middleware\em_eeprom/cy_em_eeprom.c ****     {
  80              		.loc 1 745 0 is_stmt 0 discriminator 1
  81 0024 0B69     		ldr	r3, [r1, #16]
  82 0026 4E68     		ldr	r6, [r1, #4]
  83 0028 7343     		muls	r3, r6
  84 002a 9C42     		cmp	r4, r3
  85 002c EED3     		bcc	.L4
 759:Generated_Source\PSoC6\pdl\middleware\em_eeprom/cy_em_eeprom.c ****     }
 760:Generated_Source\PSoC6\pdl\middleware\em_eeprom/cy_em_eeprom.c **** }
  86              		.loc 1 760 0 is_stmt 1
  87              		@ sp needed
  88              	.LVL11:
  89              	.LVL12:
  90 002e 70BD     		pop	{r4, r5, r6, pc}
  91              		.cfi_endproc
ARM GAS  C:\Users\eduar\AppData\Local\Temp\cctEoJXe.s 			page 16


  92              	.LFE50:
  93              		.size	FindLastWrittenRow, .-FindLastWrittenRow
  94              		.section	.text.GetRowAddrBySeqNum,"ax",%progbits
  95              		.align	2
  96              		.code	16
  97              		.thumb_func
  98              		.type	GetRowAddrBySeqNum, %function
  99              	GetRowAddrBySeqNum:
 100              	.LFB51:
 761:Generated_Source\PSoC6\pdl\middleware\em_eeprom/cy_em_eeprom.c **** 
 762:Generated_Source\PSoC6\pdl\middleware\em_eeprom/cy_em_eeprom.c **** 
 763:Generated_Source\PSoC6\pdl\middleware\em_eeprom/cy_em_eeprom.c **** /*******************************************************************************
 764:Generated_Source\PSoC6\pdl\middleware\em_eeprom/cy_em_eeprom.c **** * Function Name: GetRowAddrBySeqNum
 765:Generated_Source\PSoC6\pdl\middleware\em_eeprom/cy_em_eeprom.c **** ****************************************************************************//**
 766:Generated_Source\PSoC6\pdl\middleware\em_eeprom/cy_em_eeprom.c **** *
 767:Generated_Source\PSoC6\pdl\middleware\em_eeprom/cy_em_eeprom.c **** * Returns the address of the row in EEPROM using its sequence number.
 768:Generated_Source\PSoC6\pdl\middleware\em_eeprom/cy_em_eeprom.c **** *
 769:Generated_Source\PSoC6\pdl\middleware\em_eeprom/cy_em_eeprom.c **** * \param seqNum
 770:Generated_Source\PSoC6\pdl\middleware\em_eeprom/cy_em_eeprom.c **** * The sequence number of the row.
 771:Generated_Source\PSoC6\pdl\middleware\em_eeprom/cy_em_eeprom.c **** *
 772:Generated_Source\PSoC6\pdl\middleware\em_eeprom/cy_em_eeprom.c **** * \param context
 773:Generated_Source\PSoC6\pdl\middleware\em_eeprom/cy_em_eeprom.c **** * The pointer to the EEPROM context structure.
 774:Generated_Source\PSoC6\pdl\middleware\em_eeprom/cy_em_eeprom.c **** *
 775:Generated_Source\PSoC6\pdl\middleware\em_eeprom/cy_em_eeprom.c **** * \return
 776:Generated_Source\PSoC6\pdl\middleware\em_eeprom/cy_em_eeprom.c **** * The address of the row or zero if the row with the sequence number was not
 777:Generated_Source\PSoC6\pdl\middleware\em_eeprom/cy_em_eeprom.c **** * found.
 778:Generated_Source\PSoC6\pdl\middleware\em_eeprom/cy_em_eeprom.c **** *
 779:Generated_Source\PSoC6\pdl\middleware\em_eeprom/cy_em_eeprom.c **** *******************************************************************************/
 780:Generated_Source\PSoC6\pdl\middleware\em_eeprom/cy_em_eeprom.c **** static uint32_t GetRowAddrBySeqNum(uint32_t seqNum, cy_stc_eeprom_context_t * context)
 781:Generated_Source\PSoC6\pdl\middleware\em_eeprom/cy_em_eeprom.c **** {
 101              		.loc 1 781 0
 102              		.cfi_startproc
 103              		@ args = 0, pretend = 0, frame = 0
 104              		@ frame_needed = 0, uses_anonymous_args = 0
 105              		@ link register save eliminated.
 106              	.LVL13:
 782:Generated_Source\PSoC6\pdl\middleware\em_eeprom/cy_em_eeprom.c ****     uint32_t emEepromAddr = context->userFlashStartAddr;
 107              		.loc 1 782 0
 108 0000 8B69     		ldr	r3, [r1, #24]
 109              	.LVL14:
 783:Generated_Source\PSoC6\pdl\middleware\em_eeprom/cy_em_eeprom.c **** 
 784:Generated_Source\PSoC6\pdl\middleware\em_eeprom/cy_em_eeprom.c ****     while(CY_EM_EEPROM_GET_SEQ_NUM(emEepromAddr) != seqNum)
 110              		.loc 1 784 0
 111 0002 06E0     		b	.L6
 112              	.L8:
 785:Generated_Source\PSoC6\pdl\middleware\em_eeprom/cy_em_eeprom.c ****     {
 786:Generated_Source\PSoC6\pdl\middleware\em_eeprom/cy_em_eeprom.c ****         /* Switch to the next row */
 787:Generated_Source\PSoC6\pdl\middleware\em_eeprom/cy_em_eeprom.c ****         emEepromAddr = emEepromAddr + CY_EM_EEPROM_FLASH_SIZEOF_ROW;
 113              		.loc 1 787 0
 114 0004 8022     		movs	r2, #128
 115 0006 9200     		lsls	r2, r2, #2
 116 0008 9446     		mov	ip, r2
 117 000a 6344     		add	r3, r3, ip
 118              	.LVL15:
 788:Generated_Source\PSoC6\pdl\middleware\em_eeprom/cy_em_eeprom.c **** 
 789:Generated_Source\PSoC6\pdl\middleware\em_eeprom/cy_em_eeprom.c ****         if (CY_EM_EEPROM_ADDR_IN_RANGE !=
 119              		.loc 1 789 0
ARM GAS  C:\Users\eduar\AppData\Local\Temp\cctEoJXe.s 			page 17


 120 000c 0A68     		ldr	r2, [r1]
 121 000e 9342     		cmp	r3, r2
 122 0010 03D2     		bcs	.L9
 123              	.L6:
 784:Generated_Source\PSoC6\pdl\middleware\em_eeprom/cy_em_eeprom.c ****     {
 124              		.loc 1 784 0
 125 0012 1A68     		ldr	r2, [r3]
 126 0014 8242     		cmp	r2, r0
 127 0016 F5D1     		bne	.L8
 128 0018 00E0     		b	.L7
 129              	.L9:
 790:Generated_Source\PSoC6\pdl\middleware\em_eeprom/cy_em_eeprom.c ****             CY_EM_EEPROM_IS_ADDR_EXCEED_RANGE(emEepromAddr, context->wlEndAddr))
 791:Generated_Source\PSoC6\pdl\middleware\em_eeprom/cy_em_eeprom.c ****         {
 792:Generated_Source\PSoC6\pdl\middleware\em_eeprom/cy_em_eeprom.c ****             emEepromAddr = 0u;
 130              		.loc 1 792 0
 131 001a 0023     		movs	r3, #0
 132              	.LVL16:
 133              	.L7:
 793:Generated_Source\PSoC6\pdl\middleware\em_eeprom/cy_em_eeprom.c ****             /* Exit the loop as we reached the end of EEPROM */
 794:Generated_Source\PSoC6\pdl\middleware\em_eeprom/cy_em_eeprom.c ****             break;
 795:Generated_Source\PSoC6\pdl\middleware\em_eeprom/cy_em_eeprom.c ****         }
 796:Generated_Source\PSoC6\pdl\middleware\em_eeprom/cy_em_eeprom.c ****     }
 797:Generated_Source\PSoC6\pdl\middleware\em_eeprom/cy_em_eeprom.c **** 
 798:Generated_Source\PSoC6\pdl\middleware\em_eeprom/cy_em_eeprom.c ****     return (emEepromAddr);
 799:Generated_Source\PSoC6\pdl\middleware\em_eeprom/cy_em_eeprom.c **** }
 134              		.loc 1 799 0
 135 001c 1800     		movs	r0, r3
 136              	.LVL17:
 137              		@ sp needed
 138 001e 7047     		bx	lr
 139              		.cfi_endproc
 140              	.LFE51:
 141              		.size	GetRowAddrBySeqNum, .-GetRowAddrBySeqNum
 142              		.section	.text.GetNextRowToWrite,"ax",%progbits
 143              		.align	2
 144              		.code	16
 145              		.thumb_func
 146              		.type	GetNextRowToWrite, %function
 147              	GetNextRowToWrite:
 148              	.LFB52:
 800:Generated_Source\PSoC6\pdl\middleware\em_eeprom/cy_em_eeprom.c **** 
 801:Generated_Source\PSoC6\pdl\middleware\em_eeprom/cy_em_eeprom.c **** 
 802:Generated_Source\PSoC6\pdl\middleware\em_eeprom/cy_em_eeprom.c **** /*******************************************************************************
 803:Generated_Source\PSoC6\pdl\middleware\em_eeprom/cy_em_eeprom.c **** * Function Name: GetNextRowToWrite
 804:Generated_Source\PSoC6\pdl\middleware\em_eeprom/cy_em_eeprom.c **** ****************************************************************************//**
 805:Generated_Source\PSoC6\pdl\middleware\em_eeprom/cy_em_eeprom.c **** *
 806:Generated_Source\PSoC6\pdl\middleware\em_eeprom/cy_em_eeprom.c **** * Performs a range check of the row that should be written and updates the
 807:Generated_Source\PSoC6\pdl\middleware\em_eeprom/cy_em_eeprom.c **** * address to the row respectively. The similar actions are done for the read
 808:Generated_Source\PSoC6\pdl\middleware\em_eeprom/cy_em_eeprom.c **** * address.
 809:Generated_Source\PSoC6\pdl\middleware\em_eeprom/cy_em_eeprom.c **** *
 810:Generated_Source\PSoC6\pdl\middleware\em_eeprom/cy_em_eeprom.c **** * \param seqNum
 811:Generated_Source\PSoC6\pdl\middleware\em_eeprom/cy_em_eeprom.c **** * The sequence number of the last written row.
 812:Generated_Source\PSoC6\pdl\middleware\em_eeprom/cy_em_eeprom.c **** *
 813:Generated_Source\PSoC6\pdl\middleware\em_eeprom/cy_em_eeprom.c **** * \param rowToWrPtr
 814:Generated_Source\PSoC6\pdl\middleware\em_eeprom/cy_em_eeprom.c **** * The address of the last written row (input). The address of the row to be 
 815:Generated_Source\PSoC6\pdl\middleware\em_eeprom/cy_em_eeprom.c **** * written (output).
 816:Generated_Source\PSoC6\pdl\middleware\em_eeprom/cy_em_eeprom.c **** *
ARM GAS  C:\Users\eduar\AppData\Local\Temp\cctEoJXe.s 			page 18


 817:Generated_Source\PSoC6\pdl\middleware\em_eeprom/cy_em_eeprom.c **** * \param rowToRdPtr
 818:Generated_Source\PSoC6\pdl\middleware\em_eeprom/cy_em_eeprom.c **** * The address of the row from which the data should be read into the RAM buffer
 819:Generated_Source\PSoC6\pdl\middleware\em_eeprom/cy_em_eeprom.c **** * in a later write operation. Out parameter.
 820:Generated_Source\PSoC6\pdl\middleware\em_eeprom/cy_em_eeprom.c **** *
 821:Generated_Source\PSoC6\pdl\middleware\em_eeprom/cy_em_eeprom.c **** * \param context
 822:Generated_Source\PSoC6\pdl\middleware\em_eeprom/cy_em_eeprom.c **** * The pointer to the EEPROM context structure \ref cy_stc_eeprom_context_t.
 823:Generated_Source\PSoC6\pdl\middleware\em_eeprom/cy_em_eeprom.c **** *
 824:Generated_Source\PSoC6\pdl\middleware\em_eeprom/cy_em_eeprom.c **** *******************************************************************************/
 825:Generated_Source\PSoC6\pdl\middleware\em_eeprom/cy_em_eeprom.c **** static void GetNextRowToWrite(uint32_t seqNum,
 826:Generated_Source\PSoC6\pdl\middleware\em_eeprom/cy_em_eeprom.c ****                             uint32_t * rowToWrPtr,
 827:Generated_Source\PSoC6\pdl\middleware\em_eeprom/cy_em_eeprom.c ****                             uint32_t * rowToRdPtr,
 828:Generated_Source\PSoC6\pdl\middleware\em_eeprom/cy_em_eeprom.c ****                             cy_stc_eeprom_context_t * context)
 829:Generated_Source\PSoC6\pdl\middleware\em_eeprom/cy_em_eeprom.c **** {
 149              		.loc 1 829 0
 150              		.cfi_startproc
 151              		@ args = 0, pretend = 0, frame = 0
 152              		@ frame_needed = 0, uses_anonymous_args = 0
 153              	.LVL18:
 154 0000 30B5     		push	{r4, r5, lr}
 155              		.cfi_def_cfa_offset 12
 156              		.cfi_offset 4, -12
 157              		.cfi_offset 5, -8
 158              		.cfi_offset 14, -4
 830:Generated_Source\PSoC6\pdl\middleware\em_eeprom/cy_em_eeprom.c ****     /* Switch to the next row to be written if the current sequence number is
 831:Generated_Source\PSoC6\pdl\middleware\em_eeprom/cy_em_eeprom.c ****     * not zero.
 832:Generated_Source\PSoC6\pdl\middleware\em_eeprom/cy_em_eeprom.c ****     */
 833:Generated_Source\PSoC6\pdl\middleware\em_eeprom/cy_em_eeprom.c ****     if(0u != seqNum)
 159              		.loc 1 833 0
 160 0002 0028     		cmp	r0, #0
 161 0004 05D0     		beq	.L11
 834:Generated_Source\PSoC6\pdl\middleware\em_eeprom/cy_em_eeprom.c ****     {
 835:Generated_Source\PSoC6\pdl\middleware\em_eeprom/cy_em_eeprom.c ****         *rowToWrPtr = (*rowToWrPtr + CY_EM_EEPROM_FLASH_SIZEOF_ROW);
 162              		.loc 1 835 0
 163 0006 0C68     		ldr	r4, [r1]
 164 0008 8025     		movs	r5, #128
 165 000a AD00     		lsls	r5, r5, #2
 166 000c AC46     		mov	ip, r5
 167 000e 6444     		add	r4, r4, ip
 168 0010 0C60     		str	r4, [r1]
 169              	.L11:
 836:Generated_Source\PSoC6\pdl\middleware\em_eeprom/cy_em_eeprom.c ****     }
 837:Generated_Source\PSoC6\pdl\middleware\em_eeprom/cy_em_eeprom.c **** 
 838:Generated_Source\PSoC6\pdl\middleware\em_eeprom/cy_em_eeprom.c ****     /* If the resulting row address is out of EEPROM, then switch to the base
 839:Generated_Source\PSoC6\pdl\middleware\em_eeprom/cy_em_eeprom.c ****     * EEPROM address (Row#0).
 840:Generated_Source\PSoC6\pdl\middleware\em_eeprom/cy_em_eeprom.c ****     */
 841:Generated_Source\PSoC6\pdl\middleware\em_eeprom/cy_em_eeprom.c ****     if(CY_EM_EEPROM_ADDR_IN_RANGE !=
 170              		.loc 1 841 0
 171 0012 0C68     		ldr	r4, [r1]
 172 0014 1D68     		ldr	r5, [r3]
 173 0016 AC42     		cmp	r4, r5
 174 0018 01D3     		bcc	.L12
 842:Generated_Source\PSoC6\pdl\middleware\em_eeprom/cy_em_eeprom.c ****             CY_EM_EEPROM_IS_ADDR_EXCEED_RANGE(*rowToWrPtr, context->wlEndAddr))
 843:Generated_Source\PSoC6\pdl\middleware\em_eeprom/cy_em_eeprom.c ****     {
 844:Generated_Source\PSoC6\pdl\middleware\em_eeprom/cy_em_eeprom.c ****         *rowToWrPtr = context->userFlashStartAddr;
 175              		.loc 1 844 0
 176 001a 9C69     		ldr	r4, [r3, #24]
 177 001c 0C60     		str	r4, [r1]
ARM GAS  C:\Users\eduar\AppData\Local\Temp\cctEoJXe.s 			page 19


 178              	.L12:
 845:Generated_Source\PSoC6\pdl\middleware\em_eeprom/cy_em_eeprom.c ****     }
 846:Generated_Source\PSoC6\pdl\middleware\em_eeprom/cy_em_eeprom.c **** 
 847:Generated_Source\PSoC6\pdl\middleware\em_eeprom/cy_em_eeprom.c ****     *rowToRdPtr = 0u;
 179              		.loc 1 847 0
 180 001e 0024     		movs	r4, #0
 181 0020 1460     		str	r4, [r2]
 848:Generated_Source\PSoC6\pdl\middleware\em_eeprom/cy_em_eeprom.c **** 
 849:Generated_Source\PSoC6\pdl\middleware\em_eeprom/cy_em_eeprom.c ****     /* Check if the sequence number is larger than the number of rows in the EEPROM.
 850:Generated_Source\PSoC6\pdl\middleware\em_eeprom/cy_em_eeprom.c ****     * If not, do not update the row read address because there is no historic
 851:Generated_Source\PSoC6\pdl\middleware\em_eeprom/cy_em_eeprom.c ****     * data to be read.
 852:Generated_Source\PSoC6\pdl\middleware\em_eeprom/cy_em_eeprom.c ****     */
 853:Generated_Source\PSoC6\pdl\middleware\em_eeprom/cy_em_eeprom.c ****     if(context->numberOfRows <= seqNum)
 182              		.loc 1 853 0
 183 0022 5C68     		ldr	r4, [r3, #4]
 184 0024 A042     		cmp	r0, r4
 185 0026 16D3     		bcc	.L10
 854:Generated_Source\PSoC6\pdl\middleware\em_eeprom/cy_em_eeprom.c ****     {
 855:Generated_Source\PSoC6\pdl\middleware\em_eeprom/cy_em_eeprom.c ****         /* Check if wear leveling is used in EEPROM */
 856:Generated_Source\PSoC6\pdl\middleware\em_eeprom/cy_em_eeprom.c ****         if(context->wearLevelingFactor > 1u)
 186              		.loc 1 856 0
 187 0028 1D69     		ldr	r5, [r3, #16]
 188 002a 012D     		cmp	r5, #1
 189 002c 11D9     		bls	.L14
 857:Generated_Source\PSoC6\pdl\middleware\em_eeprom/cy_em_eeprom.c ****         {
 858:Generated_Source\PSoC6\pdl\middleware\em_eeprom/cy_em_eeprom.c ****             /* The read row address should be taken from an EEPROM copy that became
 859:Generated_Source\PSoC6\pdl\middleware\em_eeprom/cy_em_eeprom.c ****             * inactive recently. This condition check handles that.
 860:Generated_Source\PSoC6\pdl\middleware\em_eeprom/cy_em_eeprom.c ****             */
 861:Generated_Source\PSoC6\pdl\middleware\em_eeprom/cy_em_eeprom.c ****             if((*rowToWrPtr - (context->numberOfRows * CY_EM_EEPROM_FLASH_SIZEOF_ROW)) <
 190              		.loc 1 861 0
 191 002e 0868     		ldr	r0, [r1]
 192              	.LVL19:
 193 0030 6102     		lsls	r1, r4, #9
 194              	.LVL20:
 195 0032 411A     		subs	r1, r0, r1
 862:Generated_Source\PSoC6\pdl\middleware\em_eeprom/cy_em_eeprom.c ****                 context->userFlashStartAddr)
 196              		.loc 1 862 0
 197 0034 9B69     		ldr	r3, [r3, #24]
 198              	.LVL21:
 861:Generated_Source\PSoC6\pdl\middleware\em_eeprom/cy_em_eeprom.c ****                 context->userFlashStartAddr)
 199              		.loc 1 861 0
 200 0036 9942     		cmp	r1, r3
 201 0038 09D2     		bcs	.L15
 863:Generated_Source\PSoC6\pdl\middleware\em_eeprom/cy_em_eeprom.c ****             {
 864:Generated_Source\PSoC6\pdl\middleware\em_eeprom/cy_em_eeprom.c ****                 *rowToRdPtr = context->userFlashStartAddr +
 865:Generated_Source\PSoC6\pdl\middleware\em_eeprom/cy_em_eeprom.c ****                     (context->numberOfRows * (context->wearLevelingFactor - 1u) *
 202              		.loc 1 865 0
 203 003a 0749     		ldr	r1, .L16
 204 003c 8C46     		mov	ip, r1
 205 003e 6544     		add	r5, r5, ip
 206 0040 6C43     		muls	r4, r5
 207 0042 6402     		lsls	r4, r4, #9
 864:Generated_Source\PSoC6\pdl\middleware\em_eeprom/cy_em_eeprom.c ****                     (context->numberOfRows * (context->wearLevelingFactor - 1u) *
 208              		.loc 1 864 0
 209 0044 1C19     		adds	r4, r3, r4
 866:Generated_Source\PSoC6\pdl\middleware\em_eeprom/cy_em_eeprom.c ****                         CY_EM_EEPROM_FLASH_SIZEOF_ROW) + (*rowToWrPtr - context->userFlashStartAddr
 210              		.loc 1 866 0
ARM GAS  C:\Users\eduar\AppData\Local\Temp\cctEoJXe.s 			page 20


 211 0046 C01A     		subs	r0, r0, r3
 212 0048 2418     		adds	r4, r4, r0
 864:Generated_Source\PSoC6\pdl\middleware\em_eeprom/cy_em_eeprom.c ****                     (context->numberOfRows * (context->wearLevelingFactor - 1u) *
 213              		.loc 1 864 0
 214 004a 1460     		str	r4, [r2]
 215 004c 03E0     		b	.L10
 216              	.L15:
 867:Generated_Source\PSoC6\pdl\middleware\em_eeprom/cy_em_eeprom.c ****             }
 868:Generated_Source\PSoC6\pdl\middleware\em_eeprom/cy_em_eeprom.c ****             else
 869:Generated_Source\PSoC6\pdl\middleware\em_eeprom/cy_em_eeprom.c ****             {
 870:Generated_Source\PSoC6\pdl\middleware\em_eeprom/cy_em_eeprom.c ****                 *rowToRdPtr = *rowToWrPtr - (context->numberOfRows * CY_EM_EEPROM_FLASH_SIZEOF_ROW)
 217              		.loc 1 870 0
 218 004e 1160     		str	r1, [r2]
 219 0050 01E0     		b	.L10
 220              	.LVL22:
 221              	.L14:
 871:Generated_Source\PSoC6\pdl\middleware\em_eeprom/cy_em_eeprom.c ****             }
 872:Generated_Source\PSoC6\pdl\middleware\em_eeprom/cy_em_eeprom.c ****         }
 873:Generated_Source\PSoC6\pdl\middleware\em_eeprom/cy_em_eeprom.c ****         else
 874:Generated_Source\PSoC6\pdl\middleware\em_eeprom/cy_em_eeprom.c ****         {
 875:Generated_Source\PSoC6\pdl\middleware\em_eeprom/cy_em_eeprom.c ****             /* If no wear leveling, always read from the same flash row that
 876:Generated_Source\PSoC6\pdl\middleware\em_eeprom/cy_em_eeprom.c ****             * should be written.
 877:Generated_Source\PSoC6\pdl\middleware\em_eeprom/cy_em_eeprom.c ****             */
 878:Generated_Source\PSoC6\pdl\middleware\em_eeprom/cy_em_eeprom.c ****             *rowToRdPtr = *rowToWrPtr;
 222              		.loc 1 878 0
 223 0052 0B68     		ldr	r3, [r1]
 224              	.LVL23:
 225 0054 1360     		str	r3, [r2]
 226              	.LVL24:
 227              	.L10:
 879:Generated_Source\PSoC6\pdl\middleware\em_eeprom/cy_em_eeprom.c ****         }
 880:Generated_Source\PSoC6\pdl\middleware\em_eeprom/cy_em_eeprom.c ****     }
 881:Generated_Source\PSoC6\pdl\middleware\em_eeprom/cy_em_eeprom.c **** }
 228              		.loc 1 881 0
 229              		@ sp needed
 230 0056 30BD     		pop	{r4, r5, pc}
 231              	.L17:
 232              		.align	2
 233              	.L16:
 234 0058 FFFF7F00 		.word	8388607
 235              		.cfi_endproc
 236              	.LFE52:
 237              		.size	GetNextRowToWrite, .-GetNextRowToWrite
 238              		.section	.text.CalcChecksum,"ax",%progbits
 239              		.align	2
 240              		.code	16
 241              		.thumb_func
 242              		.type	CalcChecksum, %function
 243              	CalcChecksum:
 244              	.LFB53:
 882:Generated_Source\PSoC6\pdl\middleware\em_eeprom/cy_em_eeprom.c **** 
 883:Generated_Source\PSoC6\pdl\middleware\em_eeprom/cy_em_eeprom.c **** 
 884:Generated_Source\PSoC6\pdl\middleware\em_eeprom/cy_em_eeprom.c **** /*******************************************************************************
 885:Generated_Source\PSoC6\pdl\middleware\em_eeprom/cy_em_eeprom.c **** * Function Name: CalcChecksum
 886:Generated_Source\PSoC6\pdl\middleware\em_eeprom/cy_em_eeprom.c **** ****************************************************************************//**
 887:Generated_Source\PSoC6\pdl\middleware\em_eeprom/cy_em_eeprom.c **** *
 888:Generated_Source\PSoC6\pdl\middleware\em_eeprom/cy_em_eeprom.c **** * Implements CRC-8 that is used in checksum calculation for the redundant copy
ARM GAS  C:\Users\eduar\AppData\Local\Temp\cctEoJXe.s 			page 21


 889:Generated_Source\PSoC6\pdl\middleware\em_eeprom/cy_em_eeprom.c **** * algorithm.
 890:Generated_Source\PSoC6\pdl\middleware\em_eeprom/cy_em_eeprom.c **** *
 891:Generated_Source\PSoC6\pdl\middleware\em_eeprom/cy_em_eeprom.c **** * \param rowData
 892:Generated_Source\PSoC6\pdl\middleware\em_eeprom/cy_em_eeprom.c **** * The row data to be used to calculate the checksum.
 893:Generated_Source\PSoC6\pdl\middleware\em_eeprom/cy_em_eeprom.c **** *
 894:Generated_Source\PSoC6\pdl\middleware\em_eeprom/cy_em_eeprom.c **** * \param len
 895:Generated_Source\PSoC6\pdl\middleware\em_eeprom/cy_em_eeprom.c **** * The length of rowData.
 896:Generated_Source\PSoC6\pdl\middleware\em_eeprom/cy_em_eeprom.c **** *
 897:Generated_Source\PSoC6\pdl\middleware\em_eeprom/cy_em_eeprom.c **** * \return
 898:Generated_Source\PSoC6\pdl\middleware\em_eeprom/cy_em_eeprom.c **** * The calculated value of CRC-8.
 899:Generated_Source\PSoC6\pdl\middleware\em_eeprom/cy_em_eeprom.c **** *
 900:Generated_Source\PSoC6\pdl\middleware\em_eeprom/cy_em_eeprom.c **** *******************************************************************************/
 901:Generated_Source\PSoC6\pdl\middleware\em_eeprom/cy_em_eeprom.c **** static uint8_t CalcChecksum(uint8_t rowData[], uint32_t len)
 902:Generated_Source\PSoC6\pdl\middleware\em_eeprom/cy_em_eeprom.c **** {
 245              		.loc 1 902 0
 246              		.cfi_startproc
 247              		@ args = 0, pretend = 0, frame = 0
 248              		@ frame_needed = 0, uses_anonymous_args = 0
 249              	.LVL25:
 250 0000 30B5     		push	{r4, r5, lr}
 251              		.cfi_def_cfa_offset 12
 252              		.cfi_offset 4, -12
 253              		.cfi_offset 5, -8
 254              		.cfi_offset 14, -4
 255 0002 0500     		movs	r5, r0
 256              	.LVL26:
 903:Generated_Source\PSoC6\pdl\middleware\em_eeprom/cy_em_eeprom.c ****     uint8_t crc = CY_EM_EEPROM_CRC8_SEED;
 904:Generated_Source\PSoC6\pdl\middleware\em_eeprom/cy_em_eeprom.c ****     uint8_t i;
 905:Generated_Source\PSoC6\pdl\middleware\em_eeprom/cy_em_eeprom.c ****     uint16_t cnt = 0u;
 257              		.loc 1 905 0
 258 0004 0024     		movs	r4, #0
 903:Generated_Source\PSoC6\pdl\middleware\em_eeprom/cy_em_eeprom.c ****     uint8_t crc = CY_EM_EEPROM_CRC8_SEED;
 259              		.loc 1 903 0
 260 0006 FF20     		movs	r0, #255
 261              	.LVL27:
 906:Generated_Source\PSoC6\pdl\middleware\em_eeprom/cy_em_eeprom.c **** 
 907:Generated_Source\PSoC6\pdl\middleware\em_eeprom/cy_em_eeprom.c ****     while(cnt != len)
 262              		.loc 1 907 0
 263 0008 14E0     		b	.L19
 264              	.LVL28:
 265              	.L24:
 908:Generated_Source\PSoC6\pdl\middleware\em_eeprom/cy_em_eeprom.c ****     {
 909:Generated_Source\PSoC6\pdl\middleware\em_eeprom/cy_em_eeprom.c ****         crc ^= rowData[cnt];
 266              		.loc 1 909 0
 267 000a 2B5D     		ldrb	r3, [r5, r4]
 268 000c 5840     		eors	r0, r3
 269              	.LVL29:
 910:Generated_Source\PSoC6\pdl\middleware\em_eeprom/cy_em_eeprom.c ****         for (i = 0u; i < CY_EM_EEPROM_CRC8_POLYNOM_LEN; i++)
 270              		.loc 1 910 0
 271 000e 0022     		movs	r2, #0
 272 0010 0CE0     		b	.L20
 273              	.LVL30:
 274              	.L23:
 911:Generated_Source\PSoC6\pdl\middleware\em_eeprom/cy_em_eeprom.c ****         {
 912:Generated_Source\PSoC6\pdl\middleware\em_eeprom/cy_em_eeprom.c ****             crc = CY_EM_EEPROM_CALCULATE_CRC8(crc);
 275              		.loc 1 912 0
 276 0012 43B2     		sxtb	r3, r0
ARM GAS  C:\Users\eduar\AppData\Local\Temp\cctEoJXe.s 			page 22


 277 0014 002B     		cmp	r3, #0
 278 0016 05DA     		bge	.L21
 279              		.loc 1 912 0 is_stmt 0 discriminator 1
 280 0018 4000     		lsls	r0, r0, #1
 281              	.LVL31:
 282 001a C3B2     		uxtb	r3, r0
 283              	.LVL32:
 284 001c 3120     		movs	r0, #49
 285 001e 4340     		eors	r3, r0
 286 0020 D8B2     		uxtb	r0, r3
 287 0022 01E0     		b	.L22
 288              	.LVL33:
 289              	.L21:
 290              		.loc 1 912 0 discriminator 2
 291 0024 4000     		lsls	r0, r0, #1
 292              	.LVL34:
 293 0026 C0B2     		uxtb	r0, r0
 294              	.LVL35:
 295              	.L22:
 910:Generated_Source\PSoC6\pdl\middleware\em_eeprom/cy_em_eeprom.c ****         for (i = 0u; i < CY_EM_EEPROM_CRC8_POLYNOM_LEN; i++)
 296              		.loc 1 910 0 is_stmt 1 discriminator 4
 297 0028 0132     		adds	r2, r2, #1
 298              	.LVL36:
 299 002a D2B2     		uxtb	r2, r2
 300              	.LVL37:
 301              	.L20:
 910:Generated_Source\PSoC6\pdl\middleware\em_eeprom/cy_em_eeprom.c ****         for (i = 0u; i < CY_EM_EEPROM_CRC8_POLYNOM_LEN; i++)
 302              		.loc 1 910 0 is_stmt 0 discriminator 2
 303 002c 072A     		cmp	r2, #7
 304 002e F0D9     		bls	.L23
 913:Generated_Source\PSoC6\pdl\middleware\em_eeprom/cy_em_eeprom.c ****         }
 914:Generated_Source\PSoC6\pdl\middleware\em_eeprom/cy_em_eeprom.c ****         cnt++;
 305              		.loc 1 914 0 is_stmt 1
 306 0030 0134     		adds	r4, r4, #1
 307              	.LVL38:
 308 0032 A4B2     		uxth	r4, r4
 309              	.LVL39:
 310              	.L19:
 907:Generated_Source\PSoC6\pdl\middleware\em_eeprom/cy_em_eeprom.c ****     {
 311              		.loc 1 907 0
 312 0034 8C42     		cmp	r4, r1
 313 0036 E8D1     		bne	.L24
 915:Generated_Source\PSoC6\pdl\middleware\em_eeprom/cy_em_eeprom.c ****     }
 916:Generated_Source\PSoC6\pdl\middleware\em_eeprom/cy_em_eeprom.c **** 
 917:Generated_Source\PSoC6\pdl\middleware\em_eeprom/cy_em_eeprom.c ****     return (crc);
 918:Generated_Source\PSoC6\pdl\middleware\em_eeprom/cy_em_eeprom.c **** }
 314              		.loc 1 918 0
 315              		@ sp needed
 316              	.LVL40:
 317              	.LVL41:
 318 0038 30BD     		pop	{r4, r5, pc}
 319              		.cfi_endproc
 320              	.LFE53:
 321              		.size	CalcChecksum, .-CalcChecksum
 322 003a C046     		.section	.text.CheckRanges,"ax",%progbits
 323              		.align	2
 324              		.code	16
ARM GAS  C:\Users\eduar\AppData\Local\Temp\cctEoJXe.s 			page 23


 325              		.thumb_func
 326              		.type	CheckRanges, %function
 327              	CheckRanges:
 328              	.LFB54:
 919:Generated_Source\PSoC6\pdl\middleware\em_eeprom/cy_em_eeprom.c **** 
 920:Generated_Source\PSoC6\pdl\middleware\em_eeprom/cy_em_eeprom.c **** 
 921:Generated_Source\PSoC6\pdl\middleware\em_eeprom/cy_em_eeprom.c **** /*******************************************************************************
 922:Generated_Source\PSoC6\pdl\middleware\em_eeprom/cy_em_eeprom.c **** * Function Name: CheckRanges
 923:Generated_Source\PSoC6\pdl\middleware\em_eeprom/cy_em_eeprom.c **** ****************************************************************************//**
 924:Generated_Source\PSoC6\pdl\middleware\em_eeprom/cy_em_eeprom.c **** *
 925:Generated_Source\PSoC6\pdl\middleware\em_eeprom/cy_em_eeprom.c **** * Checks if the EEPROM of the requested size can be placed in flash.
 926:Generated_Source\PSoC6\pdl\middleware\em_eeprom/cy_em_eeprom.c **** *
 927:Generated_Source\PSoC6\pdl\middleware\em_eeprom/cy_em_eeprom.c **** * \param config
 928:Generated_Source\PSoC6\pdl\middleware\em_eeprom/cy_em_eeprom.c **** * The pointer to a configuration structure. See \ref cy_stc_eeprom_config_t.
 929:Generated_Source\PSoC6\pdl\middleware\em_eeprom/cy_em_eeprom.c **** *
 930:Generated_Source\PSoC6\pdl\middleware\em_eeprom/cy_em_eeprom.c **** * \return
 931:Generated_Source\PSoC6\pdl\middleware\em_eeprom/cy_em_eeprom.c **** * error / status code. See \ref cy_en_em_eeprom_status_t.
 932:Generated_Source\PSoC6\pdl\middleware\em_eeprom/cy_em_eeprom.c **** *
 933:Generated_Source\PSoC6\pdl\middleware\em_eeprom/cy_em_eeprom.c **** *******************************************************************************/
 934:Generated_Source\PSoC6\pdl\middleware\em_eeprom/cy_em_eeprom.c **** static cy_en_em_eeprom_status_t CheckRanges(cy_stc_eeprom_config_t* config)
 935:Generated_Source\PSoC6\pdl\middleware\em_eeprom/cy_em_eeprom.c **** {
 329              		.loc 1 935 0
 330              		.cfi_startproc
 331              		@ args = 0, pretend = 0, frame = 0
 332              		@ frame_needed = 0, uses_anonymous_args = 0
 333              	.LVL42:
 334 0000 10B5     		push	{r4, lr}
 335              		.cfi_def_cfa_offset 8
 336              		.cfi_offset 4, -8
 337              		.cfi_offset 14, -4
 338              	.LVL43:
 936:Generated_Source\PSoC6\pdl\middleware\em_eeprom/cy_em_eeprom.c ****     cy_en_em_eeprom_status_t ret = CY_EM_EEPROM_BAD_DATA;
 937:Generated_Source\PSoC6\pdl\middleware\em_eeprom/cy_em_eeprom.c ****     uint32_t startAddr = config->userFlashStartAddr;
 339              		.loc 1 937 0
 340 0002 C468     		ldr	r4, [r0, #12]
 341              	.LVL44:
 938:Generated_Source\PSoC6\pdl\middleware\em_eeprom/cy_em_eeprom.c ****     uint32_t endAddr = startAddr + CY_EM_EEPROM_GET_PHYSICAL_SIZE(config->eepromSize,
 342              		.loc 1 938 0
 343 0004 0268     		ldr	r2, [r0]
 344 0006 110A     		lsrs	r1, r2, #8
 345 0008 FF23     		movs	r3, #255
 346 000a 1340     		ands	r3, r2
 347 000c 00D0     		beq	.L26
 348 000e 0123     		movs	r3, #1
 349              	.L26:
 350              		.loc 1 938 0 is_stmt 0 discriminator 4
 351 0010 5B18     		adds	r3, r3, r1
 352 0012 4268     		ldr	r2, [r0, #4]
 353 0014 5343     		muls	r3, r2
 354 0016 027A     		ldrb	r2, [r0, #8]
 355 0018 0132     		adds	r2, r2, #1
 356 001a 5343     		muls	r3, r2
 357 001c 5B02     		lsls	r3, r3, #9
 358 001e E318     		adds	r3, r4, r3
 359              	.LVL45:
 939:Generated_Source\PSoC6\pdl\middleware\em_eeprom/cy_em_eeprom.c ****             config->wearLevelingFactor, config->redundantCopy);
 940:Generated_Source\PSoC6\pdl\middleware\em_eeprom/cy_em_eeprom.c **** 
ARM GAS  C:\Users\eduar\AppData\Local\Temp\cctEoJXe.s 			page 24


 941:Generated_Source\PSoC6\pdl\middleware\em_eeprom/cy_em_eeprom.c ****     /* Range check if there is enough flash for EEPROM */
 942:Generated_Source\PSoC6\pdl\middleware\em_eeprom/cy_em_eeprom.c ****     if (CY_EM_EEPROM_IS_IN_FLASH_RANGE(startAddr, endAddr))
 360              		.loc 1 942 0 is_stmt 1 discriminator 4
 361 0020 8022     		movs	r2, #128
 362 0022 5205     		lsls	r2, r2, #21
 363 0024 9442     		cmp	r4, r2
 364 0026 02D9     		bls	.L27
 365              		.loc 1 942 0 is_stmt 0 discriminator 1
 366 0028 084A     		ldr	r2, .L32
 367 002a 9342     		cmp	r3, r2
 368 002c 07D9     		bls	.L29
 369              	.L27:
 370              		.loc 1 942 0 discriminator 3
 371 002e 084A     		ldr	r2, .L32+4
 372 0030 9442     		cmp	r4, r2
 373 0032 06D9     		bls	.L30
 374              		.loc 1 942 0 discriminator 4
 375 0034 074A     		ldr	r2, .L32+8
 376 0036 9342     		cmp	r3, r2
 377 0038 05D9     		bls	.L31
 936:Generated_Source\PSoC6\pdl\middleware\em_eeprom/cy_em_eeprom.c ****     uint32_t startAddr = config->userFlashStartAddr;
 378              		.loc 1 936 0 is_stmt 1
 379 003a 0748     		ldr	r0, .L32+12
 380              	.LVL46:
 381 003c 04E0     		b	.L28
 382              	.LVL47:
 383              	.L29:
 943:Generated_Source\PSoC6\pdl\middleware\em_eeprom/cy_em_eeprom.c ****     {
 944:Generated_Source\PSoC6\pdl\middleware\em_eeprom/cy_em_eeprom.c ****         ret = CY_EM_EEPROM_SUCCESS;
 384              		.loc 1 944 0
 385 003e 0020     		movs	r0, #0
 386              	.LVL48:
 387 0040 02E0     		b	.L28
 388              	.LVL49:
 389              	.L30:
 936:Generated_Source\PSoC6\pdl\middleware\em_eeprom/cy_em_eeprom.c ****     uint32_t startAddr = config->userFlashStartAddr;
 390              		.loc 1 936 0
 391 0042 0548     		ldr	r0, .L32+12
 392              	.LVL50:
 393 0044 00E0     		b	.L28
 394              	.LVL51:
 395              	.L31:
 396              		.loc 1 944 0
 397 0046 0020     		movs	r0, #0
 398              	.LVL52:
 399              	.L28:
 945:Generated_Source\PSoC6\pdl\middleware\em_eeprom/cy_em_eeprom.c ****     }
 946:Generated_Source\PSoC6\pdl\middleware\em_eeprom/cy_em_eeprom.c ****     return (ret);
 947:Generated_Source\PSoC6\pdl\middleware\em_eeprom/cy_em_eeprom.c **** }
 400              		.loc 1 947 0
 401              		@ sp needed
 402              	.LVL53:
 403 0048 10BD     		pop	{r4, pc}
 404              	.L33:
 405 004a C046     		.align	2
 406              	.L32:
 407 004c 00001010 		.word	269484032
ARM GAS  C:\Users\eduar\AppData\Local\Temp\cctEoJXe.s 			page 25


 408 0050 FFFFFF13 		.word	335544319
 409 0054 00800014 		.word	335577088
 410 0058 03006E00 		.word	7208963
 411              		.cfi_endproc
 412              	.LFE54:
 413              		.size	CheckRanges, .-CheckRanges
 414              		.section	.text.GetAddresses,"ax",%progbits
 415              		.align	2
 416              		.code	16
 417              		.thumb_func
 418              		.type	GetAddresses, %function
 419              	GetAddresses:
 420              	.LFB58:
 948:Generated_Source\PSoC6\pdl\middleware\em_eeprom/cy_em_eeprom.c **** 
 949:Generated_Source\PSoC6\pdl\middleware\em_eeprom/cy_em_eeprom.c **** 
 950:Generated_Source\PSoC6\pdl\middleware\em_eeprom/cy_em_eeprom.c **** /*******************************************************************************
 951:Generated_Source\PSoC6\pdl\middleware\em_eeprom/cy_em_eeprom.c **** * Function Name: WriteRow
 952:Generated_Source\PSoC6\pdl\middleware\em_eeprom/cy_em_eeprom.c **** ****************************************************************************//**
 953:Generated_Source\PSoC6\pdl\middleware\em_eeprom/cy_em_eeprom.c **** *
 954:Generated_Source\PSoC6\pdl\middleware\em_eeprom/cy_em_eeprom.c **** * Writes one flash row starting from the specified row address.
 955:Generated_Source\PSoC6\pdl\middleware\em_eeprom/cy_em_eeprom.c **** *
 956:Generated_Source\PSoC6\pdl\middleware\em_eeprom/cy_em_eeprom.c **** * \param rowAdd
 957:Generated_Source\PSoC6\pdl\middleware\em_eeprom/cy_em_eeprom.c **** * The address of the flash row.
 958:Generated_Source\PSoC6\pdl\middleware\em_eeprom/cy_em_eeprom.c **** *
 959:Generated_Source\PSoC6\pdl\middleware\em_eeprom/cy_em_eeprom.c **** * \param rowData
 960:Generated_Source\PSoC6\pdl\middleware\em_eeprom/cy_em_eeprom.c **** * The pointer to the data to be written to the row.
 961:Generated_Source\PSoC6\pdl\middleware\em_eeprom/cy_em_eeprom.c **** *
 962:Generated_Source\PSoC6\pdl\middleware\em_eeprom/cy_em_eeprom.c **** * \param context
 963:Generated_Source\PSoC6\pdl\middleware\em_eeprom/cy_em_eeprom.c **** * The pointer to the EEPROM context structure \ref cy_stc_eeprom_context_t.
 964:Generated_Source\PSoC6\pdl\middleware\em_eeprom/cy_em_eeprom.c **** *
 965:Generated_Source\PSoC6\pdl\middleware\em_eeprom/cy_em_eeprom.c **** * \return
 966:Generated_Source\PSoC6\pdl\middleware\em_eeprom/cy_em_eeprom.c **** * error / status code. See \ref cy_en_em_eeprom_status_t.
 967:Generated_Source\PSoC6\pdl\middleware\em_eeprom/cy_em_eeprom.c **** *
 968:Generated_Source\PSoC6\pdl\middleware\em_eeprom/cy_em_eeprom.c **** *******************************************************************************/
 969:Generated_Source\PSoC6\pdl\middleware\em_eeprom/cy_em_eeprom.c **** static cy_en_em_eeprom_status_t WriteRow(uint32_t rowAddr,
 970:Generated_Source\PSoC6\pdl\middleware\em_eeprom/cy_em_eeprom.c ****                                         uint32_t *rowData,
 971:Generated_Source\PSoC6\pdl\middleware\em_eeprom/cy_em_eeprom.c ****                                         cy_stc_eeprom_context_t * context)
 972:Generated_Source\PSoC6\pdl\middleware\em_eeprom/cy_em_eeprom.c **** {
 973:Generated_Source\PSoC6\pdl\middleware\em_eeprom/cy_em_eeprom.c ****     cy_en_em_eeprom_status_t ret = CY_EM_EEPROM_WRITE_FAIL;
 974:Generated_Source\PSoC6\pdl\middleware\em_eeprom/cy_em_eeprom.c ****     if(0u != context->blockingWrite)
 975:Generated_Source\PSoC6\pdl\middleware\em_eeprom/cy_em_eeprom.c ****     {
 976:Generated_Source\PSoC6\pdl\middleware\em_eeprom/cy_em_eeprom.c ****         /* Do blocking write */
 977:Generated_Source\PSoC6\pdl\middleware\em_eeprom/cy_em_eeprom.c ****         if(CY_FLASH_DRV_SUCCESS == Cy_Flash_WriteRow(rowAddr, (const uint32_t *)rowData))
 978:Generated_Source\PSoC6\pdl\middleware\em_eeprom/cy_em_eeprom.c ****         {
 979:Generated_Source\PSoC6\pdl\middleware\em_eeprom/cy_em_eeprom.c ****             ret = CY_EM_EEPROM_SUCCESS;
 980:Generated_Source\PSoC6\pdl\middleware\em_eeprom/cy_em_eeprom.c ****         }
 981:Generated_Source\PSoC6\pdl\middleware\em_eeprom/cy_em_eeprom.c ****     }
 982:Generated_Source\PSoC6\pdl\middleware\em_eeprom/cy_em_eeprom.c ****     else
 983:Generated_Source\PSoC6\pdl\middleware\em_eeprom/cy_em_eeprom.c ****     {
 984:Generated_Source\PSoC6\pdl\middleware\em_eeprom/cy_em_eeprom.c ****         /* Initiate write */
 985:Generated_Source\PSoC6\pdl\middleware\em_eeprom/cy_em_eeprom.c ****         if(CY_FLASH_DRV_OPERATION_STARTED == Cy_Flash_StartWrite(rowAddr, (const uint32_t *)rowData
 986:Generated_Source\PSoC6\pdl\middleware\em_eeprom/cy_em_eeprom.c ****         {
 987:Generated_Source\PSoC6\pdl\middleware\em_eeprom/cy_em_eeprom.c ****             uint32_t countMs = CY_EM_EEPROM_MAX_WRITE_DURATION_MS;
 988:Generated_Source\PSoC6\pdl\middleware\em_eeprom/cy_em_eeprom.c ****             cy_en_flashdrv_status_t rc;
 989:Generated_Source\PSoC6\pdl\middleware\em_eeprom/cy_em_eeprom.c **** 
 990:Generated_Source\PSoC6\pdl\middleware\em_eeprom/cy_em_eeprom.c ****             do
 991:Generated_Source\PSoC6\pdl\middleware\em_eeprom/cy_em_eeprom.c ****             {
ARM GAS  C:\Users\eduar\AppData\Local\Temp\cctEoJXe.s 			page 26


 992:Generated_Source\PSoC6\pdl\middleware\em_eeprom/cy_em_eeprom.c ****                 CyDelay(1u);                         /* Wait 1ms */
 993:Generated_Source\PSoC6\pdl\middleware\em_eeprom/cy_em_eeprom.c ****                 rc = Cy_Flash_IsWriteComplete();     /* Check if write completed */
 994:Generated_Source\PSoC6\pdl\middleware\em_eeprom/cy_em_eeprom.c ****                 countMs--;
 995:Generated_Source\PSoC6\pdl\middleware\em_eeprom/cy_em_eeprom.c ****             }
 996:Generated_Source\PSoC6\pdl\middleware\em_eeprom/cy_em_eeprom.c ****             while ((rc == CY_FLASH_DRV_OPCODE_BUSY) && (0u != countMs));
 997:Generated_Source\PSoC6\pdl\middleware\em_eeprom/cy_em_eeprom.c **** 
 998:Generated_Source\PSoC6\pdl\middleware\em_eeprom/cy_em_eeprom.c ****             if(CY_FLASH_DRV_SUCCESS == rc)
 999:Generated_Source\PSoC6\pdl\middleware\em_eeprom/cy_em_eeprom.c ****             {
1000:Generated_Source\PSoC6\pdl\middleware\em_eeprom/cy_em_eeprom.c ****                 ret = CY_EM_EEPROM_SUCCESS;
1001:Generated_Source\PSoC6\pdl\middleware\em_eeprom/cy_em_eeprom.c ****             }
1002:Generated_Source\PSoC6\pdl\middleware\em_eeprom/cy_em_eeprom.c ****         }
1003:Generated_Source\PSoC6\pdl\middleware\em_eeprom/cy_em_eeprom.c ****     }
1004:Generated_Source\PSoC6\pdl\middleware\em_eeprom/cy_em_eeprom.c **** 
1005:Generated_Source\PSoC6\pdl\middleware\em_eeprom/cy_em_eeprom.c ****     return (ret);
1006:Generated_Source\PSoC6\pdl\middleware\em_eeprom/cy_em_eeprom.c **** }
1007:Generated_Source\PSoC6\pdl\middleware\em_eeprom/cy_em_eeprom.c **** 
1008:Generated_Source\PSoC6\pdl\middleware\em_eeprom/cy_em_eeprom.c **** 
1009:Generated_Source\PSoC6\pdl\middleware\em_eeprom/cy_em_eeprom.c **** /*******************************************************************************
1010:Generated_Source\PSoC6\pdl\middleware\em_eeprom/cy_em_eeprom.c **** * Function Name: EraseRow
1011:Generated_Source\PSoC6\pdl\middleware\em_eeprom/cy_em_eeprom.c **** ****************************************************************************//**
1012:Generated_Source\PSoC6\pdl\middleware\em_eeprom/cy_em_eeprom.c **** *
1013:Generated_Source\PSoC6\pdl\middleware\em_eeprom/cy_em_eeprom.c **** * Erases one flash row starting from the specified row address. If the redundant
1014:Generated_Source\PSoC6\pdl\middleware\em_eeprom/cy_em_eeprom.c **** * copy option is enabled the corresponding row in the redundant copy will also
1015:Generated_Source\PSoC6\pdl\middleware\em_eeprom/cy_em_eeprom.c **** * be erased.
1016:Generated_Source\PSoC6\pdl\middleware\em_eeprom/cy_em_eeprom.c **** *
1017:Generated_Source\PSoC6\pdl\middleware\em_eeprom/cy_em_eeprom.c **** * \param rowAdd
1018:Generated_Source\PSoC6\pdl\middleware\em_eeprom/cy_em_eeprom.c **** * The address of the flash row.
1019:Generated_Source\PSoC6\pdl\middleware\em_eeprom/cy_em_eeprom.c **** *
1020:Generated_Source\PSoC6\pdl\middleware\em_eeprom/cy_em_eeprom.c **** * \param ramBuffAddr
1021:Generated_Source\PSoC6\pdl\middleware\em_eeprom/cy_em_eeprom.c **** * The address of the RAM buffer that contains zeroed data (used only for
1022:Generated_Source\PSoC6\pdl\middleware\em_eeprom/cy_em_eeprom.c **** * non-PSoC 6 devices).
1023:Generated_Source\PSoC6\pdl\middleware\em_eeprom/cy_em_eeprom.c **** *
1024:Generated_Source\PSoC6\pdl\middleware\em_eeprom/cy_em_eeprom.c **** * \param context
1025:Generated_Source\PSoC6\pdl\middleware\em_eeprom/cy_em_eeprom.c **** * The pointer to the EEPROM context structure \ref cy_stc_eeprom_context_t.
1026:Generated_Source\PSoC6\pdl\middleware\em_eeprom/cy_em_eeprom.c **** *
1027:Generated_Source\PSoC6\pdl\middleware\em_eeprom/cy_em_eeprom.c **** * \return
1028:Generated_Source\PSoC6\pdl\middleware\em_eeprom/cy_em_eeprom.c **** * error / status code. See \ref cy_en_em_eeprom_status_t.
1029:Generated_Source\PSoC6\pdl\middleware\em_eeprom/cy_em_eeprom.c **** *
1030:Generated_Source\PSoC6\pdl\middleware\em_eeprom/cy_em_eeprom.c **** *******************************************************************************/
1031:Generated_Source\PSoC6\pdl\middleware\em_eeprom/cy_em_eeprom.c **** static cy_en_em_eeprom_status_t EraseRow(uint32_t rowAddr,
1032:Generated_Source\PSoC6\pdl\middleware\em_eeprom/cy_em_eeprom.c ****                                         uint32_t ramBuffAddr,
1033:Generated_Source\PSoC6\pdl\middleware\em_eeprom/cy_em_eeprom.c ****                                         cy_stc_eeprom_context_t * context)
1034:Generated_Source\PSoC6\pdl\middleware\em_eeprom/cy_em_eeprom.c **** {
1035:Generated_Source\PSoC6\pdl\middleware\em_eeprom/cy_em_eeprom.c ****     uint32_t emEepromRowAddr = rowAddr;
1036:Generated_Source\PSoC6\pdl\middleware\em_eeprom/cy_em_eeprom.c ****     cy_en_em_eeprom_status_t ret = CY_EM_EEPROM_WRITE_FAIL;
1037:Generated_Source\PSoC6\pdl\middleware\em_eeprom/cy_em_eeprom.c ****     uint32_t i = 1u;
1038:Generated_Source\PSoC6\pdl\middleware\em_eeprom/cy_em_eeprom.c **** 
1039:Generated_Source\PSoC6\pdl\middleware\em_eeprom/cy_em_eeprom.c ****     (void)ramBuffAddr; /* To avoid compiler warning */
1040:Generated_Source\PSoC6\pdl\middleware\em_eeprom/cy_em_eeprom.c **** 
1041:Generated_Source\PSoC6\pdl\middleware\em_eeprom/cy_em_eeprom.c ****     if(0u != context->redundantCopy)
1042:Generated_Source\PSoC6\pdl\middleware\em_eeprom/cy_em_eeprom.c ****     {
1043:Generated_Source\PSoC6\pdl\middleware\em_eeprom/cy_em_eeprom.c ****         i++;
1044:Generated_Source\PSoC6\pdl\middleware\em_eeprom/cy_em_eeprom.c ****     }
1045:Generated_Source\PSoC6\pdl\middleware\em_eeprom/cy_em_eeprom.c **** 
1046:Generated_Source\PSoC6\pdl\middleware\em_eeprom/cy_em_eeprom.c ****     do
1047:Generated_Source\PSoC6\pdl\middleware\em_eeprom/cy_em_eeprom.c ****     {
1048:Generated_Source\PSoC6\pdl\middleware\em_eeprom/cy_em_eeprom.c ****         if(0u != context->blockingWrite)
ARM GAS  C:\Users\eduar\AppData\Local\Temp\cctEoJXe.s 			page 27


1049:Generated_Source\PSoC6\pdl\middleware\em_eeprom/cy_em_eeprom.c ****         {
1050:Generated_Source\PSoC6\pdl\middleware\em_eeprom/cy_em_eeprom.c ****             /* Erase the flash row */
1051:Generated_Source\PSoC6\pdl\middleware\em_eeprom/cy_em_eeprom.c ****             if(CY_FLASH_DRV_SUCCESS == Cy_Flash_EraseRow(emEepromRowAddr))
1052:Generated_Source\PSoC6\pdl\middleware\em_eeprom/cy_em_eeprom.c ****             {
1053:Generated_Source\PSoC6\pdl\middleware\em_eeprom/cy_em_eeprom.c ****                 ret = CY_EM_EEPROM_SUCCESS;
1054:Generated_Source\PSoC6\pdl\middleware\em_eeprom/cy_em_eeprom.c ****             }
1055:Generated_Source\PSoC6\pdl\middleware\em_eeprom/cy_em_eeprom.c ****         }
1056:Generated_Source\PSoC6\pdl\middleware\em_eeprom/cy_em_eeprom.c ****         else
1057:Generated_Source\PSoC6\pdl\middleware\em_eeprom/cy_em_eeprom.c ****         {
1058:Generated_Source\PSoC6\pdl\middleware\em_eeprom/cy_em_eeprom.c ****             /* Initiate erase */
1059:Generated_Source\PSoC6\pdl\middleware\em_eeprom/cy_em_eeprom.c ****             if(CY_FLASH_DRV_OPERATION_STARTED == Cy_Flash_StartErase(emEepromRowAddr))
1060:Generated_Source\PSoC6\pdl\middleware\em_eeprom/cy_em_eeprom.c ****             {
1061:Generated_Source\PSoC6\pdl\middleware\em_eeprom/cy_em_eeprom.c ****                 uint32_t countMs = CY_EM_EEPROM_MAX_WRITE_DURATION_MS;
1062:Generated_Source\PSoC6\pdl\middleware\em_eeprom/cy_em_eeprom.c ****                 cy_en_flashdrv_status_t rc;
1063:Generated_Source\PSoC6\pdl\middleware\em_eeprom/cy_em_eeprom.c **** 
1064:Generated_Source\PSoC6\pdl\middleware\em_eeprom/cy_em_eeprom.c ****                 do
1065:Generated_Source\PSoC6\pdl\middleware\em_eeprom/cy_em_eeprom.c ****                 {
1066:Generated_Source\PSoC6\pdl\middleware\em_eeprom/cy_em_eeprom.c ****                     CyDelay(1u);                         /* Wait 1ms */
1067:Generated_Source\PSoC6\pdl\middleware\em_eeprom/cy_em_eeprom.c ****                     rc = Cy_Flash_IsWriteComplete();     /* Check if erase completed */
1068:Generated_Source\PSoC6\pdl\middleware\em_eeprom/cy_em_eeprom.c ****                     countMs--;
1069:Generated_Source\PSoC6\pdl\middleware\em_eeprom/cy_em_eeprom.c ****                 }
1070:Generated_Source\PSoC6\pdl\middleware\em_eeprom/cy_em_eeprom.c ****                 while ((rc == CY_FLASH_DRV_OPCODE_BUSY) && (0u != countMs));
1071:Generated_Source\PSoC6\pdl\middleware\em_eeprom/cy_em_eeprom.c **** 
1072:Generated_Source\PSoC6\pdl\middleware\em_eeprom/cy_em_eeprom.c ****                 if(CY_FLASH_DRV_SUCCESS == rc)
1073:Generated_Source\PSoC6\pdl\middleware\em_eeprom/cy_em_eeprom.c ****                 {
1074:Generated_Source\PSoC6\pdl\middleware\em_eeprom/cy_em_eeprom.c ****                     ret = CY_EM_EEPROM_SUCCESS;
1075:Generated_Source\PSoC6\pdl\middleware\em_eeprom/cy_em_eeprom.c ****                 }
1076:Generated_Source\PSoC6\pdl\middleware\em_eeprom/cy_em_eeprom.c ****             }
1077:Generated_Source\PSoC6\pdl\middleware\em_eeprom/cy_em_eeprom.c ****         }
1078:Generated_Source\PSoC6\pdl\middleware\em_eeprom/cy_em_eeprom.c **** 
1079:Generated_Source\PSoC6\pdl\middleware\em_eeprom/cy_em_eeprom.c ****         if(CY_EM_EEPROM_SUCCESS == ret)
1080:Generated_Source\PSoC6\pdl\middleware\em_eeprom/cy_em_eeprom.c ****         {
1081:Generated_Source\PSoC6\pdl\middleware\em_eeprom/cy_em_eeprom.c ****             /* Update the address to point to the redundant copy row */
1082:Generated_Source\PSoC6\pdl\middleware\em_eeprom/cy_em_eeprom.c ****             emEepromRowAddr = (emEepromRowAddr - context->userFlashStartAddr) + context->wlEndAddr;
1083:Generated_Source\PSoC6\pdl\middleware\em_eeprom/cy_em_eeprom.c ****         }
1084:Generated_Source\PSoC6\pdl\middleware\em_eeprom/cy_em_eeprom.c ****         else
1085:Generated_Source\PSoC6\pdl\middleware\em_eeprom/cy_em_eeprom.c ****         {
1086:Generated_Source\PSoC6\pdl\middleware\em_eeprom/cy_em_eeprom.c ****             break;
1087:Generated_Source\PSoC6\pdl\middleware\em_eeprom/cy_em_eeprom.c ****         }
1088:Generated_Source\PSoC6\pdl\middleware\em_eeprom/cy_em_eeprom.c ****         i--;
1089:Generated_Source\PSoC6\pdl\middleware\em_eeprom/cy_em_eeprom.c ****     } while (0u != i);
1090:Generated_Source\PSoC6\pdl\middleware\em_eeprom/cy_em_eeprom.c **** 
1091:Generated_Source\PSoC6\pdl\middleware\em_eeprom/cy_em_eeprom.c ****     return(ret);
1092:Generated_Source\PSoC6\pdl\middleware\em_eeprom/cy_em_eeprom.c **** }
1093:Generated_Source\PSoC6\pdl\middleware\em_eeprom/cy_em_eeprom.c **** 
1094:Generated_Source\PSoC6\pdl\middleware\em_eeprom/cy_em_eeprom.c **** 
1095:Generated_Source\PSoC6\pdl\middleware\em_eeprom/cy_em_eeprom.c **** /*******************************************************************************
1096:Generated_Source\PSoC6\pdl\middleware\em_eeprom/cy_em_eeprom.c **** * Function Name: CheckCrcAndCopy
1097:Generated_Source\PSoC6\pdl\middleware\em_eeprom/cy_em_eeprom.c **** ****************************************************************************//**
1098:Generated_Source\PSoC6\pdl\middleware\em_eeprom/cy_em_eeprom.c **** *
1099:Generated_Source\PSoC6\pdl\middleware\em_eeprom/cy_em_eeprom.c **** * Checks the checksum of the specific row in EEPROM. If the CRC matches - copies
1100:Generated_Source\PSoC6\pdl\middleware\em_eeprom/cy_em_eeprom.c **** * the data to the "datAddr" from EEPROM. f the CRC does not match checks the
1101:Generated_Source\PSoC6\pdl\middleware\em_eeprom/cy_em_eeprom.c **** * CRC of the corresponding row in the EEPROM's redundant copy. If the CRC
1102:Generated_Source\PSoC6\pdl\middleware\em_eeprom/cy_em_eeprom.c **** * matches - copies the data to the "datAddr" from EEPROM redundant copy. If the
1103:Generated_Source\PSoC6\pdl\middleware\em_eeprom/cy_em_eeprom.c **** * CRC of the redundant copy does not match - returns bad checksum.
1104:Generated_Source\PSoC6\pdl\middleware\em_eeprom/cy_em_eeprom.c **** *
1105:Generated_Source\PSoC6\pdl\middleware\em_eeprom/cy_em_eeprom.c **** * \param startAddr
ARM GAS  C:\Users\eduar\AppData\Local\Temp\cctEoJXe.s 			page 28


1106:Generated_Source\PSoC6\pdl\middleware\em_eeprom/cy_em_eeprom.c **** * The address that points to the start of the specified row.
1107:Generated_Source\PSoC6\pdl\middleware\em_eeprom/cy_em_eeprom.c **** *
1108:Generated_Source\PSoC6\pdl\middleware\em_eeprom/cy_em_eeprom.c **** * \param datAddr
1109:Generated_Source\PSoC6\pdl\middleware\em_eeprom/cy_em_eeprom.c **** * The start address of where the row data will be copied if the CRC check
1110:Generated_Source\PSoC6\pdl\middleware\em_eeprom/cy_em_eeprom.c **** * will succeed.
1111:Generated_Source\PSoC6\pdl\middleware\em_eeprom/cy_em_eeprom.c **** *
1112:Generated_Source\PSoC6\pdl\middleware\em_eeprom/cy_em_eeprom.c **** * \param rowOffset
1113:Generated_Source\PSoC6\pdl\middleware\em_eeprom/cy_em_eeprom.c **** * The offset in the row from which the data should be copied.
1114:Generated_Source\PSoC6\pdl\middleware\em_eeprom/cy_em_eeprom.c **** *
1115:Generated_Source\PSoC6\pdl\middleware\em_eeprom/cy_em_eeprom.c **** * \param numBytes
1116:Generated_Source\PSoC6\pdl\middleware\em_eeprom/cy_em_eeprom.c **** * The number of bytes to be copied.
1117:Generated_Source\PSoC6\pdl\middleware\em_eeprom/cy_em_eeprom.c **** *
1118:Generated_Source\PSoC6\pdl\middleware\em_eeprom/cy_em_eeprom.c **** * \param context
1119:Generated_Source\PSoC6\pdl\middleware\em_eeprom/cy_em_eeprom.c **** * The pointer to the EEPROM context structure \ref cy_stc_eeprom_context_t.
1120:Generated_Source\PSoC6\pdl\middleware\em_eeprom/cy_em_eeprom.c **** *
1121:Generated_Source\PSoC6\pdl\middleware\em_eeprom/cy_em_eeprom.c **** * \return
1122:Generated_Source\PSoC6\pdl\middleware\em_eeprom/cy_em_eeprom.c **** * error / status code. See \ref cy_en_em_eeprom_status_t.
1123:Generated_Source\PSoC6\pdl\middleware\em_eeprom/cy_em_eeprom.c **** *
1124:Generated_Source\PSoC6\pdl\middleware\em_eeprom/cy_em_eeprom.c **** * \note
1125:Generated_Source\PSoC6\pdl\middleware\em_eeprom/cy_em_eeprom.c **** * This function uses a buffer of the flash row size to perform read
1126:Generated_Source\PSoC6\pdl\middleware\em_eeprom/cy_em_eeprom.c **** * operation. For the size of the row refer to the specific PSoC device
1127:Generated_Source\PSoC6\pdl\middleware\em_eeprom/cy_em_eeprom.c **** * datasheet.
1128:Generated_Source\PSoC6\pdl\middleware\em_eeprom/cy_em_eeprom.c **** *
1129:Generated_Source\PSoC6\pdl\middleware\em_eeprom/cy_em_eeprom.c **** *******************************************************************************/
1130:Generated_Source\PSoC6\pdl\middleware\em_eeprom/cy_em_eeprom.c **** static cy_en_em_eeprom_status_t CheckCrcAndCopy(uint32_t startAddr,
1131:Generated_Source\PSoC6\pdl\middleware\em_eeprom/cy_em_eeprom.c ****                                                 uint32_t dstAddr,
1132:Generated_Source\PSoC6\pdl\middleware\em_eeprom/cy_em_eeprom.c ****                                                 uint32_t rowOffset,
1133:Generated_Source\PSoC6\pdl\middleware\em_eeprom/cy_em_eeprom.c ****                                                 uint32_t numBytes,
1134:Generated_Source\PSoC6\pdl\middleware\em_eeprom/cy_em_eeprom.c ****                                                 cy_stc_eeprom_context_t * context)
1135:Generated_Source\PSoC6\pdl\middleware\em_eeprom/cy_em_eeprom.c **** {
1136:Generated_Source\PSoC6\pdl\middleware\em_eeprom/cy_em_eeprom.c ****     cy_en_em_eeprom_status_t ret;
1137:Generated_Source\PSoC6\pdl\middleware\em_eeprom/cy_em_eeprom.c ****     uint32_t writeRamBuffer[CY_EM_EEPROM_FLASH_SIZEOF_ROW / CY_EM_EEPROM_U32_DIV];
1138:Generated_Source\PSoC6\pdl\middleware\em_eeprom/cy_em_eeprom.c **** 
1139:Generated_Source\PSoC6\pdl\middleware\em_eeprom/cy_em_eeprom.c ****     /* Calculate the row address in the EEPROM's redundant copy */
1140:Generated_Source\PSoC6\pdl\middleware\em_eeprom/cy_em_eeprom.c ****     uint32_t rcStartRowAddr = (startAddr - context->userFlashStartAddr) + context->wlEndAddr;
1141:Generated_Source\PSoC6\pdl\middleware\em_eeprom/cy_em_eeprom.c **** 
1142:Generated_Source\PSoC6\pdl\middleware\em_eeprom/cy_em_eeprom.c ****     /* Check the row data CRC in the EEPROM */
1143:Generated_Source\PSoC6\pdl\middleware\em_eeprom/cy_em_eeprom.c ****     if((*(uint32_t *)(startAddr + CY_EM_EEPROM_HEADER_CHECKSUM_OFFSET)) ==
1144:Generated_Source\PSoC6\pdl\middleware\em_eeprom/cy_em_eeprom.c ****         ((uint32_t) CalcChecksum((uint8_t *)(startAddr + CY_EM_EEPROM_EEPROM_DATA_OFFSET),
1145:Generated_Source\PSoC6\pdl\middleware\em_eeprom/cy_em_eeprom.c ****             CY_EM_EEPROM_EEPROM_DATA_LEN)))
1146:Generated_Source\PSoC6\pdl\middleware\em_eeprom/cy_em_eeprom.c ****     {
1147:Generated_Source\PSoC6\pdl\middleware\em_eeprom/cy_em_eeprom.c ****         (void)memcpy((void *)(dstAddr), (void *)(startAddr + rowOffset), numBytes);
1148:Generated_Source\PSoC6\pdl\middleware\em_eeprom/cy_em_eeprom.c **** 
1149:Generated_Source\PSoC6\pdl\middleware\em_eeprom/cy_em_eeprom.c ****         ret = CY_EM_EEPROM_SUCCESS;
1150:Generated_Source\PSoC6\pdl\middleware\em_eeprom/cy_em_eeprom.c ****     }
1151:Generated_Source\PSoC6\pdl\middleware\em_eeprom/cy_em_eeprom.c ****     /* Check the row data CRC in the EEPROM's redundant copy */
1152:Generated_Source\PSoC6\pdl\middleware\em_eeprom/cy_em_eeprom.c ****     else if((*(uint32_t *)(rcStartRowAddr + CY_EM_EEPROM_HEADER_CHECKSUM_OFFSET)) ==
1153:Generated_Source\PSoC6\pdl\middleware\em_eeprom/cy_em_eeprom.c ****             ((uint32_t) CalcChecksum((uint8_t *)(rcStartRowAddr + CY_EM_EEPROM_EEPROM_DATA_OFFSET),
1154:Generated_Source\PSoC6\pdl\middleware\em_eeprom/cy_em_eeprom.c ****                 CY_EM_EEPROM_EEPROM_DATA_LEN)))
1155:Generated_Source\PSoC6\pdl\middleware\em_eeprom/cy_em_eeprom.c ****     {
1156:Generated_Source\PSoC6\pdl\middleware\em_eeprom/cy_em_eeprom.c ****         /* Copy the redundant copy row to RAM buffer to avoid read while write (RWW)
1157:Generated_Source\PSoC6\pdl\middleware\em_eeprom/cy_em_eeprom.c ****         * flash exception. The RWW occurs while trying to write and read the data from
1158:Generated_Source\PSoC6\pdl\middleware\em_eeprom/cy_em_eeprom.c ****         * same flash macro.
1159:Generated_Source\PSoC6\pdl\middleware\em_eeprom/cy_em_eeprom.c ****         */
1160:Generated_Source\PSoC6\pdl\middleware\em_eeprom/cy_em_eeprom.c ****         (void)memcpy((void *)(writeRamBuffer), (void *)(rcStartRowAddr), CY_EM_EEPROM_FLASH_SIZEOF_
1161:Generated_Source\PSoC6\pdl\middleware\em_eeprom/cy_em_eeprom.c **** 
1162:Generated_Source\PSoC6\pdl\middleware\em_eeprom/cy_em_eeprom.c ****         /* Restore bad row data from the RAM buffer */
ARM GAS  C:\Users\eduar\AppData\Local\Temp\cctEoJXe.s 			page 29


1163:Generated_Source\PSoC6\pdl\middleware\em_eeprom/cy_em_eeprom.c ****         ret = WriteRow(startAddr, (uint32_t *)writeRamBuffer, context);
1164:Generated_Source\PSoC6\pdl\middleware\em_eeprom/cy_em_eeprom.c **** 
1165:Generated_Source\PSoC6\pdl\middleware\em_eeprom/cy_em_eeprom.c ****         if(CY_EM_EEPROM_SUCCESS == ret)
1166:Generated_Source\PSoC6\pdl\middleware\em_eeprom/cy_em_eeprom.c ****         {
1167:Generated_Source\PSoC6\pdl\middleware\em_eeprom/cy_em_eeprom.c ****             (void)memcpy((void *)(dstAddr), (void *)(writeRamBuffer + rowOffset), numBytes);
1168:Generated_Source\PSoC6\pdl\middleware\em_eeprom/cy_em_eeprom.c ****         }
1169:Generated_Source\PSoC6\pdl\middleware\em_eeprom/cy_em_eeprom.c ****     }
1170:Generated_Source\PSoC6\pdl\middleware\em_eeprom/cy_em_eeprom.c ****     else
1171:Generated_Source\PSoC6\pdl\middleware\em_eeprom/cy_em_eeprom.c ****     {
1172:Generated_Source\PSoC6\pdl\middleware\em_eeprom/cy_em_eeprom.c ****         ret = CY_EM_EEPROM_BAD_CHECKSUM;
1173:Generated_Source\PSoC6\pdl\middleware\em_eeprom/cy_em_eeprom.c ****     }
1174:Generated_Source\PSoC6\pdl\middleware\em_eeprom/cy_em_eeprom.c **** 
1175:Generated_Source\PSoC6\pdl\middleware\em_eeprom/cy_em_eeprom.c ****     return(ret);
1176:Generated_Source\PSoC6\pdl\middleware\em_eeprom/cy_em_eeprom.c **** }
1177:Generated_Source\PSoC6\pdl\middleware\em_eeprom/cy_em_eeprom.c **** 
1178:Generated_Source\PSoC6\pdl\middleware\em_eeprom/cy_em_eeprom.c **** 
1179:Generated_Source\PSoC6\pdl\middleware\em_eeprom/cy_em_eeprom.c **** /*******************************************************************************
1180:Generated_Source\PSoC6\pdl\middleware\em_eeprom/cy_em_eeprom.c **** * Function Name: GetAddresses
1181:Generated_Source\PSoC6\pdl\middleware\em_eeprom/cy_em_eeprom.c **** ****************************************************************************//**
1182:Generated_Source\PSoC6\pdl\middleware\em_eeprom/cy_em_eeprom.c **** *
1183:Generated_Source\PSoC6\pdl\middleware\em_eeprom/cy_em_eeprom.c **** * Calculates the start and end address of the row's EEPROM data to be updated.
1184:Generated_Source\PSoC6\pdl\middleware\em_eeprom/cy_em_eeprom.c **** * The start and end are not absolute addresses but a relative addresses in a
1185:Generated_Source\PSoC6\pdl\middleware\em_eeprom/cy_em_eeprom.c **** * flash row.
1186:Generated_Source\PSoC6\pdl\middleware\em_eeprom/cy_em_eeprom.c **** *
1187:Generated_Source\PSoC6\pdl\middleware\em_eeprom/cy_em_eeprom.c **** * \param startAddr
1188:Generated_Source\PSoC6\pdl\middleware\em_eeprom/cy_em_eeprom.c **** * The pointer the address where the EEPROM data start address will be returned.
1189:Generated_Source\PSoC6\pdl\middleware\em_eeprom/cy_em_eeprom.c **** *
1190:Generated_Source\PSoC6\pdl\middleware\em_eeprom/cy_em_eeprom.c **** * \param endAddr
1191:Generated_Source\PSoC6\pdl\middleware\em_eeprom/cy_em_eeprom.c **** * The pointer the address where the EEPROM data end address will be returned.
1192:Generated_Source\PSoC6\pdl\middleware\em_eeprom/cy_em_eeprom.c **** *
1193:Generated_Source\PSoC6\pdl\middleware\em_eeprom/cy_em_eeprom.c **** * \param offset
1194:Generated_Source\PSoC6\pdl\middleware\em_eeprom/cy_em_eeprom.c **** * The pointer the address where the calculated offset of the EEPROM header data
1195:Generated_Source\PSoC6\pdl\middleware\em_eeprom/cy_em_eeprom.c **** * will be returned.
1196:Generated_Source\PSoC6\pdl\middleware\em_eeprom/cy_em_eeprom.c **** *
1197:Generated_Source\PSoC6\pdl\middleware\em_eeprom/cy_em_eeprom.c **** * \param rowNum
1198:Generated_Source\PSoC6\pdl\middleware\em_eeprom/cy_em_eeprom.c **** * The row number that is about to be written.
1199:Generated_Source\PSoC6\pdl\middleware\em_eeprom/cy_em_eeprom.c **** *
1200:Generated_Source\PSoC6\pdl\middleware\em_eeprom/cy_em_eeprom.c **** * \param addr
1201:Generated_Source\PSoC6\pdl\middleware\em_eeprom/cy_em_eeprom.c **** * The address of the EEPROM header data in the currently analyzed row that may
1202:Generated_Source\PSoC6\pdl\middleware\em_eeprom/cy_em_eeprom.c **** * concern to the row about to be written.
1203:Generated_Source\PSoC6\pdl\middleware\em_eeprom/cy_em_eeprom.c **** *
1204:Generated_Source\PSoC6\pdl\middleware\em_eeprom/cy_em_eeprom.c **** * \param len
1205:Generated_Source\PSoC6\pdl\middleware\em_eeprom/cy_em_eeprom.c **** * The length of the EEPROM header data in the currently analyzed row that may
1206:Generated_Source\PSoC6\pdl\middleware\em_eeprom/cy_em_eeprom.c **** * concern to the row about to be written.
1207:Generated_Source\PSoC6\pdl\middleware\em_eeprom/cy_em_eeprom.c **** *
1208:Generated_Source\PSoC6\pdl\middleware\em_eeprom/cy_em_eeprom.c **** * \return
1209:Generated_Source\PSoC6\pdl\middleware\em_eeprom/cy_em_eeprom.c **** * Zero indicates that the currently analyzed row has the data to be written to
1210:Generated_Source\PSoC6\pdl\middleware\em_eeprom/cy_em_eeprom.c **** * the active EEPROM row data locations. Non zero value indicates that there is
1211:Generated_Source\PSoC6\pdl\middleware\em_eeprom/cy_em_eeprom.c **** * no data to be written
1212:Generated_Source\PSoC6\pdl\middleware\em_eeprom/cy_em_eeprom.c **** *
1213:Generated_Source\PSoC6\pdl\middleware\em_eeprom/cy_em_eeprom.c **** *******************************************************************************/
1214:Generated_Source\PSoC6\pdl\middleware\em_eeprom/cy_em_eeprom.c **** static uint32_t GetAddresses(uint32_t *startAddr, 
1215:Generated_Source\PSoC6\pdl\middleware\em_eeprom/cy_em_eeprom.c ****                         uint32_t *endAddr, 
1216:Generated_Source\PSoC6\pdl\middleware\em_eeprom/cy_em_eeprom.c ****                         uint32_t *offset,
1217:Generated_Source\PSoC6\pdl\middleware\em_eeprom/cy_em_eeprom.c ****                         uint32_t rowNum,
1218:Generated_Source\PSoC6\pdl\middleware\em_eeprom/cy_em_eeprom.c ****                         uint32_t addr,
1219:Generated_Source\PSoC6\pdl\middleware\em_eeprom/cy_em_eeprom.c ****                         uint32_t len)
ARM GAS  C:\Users\eduar\AppData\Local\Temp\cctEoJXe.s 			page 30


1220:Generated_Source\PSoC6\pdl\middleware\em_eeprom/cy_em_eeprom.c **** {
 421              		.loc 1 1220 0
 422              		.cfi_startproc
 423              		@ args = 8, pretend = 0, frame = 0
 424              		@ frame_needed = 0, uses_anonymous_args = 0
 425              	.LVL54:
 426 0000 F0B5     		push	{r4, r5, r6, r7, lr}
 427              		.cfi_def_cfa_offset 20
 428              		.cfi_offset 4, -20
 429              		.cfi_offset 5, -16
 430              		.cfi_offset 6, -12
 431              		.cfi_offset 7, -8
 432              		.cfi_offset 14, -4
 433 0002 059C     		ldr	r4, [sp, #20]
 434              	.LVL55:
1221:Generated_Source\PSoC6\pdl\middleware\em_eeprom/cy_em_eeprom.c ****     uint32_t skip = 0u;
1222:Generated_Source\PSoC6\pdl\middleware\em_eeprom/cy_em_eeprom.c **** 
1223:Generated_Source\PSoC6\pdl\middleware\em_eeprom/cy_em_eeprom.c ****     *offset =0u;
 435              		.loc 1 1223 0
 436 0004 0025     		movs	r5, #0
 437 0006 1560     		str	r5, [r2]
1224:Generated_Source\PSoC6\pdl\middleware\em_eeprom/cy_em_eeprom.c **** 
1225:Generated_Source\PSoC6\pdl\middleware\em_eeprom/cy_em_eeprom.c ****     if(0u != CY_EM_EEPROM_IS_ADDR_IN_ROW_RANGE(addr, rowNum))
 438              		.loc 1 1225 0
 439 0008 1D02     		lsls	r5, r3, #8
 440 000a A542     		cmp	r5, r4
 441 000c 06D8     		bhi	.L41
 442              		.loc 1 1225 0 is_stmt 0 discriminator 1
 443 000e 5E1C     		adds	r6, r3, #1
 444 0010 3602     		lsls	r6, r6, #8
 445 0012 013E     		subs	r6, r6, #1
 446 0014 B442     		cmp	r4, r6
 447 0016 03D9     		bls	.L42
 448              		.loc 1 1225 0
 449 0018 0026     		movs	r6, #0
 450 001a 02E0     		b	.L35
 451              	.L41:
 452 001c 0026     		movs	r6, #0
 453 001e 00E0     		b	.L35
 454              	.L42:
 455 0020 0126     		movs	r6, #1
 456              	.L35:
 457              		.loc 1 1225 0 discriminator 6
 458 0022 002E     		cmp	r6, #0
 459 0024 20D0     		beq	.L36
1226:Generated_Source\PSoC6\pdl\middleware\em_eeprom/cy_em_eeprom.c ****     {
1227:Generated_Source\PSoC6\pdl\middleware\em_eeprom/cy_em_eeprom.c ****         *startAddr = CY_EM_EEPROM_EEPROM_DATA_LEN + (addr % CY_EM_EEPROM_EEPROM_DATA_LEN);
 460              		.loc 1 1227 0 is_stmt 1
 461 0026 FF22     		movs	r2, #255
 462              	.LVL56:
 463 0028 2240     		ands	r2, r4
 464 002a 0132     		adds	r2, r2, #1
 465 002c FF32     		adds	r2, r2, #255
 466 002e 0260     		str	r2, [r0]
1228:Generated_Source\PSoC6\pdl\middleware\em_eeprom/cy_em_eeprom.c **** 
1229:Generated_Source\PSoC6\pdl\middleware\em_eeprom/cy_em_eeprom.c ****         if(0u != CY_EM_EEPROM_IS_ADDR_IN_ROW_RANGE(addr + len, rowNum))
 467              		.loc 1 1229 0
ARM GAS  C:\Users\eduar\AppData\Local\Temp\cctEoJXe.s 			page 31


 468 0030 0698     		ldr	r0, [sp, #24]
 469              	.LVL57:
 470 0032 8446     		mov	ip, r0
 471 0034 6444     		add	r4, r4, ip
 472 0036 A542     		cmp	r5, r4
 473 0038 06D8     		bhi	.L43
 474              		.loc 1 1229 0 is_stmt 0 discriminator 1
 475 003a 0133     		adds	r3, r3, #1
 476              	.LVL58:
 477 003c 1B02     		lsls	r3, r3, #8
 478              	.LVL59:
 479 003e 013B     		subs	r3, r3, #1
 480 0040 9C42     		cmp	r4, r3
 481 0042 03D9     		bls	.L44
 482              		.loc 1 1229 0
 483 0044 0023     		movs	r3, #0
 484 0046 02E0     		b	.L37
 485              	.LVL60:
 486              	.L43:
 487 0048 0023     		movs	r3, #0
 488              	.LVL61:
 489 004a 00E0     		b	.L37
 490              	.L44:
 491 004c 0123     		movs	r3, #1
 492              	.L37:
 493              		.loc 1 1229 0 discriminator 6
 494 004e 002B     		cmp	r3, #0
 495 0050 05D0     		beq	.L38
1230:Generated_Source\PSoC6\pdl\middleware\em_eeprom/cy_em_eeprom.c ****         {
1231:Generated_Source\PSoC6\pdl\middleware\em_eeprom/cy_em_eeprom.c ****             *endAddr = *startAddr + len;
 496              		.loc 1 1231 0 is_stmt 1
 497 0052 069B     		ldr	r3, [sp, #24]
 498 0054 9C46     		mov	ip, r3
 499 0056 6244     		add	r2, r2, ip
 500 0058 0A60     		str	r2, [r1]
1221:Generated_Source\PSoC6\pdl\middleware\em_eeprom/cy_em_eeprom.c **** 
 501              		.loc 1 1221 0
 502 005a 0020     		movs	r0, #0
 503 005c 25E0     		b	.L39
 504              	.L38:
1232:Generated_Source\PSoC6\pdl\middleware\em_eeprom/cy_em_eeprom.c ****         }
1233:Generated_Source\PSoC6\pdl\middleware\em_eeprom/cy_em_eeprom.c ****         else
1234:Generated_Source\PSoC6\pdl\middleware\em_eeprom/cy_em_eeprom.c ****         {
1235:Generated_Source\PSoC6\pdl\middleware\em_eeprom/cy_em_eeprom.c ****             *endAddr = CY_EM_EEPROM_FLASH_SIZEOF_ROW;
 505              		.loc 1 1235 0
 506 005e 8023     		movs	r3, #128
 507 0060 9B00     		lsls	r3, r3, #2
 508 0062 0B60     		str	r3, [r1]
1221:Generated_Source\PSoC6\pdl\middleware\em_eeprom/cy_em_eeprom.c **** 
 509              		.loc 1 1221 0
 510 0064 0020     		movs	r0, #0
 511 0066 20E0     		b	.L39
 512              	.LVL62:
 513              	.L36:
1236:Generated_Source\PSoC6\pdl\middleware\em_eeprom/cy_em_eeprom.c ****         }
1237:Generated_Source\PSoC6\pdl\middleware\em_eeprom/cy_em_eeprom.c ****     }
1238:Generated_Source\PSoC6\pdl\middleware\em_eeprom/cy_em_eeprom.c ****     else
ARM GAS  C:\Users\eduar\AppData\Local\Temp\cctEoJXe.s 			page 32


1239:Generated_Source\PSoC6\pdl\middleware\em_eeprom/cy_em_eeprom.c ****     {
1240:Generated_Source\PSoC6\pdl\middleware\em_eeprom/cy_em_eeprom.c **** 
1241:Generated_Source\PSoC6\pdl\middleware\em_eeprom/cy_em_eeprom.c ****         if(0u != CY_EM_EEPROM_IS_ADDR_IN_ROW_RANGE(addr + len, rowNum))
 514              		.loc 1 1241 0
 515 0068 069F     		ldr	r7, [sp, #24]
 516 006a E719     		adds	r7, r4, r7
 517 006c BD42     		cmp	r5, r7
 518 006e 05D8     		bhi	.L40
 519              		.loc 1 1241 0 is_stmt 0 discriminator 1
 520 0070 0133     		adds	r3, r3, #1
 521              	.LVL63:
 522 0072 1B02     		lsls	r3, r3, #8
 523              	.LVL64:
 524 0074 013B     		subs	r3, r3, #1
 525 0076 9F42     		cmp	r7, r3
 526 0078 00D8     		bhi	.L40
 527              		.loc 1 1241 0
 528 007a 0126     		movs	r6, #1
 529              	.L40:
 530              		.loc 1 1241 0 discriminator 6
 531 007c 002E     		cmp	r6, #0
 532 007e 13D0     		beq	.L46
1242:Generated_Source\PSoC6\pdl\middleware\em_eeprom/cy_em_eeprom.c ****         {
1243:Generated_Source\PSoC6\pdl\middleware\em_eeprom/cy_em_eeprom.c ****             *startAddr = CY_EM_EEPROM_EEPROM_DATA_LEN;
 533              		.loc 1 1243 0 is_stmt 1
 534 0080 8023     		movs	r3, #128
 535 0082 5B00     		lsls	r3, r3, #1
 536 0084 0360     		str	r3, [r0]
1244:Generated_Source\PSoC6\pdl\middleware\em_eeprom/cy_em_eeprom.c ****             *endAddr = (*startAddr + len) - (*startAddr - (addr % CY_EM_EEPROM_EEPROM_DATA_LEN));
 537              		.loc 1 1244 0
 538 0086 069B     		ldr	r3, [sp, #24]
 539 0088 0133     		adds	r3, r3, #1
 540 008a FF33     		adds	r3, r3, #255
 541 008c FF25     		movs	r5, #255
 542 008e 2C40     		ands	r4, r5
 543 0090 013C     		subs	r4, r4, #1
 544 0092 FF3C     		subs	r4, r4, #255
 545 0094 1C19     		adds	r4, r3, r4
 546 0096 0C60     		str	r4, [r1]
1245:Generated_Source\PSoC6\pdl\middleware\em_eeprom/cy_em_eeprom.c ****             *offset = len - (*endAddr - *startAddr);
 547              		.loc 1 1245 0
 548 0098 0368     		ldr	r3, [r0]
 549 009a 1C1B     		subs	r4, r3, r4
 550 009c 069B     		ldr	r3, [sp, #24]
 551 009e 9C46     		mov	ip, r3
 552 00a0 6444     		add	r4, r4, ip
 553 00a2 1460     		str	r4, [r2]
1221:Generated_Source\PSoC6\pdl\middleware\em_eeprom/cy_em_eeprom.c **** 
 554              		.loc 1 1221 0
 555 00a4 0020     		movs	r0, #0
 556              	.LVL65:
 557 00a6 00E0     		b	.L39
 558              	.LVL66:
 559              	.L46:
1246:Generated_Source\PSoC6\pdl\middleware\em_eeprom/cy_em_eeprom.c ****         }
1247:Generated_Source\PSoC6\pdl\middleware\em_eeprom/cy_em_eeprom.c ****         else
1248:Generated_Source\PSoC6\pdl\middleware\em_eeprom/cy_em_eeprom.c ****         {
ARM GAS  C:\Users\eduar\AppData\Local\Temp\cctEoJXe.s 			page 33


1249:Generated_Source\PSoC6\pdl\middleware\em_eeprom/cy_em_eeprom.c ****             skip++;
 560              		.loc 1 1249 0
 561 00a8 0120     		movs	r0, #1
 562              	.LVL67:
 563              	.L39:
1250:Generated_Source\PSoC6\pdl\middleware\em_eeprom/cy_em_eeprom.c ****         }
1251:Generated_Source\PSoC6\pdl\middleware\em_eeprom/cy_em_eeprom.c ****     }
1252:Generated_Source\PSoC6\pdl\middleware\em_eeprom/cy_em_eeprom.c **** 
1253:Generated_Source\PSoC6\pdl\middleware\em_eeprom/cy_em_eeprom.c ****     return (skip);
1254:Generated_Source\PSoC6\pdl\middleware\em_eeprom/cy_em_eeprom.c **** }
 564              		.loc 1 1254 0
 565              		@ sp needed
 566 00aa F0BD     		pop	{r4, r5, r6, r7, pc}
 567              		.cfi_endproc
 568              	.LFE58:
 569              		.size	GetAddresses, .-GetAddresses
 570              		.section	.text.WriteRow,"ax",%progbits
 571              		.align	2
 572              		.code	16
 573              		.thumb_func
 574              		.type	WriteRow, %function
 575              	WriteRow:
 576              	.LFB55:
 972:Generated_Source\PSoC6\pdl\middleware\em_eeprom/cy_em_eeprom.c ****     cy_en_em_eeprom_status_t ret = CY_EM_EEPROM_WRITE_FAIL;
 577              		.loc 1 972 0
 578              		.cfi_startproc
 579              		@ args = 0, pretend = 0, frame = 0
 580              		@ frame_needed = 0, uses_anonymous_args = 0
 581              	.LVL68:
 582 0000 10B5     		push	{r4, lr}
 583              		.cfi_def_cfa_offset 8
 584              		.cfi_offset 4, -8
 585              		.cfi_offset 14, -4
 586              	.LVL69:
 974:Generated_Source\PSoC6\pdl\middleware\em_eeprom/cy_em_eeprom.c ****     {
 587              		.loc 1 974 0
 588 0002 537D     		ldrb	r3, [r2, #21]
 589 0004 002B     		cmp	r3, #0
 590 0006 05D0     		beq	.L48
 977:Generated_Source\PSoC6\pdl\middleware\em_eeprom/cy_em_eeprom.c ****         {
 591              		.loc 1 977 0
 592 0008 FFF7FEFF 		bl	Cy_Flash_WriteRow
 593              	.LVL70:
 594 000c 0028     		cmp	r0, #0
 595 000e 16D0     		beq	.L52
 973:Generated_Source\PSoC6\pdl\middleware\em_eeprom/cy_em_eeprom.c ****     if(0u != context->blockingWrite)
 596              		.loc 1 973 0
 597 0010 0E48     		ldr	r0, .L55
 598 0012 19E0     		b	.L49
 599              	.LVL71:
 600              	.L48:
 985:Generated_Source\PSoC6\pdl\middleware\em_eeprom/cy_em_eeprom.c ****         {
 601              		.loc 1 985 0
 602 0014 FFF7FEFF 		bl	Cy_Flash_StartWrite
 603              	.LVL72:
 604 0018 0D4B     		ldr	r3, .L55+4
 605 001a 9842     		cmp	r0, r3
ARM GAS  C:\Users\eduar\AppData\Local\Temp\cctEoJXe.s 			page 34


 606 001c 11D1     		bne	.L53
 607 001e 3224     		movs	r4, #50
 608              	.L51:
 609              	.LVL73:
 610              	.LBB2:
 992:Generated_Source\PSoC6\pdl\middleware\em_eeprom/cy_em_eeprom.c ****                 rc = Cy_Flash_IsWriteComplete();     /* Check if write completed */
 611              		.loc 1 992 0 discriminator 2
 612 0020 0120     		movs	r0, #1
 613 0022 FFF7FEFF 		bl	Cy_SysLib_Delay
 614              	.LVL74:
 993:Generated_Source\PSoC6\pdl\middleware\em_eeprom/cy_em_eeprom.c ****                 countMs--;
 615              		.loc 1 993 0 discriminator 2
 616 0026 FFF7FEFF 		bl	Cy_Flash_IsOperationComplete
 617              	.LVL75:
 994:Generated_Source\PSoC6\pdl\middleware\em_eeprom/cy_em_eeprom.c ****             }
 618              		.loc 1 994 0 discriminator 2
 619 002a 013C     		subs	r4, r4, #1
 620              	.LVL76:
 996:Generated_Source\PSoC6\pdl\middleware\em_eeprom/cy_em_eeprom.c **** 
 621              		.loc 1 996 0 discriminator 2
 622 002c 094B     		ldr	r3, .L55+8
 623 002e 9842     		cmp	r0, r3
 624 0030 01D1     		bne	.L50
 996:Generated_Source\PSoC6\pdl\middleware\em_eeprom/cy_em_eeprom.c **** 
 625              		.loc 1 996 0 is_stmt 0 discriminator 1
 626 0032 002C     		cmp	r4, #0
 627 0034 F4D1     		bne	.L51
 628              	.L50:
 998:Generated_Source\PSoC6\pdl\middleware\em_eeprom/cy_em_eeprom.c ****             {
 629              		.loc 1 998 0 is_stmt 1
 630 0036 0028     		cmp	r0, #0
 631 0038 05D0     		beq	.L54
 632              	.LBE2:
 973:Generated_Source\PSoC6\pdl\middleware\em_eeprom/cy_em_eeprom.c ****     if(0u != context->blockingWrite)
 633              		.loc 1 973 0
 634 003a 0448     		ldr	r0, .L55
 635              	.LVL77:
 636 003c 04E0     		b	.L49
 637              	.LVL78:
 638              	.L52:
 979:Generated_Source\PSoC6\pdl\middleware\em_eeprom/cy_em_eeprom.c ****         }
 639              		.loc 1 979 0
 640 003e 0020     		movs	r0, #0
 641 0040 02E0     		b	.L49
 642              	.L53:
 973:Generated_Source\PSoC6\pdl\middleware\em_eeprom/cy_em_eeprom.c ****     if(0u != context->blockingWrite)
 643              		.loc 1 973 0
 644 0042 0248     		ldr	r0, .L55
 645 0044 00E0     		b	.L49
 646              	.LVL79:
 647              	.L54:
 648              	.LBB3:
1000:Generated_Source\PSoC6\pdl\middleware\em_eeprom/cy_em_eeprom.c ****             }
 649              		.loc 1 1000 0
 650 0046 0020     		movs	r0, #0
 651              	.LVL80:
 652              	.L49:
ARM GAS  C:\Users\eduar\AppData\Local\Temp\cctEoJXe.s 			page 35


 653              	.LBE3:
1006:Generated_Source\PSoC6\pdl\middleware\em_eeprom/cy_em_eeprom.c **** 
 654              		.loc 1 1006 0
 655              		@ sp needed
 656 0048 10BD     		pop	{r4, pc}
 657              	.L56:
 658 004a C046     		.align	2
 659              	.L55:
 660 004c 04006E00 		.word	7208964
 661 0050 01005000 		.word	5242881
 662 0054 02005000 		.word	5242882
 663              		.cfi_endproc
 664              	.LFE55:
 665              		.size	WriteRow, .-WriteRow
 666              		.section	.text.FillChecksum,"ax",%progbits
 667              		.align	2
 668              		.code	16
 669              		.thumb_func
 670              		.type	FillChecksum, %function
 671              	FillChecksum:
 672              	.LFB59:
1255:Generated_Source\PSoC6\pdl\middleware\em_eeprom/cy_em_eeprom.c **** 
1256:Generated_Source\PSoC6\pdl\middleware\em_eeprom/cy_em_eeprom.c **** 
1257:Generated_Source\PSoC6\pdl\middleware\em_eeprom/cy_em_eeprom.c **** /*******************************************************************************
1258:Generated_Source\PSoC6\pdl\middleware\em_eeprom/cy_em_eeprom.c **** * Function Name: FillChecksum
1259:Generated_Source\PSoC6\pdl\middleware\em_eeprom/cy_em_eeprom.c **** ****************************************************************************//**
1260:Generated_Source\PSoC6\pdl\middleware\em_eeprom/cy_em_eeprom.c **** *
1261:Generated_Source\PSoC6\pdl\middleware\em_eeprom/cy_em_eeprom.c **** * Performs calculation of the checksum on each row in the Em_EEPROM and fills
1262:Generated_Source\PSoC6\pdl\middleware\em_eeprom/cy_em_eeprom.c **** * the Em_EEPROM headers checksum field with the calculated checksums.
1263:Generated_Source\PSoC6\pdl\middleware\em_eeprom/cy_em_eeprom.c **** *
1264:Generated_Source\PSoC6\pdl\middleware\em_eeprom/cy_em_eeprom.c **** * \param context
1265:Generated_Source\PSoC6\pdl\middleware\em_eeprom/cy_em_eeprom.c **** * The pointer to the EEPROM context structure.
1266:Generated_Source\PSoC6\pdl\middleware\em_eeprom/cy_em_eeprom.c **** *
1267:Generated_Source\PSoC6\pdl\middleware\em_eeprom/cy_em_eeprom.c **** * \return
1268:Generated_Source\PSoC6\pdl\middleware\em_eeprom/cy_em_eeprom.c **** * error / status code. See \ref cy_en_em_eeprom_status_t.
1269:Generated_Source\PSoC6\pdl\middleware\em_eeprom/cy_em_eeprom.c **** *
1270:Generated_Source\PSoC6\pdl\middleware\em_eeprom/cy_em_eeprom.c **** * \theory 
1271:Generated_Source\PSoC6\pdl\middleware\em_eeprom/cy_em_eeprom.c **** * In case if redundant copy option is used the Em_EEPROM would return bad 
1272:Generated_Source\PSoC6\pdl\middleware\em_eeprom/cy_em_eeprom.c **** * checksum while trying to read the EEPROM rows which were not yet written by 
1273:Generated_Source\PSoC6\pdl\middleware\em_eeprom/cy_em_eeprom.c **** * the user. E.g. any read after device reprogramming without previous Write() 
1274:Generated_Source\PSoC6\pdl\middleware\em_eeprom/cy_em_eeprom.c **** * operation to the EEPROM would fail. This would happen because the Em_EEPROM 
1275:Generated_Source\PSoC6\pdl\middleware\em_eeprom/cy_em_eeprom.c **** * headers checksum field values (which is zero at the moment) would not be 
1276:Generated_Source\PSoC6\pdl\middleware\em_eeprom/cy_em_eeprom.c **** * equal to the actual data checksum. This function allows to avoid read failure
1277:Generated_Source\PSoC6\pdl\middleware\em_eeprom/cy_em_eeprom.c **** * after device reprogramming. 
1278:Generated_Source\PSoC6\pdl\middleware\em_eeprom/cy_em_eeprom.c **** *
1279:Generated_Source\PSoC6\pdl\middleware\em_eeprom/cy_em_eeprom.c **** * \note
1280:Generated_Source\PSoC6\pdl\middleware\em_eeprom/cy_em_eeprom.c **** * This function uses a buffer of the flash row size to perform read
1281:Generated_Source\PSoC6\pdl\middleware\em_eeprom/cy_em_eeprom.c **** * operation. For the size of the row refer to the specific PSoC device
1282:Generated_Source\PSoC6\pdl\middleware\em_eeprom/cy_em_eeprom.c **** * datasheet.
1283:Generated_Source\PSoC6\pdl\middleware\em_eeprom/cy_em_eeprom.c **** *
1284:Generated_Source\PSoC6\pdl\middleware\em_eeprom/cy_em_eeprom.c **** *******************************************************************************/
1285:Generated_Source\PSoC6\pdl\middleware\em_eeprom/cy_em_eeprom.c **** static cy_en_em_eeprom_status_t FillChecksum(cy_stc_eeprom_context_t * context)
1286:Generated_Source\PSoC6\pdl\middleware\em_eeprom/cy_em_eeprom.c **** {
 673              		.loc 1 1286 0
 674              		.cfi_startproc
 675              		@ args = 0, pretend = 0, frame = 520
 676              		@ frame_needed = 0, uses_anonymous_args = 0
ARM GAS  C:\Users\eduar\AppData\Local\Temp\cctEoJXe.s 			page 36


 677              	.LVL81:
 678 0000 F0B5     		push	{r4, r5, r6, r7, lr}
 679              		.cfi_def_cfa_offset 20
 680              		.cfi_offset 4, -20
 681              		.cfi_offset 5, -16
 682              		.cfi_offset 6, -12
 683              		.cfi_offset 7, -8
 684              		.cfi_offset 14, -4
 685 0002 1E4C     		ldr	r4, .L60
 686 0004 A544     		add	sp, sp, r4
 687              		.cfi_def_cfa_offset 544
 688 0006 0400     		movs	r4, r0
1287:Generated_Source\PSoC6\pdl\middleware\em_eeprom/cy_em_eeprom.c ****     uint32_t i;
1288:Generated_Source\PSoC6\pdl\middleware\em_eeprom/cy_em_eeprom.c ****     uint32_t rdAddr;
1289:Generated_Source\PSoC6\pdl\middleware\em_eeprom/cy_em_eeprom.c ****     uint32_t writeRamBuffer[CY_EM_EEPROM_FLASH_SIZEOF_ROW / CY_EM_EEPROM_U32_DIV];
1290:Generated_Source\PSoC6\pdl\middleware\em_eeprom/cy_em_eeprom.c ****     uint32_t wrAddr = context->lastWrRowAddr;
 689              		.loc 1 1290 0
 690 0008 8368     		ldr	r3, [r0, #8]
 691 000a 0093     		str	r3, [sp]
1291:Generated_Source\PSoC6\pdl\middleware\em_eeprom/cy_em_eeprom.c ****     uint32_t tmpRowAddr;
1292:Generated_Source\PSoC6\pdl\middleware\em_eeprom/cy_em_eeprom.c ****     /* Get the sequence number (number of writes) */
1293:Generated_Source\PSoC6\pdl\middleware\em_eeprom/cy_em_eeprom.c ****     uint32_t seqNum = CY_EM_EEPROM_GET_SEQ_NUM(wrAddr);
 692              		.loc 1 1293 0
 693 000c 1D68     		ldr	r5, [r3]
 694              	.LVL82:
1294:Generated_Source\PSoC6\pdl\middleware\em_eeprom/cy_em_eeprom.c ****     cy_en_em_eeprom_status_t ret = CY_EM_EEPROM_BAD_PARAM;
 695              		.loc 1 1294 0
 696 000e 1C4E     		ldr	r6, .L60+4
1295:Generated_Source\PSoC6\pdl\middleware\em_eeprom/cy_em_eeprom.c **** 
1296:Generated_Source\PSoC6\pdl\middleware\em_eeprom/cy_em_eeprom.c ****     for(i = 0u; i < (context->numberOfRows * context->wearLevelingFactor); i++)
 697              		.loc 1 1296 0
 698 0010 0027     		movs	r7, #0
 699 0012 28E0     		b	.L58
 700              	.LVL83:
 701              	.L59:
1297:Generated_Source\PSoC6\pdl\middleware\em_eeprom/cy_em_eeprom.c ****     {
1298:Generated_Source\PSoC6\pdl\middleware\em_eeprom/cy_em_eeprom.c ****         /* Copy the EEPROM row from Flash to RAM */
1299:Generated_Source\PSoC6\pdl\middleware\em_eeprom/cy_em_eeprom.c ****         (void)memcpy((void *)&writeRamBuffer[0u], (void *)(wrAddr), CY_EM_EEPROM_FLASH_SIZEOF_ROW);
 702              		.loc 1 1299 0 discriminator 3
 703 0014 009E     		ldr	r6, [sp]
 704              	.LVL84:
 705 0016 8022     		movs	r2, #128
 706 0018 9200     		lsls	r2, r2, #2
 707 001a 3100     		movs	r1, r6
 708 001c 01A8     		add	r0, sp, #4
 709 001e FFF7FEFF 		bl	memcpy
 710              	.LVL85:
1300:Generated_Source\PSoC6\pdl\middleware\em_eeprom/cy_em_eeprom.c **** 
1301:Generated_Source\PSoC6\pdl\middleware\em_eeprom/cy_em_eeprom.c ****         /* Increment the sequence number */
1302:Generated_Source\PSoC6\pdl\middleware\em_eeprom/cy_em_eeprom.c ****         seqNum++;
 711              		.loc 1 1302 0 discriminator 3
 712 0022 0135     		adds	r5, r5, #1
 713              	.LVL86:
1303:Generated_Source\PSoC6\pdl\middleware\em_eeprom/cy_em_eeprom.c ****         writeRamBuffer[CY_EM_EEPROM_HEADER_SEQ_NUM_OFFSET_U32] = seqNum;
 714              		.loc 1 1303 0 discriminator 3
 715 0024 0195     		str	r5, [sp, #4]
1304:Generated_Source\PSoC6\pdl\middleware\em_eeprom/cy_em_eeprom.c **** 
ARM GAS  C:\Users\eduar\AppData\Local\Temp\cctEoJXe.s 			page 37


1305:Generated_Source\PSoC6\pdl\middleware\em_eeprom/cy_em_eeprom.c ****         /* Calculate and fill the checksum to the Em_EEPROM header */
1306:Generated_Source\PSoC6\pdl\middleware\em_eeprom/cy_em_eeprom.c ****         writeRamBuffer[CY_EM_EEPROM_HEADER_CHECKSUM_OFFSET_U32] = (uint32_t)
1307:Generated_Source\PSoC6\pdl\middleware\em_eeprom/cy_em_eeprom.c ****                     CalcChecksum((uint8_t *) &writeRamBuffer[CY_EM_EEPROM_EEPROM_DATA_OFFSET_U32],
 716              		.loc 1 1307 0 discriminator 3
 717 0026 8021     		movs	r1, #128
 718 0028 4900     		lsls	r1, r1, #1
 719 002a 41A8     		add	r0, sp, #260
 720 002c FFF7FEFF 		bl	CalcChecksum
 721              	.LVL87:
1306:Generated_Source\PSoC6\pdl\middleware\em_eeprom/cy_em_eeprom.c ****                     CalcChecksum((uint8_t *) &writeRamBuffer[CY_EM_EEPROM_EEPROM_DATA_OFFSET_U32],
 722              		.loc 1 1306 0 discriminator 3
 723 0030 FC23     		movs	r3, #252
 724 0032 6A46     		mov	r2, sp
 725 0034 0432     		adds	r2, r2, #4
 726 0036 D050     		str	r0, [r2, r3]
1308:Generated_Source\PSoC6\pdl\middleware\em_eeprom/cy_em_eeprom.c ****                                               CY_EM_EEPROM_EEPROM_DATA_LEN);
1309:Generated_Source\PSoC6\pdl\middleware\em_eeprom/cy_em_eeprom.c **** 
1310:Generated_Source\PSoC6\pdl\middleware\em_eeprom/cy_em_eeprom.c ****         /* Write the data to the specified flash row */
1311:Generated_Source\PSoC6\pdl\middleware\em_eeprom/cy_em_eeprom.c ****         ret = WriteRow(wrAddr, writeRamBuffer, context);
 727              		.loc 1 1311 0 discriminator 3
 728 0038 2200     		movs	r2, r4
 729 003a 01A9     		add	r1, sp, #4
 730 003c 3000     		movs	r0, r6
 731 003e FFF7FEFF 		bl	WriteRow
 732              	.LVL88:
1312:Generated_Source\PSoC6\pdl\middleware\em_eeprom/cy_em_eeprom.c **** 
1313:Generated_Source\PSoC6\pdl\middleware\em_eeprom/cy_em_eeprom.c ****         /* Update the row address to point to the relevant row in the redundant 
1314:Generated_Source\PSoC6\pdl\middleware\em_eeprom/cy_em_eeprom.c ****         * EEPROM's copy.
1315:Generated_Source\PSoC6\pdl\middleware\em_eeprom/cy_em_eeprom.c ****         */
1316:Generated_Source\PSoC6\pdl\middleware\em_eeprom/cy_em_eeprom.c ****         tmpRowAddr = (wrAddr - context->userFlashStartAddr) + context->wlEndAddr;
 733              		.loc 1 1316 0 discriminator 3
 734 0042 009B     		ldr	r3, [sp]
 735 0044 A269     		ldr	r2, [r4, #24]
 736 0046 981A     		subs	r0, r3, r2
 737 0048 2368     		ldr	r3, [r4]
 738 004a 9C46     		mov	ip, r3
 739 004c 6044     		add	r0, r0, ip
 740              	.LVL89:
1317:Generated_Source\PSoC6\pdl\middleware\em_eeprom/cy_em_eeprom.c **** 
1318:Generated_Source\PSoC6\pdl\middleware\em_eeprom/cy_em_eeprom.c ****         /* Write the data to the specified flash row */
1319:Generated_Source\PSoC6\pdl\middleware\em_eeprom/cy_em_eeprom.c ****         ret = WriteRow(tmpRowAddr, writeRamBuffer, context);
 741              		.loc 1 1319 0 discriminator 3
 742 004e 2200     		movs	r2, r4
 743 0050 01A9     		add	r1, sp, #4
 744 0052 FFF7FEFF 		bl	WriteRow
 745              	.LVL90:
 746 0056 0600     		movs	r6, r0
 747              	.LVL91:
1320:Generated_Source\PSoC6\pdl\middleware\em_eeprom/cy_em_eeprom.c **** 
1321:Generated_Source\PSoC6\pdl\middleware\em_eeprom/cy_em_eeprom.c ****         /* Get the address of the next row to be written. 
1322:Generated_Source\PSoC6\pdl\middleware\em_eeprom/cy_em_eeprom.c ****         * "rdAddr" is not used in this function but provided to prevent NULL 
1323:Generated_Source\PSoC6\pdl\middleware\em_eeprom/cy_em_eeprom.c ****         * pointer exception in GetNextRowToWrite().
1324:Generated_Source\PSoC6\pdl\middleware\em_eeprom/cy_em_eeprom.c ****         */
1325:Generated_Source\PSoC6\pdl\middleware\em_eeprom/cy_em_eeprom.c ****         GetNextRowToWrite(seqNum, &wrAddr, &rdAddr, context);
 748              		.loc 1 1325 0 discriminator 3
 749 0058 2300     		movs	r3, r4
 750 005a 81AA     		add	r2, sp, #516
ARM GAS  C:\Users\eduar\AppData\Local\Temp\cctEoJXe.s 			page 38


 751 005c 6946     		mov	r1, sp
 752 005e 2800     		movs	r0, r5
 753              	.LVL92:
 754 0060 FFF7FEFF 		bl	GetNextRowToWrite
 755              	.LVL93:
1296:Generated_Source\PSoC6\pdl\middleware\em_eeprom/cy_em_eeprom.c ****     {
 756              		.loc 1 1296 0 discriminator 3
 757 0064 0137     		adds	r7, r7, #1
 758              	.LVL94:
 759              	.L58:
1296:Generated_Source\PSoC6\pdl\middleware\em_eeprom/cy_em_eeprom.c ****     {
 760              		.loc 1 1296 0 is_stmt 0 discriminator 1
 761 0066 2369     		ldr	r3, [r4, #16]
 762 0068 6268     		ldr	r2, [r4, #4]
 763 006a 5343     		muls	r3, r2
 764 006c 9F42     		cmp	r7, r3
 765 006e D1D3     		bcc	.L59
1326:Generated_Source\PSoC6\pdl\middleware\em_eeprom/cy_em_eeprom.c ****     }
1327:Generated_Source\PSoC6\pdl\middleware\em_eeprom/cy_em_eeprom.c ****     
1328:Generated_Source\PSoC6\pdl\middleware\em_eeprom/cy_em_eeprom.c ****     return(ret);
1329:Generated_Source\PSoC6\pdl\middleware\em_eeprom/cy_em_eeprom.c **** }
 766              		.loc 1 1329 0 is_stmt 1
 767 0070 3000     		movs	r0, r6
 768 0072 8323     		movs	r3, #131
 769 0074 9B00     		lsls	r3, r3, #2
 770 0076 9D44     		add	sp, sp, r3
 771              		@ sp needed
 772              	.LVL95:
 773              	.LVL96:
 774              	.LVL97:
 775              	.LVL98:
 776 0078 F0BD     		pop	{r4, r5, r6, r7, pc}
 777              	.L61:
 778 007a C046     		.align	2
 779              	.L60:
 780 007c F4FDFFFF 		.word	-524
 781 0080 01006E00 		.word	7208961
 782              		.cfi_endproc
 783              	.LFE59:
 784              		.size	FillChecksum, .-FillChecksum
 785              		.section	.text.CheckCrcAndCopy,"ax",%progbits
 786              		.align	2
 787              		.code	16
 788              		.thumb_func
 789              		.type	CheckCrcAndCopy, %function
 790              	CheckCrcAndCopy:
 791              	.LFB57:
1135:Generated_Source\PSoC6\pdl\middleware\em_eeprom/cy_em_eeprom.c ****     cy_en_em_eeprom_status_t ret;
 792              		.loc 1 1135 0
 793              		.cfi_startproc
 794              		@ args = 4, pretend = 0, frame = 528
 795              		@ frame_needed = 0, uses_anonymous_args = 0
 796              	.LVL99:
 797 0000 F0B5     		push	{r4, r5, r6, r7, lr}
 798              		.cfi_def_cfa_offset 20
 799              		.cfi_offset 4, -20
 800              		.cfi_offset 5, -16
ARM GAS  C:\Users\eduar\AppData\Local\Temp\cctEoJXe.s 			page 39


 801              		.cfi_offset 6, -12
 802              		.cfi_offset 7, -8
 803              		.cfi_offset 14, -4
 804 0002 234C     		ldr	r4, .L66
 805 0004 A544     		add	sp, sp, r4
 806              		.cfi_def_cfa_offset 552
 807 0006 0600     		movs	r6, r0
 808 0008 0191     		str	r1, [sp, #4]
 809 000a 0292     		str	r2, [sp, #8]
 810 000c 0393     		str	r3, [sp, #12]
 811 000e 8A9F     		ldr	r7, [sp, #552]
1140:Generated_Source\PSoC6\pdl\middleware\em_eeprom/cy_em_eeprom.c **** 
 812              		.loc 1 1140 0
 813 0010 BB69     		ldr	r3, [r7, #24]
 814              	.LVL100:
 815 0012 C41A     		subs	r4, r0, r3
 816 0014 3B68     		ldr	r3, [r7]
 817 0016 9C46     		mov	ip, r3
 818 0018 6444     		add	r4, r4, ip
 819              	.LVL101:
1143:Generated_Source\PSoC6\pdl\middleware\em_eeprom/cy_em_eeprom.c ****         ((uint32_t) CalcChecksum((uint8_t *)(startAddr + CY_EM_EEPROM_EEPROM_DATA_OFFSET),
 820              		.loc 1 1143 0
 821 001a 0300     		movs	r3, r0
 822 001c FC33     		adds	r3, r3, #252
 823 001e 1D68     		ldr	r5, [r3]
1144:Generated_Source\PSoC6\pdl\middleware\em_eeprom/cy_em_eeprom.c ****             CY_EM_EEPROM_EEPROM_DATA_LEN)))
 824              		.loc 1 1144 0
 825 0020 0130     		adds	r0, r0, #1
 826              	.LVL102:
 827 0022 FF30     		adds	r0, r0, #255
 828 0024 8021     		movs	r1, #128
 829              	.LVL103:
 830 0026 4900     		lsls	r1, r1, #1
 831 0028 FFF7FEFF 		bl	CalcChecksum
 832              	.LVL104:
1143:Generated_Source\PSoC6\pdl\middleware\em_eeprom/cy_em_eeprom.c ****         ((uint32_t) CalcChecksum((uint8_t *)(startAddr + CY_EM_EEPROM_EEPROM_DATA_OFFSET),
 833              		.loc 1 1143 0
 834 002c 8542     		cmp	r5, r0
 835 002e 07D1     		bne	.L63
1147:Generated_Source\PSoC6\pdl\middleware\em_eeprom/cy_em_eeprom.c **** 
 836              		.loc 1 1147 0
 837 0030 029B     		ldr	r3, [sp, #8]
 838 0032 F118     		adds	r1, r6, r3
 839 0034 039A     		ldr	r2, [sp, #12]
 840 0036 0198     		ldr	r0, [sp, #4]
 841 0038 FFF7FEFF 		bl	memcpy
 842              	.LVL105:
1149:Generated_Source\PSoC6\pdl\middleware\em_eeprom/cy_em_eeprom.c ****     }
 843              		.loc 1 1149 0
 844 003c 0024     		movs	r4, #0
 845              	.LVL106:
 846 003e 22E0     		b	.L64
 847              	.LVL107:
 848              	.L63:
1152:Generated_Source\PSoC6\pdl\middleware\em_eeprom/cy_em_eeprom.c ****             ((uint32_t) CalcChecksum((uint8_t *)(rcStartRowAddr + CY_EM_EEPROM_EEPROM_DATA_OFFSET),
 849              		.loc 1 1152 0
 850 0040 2300     		movs	r3, r4
ARM GAS  C:\Users\eduar\AppData\Local\Temp\cctEoJXe.s 			page 40


 851 0042 FC33     		adds	r3, r3, #252
 852 0044 1D68     		ldr	r5, [r3]
1153:Generated_Source\PSoC6\pdl\middleware\em_eeprom/cy_em_eeprom.c ****                 CY_EM_EEPROM_EEPROM_DATA_LEN)))
 853              		.loc 1 1153 0
 854 0046 601C     		adds	r0, r4, #1
 855 0048 FF30     		adds	r0, r0, #255
 856 004a 8021     		movs	r1, #128
 857 004c 4900     		lsls	r1, r1, #1
 858 004e FFF7FEFF 		bl	CalcChecksum
 859              	.LVL108:
1152:Generated_Source\PSoC6\pdl\middleware\em_eeprom/cy_em_eeprom.c ****             ((uint32_t) CalcChecksum((uint8_t *)(rcStartRowAddr + CY_EM_EEPROM_EEPROM_DATA_OFFSET),
 860              		.loc 1 1152 0
 861 0052 8542     		cmp	r5, r0
 862 0054 16D1     		bne	.L65
1160:Generated_Source\PSoC6\pdl\middleware\em_eeprom/cy_em_eeprom.c **** 
 863              		.loc 1 1160 0
 864 0056 8022     		movs	r2, #128
 865 0058 9200     		lsls	r2, r2, #2
 866 005a 2100     		movs	r1, r4
 867 005c 04A8     		add	r0, sp, #16
 868 005e FFF7FEFF 		bl	memcpy
 869              	.LVL109:
1163:Generated_Source\PSoC6\pdl\middleware\em_eeprom/cy_em_eeprom.c **** 
 870              		.loc 1 1163 0
 871 0062 3A00     		movs	r2, r7
 872 0064 04A9     		add	r1, sp, #16
 873 0066 3000     		movs	r0, r6
 874 0068 FFF7FEFF 		bl	WriteRow
 875              	.LVL110:
 876 006c 041E     		subs	r4, r0, #0
 877              	.LVL111:
1165:Generated_Source\PSoC6\pdl\middleware\em_eeprom/cy_em_eeprom.c ****         {
 878              		.loc 1 1165 0
 879 006e 0AD1     		bne	.L64
1167:Generated_Source\PSoC6\pdl\middleware\em_eeprom/cy_em_eeprom.c ****         }
 880              		.loc 1 1167 0
 881 0070 029B     		ldr	r3, [sp, #8]
 882 0072 9900     		lsls	r1, r3, #2
 883 0074 04AB     		add	r3, sp, #16
 884 0076 9C46     		mov	ip, r3
 885 0078 6144     		add	r1, r1, ip
 886 007a 039A     		ldr	r2, [sp, #12]
 887 007c 0198     		ldr	r0, [sp, #4]
 888              	.LVL112:
 889 007e FFF7FEFF 		bl	memcpy
 890              	.LVL113:
 891 0082 00E0     		b	.L64
 892              	.LVL114:
 893              	.L65:
1172:Generated_Source\PSoC6\pdl\middleware\em_eeprom/cy_em_eeprom.c ****     }
 894              		.loc 1 1172 0
 895 0084 034C     		ldr	r4, .L66+4
 896              	.LVL115:
 897              	.L64:
1176:Generated_Source\PSoC6\pdl\middleware\em_eeprom/cy_em_eeprom.c **** 
 898              		.loc 1 1176 0
 899 0086 2000     		movs	r0, r4
ARM GAS  C:\Users\eduar\AppData\Local\Temp\cctEoJXe.s 			page 41


 900 0088 8523     		movs	r3, #133
 901 008a 9B00     		lsls	r3, r3, #2
 902 008c 9D44     		add	sp, sp, r3
 903              		@ sp needed
 904              	.LVL116:
 905              	.LVL117:
 906 008e F0BD     		pop	{r4, r5, r6, r7, pc}
 907              	.L67:
 908              		.align	2
 909              	.L66:
 910 0090 ECFDFFFF 		.word	-532
 911 0094 02006E00 		.word	7208962
 912              		.cfi_endproc
 913              	.LFE57:
 914              		.size	CheckCrcAndCopy, .-CheckCrcAndCopy
 915              		.section	.text.EraseRow,"ax",%progbits
 916              		.align	2
 917              		.code	16
 918              		.thumb_func
 919              		.type	EraseRow, %function
 920              	EraseRow:
 921              	.LFB56:
1034:Generated_Source\PSoC6\pdl\middleware\em_eeprom/cy_em_eeprom.c ****     uint32_t emEepromRowAddr = rowAddr;
 922              		.loc 1 1034 0
 923              		.cfi_startproc
 924              		@ args = 0, pretend = 0, frame = 0
 925              		@ frame_needed = 0, uses_anonymous_args = 0
 926              	.LVL118:
 927 0000 F0B5     		push	{r4, r5, r6, r7, lr}
 928              		.cfi_def_cfa_offset 20
 929              		.cfi_offset 4, -20
 930              		.cfi_offset 5, -16
 931              		.cfi_offset 6, -12
 932              		.cfi_offset 7, -8
 933              		.cfi_offset 14, -4
 934 0002 4746     		mov	r7, r8
 935 0004 80B4     		push	{r7}
 936              		.cfi_def_cfa_offset 24
 937              		.cfi_offset 8, -24
 938 0006 0500     		movs	r5, r0
 939 0008 1600     		movs	r6, r2
 940              	.LVL119:
1041:Generated_Source\PSoC6\pdl\middleware\em_eeprom/cy_em_eeprom.c ****     {
 941              		.loc 1 1041 0
 942 000a 137D     		ldrb	r3, [r2, #20]
 943 000c 002B     		cmp	r3, #0
 944 000e 01D1     		bne	.L76
1037:Generated_Source\PSoC6\pdl\middleware\em_eeprom/cy_em_eeprom.c **** 
 945              		.loc 1 1037 0
 946 0010 0127     		movs	r7, #1
 947 0012 00E0     		b	.L69
 948              	.L76:
1043:Generated_Source\PSoC6\pdl\middleware\em_eeprom/cy_em_eeprom.c ****     }
 949              		.loc 1 1043 0
 950 0014 0227     		movs	r7, #2
 951              	.L69:
 952 0016 1A4B     		ldr	r3, .L79
ARM GAS  C:\Users\eduar\AppData\Local\Temp\cctEoJXe.s 			page 42


 953 0018 9846     		mov	r8, r3
 954              	.LVL120:
 955              	.L75:
1048:Generated_Source\PSoC6\pdl\middleware\em_eeprom/cy_em_eeprom.c ****         {
 956              		.loc 1 1048 0
 957 001a 737D     		ldrb	r3, [r6, #21]
 958 001c 002B     		cmp	r3, #0
 959 001e 05D0     		beq	.L70
1051:Generated_Source\PSoC6\pdl\middleware\em_eeprom/cy_em_eeprom.c ****             {
 960              		.loc 1 1051 0
 961 0020 2800     		movs	r0, r5
 962 0022 FFF7FEFF 		bl	Cy_Flash_EraseRow
 963              	.LVL121:
 964 0026 0028     		cmp	r0, #0
 965 0028 15D0     		beq	.L77
 966 002a 19E0     		b	.L71
 967              	.L70:
1059:Generated_Source\PSoC6\pdl\middleware\em_eeprom/cy_em_eeprom.c ****             {
 968              		.loc 1 1059 0
 969 002c 2800     		movs	r0, r5
 970 002e FFF7FEFF 		bl	Cy_Flash_StartErase
 971              	.LVL122:
 972 0032 144B     		ldr	r3, .L79+4
 973 0034 9842     		cmp	r0, r3
 974 0036 13D1     		bne	.L71
 975 0038 3224     		movs	r4, #50
 976              	.L73:
 977              	.LVL123:
 978              	.LBB4:
1066:Generated_Source\PSoC6\pdl\middleware\em_eeprom/cy_em_eeprom.c ****                     rc = Cy_Flash_IsWriteComplete();     /* Check if erase completed */
 979              		.loc 1 1066 0 discriminator 2
 980 003a 0120     		movs	r0, #1
 981 003c FFF7FEFF 		bl	Cy_SysLib_Delay
 982              	.LVL124:
1067:Generated_Source\PSoC6\pdl\middleware\em_eeprom/cy_em_eeprom.c ****                     countMs--;
 983              		.loc 1 1067 0 discriminator 2
 984 0040 FFF7FEFF 		bl	Cy_Flash_IsOperationComplete
 985              	.LVL125:
1068:Generated_Source\PSoC6\pdl\middleware\em_eeprom/cy_em_eeprom.c ****                 }
 986              		.loc 1 1068 0 discriminator 2
 987 0044 013C     		subs	r4, r4, #1
 988              	.LVL126:
1070:Generated_Source\PSoC6\pdl\middleware\em_eeprom/cy_em_eeprom.c **** 
 989              		.loc 1 1070 0 discriminator 2
 990 0046 104B     		ldr	r3, .L79+8
 991 0048 9842     		cmp	r0, r3
 992 004a 01D1     		bne	.L72
1070:Generated_Source\PSoC6\pdl\middleware\em_eeprom/cy_em_eeprom.c **** 
 993              		.loc 1 1070 0 is_stmt 0 discriminator 1
 994 004c 002C     		cmp	r4, #0
 995 004e F4D1     		bne	.L73
 996              	.L72:
1072:Generated_Source\PSoC6\pdl\middleware\em_eeprom/cy_em_eeprom.c ****                 {
 997              		.loc 1 1072 0 is_stmt 1
 998 0050 0028     		cmp	r0, #0
 999 0052 03D0     		beq	.L78
 1000 0054 04E0     		b	.L71
ARM GAS  C:\Users\eduar\AppData\Local\Temp\cctEoJXe.s 			page 43


 1001              	.LVL127:
 1002              	.L77:
 1003              	.LBE4:
1053:Generated_Source\PSoC6\pdl\middleware\em_eeprom/cy_em_eeprom.c ****             }
 1004              		.loc 1 1053 0
 1005 0056 0023     		movs	r3, #0
 1006 0058 9846     		mov	r8, r3
 1007              	.LVL128:
 1008 005a 01E0     		b	.L71
 1009              	.LVL129:
 1010              	.L78:
 1011              	.LBB5:
1074:Generated_Source\PSoC6\pdl\middleware\em_eeprom/cy_em_eeprom.c ****                 }
 1012              		.loc 1 1074 0
 1013 005c 0023     		movs	r3, #0
 1014 005e 9846     		mov	r8, r3
 1015              	.LVL130:
 1016              	.L71:
 1017              	.LBE5:
1079:Generated_Source\PSoC6\pdl\middleware\em_eeprom/cy_em_eeprom.c ****         {
 1018              		.loc 1 1079 0
 1019 0060 4346     		mov	r3, r8
 1020 0062 002B     		cmp	r3, #0
 1021 0064 07D1     		bne	.L74
1082:Generated_Source\PSoC6\pdl\middleware\em_eeprom/cy_em_eeprom.c ****         }
 1022              		.loc 1 1082 0
 1023 0066 B369     		ldr	r3, [r6, #24]
 1024 0068 ED1A     		subs	r5, r5, r3
 1025              	.LVL131:
 1026 006a 3368     		ldr	r3, [r6]
 1027 006c 9C46     		mov	ip, r3
 1028 006e 6544     		add	r5, r5, ip
 1029              	.LVL132:
1088:Generated_Source\PSoC6\pdl\middleware\em_eeprom/cy_em_eeprom.c ****     } while (0u != i);
 1030              		.loc 1 1088 0
 1031 0070 013F     		subs	r7, r7, #1
 1032              	.LVL133:
1089:Generated_Source\PSoC6\pdl\middleware\em_eeprom/cy_em_eeprom.c **** 
 1033              		.loc 1 1089 0
 1034 0072 002F     		cmp	r7, #0
 1035 0074 D1D1     		bne	.L75
 1036              	.L74:
1092:Generated_Source\PSoC6\pdl\middleware\em_eeprom/cy_em_eeprom.c **** 
 1037              		.loc 1 1092 0
 1038 0076 4046     		mov	r0, r8
 1039              		@ sp needed
 1040              	.LVL134:
 1041              	.LVL135:
 1042              	.LVL136:
 1043              	.LVL137:
 1044 0078 04BC     		pop	{r2}
 1045 007a 9046     		mov	r8, r2
 1046 007c F0BD     		pop	{r4, r5, r6, r7, pc}
 1047              	.L80:
 1048 007e C046     		.align	2
 1049              	.L79:
 1050 0080 04006E00 		.word	7208964
ARM GAS  C:\Users\eduar\AppData\Local\Temp\cctEoJXe.s 			page 44


 1051 0084 01005000 		.word	5242881
 1052 0088 02005000 		.word	5242882
 1053              		.cfi_endproc
 1054              	.LFE56:
 1055              		.size	EraseRow, .-EraseRow
 1056              		.section	.text.Cy_Em_EEPROM_Init,"ax",%progbits
 1057              		.align	2
 1058              		.global	Cy_Em_EEPROM_Init
 1059              		.code	16
 1060              		.thumb_func
 1061              		.type	Cy_Em_EEPROM_Init, %function
 1062              	Cy_Em_EEPROM_Init:
 1063              	.LFB45:
  91:Generated_Source\PSoC6\pdl\middleware\em_eeprom/cy_em_eeprom.c ****     cy_en_em_eeprom_status_t ret = CY_EM_EEPROM_BAD_PARAM;
 1064              		.loc 1 91 0
 1065              		.cfi_startproc
 1066              		@ args = 0, pretend = 0, frame = 0
 1067              		@ frame_needed = 0, uses_anonymous_args = 0
 1068              	.LVL138:
 1069 0000 F8B5     		push	{r3, r4, r5, r6, r7, lr}
 1070              		.cfi_def_cfa_offset 24
 1071              		.cfi_offset 3, -24
 1072              		.cfi_offset 4, -20
 1073              		.cfi_offset 5, -16
 1074              		.cfi_offset 6, -12
 1075              		.cfi_offset 7, -8
 1076              		.cfi_offset 14, -4
 1077 0002 0400     		movs	r4, r0
 1078 0004 0D1E     		subs	r5, r1, #0
 1079              	.LVL139:
  94:Generated_Source\PSoC6\pdl\middleware\em_eeprom/cy_em_eeprom.c ****         (config->wearLevelingFactor <= CY_EM_EEPROM_MAX_WEAR_LEVELING_FACTOR) && (config->eepromSiz
 1080              		.loc 1 94 0
 1081 0006 3BD0     		beq	.L84
  94:Generated_Source\PSoC6\pdl\middleware\em_eeprom/cy_em_eeprom.c ****         (config->wearLevelingFactor <= CY_EM_EEPROM_MAX_WEAR_LEVELING_FACTOR) && (config->eepromSiz
 1082              		.loc 1 94 0 is_stmt 0 discriminator 1
 1083 0008 0028     		cmp	r0, #0
 1084 000a 3BD0     		beq	.L85
  94:Generated_Source\PSoC6\pdl\middleware\em_eeprom/cy_em_eeprom.c ****         (config->wearLevelingFactor <= CY_EM_EEPROM_MAX_WEAR_LEVELING_FACTOR) && (config->eepromSiz
 1085              		.loc 1 94 0 discriminator 2
 1086 000c C368     		ldr	r3, [r0, #12]
 1087 000e 002B     		cmp	r3, #0
 1088 0010 3AD0     		beq	.L86
  94:Generated_Source\PSoC6\pdl\middleware\em_eeprom/cy_em_eeprom.c ****         (config->wearLevelingFactor <= CY_EM_EEPROM_MAX_WEAR_LEVELING_FACTOR) && (config->eepromSiz
 1089              		.loc 1 94 0 discriminator 3
 1090 0012 4368     		ldr	r3, [r0, #4]
 1091 0014 0A2B     		cmp	r3, #10
 1092 0016 39D8     		bhi	.L87
  95:Generated_Source\PSoC6\pdl\middleware\em_eeprom/cy_em_eeprom.c ****     {
 1093              		.loc 1 95 0 is_stmt 1
 1094 0018 0768     		ldr	r7, [r0]
 1095 001a 002F     		cmp	r7, #0
 1096 001c 38D0     		beq	.L88
  97:Generated_Source\PSoC6\pdl\middleware\em_eeprom/cy_em_eeprom.c **** 
 1097              		.loc 1 97 0
 1098 001e FFF7FEFF 		bl	CheckRanges
 1099              	.LVL140:
 1100 0022 061E     		subs	r6, r0, #0
ARM GAS  C:\Users\eduar\AppData\Local\Temp\cctEoJXe.s 			page 45


 1101              	.LVL141:
  99:Generated_Source\PSoC6\pdl\middleware\em_eeprom/cy_em_eeprom.c ****         {
 1102              		.loc 1 99 0
 1103 0024 35D1     		bne	.L82
 102:Generated_Source\PSoC6\pdl\middleware\em_eeprom/cy_em_eeprom.c ****             context->wearLevelingFactor = config->wearLevelingFactor;
 1104              		.loc 1 102 0
 1105 0026 EF60     		str	r7, [r5, #12]
 103:Generated_Source\PSoC6\pdl\middleware\em_eeprom/cy_em_eeprom.c ****             context->redundantCopy = config->redundantCopy;
 1106              		.loc 1 103 0
 1107 0028 6368     		ldr	r3, [r4, #4]
 1108 002a 2B61     		str	r3, [r5, #16]
 104:Generated_Source\PSoC6\pdl\middleware\em_eeprom/cy_em_eeprom.c ****             context->blockingWrite = config->blockingWrite;
 1109              		.loc 1 104 0
 1110 002c 237A     		ldrb	r3, [r4, #8]
 1111 002e 2B75     		strb	r3, [r5, #20]
 105:Generated_Source\PSoC6\pdl\middleware\em_eeprom/cy_em_eeprom.c ****             context->userFlashStartAddr = config->userFlashStartAddr;
 1112              		.loc 1 105 0
 1113 0030 637A     		ldrb	r3, [r4, #9]
 1114 0032 6B75     		strb	r3, [r5, #21]
 106:Generated_Source\PSoC6\pdl\middleware\em_eeprom/cy_em_eeprom.c ****             /* Store frequently used data for internal use */
 1115              		.loc 1 106 0
 1116 0034 E368     		ldr	r3, [r4, #12]
 1117 0036 AB61     		str	r3, [r5, #24]
 108:Generated_Source\PSoC6\pdl\middleware\em_eeprom/cy_em_eeprom.c ****             context->wlEndAddr = ((CY_EM_EEPROM_GET_EEPROM_SIZE(context->numberOfRows) * config->we
 1118              		.loc 1 108 0
 1119 0038 2268     		ldr	r2, [r4]
 1120 003a 110A     		lsrs	r1, r2, #8
 1121 003c FF23     		movs	r3, #255
 1122 003e 1340     		ands	r3, r2
 1123 0040 00D0     		beq	.L83
 1124 0042 0123     		movs	r3, #1
 1125              	.L83:
 108:Generated_Source\PSoC6\pdl\middleware\em_eeprom/cy_em_eeprom.c ****             context->wlEndAddr = ((CY_EM_EEPROM_GET_EEPROM_SIZE(context->numberOfRows) * config->we
 1126              		.loc 1 108 0 is_stmt 0 discriminator 4
 1127 0044 5B18     		adds	r3, r3, r1
 1128 0046 6B60     		str	r3, [r5, #4]
 109:Generated_Source\PSoC6\pdl\middleware\em_eeprom/cy_em_eeprom.c ****                     config->userFlashStartAddr);
 1129              		.loc 1 109 0 is_stmt 1 discriminator 4
 1130 0048 6268     		ldr	r2, [r4, #4]
 1131 004a 5343     		muls	r3, r2
 1132 004c 5B02     		lsls	r3, r3, #9
 110:Generated_Source\PSoC6\pdl\middleware\em_eeprom/cy_em_eeprom.c ****             /* Find last written EEPROM row and store it for quick access */
 1133              		.loc 1 110 0 discriminator 4
 1134 004e E268     		ldr	r2, [r4, #12]
 109:Generated_Source\PSoC6\pdl\middleware\em_eeprom/cy_em_eeprom.c ****                     config->userFlashStartAddr);
 1135              		.loc 1 109 0 discriminator 4
 1136 0050 9B18     		adds	r3, r3, r2
 1137 0052 2B60     		str	r3, [r5]
 112:Generated_Source\PSoC6\pdl\middleware\em_eeprom/cy_em_eeprom.c **** 
 1138              		.loc 1 112 0 discriminator 4
 1139 0054 2C00     		movs	r4, r5
 1140              	.LVL142:
 1141 0056 0834     		adds	r4, r4, #8
 1142 0058 2900     		movs	r1, r5
 1143 005a 2000     		movs	r0, r4
 1144              	.LVL143:
 1145 005c FFF7FEFF 		bl	FindLastWrittenRow
ARM GAS  C:\Users\eduar\AppData\Local\Temp\cctEoJXe.s 			page 46


 1146              	.LVL144:
 114:Generated_Source\PSoC6\pdl\middleware\em_eeprom/cy_em_eeprom.c ****             {
 1147              		.loc 1 114 0 discriminator 4
 1148 0060 AB68     		ldr	r3, [r5, #8]
 1149 0062 1B68     		ldr	r3, [r3]
 1150 0064 002B     		cmp	r3, #0
 1151 0066 14D1     		bne	.L82
 114:Generated_Source\PSoC6\pdl\middleware\em_eeprom/cy_em_eeprom.c ****             {
 1152              		.loc 1 114 0 is_stmt 0 discriminator 1
 1153 0068 2B7D     		ldrb	r3, [r5, #20]
 1154 006a 002B     		cmp	r3, #0
 1155 006c 11D0     		beq	.L82
 119:Generated_Source\PSoC6\pdl\middleware\em_eeprom/cy_em_eeprom.c ****                 
 1156              		.loc 1 119 0 is_stmt 1
 1157 006e 2800     		movs	r0, r5
 1158 0070 FFF7FEFF 		bl	FillChecksum
 1159              	.LVL145:
 1160 0074 0600     		movs	r6, r0
 1161              	.LVL146:
 122:Generated_Source\PSoC6\pdl\middleware\em_eeprom/cy_em_eeprom.c ****             }
 1162              		.loc 1 122 0
 1163 0076 2900     		movs	r1, r5
 1164 0078 2000     		movs	r0, r4
 1165              	.LVL147:
 1166 007a FFF7FEFF 		bl	FindLastWrittenRow
 1167              	.LVL148:
 1168 007e 08E0     		b	.L82
 1169              	.LVL149:
 1170              	.L84:
  92:Generated_Source\PSoC6\pdl\middleware\em_eeprom/cy_em_eeprom.c **** 
 1171              		.loc 1 92 0
 1172 0080 054E     		ldr	r6, .L89
 1173 0082 06E0     		b	.L82
 1174              	.L85:
 1175 0084 044E     		ldr	r6, .L89
 1176 0086 04E0     		b	.L82
 1177              	.L86:
 1178 0088 034E     		ldr	r6, .L89
 1179 008a 02E0     		b	.L82
 1180              	.L87:
 1181 008c 024E     		ldr	r6, .L89
 1182 008e 00E0     		b	.L82
 1183              	.L88:
 1184 0090 014E     		ldr	r6, .L89
 1185              	.LVL150:
 1186              	.L82:
 128:Generated_Source\PSoC6\pdl\middleware\em_eeprom/cy_em_eeprom.c **** 
 1187              		.loc 1 128 0
 1188 0092 3000     		movs	r0, r6
 1189              		@ sp needed
 1190              	.LVL151:
 1191              	.LVL152:
 1192 0094 F8BD     		pop	{r3, r4, r5, r6, r7, pc}
 1193              	.L90:
 1194 0096 C046     		.align	2
 1195              	.L89:
 1196 0098 01006E00 		.word	7208961
ARM GAS  C:\Users\eduar\AppData\Local\Temp\cctEoJXe.s 			page 47


 1197              		.cfi_endproc
 1198              	.LFE45:
 1199              		.size	Cy_Em_EEPROM_Init, .-Cy_Em_EEPROM_Init
 1200              		.global	__aeabi_uidiv
 1201              		.section	.text.Cy_Em_EEPROM_Read,"ax",%progbits
 1202              		.align	2
 1203              		.global	Cy_Em_EEPROM_Read
 1204              		.code	16
 1205              		.thumb_func
 1206              		.type	Cy_Em_EEPROM_Read, %function
 1207              	Cy_Em_EEPROM_Read:
 1208              	.LFB46:
 168:Generated_Source\PSoC6\pdl\middleware\em_eeprom/cy_em_eeprom.c ****     cy_en_em_eeprom_status_t ret = CY_EM_EEPROM_BAD_PARAM;
 1209              		.loc 1 168 0
 1210              		.cfi_startproc
 1211              		@ args = 0, pretend = 0, frame = 32
 1212              		@ frame_needed = 0, uses_anonymous_args = 0
 1213              	.LVL153:
 1214 0000 F0B5     		push	{r4, r5, r6, r7, lr}
 1215              		.cfi_def_cfa_offset 20
 1216              		.cfi_offset 4, -20
 1217              		.cfi_offset 5, -16
 1218              		.cfi_offset 6, -12
 1219              		.cfi_offset 7, -8
 1220              		.cfi_offset 14, -4
 1221 0002 5F46     		mov	r7, fp
 1222 0004 5646     		mov	r6, r10
 1223 0006 4D46     		mov	r5, r9
 1224 0008 4446     		mov	r4, r8
 1225 000a F0B4     		push	{r4, r5, r6, r7}
 1226              		.cfi_def_cfa_offset 36
 1227              		.cfi_offset 8, -36
 1228              		.cfi_offset 9, -32
 1229              		.cfi_offset 10, -28
 1230              		.cfi_offset 11, -24
 1231 000c 8BB0     		sub	sp, sp, #44
 1232              		.cfi_def_cfa_offset 80
 1233 000e 8146     		mov	r9, r0
 1234 0010 0C00     		movs	r4, r1
 1235 0012 9046     		mov	r8, r2
 1236 0014 1E00     		movs	r6, r3
 1237              	.LVL154:
 178:Generated_Source\PSoC6\pdl\middleware\em_eeprom/cy_em_eeprom.c **** 
 1238              		.loc 1 178 0
 1239 0016 0591     		str	r1, [sp, #20]
 1240              	.LVL155:
 181:Generated_Source\PSoC6\pdl\middleware\em_eeprom/cy_em_eeprom.c ****     {
 1241              		.loc 1 181 0
 1242 0018 131E     		subs	r3, r2, #0
 1243              	.LVL156:
 1244 001a 00D1     		bne	.LCB1314
 1245 001c FDE0     		b	.L116	@long jump
 1246              	.LCB1314:
 181:Generated_Source\PSoC6\pdl\middleware\em_eeprom/cy_em_eeprom.c ****     {
 1247              		.loc 1 181 0 is_stmt 0 discriminator 1
 1248 001e 4B44     		add	r3, r3, r9
 1249 0020 0793     		str	r3, [sp, #28]
ARM GAS  C:\Users\eduar\AppData\Local\Temp\cctEoJXe.s 			page 48


 1250 0022 F268     		ldr	r2, [r6, #12]
 1251              	.LVL157:
 1252 0024 9342     		cmp	r3, r2
 1253 0026 00D9     		bls	.LCB1321
 1254 0028 FAE0     		b	.L117	@long jump
 1255              	.LCB1321:
 181:Generated_Source\PSoC6\pdl\middleware\em_eeprom/cy_em_eeprom.c ****     {
 1256              		.loc 1 181 0 discriminator 2
 1257 002a 0029     		cmp	r1, #0
 1258 002c 00D1     		bne	.LCB1323
 1259 002e FAE0     		b	.L118	@long jump
 1260              	.LCB1323:
 1261              	.LVL158:
 1262              	.LBB6:
 186:Generated_Source\PSoC6\pdl\middleware\em_eeprom/cy_em_eeprom.c ****         uint32_t updateAddrFlag = 0u;
 1263              		.loc 1 186 0 is_stmt 1
 1264 0030 B368     		ldr	r3, [r6, #8]
 1265 0032 9A46     		mov	r10, r3
 1266 0034 1B68     		ldr	r3, [r3]
 1267 0036 0993     		str	r3, [sp, #36]
 1268              	.LVL159:
 192:Generated_Source\PSoC6\pdl\middleware\em_eeprom/cy_em_eeprom.c ****                               (rdAddr / CY_EM_EEPROM_EEPROM_DATA_LEN)) + 1u;
 1269              		.loc 1 192 0
 1270 0038 079B     		ldr	r3, [sp, #28]
 1271              	.LVL160:
 1272 003a 013B     		subs	r3, r3, #1
 1273 003c 1B0A     		lsrs	r3, r3, #8
 193:Generated_Source\PSoC6\pdl\middleware\em_eeprom/cy_em_eeprom.c **** 
 1274              		.loc 1 193 0
 1275 003e 020A     		lsrs	r2, r0, #8
 192:Generated_Source\PSoC6\pdl\middleware\em_eeprom/cy_em_eeprom.c ****                               (rdAddr / CY_EM_EEPROM_EEPROM_DATA_LEN)) + 1u;
 1276              		.loc 1 192 0
 1277 0040 9B1A     		subs	r3, r3, r2
 1278 0042 0133     		adds	r3, r3, #1
 1279 0044 9B46     		mov	fp, r3
 1280              	.LVL161:
 199:Generated_Source\PSoC6\pdl\middleware\em_eeprom/cy_em_eeprom.c ****                               (CY_EM_EEPROM_FLASH_SIZEOF_ROW * context->numberOfRows)) *
 1281              		.loc 1 199 0
 1282 0046 B569     		ldr	r5, [r6, #24]
 1283 0048 5346     		mov	r3, r10
 1284              	.LVL162:
 1285 004a 581B     		subs	r0, r3, r5
 1286              	.LVL163:
 200:Generated_Source\PSoC6\pdl\middleware\em_eeprom/cy_em_eeprom.c ****                               (CY_EM_EEPROM_FLASH_SIZEOF_ROW * context->numberOfRows)) +
 1287              		.loc 1 200 0
 1288 004c 7768     		ldr	r7, [r6, #4]
 1289 004e 7902     		lsls	r1, r7, #9
 1290              	.LVL164:
 199:Generated_Source\PSoC6\pdl\middleware\em_eeprom/cy_em_eeprom.c ****                               (CY_EM_EEPROM_FLASH_SIZEOF_ROW * context->numberOfRows)) *
 1291              		.loc 1 199 0
 1292 0050 FFF7FEFF 		bl	__aeabi_uidiv
 1293              	.LVL165:
 200:Generated_Source\PSoC6\pdl\middleware\em_eeprom/cy_em_eeprom.c ****                               (CY_EM_EEPROM_FLASH_SIZEOF_ROW * context->numberOfRows)) +
 1294              		.loc 1 200 0
 1295 0054 7843     		muls	r0, r7
 1296 0056 4002     		lsls	r0, r0, #9
 199:Generated_Source\PSoC6\pdl\middleware\em_eeprom/cy_em_eeprom.c ****                               (CY_EM_EEPROM_FLASH_SIZEOF_ROW * context->numberOfRows)) *
ARM GAS  C:\Users\eduar\AppData\Local\Temp\cctEoJXe.s 			page 49


 1297              		.loc 1 199 0
 1298 0058 2B18     		adds	r3, r5, r0
 1299 005a 0393     		str	r3, [sp, #12]
 1300              	.LVL166:
 205:Generated_Source\PSoC6\pdl\middleware\em_eeprom/cy_em_eeprom.c ****         {
 1301              		.loc 1 205 0
 1302 005c 0025     		movs	r5, #0
 1303 005e 4A46     		mov	r2, r9
 1304 0060 0FE0     		b	.L93
 1305              	.LVL167:
 1306              	.L96:
 207:Generated_Source\PSoC6\pdl\middleware\em_eeprom/cy_em_eeprom.c ****             {
 1307              		.loc 1 207 0
 1308 0062 2B02     		lsls	r3, r5, #8
 1309 0064 9A42     		cmp	r2, r3
 1310 0066 06D3     		bcc	.L119
 207:Generated_Source\PSoC6\pdl\middleware\em_eeprom/cy_em_eeprom.c ****             {
 1311              		.loc 1 207 0 is_stmt 0 discriminator 1
 1312 0068 6B1C     		adds	r3, r5, #1
 1313 006a 1B02     		lsls	r3, r3, #8
 1314 006c 013B     		subs	r3, r3, #1
 1315 006e 9A42     		cmp	r2, r3
 1316 0070 03D9     		bls	.L120
 207:Generated_Source\PSoC6\pdl\middleware\em_eeprom/cy_em_eeprom.c ****             {
 1317              		.loc 1 207 0
 1318 0072 0023     		movs	r3, #0
 1319 0074 02E0     		b	.L94
 1320              	.L119:
 1321 0076 0023     		movs	r3, #0
 1322 0078 00E0     		b	.L94
 1323              	.L120:
 1324 007a 0123     		movs	r3, #1
 1325              	.L94:
 207:Generated_Source\PSoC6\pdl\middleware\em_eeprom/cy_em_eeprom.c ****             {
 1326              		.loc 1 207 0 discriminator 6
 1327 007c 002B     		cmp	r3, #0
 1328 007e 05D1     		bne	.L127
 205:Generated_Source\PSoC6\pdl\middleware\em_eeprom/cy_em_eeprom.c ****         {
 1329              		.loc 1 205 0 is_stmt 1 discriminator 2
 1330 0080 0135     		adds	r5, r5, #1
 1331              	.LVL168:
 1332              	.L93:
 205:Generated_Source\PSoC6\pdl\middleware\em_eeprom/cy_em_eeprom.c ****         {
 1333              		.loc 1 205 0 is_stmt 0 discriminator 1
 1334 0082 BD42     		cmp	r5, r7
 1335 0084 EDD3     		bcc	.L96
 1336 0086 9146     		mov	r9, r2
 1337              	.LVL169:
 1338              	.LBE6:
 176:Generated_Source\PSoC6\pdl\middleware\em_eeprom/cy_em_eeprom.c ****     uint32_t dataStartEepromRowNum = 0u;
 1339              		.loc 1 176 0 is_stmt 1
 1340 0088 0025     		movs	r5, #0
 1341              	.LVL170:
 1342 008a 00E0     		b	.L95
 1343              	.LVL171:
 1344              	.L127:
 1345 008c 9146     		mov	r9, r2
ARM GAS  C:\Users\eduar\AppData\Local\Temp\cctEoJXe.s 			page 50


 1346              	.LVL172:
 1347              	.L95:
 1348              	.LBB13:
 216:Generated_Source\PSoC6\pdl\middleware\em_eeprom/cy_em_eeprom.c **** 
 1349              		.loc 1 216 0
 1350 008e 5346     		mov	r3, r10
 1351 0090 039A     		ldr	r2, [sp, #12]
 1352              	.LVL173:
 1353 0092 9B1A     		subs	r3, r3, r2
 1354 0094 5B0A     		lsrs	r3, r3, #9
 1355 0096 1900     		movs	r1, r3
 1356 0098 0693     		str	r3, [sp, #24]
 1357              	.LVL174:
 219:Generated_Source\PSoC6\pdl\middleware\em_eeprom/cy_em_eeprom.c ****         {
 1358              		.loc 1 219 0
 1359 009a 3369     		ldr	r3, [r6, #16]
 1360 009c 012B     		cmp	r3, #1
 1361 009e 09D9     		bls	.L121
 1362              	.LBB7:
 221:Generated_Source\PSoC6\pdl\middleware\em_eeprom/cy_em_eeprom.c **** 
 1363              		.loc 1 221 0
 1364 00a0 5B46     		mov	r3, fp
 1365 00a2 EB18     		adds	r3, r5, r3
 1366 00a4 013B     		subs	r3, r3, #1
 1367              	.LVL175:
 224:Generated_Source\PSoC6\pdl\middleware\em_eeprom/cy_em_eeprom.c ****                               ((dataEndEepromRowNum > actEepromRowNum) ? 1u : 0u);
 1368              		.loc 1 224 0
 1369 00a6 8D42     		cmp	r5, r1
 1370 00a8 07D8     		bhi	.L122
 224:Generated_Source\PSoC6\pdl\middleware\em_eeprom/cy_em_eeprom.c ****                               ((dataEndEepromRowNum > actEepromRowNum) ? 1u : 0u);
 1371              		.loc 1 224 0 is_stmt 0 discriminator 1
 1372 00aa 9942     		cmp	r1, r3
 1373 00ac 08D2     		bcs	.L123
 224:Generated_Source\PSoC6\pdl\middleware\em_eeprom/cy_em_eeprom.c ****                               ((dataEndEepromRowNum > actEepromRowNum) ? 1u : 0u);
 1374              		.loc 1 224 0
 1375 00ae 0123     		movs	r3, #1
 1376              	.LVL176:
 1377 00b0 0493     		str	r3, [sp, #16]
 1378 00b2 07E0     		b	.L97
 1379              	.LVL177:
 1380              	.L121:
 1381              	.LBE7:
 187:Generated_Source\PSoC6\pdl\middleware\em_eeprom/cy_em_eeprom.c **** 
 1382              		.loc 1 187 0 is_stmt 1
 1383 00b4 0023     		movs	r3, #0
 1384 00b6 0493     		str	r3, [sp, #16]
 1385 00b8 04E0     		b	.L97
 1386              	.LVL178:
 1387              	.L122:
 1388              	.LBB8:
 224:Generated_Source\PSoC6\pdl\middleware\em_eeprom/cy_em_eeprom.c ****                               ((dataEndEepromRowNum > actEepromRowNum) ? 1u : 0u);
 1389              		.loc 1 224 0
 1390 00ba 0123     		movs	r3, #1
 1391              	.LVL179:
 1392 00bc 0493     		str	r3, [sp, #16]
 1393 00be 01E0     		b	.L97
 1394              	.LVL180:
ARM GAS  C:\Users\eduar\AppData\Local\Temp\cctEoJXe.s 			page 51


 1395              	.L123:
 1396 00c0 0023     		movs	r3, #0
 1397              	.LVL181:
 1398 00c2 0493     		str	r3, [sp, #16]
 1399              	.LVL182:
 1400              	.L97:
 1401              	.LBE8:
 183:Generated_Source\PSoC6\pdl\middleware\em_eeprom/cy_em_eeprom.c ****         uint32_t rdSize = size;
 1402              		.loc 1 183 0
 1403 00c4 CA46     		mov	r10, r9
 229:Generated_Source\PSoC6\pdl\middleware\em_eeprom/cy_em_eeprom.c ****         {
 1404              		.loc 1 229 0
 1405 00c6 0027     		movs	r7, #0
 1406              	.LBE13:
 169:Generated_Source\PSoC6\pdl\middleware\em_eeprom/cy_em_eeprom.c ****     uint32_t i;
 1407              		.loc 1 169 0
 1408 00c8 5C4B     		ldr	r3, .L128
 1409 00ca 1800     		movs	r0, r3
 1410 00cc 4B46     		mov	r3, r9
 1411 00ce 0893     		str	r3, [sp, #32]
 1412 00d0 A146     		mov	r9, r4
 1413              	.LVL183:
 1414 00d2 3300     		movs	r3, r6
 1415              	.LVL184:
 1416 00d4 5646     		mov	r6, r10
 1417              	.LVL185:
 1418 00d6 9A46     		mov	r10, r3
 1419              	.LVL186:
 1420              	.LBB14:
 229:Generated_Source\PSoC6\pdl\middleware\em_eeprom/cy_em_eeprom.c ****         {
 1421              		.loc 1 229 0
 1422 00d8 3FE0     		b	.L98
 1423              	.LVL187:
 1424              	.L104:
 231:Generated_Source\PSoC6\pdl\middleware\em_eeprom/cy_em_eeprom.c ****             curRowOffset = CY_EM_EEPROM_EEPROM_DATA_LEN + (rdAddr % CY_EM_EEPROM_EEPROM_DATA_LEN);
 1425              		.loc 1 231 0
 1426 00da 6802     		lsls	r0, r5, #9
 1427              	.LVL188:
 1428 00dc 039B     		ldr	r3, [sp, #12]
 1429 00de 9C46     		mov	ip, r3
 1430 00e0 6044     		add	r0, r0, ip
 1431              	.LVL189:
 232:Generated_Source\PSoC6\pdl\middleware\em_eeprom/cy_em_eeprom.c **** 
 1432              		.loc 1 232 0
 1433 00e2 FF24     		movs	r4, #255
 1434 00e4 3440     		ands	r4, r6
 1435 00e6 621C     		adds	r2, r4, #1
 1436 00e8 FF32     		adds	r2, r2, #255
 1437              	.LVL190:
 237:Generated_Source\PSoC6\pdl\middleware\em_eeprom/cy_em_eeprom.c ****             {
 1438              		.loc 1 237 0
 1439 00ea 0137     		adds	r7, r7, #1
 1440              	.LVL191:
 1441 00ec BB45     		cmp	fp, r7
 1442 00ee 03D9     		bls	.L124
 239:Generated_Source\PSoC6\pdl\middleware\em_eeprom/cy_em_eeprom.c ****             }
 1443              		.loc 1 239 0
ARM GAS  C:\Users\eduar\AppData\Local\Temp\cctEoJXe.s 			page 52


 1444 00f0 8023     		movs	r3, #128
 1445 00f2 5B00     		lsls	r3, r3, #1
 1446 00f4 1C1B     		subs	r4, r3, r4
 1447              	.LVL192:
 1448 00f6 00E0     		b	.L99
 1449              	.LVL193:
 1450              	.L124:
 243:Generated_Source\PSoC6\pdl\middleware\em_eeprom/cy_em_eeprom.c ****             }
 1451              		.loc 1 243 0
 1452 00f8 4446     		mov	r4, r8
 1453              	.L99:
 1454              	.LVL194:
 249:Generated_Source\PSoC6\pdl\middleware\em_eeprom/cy_em_eeprom.c ****             {
 1455              		.loc 1 249 0
 1456 00fa 049B     		ldr	r3, [sp, #16]
 1457 00fc 002B     		cmp	r3, #0
 1458 00fe 0FD0     		beq	.L100
 249:Generated_Source\PSoC6\pdl\middleware\em_eeprom/cy_em_eeprom.c ****             {
 1459              		.loc 1 249 0 is_stmt 0 discriminator 1
 1460 0100 069B     		ldr	r3, [sp, #24]
 1461 0102 9D42     		cmp	r5, r3
 1462 0104 0CD9     		bls	.L100
 251:Generated_Source\PSoC6\pdl\middleware\em_eeprom/cy_em_eeprom.c **** 
 1463              		.loc 1 251 0 is_stmt 1
 1464 0106 5346     		mov	r3, r10
 1465 0108 5B68     		ldr	r3, [r3, #4]
 1466 010a 5902     		lsls	r1, r3, #9
 1467 010c 401A     		subs	r0, r0, r1
 1468              	.LVL195:
 253:Generated_Source\PSoC6\pdl\middleware\em_eeprom/cy_em_eeprom.c ****                 {
 1469              		.loc 1 253 0
 1470 010e 5146     		mov	r1, r10
 1471 0110 8969     		ldr	r1, [r1, #24]
 1472 0112 8842     		cmp	r0, r1
 1473 0114 04D2     		bcs	.L100
 256:Generated_Source\PSoC6\pdl\middleware\em_eeprom/cy_em_eeprom.c ****                 }
 1474              		.loc 1 256 0
 1475 0116 581B     		subs	r0, r3, r5
 1476              	.LVL196:
 1477 0118 4302     		lsls	r3, r0, #9
 1478              	.LVL197:
 255:Generated_Source\PSoC6\pdl\middleware\em_eeprom/cy_em_eeprom.c ****                         ((context->numberOfRows - curRdEepromRowNum) * CY_EM_EEPROM_FLASH_SIZEOF_RO
 1479              		.loc 1 255 0
 1480 011a 5146     		mov	r1, r10
 1481 011c 0968     		ldr	r1, [r1]
 1482 011e C81A     		subs	r0, r1, r3
 1483              	.LVL198:
 1484              	.L100:
 260:Generated_Source\PSoC6\pdl\middleware\em_eeprom/cy_em_eeprom.c ****             {
 1485              		.loc 1 260 0
 1486 0120 5346     		mov	r3, r10
 1487 0122 1B7D     		ldrb	r3, [r3, #20]
 1488 0124 002B     		cmp	r3, #0
 1489 0126 0CD0     		beq	.L101
 265:Generated_Source\PSoC6\pdl\middleware\em_eeprom/cy_em_eeprom.c **** 
 1490              		.loc 1 265 0
 1491 0128 5346     		mov	r3, r10
ARM GAS  C:\Users\eduar\AppData\Local\Temp\cctEoJXe.s 			page 53


 1492 012a 0093     		str	r3, [sp]
 1493 012c 2300     		movs	r3, r4
 1494 012e 4946     		mov	r1, r9
 1495 0130 FFF7FEFF 		bl	CheckCrcAndCopy
 1496              	.LVL199:
 267:Generated_Source\PSoC6\pdl\middleware\em_eeprom/cy_em_eeprom.c ****                 {
 1497              		.loc 1 267 0
 1498 0134 0028     		cmp	r0, #0
 1499 0136 0AD0     		beq	.L103
 1500 0138 0390     		str	r0, [sp, #12]
 1501              	.LVL200:
 1502 013a 089B     		ldr	r3, [sp, #32]
 1503 013c 9946     		mov	r9, r3
 1504              	.LVL201:
 1505 013e 5646     		mov	r6, r10
 1506              	.LVL202:
 1507 0140 11E0     		b	.L102
 1508              	.LVL203:
 1509              	.L101:
 276:Generated_Source\PSoC6\pdl\middleware\em_eeprom/cy_em_eeprom.c ****                              numBytesToRead);
 1510              		.loc 1 276 0
 1511 0142 8118     		adds	r1, r0, r2
 275:Generated_Source\PSoC6\pdl\middleware\em_eeprom/cy_em_eeprom.c ****                              (void *)(startRowAddr + curRowOffset),
 1512              		.loc 1 275 0
 1513 0144 2200     		movs	r2, r4
 1514              	.LVL204:
 1515 0146 4846     		mov	r0, r9
 1516              	.LVL205:
 1517 0148 FFF7FEFF 		bl	memcpy
 1518              	.LVL206:
 280:Generated_Source\PSoC6\pdl\middleware\em_eeprom/cy_em_eeprom.c ****             }
 1519              		.loc 1 280 0
 1520 014c 0020     		movs	r0, #0
 1521              	.LVL207:
 1522              	.L103:
 284:Generated_Source\PSoC6\pdl\middleware\em_eeprom/cy_em_eeprom.c ****             rdSize -= numBytesToRead;
 1523              		.loc 1 284 0 discriminator 2
 1524 014e 3619     		adds	r6, r6, r4
 1525              	.LVL208:
 285:Generated_Source\PSoC6\pdl\middleware\em_eeprom/cy_em_eeprom.c ****             eeData += numBytesToRead;
 1526              		.loc 1 285 0 discriminator 2
 1527 0150 4346     		mov	r3, r8
 1528 0152 1B1B     		subs	r3, r3, r4
 1529 0154 9846     		mov	r8, r3
 1530              	.LVL209:
 286:Generated_Source\PSoC6\pdl\middleware\em_eeprom/cy_em_eeprom.c ****             curRdEepromRowNum++;
 1531              		.loc 1 286 0 discriminator 2
 1532 0156 A144     		add	r9, r9, r4
 1533              	.LVL210:
 287:Generated_Source\PSoC6\pdl\middleware\em_eeprom/cy_em_eeprom.c ****         }
 1534              		.loc 1 287 0 discriminator 2
 1535 0158 0135     		adds	r5, r5, #1
 1536              	.LVL211:
 1537              	.L98:
 229:Generated_Source\PSoC6\pdl\middleware\em_eeprom/cy_em_eeprom.c ****         {
 1538              		.loc 1 229 0 discriminator 1
 1539 015a 5F45     		cmp	r7, fp
ARM GAS  C:\Users\eduar\AppData\Local\Temp\cctEoJXe.s 			page 54


 1540 015c BDD3     		bcc	.L104
 1541 015e 0390     		str	r0, [sp, #12]
 1542              	.LVL212:
 1543 0160 089B     		ldr	r3, [sp, #32]
 1544 0162 9946     		mov	r9, r3
 1545              	.LVL213:
 1546 0164 5646     		mov	r6, r10
 1547              	.LVL214:
 1548              	.L102:
 298:Generated_Source\PSoC6\pdl\middleware\em_eeprom/cy_em_eeprom.c ****         {
 1549              		.loc 1 298 0
 1550 0166 039B     		ldr	r3, [sp, #12]
 1551 0168 002B     		cmp	r3, #0
 1552 016a 5ED1     		bne	.L92
 298:Generated_Source\PSoC6\pdl\middleware\em_eeprom/cy_em_eeprom.c ****         {
 1553              		.loc 1 298 0 is_stmt 0 discriminator 1
 1554 016c 099A     		ldr	r2, [sp, #36]
 1555 016e 002A     		cmp	r2, #0
 1556 0170 5BD0     		beq	.L92
 300:Generated_Source\PSoC6\pdl\middleware\em_eeprom/cy_em_eeprom.c ****             numRowReads--;
 1557              		.loc 1 300 0 is_stmt 1
 1558 0172 7368     		ldr	r3, [r6, #4]
 1559 0174 1400     		movs	r4, r2
 1560 0176 9A42     		cmp	r2, r3
 1561 0178 00D9     		bls	.L105
 1562 017a 1C00     		movs	r4, r3
 1563              	.L105:
 1564              	.LVL215:
 301:Generated_Source\PSoC6\pdl\middleware\em_eeprom/cy_em_eeprom.c **** 
 1565              		.loc 1 301 0
 1566 017c 013C     		subs	r4, r4, #1
 1567              	.LVL216:
 303:Generated_Source\PSoC6\pdl\middleware\em_eeprom/cy_em_eeprom.c ****             {
 1568              		.loc 1 303 0
 1569 017e 099B     		ldr	r3, [sp, #36]
 1570 0180 1C1B     		subs	r4, r3, r4
 1571              	.LVL217:
 1572 0182 079A     		ldr	r2, [sp, #28]
 1573 0184 9046     		mov	r8, r2
 1574              	.LVL218:
 1575 0186 1D00     		movs	r5, r3
 1576              	.LVL219:
 1577 0188 4F46     		mov	r7, r9
 1578 018a 43E0     		b	.L106
 1579              	.L115:
 305:Generated_Source\PSoC6\pdl\middleware\em_eeprom/cy_em_eeprom.c **** 
 1580              		.loc 1 305 0
 1581 018c 3100     		movs	r1, r6
 1582 018e 2000     		movs	r0, r4
 1583 0190 FFF7FEFF 		bl	GetRowAddrBySeqNum
 1584              	.LVL220:
 307:Generated_Source\PSoC6\pdl\middleware\em_eeprom/cy_em_eeprom.c ****                 {
 1585              		.loc 1 307 0
 1586 0194 0028     		cmp	r0, #0
 1587 0196 3CD0     		beq	.L107
 1588              	.LBB9:
 310:Generated_Source\PSoC6\pdl\middleware\em_eeprom/cy_em_eeprom.c ****                     uint32_t endAddr    = startAddr + (*(uint32_t *)(startRowAddr + CY_EM_EEPROM_HE
ARM GAS  C:\Users\eduar\AppData\Local\Temp\cctEoJXe.s 			page 55


 1589              		.loc 1 310 0
 1590 0198 4168     		ldr	r1, [r0, #4]
 1591              	.LVL221:
 311:Generated_Source\PSoC6\pdl\middleware\em_eeprom/cy_em_eeprom.c **** 
 1592              		.loc 1 311 0
 1593 019a 8368     		ldr	r3, [r0, #8]
 1594 019c CB18     		adds	r3, r1, r3
 1595              	.LVL222:
 314:Generated_Source\PSoC6\pdl\middleware\em_eeprom/cy_em_eeprom.c ****                     {
 1596              		.loc 1 314 0
 1597 019e 8F42     		cmp	r7, r1
 1598 01a0 03D2     		bcs	.L108
 314:Generated_Source\PSoC6\pdl\middleware\em_eeprom/cy_em_eeprom.c ****                     {
 1599              		.loc 1 314 0 is_stmt 0 discriminator 1
 1600 01a2 4145     		cmp	r1, r8
 1601 01a4 9241     		sbcs	r2, r2, r2
 1602 01a6 5242     		rsbs	r2, r2, #0
 1603 01a8 02E0     		b	.L109
 1604              	.L108:
 314:Generated_Source\PSoC6\pdl\middleware\em_eeprom/cy_em_eeprom.c ****                     {
 1605              		.loc 1 314 0 discriminator 2
 1606 01aa 9F42     		cmp	r7, r3
 1607 01ac 9241     		sbcs	r2, r2, r2
 1608 01ae 5242     		rsbs	r2, r2, #0
 1609              	.L109:
 314:Generated_Source\PSoC6\pdl\middleware\em_eeprom/cy_em_eeprom.c ****                     {
 1610              		.loc 1 314 0 discriminator 4
 1611 01b0 002A     		cmp	r2, #0
 1612 01b2 2ED0     		beq	.L107
 1613              	.LBB10:
 316:Generated_Source\PSoC6\pdl\middleware\em_eeprom/cy_em_eeprom.c ****                         uint32_t dstOffset = (startAddr > addr) ? (startAddr - addr): (0u);
 1614              		.loc 1 316 0 is_stmt 1
 1615 01b4 8F42     		cmp	r7, r1
 1616 01b6 02D3     		bcc	.L125
 316:Generated_Source\PSoC6\pdl\middleware\em_eeprom/cy_em_eeprom.c ****                         uint32_t dstOffset = (startAddr > addr) ? (startAddr - addr): (0u);
 1617              		.loc 1 316 0 is_stmt 0 discriminator 1
 1618 01b8 7A1A     		subs	r2, r7, r1
 1619 01ba 9446     		mov	ip, r2
 1620 01bc 01E0     		b	.L110
 1621              	.L125:
 316:Generated_Source\PSoC6\pdl\middleware\em_eeprom/cy_em_eeprom.c ****                         uint32_t dstOffset = (startAddr > addr) ? (startAddr - addr): (0u);
 1622              		.loc 1 316 0
 1623 01be 0022     		movs	r2, #0
 1624 01c0 9446     		mov	ip, r2
 1625              	.L110:
 1626              	.LVL223:
 317:Generated_Source\PSoC6\pdl\middleware\em_eeprom/cy_em_eeprom.c ****                         rdAddr = (startAddr > addr) ? (startAddr) : (addr);
 1627              		.loc 1 317 0 is_stmt 1 discriminator 4
 1628 01c2 8F42     		cmp	r7, r1
 1629 01c4 02D2     		bcs	.L126
 317:Generated_Source\PSoC6\pdl\middleware\em_eeprom/cy_em_eeprom.c ****                         rdAddr = (startAddr > addr) ? (startAddr) : (addr);
 1630              		.loc 1 317 0 is_stmt 0 discriminator 1
 1631 01c6 CA1B     		subs	r2, r1, r7
 1632 01c8 9346     		mov	fp, r2
 1633 01ca 01E0     		b	.L111
 1634              	.L126:
 317:Generated_Source\PSoC6\pdl\middleware\em_eeprom/cy_em_eeprom.c ****                         rdAddr = (startAddr > addr) ? (startAddr) : (addr);
ARM GAS  C:\Users\eduar\AppData\Local\Temp\cctEoJXe.s 			page 56


 1635              		.loc 1 317 0
 1636 01cc 0022     		movs	r2, #0
 1637 01ce 9346     		mov	fp, r2
 1638              	.L111:
 1639              	.LVL224:
 318:Generated_Source\PSoC6\pdl\middleware\em_eeprom/cy_em_eeprom.c **** 
 1640              		.loc 1 318 0 is_stmt 1 discriminator 4
 1641 01d0 3A00     		movs	r2, r7
 1642 01d2 8F42     		cmp	r7, r1
 1643 01d4 00D2     		bcs	.L112
 1644 01d6 0A00     		movs	r2, r1
 1645              	.L112:
 1646              	.LVL225:
 320:Generated_Source\PSoC6\pdl\middleware\em_eeprom/cy_em_eeprom.c **** 
 1647              		.loc 1 320 0 discriminator 4
 1648 01d8 0C21     		movs	r1, #12
 1649              	.LVL226:
 1650 01da 8946     		mov	r9, r1
 1651 01dc CC44     		add	ip, ip, r9
 1652              	.LVL227:
 323:Generated_Source\PSoC6\pdl\middleware\em_eeprom/cy_em_eeprom.c **** 
 1653              		.loc 1 323 0 discriminator 4
 1654 01de 4146     		mov	r1, r8
 1655 01e0 9845     		cmp	r8, r3
 1656 01e2 00D9     		bls	.L113
 1657 01e4 1900     		movs	r1, r3
 1658              	.L113:
 1659 01e6 8A1A     		subs	r2, r1, r2
 1660              	.LVL228:
 326:Generated_Source\PSoC6\pdl\middleware\em_eeprom/cy_em_eeprom.c **** 
 1661              		.loc 1 326 0 discriminator 4
 1662 01e8 059B     		ldr	r3, [sp, #20]
 1663              	.LVL229:
 1664 01ea 9946     		mov	r9, r3
 1665 01ec CB44     		add	fp, fp, r9
 1666              	.LVL230:
 333:Generated_Source\PSoC6\pdl\middleware\em_eeprom/cy_em_eeprom.c ****                         {
 1667              		.loc 1 333 0 discriminator 4
 1668 01ee 337D     		ldrb	r3, [r6, #20]
 1669 01f0 002B     		cmp	r3, #0
 1670 01f2 09D0     		beq	.L114
 335:Generated_Source\PSoC6\pdl\middleware\em_eeprom/cy_em_eeprom.c **** 
 1671              		.loc 1 335 0
 1672 01f4 0096     		str	r6, [sp]
 1673              	.LVL231:
 1674 01f6 1300     		movs	r3, r2
 1675 01f8 6246     		mov	r2, ip
 1676              	.LVL232:
 1677 01fa 5946     		mov	r1, fp
 1678 01fc FFF7FEFF 		bl	CheckCrcAndCopy
 1679              	.LVL233:
 1680 0200 0390     		str	r0, [sp, #12]
 1681              	.LVL234:
 337:Generated_Source\PSoC6\pdl\middleware\em_eeprom/cy_em_eeprom.c ****                             {
 1682              		.loc 1 337 0
 1683 0202 0028     		cmp	r0, #0
 1684 0204 05D0     		beq	.L107
ARM GAS  C:\Users\eduar\AppData\Local\Temp\cctEoJXe.s 			page 57


 1685              	.LBE10:
 1686              	.LBE9:
 1687 0206 10E0     		b	.L92
 1688              	.LVL235:
 1689              	.L114:
 1690              	.LBB12:
 1691              	.LBB11:
 344:Generated_Source\PSoC6\pdl\middleware\em_eeprom/cy_em_eeprom.c ****                         }
 1692              		.loc 1 344 0
 1693 0208 0100     		movs	r1, r0
 1694 020a 6144     		add	r1, r1, ip
 1695 020c 5846     		mov	r0, fp
 1696              	.LVL236:
 1697 020e FFF7FEFF 		bl	memcpy
 1698              	.LVL237:
 1699              	.L107:
 1700              	.LBE11:
 1701              	.LBE12:
 303:Generated_Source\PSoC6\pdl\middleware\em_eeprom/cy_em_eeprom.c ****             {
 1702              		.loc 1 303 0 discriminator 2
 1703 0212 0134     		adds	r4, r4, #1
 1704              	.LVL238:
 1705              	.L106:
 303:Generated_Source\PSoC6\pdl\middleware\em_eeprom/cy_em_eeprom.c ****             {
 1706              		.loc 1 303 0 is_stmt 0 discriminator 1
 1707 0214 AC42     		cmp	r4, r5
 1708 0216 B9D9     		bls	.L115
 1709 0218 07E0     		b	.L92
 1710              	.LVL239:
 1711              	.L116:
 1712              	.LBE14:
 169:Generated_Source\PSoC6\pdl\middleware\em_eeprom/cy_em_eeprom.c ****     uint32_t i;
 1713              		.loc 1 169 0 is_stmt 1
 1714 021a 084B     		ldr	r3, .L128
 1715 021c 0393     		str	r3, [sp, #12]
 1716 021e 04E0     		b	.L92
 1717              	.LVL240:
 1718              	.L117:
 1719 0220 064B     		ldr	r3, .L128
 1720 0222 0393     		str	r3, [sp, #12]
 1721 0224 01E0     		b	.L92
 1722              	.L118:
 1723 0226 054B     		ldr	r3, .L128
 1724 0228 0393     		str	r3, [sp, #12]
 1725              	.LVL241:
 1726              	.L92:
 353:Generated_Source\PSoC6\pdl\middleware\em_eeprom/cy_em_eeprom.c **** 
 1727              		.loc 1 353 0
 1728 022a 0398     		ldr	r0, [sp, #12]
 1729 022c 0BB0     		add	sp, sp, #44
 1730              		@ sp needed
 1731              	.LVL242:
 1732 022e 3CBC     		pop	{r2, r3, r4, r5}
 1733 0230 9046     		mov	r8, r2
 1734 0232 9946     		mov	r9, r3
 1735 0234 A246     		mov	r10, r4
 1736 0236 AB46     		mov	fp, r5
ARM GAS  C:\Users\eduar\AppData\Local\Temp\cctEoJXe.s 			page 58


 1737 0238 F0BD     		pop	{r4, r5, r6, r7, pc}
 1738              	.L129:
 1739 023a C046     		.align	2
 1740              	.L128:
 1741 023c 01006E00 		.word	7208961
 1742              		.cfi_endproc
 1743              	.LFE46:
 1744              		.size	Cy_Em_EEPROM_Read, .-Cy_Em_EEPROM_Read
 1745              		.global	__aeabi_uidivmod
 1746              		.section	.text.Cy_Em_EEPROM_Write,"ax",%progbits
 1747              		.align	2
 1748              		.global	Cy_Em_EEPROM_Write
 1749              		.code	16
 1750              		.thumb_func
 1751              		.type	Cy_Em_EEPROM_Write, %function
 1752              	Cy_Em_EEPROM_Write:
 1753              	.LFB47:
 410:Generated_Source\PSoC6\pdl\middleware\em_eeprom/cy_em_eeprom.c ****     cy_en_em_eeprom_status_t ret = CY_EM_EEPROM_BAD_PARAM;
 1754              		.loc 1 410 0
 1755              		.cfi_startproc
 1756              		@ args = 0, pretend = 0, frame = 552
 1757              		@ frame_needed = 0, uses_anonymous_args = 0
 1758              	.LVL243:
 1759 0000 F0B5     		push	{r4, r5, r6, r7, lr}
 1760              		.cfi_def_cfa_offset 20
 1761              		.cfi_offset 4, -20
 1762              		.cfi_offset 5, -16
 1763              		.cfi_offset 6, -12
 1764              		.cfi_offset 7, -8
 1765              		.cfi_offset 14, -4
 1766 0002 5F46     		mov	r7, fp
 1767 0004 5646     		mov	r6, r10
 1768 0006 4D46     		mov	r5, r9
 1769 0008 4446     		mov	r4, r8
 1770 000a F0B4     		push	{r4, r5, r6, r7}
 1771              		.cfi_def_cfa_offset 36
 1772              		.cfi_offset 8, -36
 1773              		.cfi_offset 9, -32
 1774              		.cfi_offset 10, -28
 1775              		.cfi_offset 11, -24
 1776 000c 664C     		ldr	r4, .L153
 1777 000e A544     		add	sp, sp, r4
 1778              		.cfi_def_cfa_offset 600
 1779 0010 8246     		mov	r10, r0
 1780 0012 9146     		mov	r9, r2
 1781 0014 1D00     		movs	r5, r3
 1782              	.LVL244:
 416:Generated_Source\PSoC6\pdl\middleware\em_eeprom/cy_em_eeprom.c ****     uint32_t endAddr = 0u;
 1783              		.loc 1 416 0
 1784 0016 0023     		movs	r3, #0
 1785              	.LVL245:
 1786 0018 0B93     		str	r3, [sp, #44]
 417:Generated_Source\PSoC6\pdl\middleware\em_eeprom/cy_em_eeprom.c ****     uint32_t tmpRowAddr;
 1787              		.loc 1 417 0
 1788 001a 0A93     		str	r3, [sp, #40]
 419:Generated_Source\PSoC6\pdl\middleware\em_eeprom/cy_em_eeprom.c ****     uint32_t emEepromRowRdAddr;
 1789              		.loc 1 419 0
ARM GAS  C:\Users\eduar\AppData\Local\Temp\cctEoJXe.s 			page 59


 1790 001c AB68     		ldr	r3, [r5, #8]
 1791 001e 0993     		str	r3, [sp, #36]
 422:Generated_Source\PSoC6\pdl\middleware\em_eeprom/cy_em_eeprom.c **** 
 1792              		.loc 1 422 0
 1793 0020 0391     		str	r1, [sp, #12]
 1794              	.LVL246:
 425:Generated_Source\PSoC6\pdl\middleware\em_eeprom/cy_em_eeprom.c ****     {
 1795              		.loc 1 425 0
 1796 0022 131E     		subs	r3, r2, #0
 1797 0024 00D1     		bne	.LCB2010
 1798 0026 B1E0     		b	.L148	@long jump
 1799              	.LCB2010:
 425:Generated_Source\PSoC6\pdl\middleware\em_eeprom/cy_em_eeprom.c ****     {
 1800              		.loc 1 425 0 is_stmt 0 discriminator 1
 1801 0028 5344     		add	r3, r3, r10
 1802 002a EA68     		ldr	r2, [r5, #12]
 1803              	.LVL247:
 1804 002c 9342     		cmp	r3, r2
 1805 002e 00D9     		bls	.LCB2016
 1806 0030 AEE0     		b	.L149	@long jump
 1807              	.LCB2016:
 425:Generated_Source\PSoC6\pdl\middleware\em_eeprom/cy_em_eeprom.c ****     {
 1808              		.loc 1 425 0 discriminator 2
 1809 0032 0029     		cmp	r1, #0
 1810 0034 00D1     		bne	.LCB2018
 1811 0036 ADE0     		b	.L150	@long jump
 1812              	.LCB2018:
 1813              	.LBB15:
 427:Generated_Source\PSoC6\pdl\middleware\em_eeprom/cy_em_eeprom.c ****         uint32_t eeHeaderDataOffset = 0u;
 1814              		.loc 1 427 0 is_stmt 1
 1815 0038 4B46     		mov	r3, r9
 1816 003a 581E     		subs	r0, r3, #1
 1817              	.LVL248:
 1818 003c F021     		movs	r1, #240
 1819              	.LVL249:
 1820 003e FFF7FEFF 		bl	__aeabi_uidiv
 1821              	.LVL250:
 1822 0042 0300     		movs	r3, r0
 1823 0044 0590     		str	r0, [sp, #20]
 1824 0046 0133     		adds	r3, r3, #1
 1825 0048 0493     		str	r3, [sp, #16]
 1826              	.LVL251:
 428:Generated_Source\PSoC6\pdl\middleware\em_eeprom/cy_em_eeprom.c **** 
 1827              		.loc 1 428 0
 1828 004a 0023     		movs	r3, #0
 1829              	.LVL252:
 1830 004c 0793     		str	r3, [sp, #28]
 1831              	.LVL253:
 430:Generated_Source\PSoC6\pdl\middleware\em_eeprom/cy_em_eeprom.c ****         {
 1832              		.loc 1 430 0
 1833 004e 9B46     		mov	fp, r3
 1834              	.LBE15:
 411:Generated_Source\PSoC6\pdl\middleware\em_eeprom/cy_em_eeprom.c ****     uint32_t i;
 1835              		.loc 1 411 0
 1836 0050 5648     		ldr	r0, .L153+4
 1837              	.LBB18:
 430:Generated_Source\PSoC6\pdl\middleware\em_eeprom/cy_em_eeprom.c ****         {
ARM GAS  C:\Users\eduar\AppData\Local\Temp\cctEoJXe.s 			page 60


 1838              		.loc 1 430 0
 1839 0052 96E0     		b	.L132
 1840              	.LVL254:
 1841              	.L147:
 1842              	.LBB16:
 434:Generated_Source\PSoC6\pdl\middleware\em_eeprom/cy_em_eeprom.c **** 
 1843              		.loc 1 434 0
 1844 0054 099B     		ldr	r3, [sp, #36]
 1845 0056 1C68     		ldr	r4, [r3]
 1846              	.LVL255:
 441:Generated_Source\PSoC6\pdl\middleware\em_eeprom/cy_em_eeprom.c **** 
 1847              		.loc 1 441 0
 1848 0058 2B00     		movs	r3, r5
 1849 005a 08AA     		add	r2, sp, #32
 1850 005c 09A9     		add	r1, sp, #36
 1851 005e 2000     		movs	r0, r4
 1852              	.LVL256:
 1853 0060 FFF7FEFF 		bl	GetNextRowToWrite
 1854              	.LVL257:
 444:Generated_Source\PSoC6\pdl\middleware\em_eeprom/cy_em_eeprom.c **** 
 1855              		.loc 1 444 0
 1856 0064 8022     		movs	r2, #128
 1857 0066 9200     		lsls	r2, r2, #2
 1858 0068 0021     		movs	r1, #0
 1859 006a 0CA8     		add	r0, sp, #48
 1860 006c FFF7FEFF 		bl	memset
 1861              	.LVL258:
 447:Generated_Source\PSoC6\pdl\middleware\em_eeprom/cy_em_eeprom.c ****             writeRamBuffer[CY_EM_EEPROM_HEADER_SEQ_NUM_OFFSET_U32] = seqNum;
 1862              		.loc 1 447 0
 1863 0070 631C     		adds	r3, r4, #1
 1864 0072 9846     		mov	r8, r3
 1865              	.LVL259:
 448:Generated_Source\PSoC6\pdl\middleware\em_eeprom/cy_em_eeprom.c ****             writeRamBuffer[CY_EM_EEPROM_HEADER_ADDR_OFFSET_U32] = addr;
 1866              		.loc 1 448 0
 1867 0074 0C93     		str	r3, [sp, #48]
 449:Generated_Source\PSoC6\pdl\middleware\em_eeprom/cy_em_eeprom.c ****             tmpData = (void *) eeData;
 1868              		.loc 1 449 0
 1869 0076 5346     		mov	r3, r10
 1870              	.LVL260:
 1871 0078 0D93     		str	r3, [sp, #52]
 450:Generated_Source\PSoC6\pdl\middleware\em_eeprom/cy_em_eeprom.c **** 
 1872              		.loc 1 450 0
 1873 007a 0399     		ldr	r1, [sp, #12]
 1874              	.LVL261:
 453:Generated_Source\PSoC6\pdl\middleware\em_eeprom/cy_em_eeprom.c ****             {
 1875              		.loc 1 453 0
 1876 007c 059B     		ldr	r3, [sp, #20]
 1877 007e 9B45     		cmp	fp, r3
 1878 0080 02D1     		bne	.L133
 456:Generated_Source\PSoC6\pdl\middleware\em_eeprom/cy_em_eeprom.c ****             }
 1879              		.loc 1 456 0
 1880 0082 4B46     		mov	r3, r9
 1881 0084 0E93     		str	r3, [sp, #56]
 1882 0086 0CE0     		b	.L134
 1883              	.L133:
 464:Generated_Source\PSoC6\pdl\middleware\em_eeprom/cy_em_eeprom.c ****                 size -= CY_EM_EEPROM_HEADER_DATA_LEN;
 1884              		.loc 1 464 0
ARM GAS  C:\Users\eduar\AppData\Local\Temp\cctEoJXe.s 			page 61


 1885 0088 F023     		movs	r3, #240
 1886 008a 0E93     		str	r3, [sp, #56]
 465:Generated_Source\PSoC6\pdl\middleware\em_eeprom/cy_em_eeprom.c ****                 addr += CY_EM_EEPROM_HEADER_DATA_LEN;
 1887              		.loc 1 465 0
 1888 008c E13B     		subs	r3, r3, #225
 1889 008e FF3B     		subs	r3, r3, #255
 1890 0090 9C46     		mov	ip, r3
 1891 0092 E144     		add	r9, r9, ip
 1892              	.LVL262:
 466:Generated_Source\PSoC6\pdl\middleware\em_eeprom/cy_em_eeprom.c ****                 eeData += CY_EM_EEPROM_HEADER_DATA_LEN;
 1893              		.loc 1 466 0
 1894 0094 E133     		adds	r3, r3, #225
 1895 0096 FF33     		adds	r3, r3, #255
 1896 0098 9C46     		mov	ip, r3
 1897 009a E244     		add	r10, r10, ip
 1898              	.LVL263:
 467:Generated_Source\PSoC6\pdl\middleware\em_eeprom/cy_em_eeprom.c ****             }
 1899              		.loc 1 467 0
 1900 009c 039B     		ldr	r3, [sp, #12]
 1901 009e F033     		adds	r3, r3, #240
 1902 00a0 0393     		str	r3, [sp, #12]
 1903              	.LVL264:
 1904              	.L134:
 471:Generated_Source\PSoC6\pdl\middleware\em_eeprom/cy_em_eeprom.c ****                          tmpData,
 1905              		.loc 1 471 0
 1906 00a2 0E9A     		ldr	r2, [sp, #56]
 1907 00a4 0FA8     		add	r0, sp, #60
 1908 00a6 FFF7FEFF 		bl	memcpy
 1909              	.LVL265:
 475:Generated_Source\PSoC6\pdl\middleware\em_eeprom/cy_em_eeprom.c ****             {
 1910              		.loc 1 475 0
 1911 00aa 0899     		ldr	r1, [sp, #32]
 1912 00ac 0029     		cmp	r1, #0
 1913 00ae 06D0     		beq	.L135
 479:Generated_Source\PSoC6\pdl\middleware\em_eeprom/cy_em_eeprom.c ****                              CY_EM_EEPROM_EEPROM_DATA_LEN);
 1914              		.loc 1 479 0
 1915 00b0 0131     		adds	r1, r1, #1
 1916 00b2 FF31     		adds	r1, r1, #255
 478:Generated_Source\PSoC6\pdl\middleware\em_eeprom/cy_em_eeprom.c ****                              (void *)(emEepromRowRdAddr + CY_EM_EEPROM_EEPROM_DATA_LEN),
 1917              		.loc 1 478 0
 1918 00b4 8022     		movs	r2, #128
 1919 00b6 5200     		lsls	r2, r2, #1
 1920 00b8 4CA8     		add	r0, sp, #304
 1921 00ba FFF7FEFF 		bl	memcpy
 1922              	.LVL266:
 1923              	.L135:
 487:Generated_Source\PSoC6\pdl\middleware\em_eeprom/cy_em_eeprom.c **** 
 1924              		.loc 1 487 0
 1925 00be 6C68     		ldr	r4, [r5, #4]
 1926 00c0 A045     		cmp	r8, r4
 1927 00c2 03D9     		bls	.L151
 487:Generated_Source\PSoC6\pdl\middleware\em_eeprom/cy_em_eeprom.c **** 
 1928              		.loc 1 487 0 is_stmt 0 discriminator 1
 1929 00c4 4346     		mov	r3, r8
 1930 00c6 1C1B     		subs	r4, r3, r4
 1931 00c8 0134     		adds	r4, r4, #1
 1932 00ca 00E0     		b	.L136
ARM GAS  C:\Users\eduar\AppData\Local\Temp\cctEoJXe.s 			page 62


 1933              	.L151:
 487:Generated_Source\PSoC6\pdl\middleware\em_eeprom/cy_em_eeprom.c **** 
 1934              		.loc 1 487 0
 1935 00cc 0124     		movs	r4, #1
 1936              	.L136:
 487:Generated_Source\PSoC6\pdl\middleware\em_eeprom/cy_em_eeprom.c **** 
 1937              		.loc 1 487 0 discriminator 1
 1938 00ce 0027     		movs	r7, #0
 1939 00d0 3AE0     		b	.L137
 1940              	.LVL267:
 1941              	.L144:
 491:Generated_Source\PSoC6\pdl\middleware\em_eeprom/cy_em_eeprom.c ****                 {
 1942              		.loc 1 491 0 is_stmt 1
 1943 00d2 4445     		cmp	r4, r8
 1944 00d4 01D1     		bne	.L138
 497:Generated_Source\PSoC6\pdl\middleware\em_eeprom/cy_em_eeprom.c ****                 }
 1945              		.loc 1 497 0
 1946 00d6 0CAE     		add	r6, sp, #48
 1947              	.LVL268:
 1948 00d8 04E0     		b	.L139
 1949              	.LVL269:
 1950              	.L138:
 504:Generated_Source\PSoC6\pdl\middleware\em_eeprom/cy_em_eeprom.c ****                 }
 1951              		.loc 1 504 0
 1952 00da 2900     		movs	r1, r5
 1953 00dc 2000     		movs	r0, r4
 1954 00de FFF7FEFF 		bl	GetRowAddrBySeqNum
 1955              	.LVL270:
 1956 00e2 0600     		movs	r6, r0
 1957              	.LVL271:
 1958              	.L139:
 507:Generated_Source\PSoC6\pdl\middleware\em_eeprom/cy_em_eeprom.c ****                                                                            context->numberOfRows,
 1959              		.loc 1 507 0
 1960 00e4 099B     		ldr	r3, [sp, #36]
 1961 00e6 AA69     		ldr	r2, [r5, #24]
 1962 00e8 981A     		subs	r0, r3, r2
 1963 00ea 400A     		lsrs	r0, r0, #9
 1964 00ec 6968     		ldr	r1, [r5, #4]
 1965 00ee FFF7FEFF 		bl	__aeabi_uidivmod
 1966              	.LVL272:
 510:Generated_Source\PSoC6\pdl\middleware\em_eeprom/cy_em_eeprom.c ****                 {
 1967              		.loc 1 510 0
 1968 00f2 002E     		cmp	r6, #0
 1969 00f4 0BD0     		beq	.L140
 513:Generated_Source\PSoC6\pdl\middleware\em_eeprom/cy_em_eeprom.c ****                                               &startAddr,
 1970              		.loc 1 513 0
 1971 00f6 7368     		ldr	r3, [r6, #4]
 1972 00f8 B268     		ldr	r2, [r6, #8]
 1973 00fa 0192     		str	r2, [sp, #4]
 1974 00fc 0093     		str	r3, [sp]
 1975 00fe 0B00     		movs	r3, r1
 1976 0100 07AA     		add	r2, sp, #28
 1977 0102 0AA9     		add	r1, sp, #40
 1978              	.LVL273:
 1979 0104 0BA8     		add	r0, sp, #44
 1980 0106 FFF7FEFF 		bl	GetAddresses
 1981              	.LVL274:
ARM GAS  C:\Users\eduar\AppData\Local\Temp\cctEoJXe.s 			page 63


 1982 010a 0700     		movs	r7, r0
 1983              	.LVL275:
 1984 010c 00E0     		b	.L141
 1985              	.LVL276:
 1986              	.L140:
 524:Generated_Source\PSoC6\pdl\middleware\em_eeprom/cy_em_eeprom.c ****                 }
 1987              		.loc 1 524 0
 1988 010e 0137     		adds	r7, r7, #1
 1989              	.LVL277:
 1990              	.L141:
 528:Generated_Source\PSoC6\pdl\middleware\em_eeprom/cy_em_eeprom.c ****                 {
 1991              		.loc 1 528 0
 1992 0110 002F     		cmp	r7, #0
 1993 0112 0BD1     		bne	.L142
 1994              	.LBB17:
 530:Generated_Source\PSoC6\pdl\middleware\em_eeprom/cy_em_eeprom.c **** 
 1995              		.loc 1 530 0
 1996 0114 0B9A     		ldr	r2, [sp, #44]
 1997 0116 0CAB     		add	r3, sp, #48
 1998 0118 9818     		adds	r0, r3, r2
 1999              	.LVL278:
 535:Generated_Source\PSoC6\pdl\middleware\em_eeprom/cy_em_eeprom.c ****                     (void)memcpy((void *)(dataAddr), (void *)(tmpRowAddr), endAddr - startAddr);
 2000              		.loc 1 535 0
 2001 011a 079B     		ldr	r3, [sp, #28]
 2002 011c 9C46     		mov	ip, r3
 2003 011e 6644     		add	r6, r6, ip
 2004              	.LVL279:
 2005 0120 3100     		movs	r1, r6
 2006 0122 0C31     		adds	r1, r1, #12
 2007              	.LVL280:
 536:Generated_Source\PSoC6\pdl\middleware\em_eeprom/cy_em_eeprom.c ****                 }
 2008              		.loc 1 536 0
 2009 0124 0A9B     		ldr	r3, [sp, #40]
 2010 0126 9A1A     		subs	r2, r3, r2
 2011 0128 FFF7FEFF 		bl	memcpy
 2012              	.LVL281:
 2013              	.L142:
 2014              	.LBE17:
 540:Generated_Source\PSoC6\pdl\middleware\em_eeprom/cy_em_eeprom.c ****                 {
 2015              		.loc 1 540 0
 2016 012c 2B7D     		ldrb	r3, [r5, #20]
 2017 012e 002B     		cmp	r3, #0
 2018 0130 09D0     		beq	.L143
 543:Generated_Source\PSoC6\pdl\middleware\em_eeprom/cy_em_eeprom.c ****                                                   CY_EM_EEPROM_EEPROM_DATA_LEN);
 2019              		.loc 1 543 0
 2020 0132 8021     		movs	r1, #128
 2021 0134 4900     		lsls	r1, r1, #1
 2022 0136 4CA8     		add	r0, sp, #304
 2023 0138 FFF7FEFF 		bl	CalcChecksum
 2024              	.LVL282:
 542:Generated_Source\PSoC6\pdl\middleware\em_eeprom/cy_em_eeprom.c ****                         CalcChecksum((uint8_t *) &writeRamBuffer[CY_EM_EEPROM_EEPROM_DATA_OFFSET_U3
 2025              		.loc 1 542 0
 2026 013c FC23     		movs	r3, #252
 2027 013e 04AA     		add	r2, sp, #16
 2028              	.LVL283:
 2029 0140 2021     		movs	r1, #32
 2030 0142 5218     		adds	r2, r2, r1
ARM GAS  C:\Users\eduar\AppData\Local\Temp\cctEoJXe.s 			page 64


 2031              	.LVL284:
 2032 0144 D050     		str	r0, [r2, r3]
 2033              	.LVL285:
 2034              	.L143:
 489:Generated_Source\PSoC6\pdl\middleware\em_eeprom/cy_em_eeprom.c ****             {
 2035              		.loc 1 489 0
 2036 0146 0134     		adds	r4, r4, #1
 2037              	.LVL286:
 2038              	.L137:
 489:Generated_Source\PSoC6\pdl\middleware\em_eeprom/cy_em_eeprom.c ****             {
 2039              		.loc 1 489 0 is_stmt 0 discriminator 1
 2040 0148 4445     		cmp	r4, r8
 2041 014a C2D9     		bls	.L144
 549:Generated_Source\PSoC6\pdl\middleware\em_eeprom/cy_em_eeprom.c ****             tmpRowAddr = emEepromRowAddr;
 2042              		.loc 1 549 0 is_stmt 1
 2043 014c 2A00     		movs	r2, r5
 2044 014e 0CA9     		add	r1, sp, #48
 2045 0150 0998     		ldr	r0, [sp, #36]
 2046 0152 FFF7FEFF 		bl	WriteRow
 2047              	.LVL287:
 553:Generated_Source\PSoC6\pdl\middleware\em_eeprom/cy_em_eeprom.c ****             {
 2048              		.loc 1 553 0
 2049 0156 2B7D     		ldrb	r3, [r5, #20]
 2050 0158 002B     		cmp	r3, #0
 2051 015a 0BD0     		beq	.L145
 553:Generated_Source\PSoC6\pdl\middleware\em_eeprom/cy_em_eeprom.c ****             {
 2052              		.loc 1 553 0 is_stmt 0 discriminator 1
 2053 015c 0028     		cmp	r0, #0
 2054 015e 09D1     		bne	.L145
 556:Generated_Source\PSoC6\pdl\middleware\em_eeprom/cy_em_eeprom.c **** 
 2055              		.loc 1 556 0 is_stmt 1
 2056 0160 099B     		ldr	r3, [sp, #36]
 2057 0162 AA69     		ldr	r2, [r5, #24]
 2058 0164 981A     		subs	r0, r3, r2
