ARM GAS  C:\Users\eduar\AppData\Local\Temp\ccc9nPpE.s 			page 1


   1              		.syntax unified
   2              		.cpu cortex-m4
   3              		.eabi_attribute 27, 1
   4              		.fpu fpv4-sp-d16
   5              		.eabi_attribute 20, 1
   6              		.eabi_attribute 21, 1
   7              		.eabi_attribute 23, 3
   8              		.eabi_attribute 24, 1
   9              		.eabi_attribute 25, 1
  10              		.eabi_attribute 26, 1
  11              		.eabi_attribute 30, 1
  12              		.eabi_attribute 34, 1
  13              		.eabi_attribute 18, 4
  14              		.thumb
  15              		.syntax unified
  16              		.file	"buffer.c"
  17              		.text
  18              	.Ltext0:
  19              		.cfi_sections	.debug_frame
  20              		.section	.text.getReferenceValues,"ax",%progbits
  21              		.align	2
  22              		.global	getReferenceValues
  23              		.thumb
  24              		.thumb_func
  25              		.type	getReferenceValues, %function
  26              	getReferenceValues:
  27              	.LFB804:
  28              		.file 1 "psoc6_dut_src\\buffer.c"
   1:psoc6_dut_src/buffer.c **** //====================== INCLUDES =====================
   2:psoc6_dut_src/buffer.c **** #include "buffer.h"
   3:psoc6_dut_src/buffer.c **** 
   4:psoc6_dut_src/buffer.c **** //================= GLOBAL VARIABLES ==================
   5:psoc6_dut_src/buffer.c **** extern BUFFER_DATA buffer;
   6:psoc6_dut_src/buffer.c **** extern REFERENCE_VALUES reference;
   7:psoc6_dut_src/buffer.c **** 
   8:psoc6_dut_src/buffer.c **** //===================== FUNCTIONS =====================
   9:psoc6_dut_src/buffer.c **** 
  10:psoc6_dut_src/buffer.c **** //determines the slew rate and dWR limit values 
  11:psoc6_dut_src/buffer.c **** void getReferenceValues() {
  29              		.loc 1 11 0
  30              		.cfi_startproc
  31              		@ args = 0, pretend = 0, frame = 0
  32              		@ frame_needed = 0, uses_anonymous_args = 0
  33              		@ link register save eliminated.
  34 0000 10B4     		push	{r4}
  35              		.cfi_def_cfa_offset 4
  36              		.cfi_offset 4, -4
  37              	.LVL0:
  12:psoc6_dut_src/buffer.c ****     int16 aux = 0;
  13:psoc6_dut_src/buffer.c **** 
  14:psoc6_dut_src/buffer.c ****     //first time initial values
  15:psoc6_dut_src/buffer.c ****     if(reference.cycleIndex == 0){
  38              		.loc 1 15 0
  39 0002 294B     		ldr	r3, .L10
  40 0004 1B89     		ldrh	r3, [r3, #8]
  41 0006 93B9     		cbnz	r3, .L2
  16:psoc6_dut_src/buffer.c **** 
ARM GAS  C:\Users\eduar\AppData\Local\Temp\ccc9nPpE.s 			page 2


  17:psoc6_dut_src/buffer.c ****         reference.maxSlewRate 
  18:psoc6_dut_src/buffer.c ****         = reference.minSlewRate 
  19:psoc6_dut_src/buffer.c ****         = abs( buffer.data[1].read - buffer.data[0].read);
  42              		.loc 1 19 0
  43 0008 2848     		ldr	r0, .L10+4
  44 000a 4289     		ldrh	r2, [r0, #10]
  45 000c 4488     		ldrh	r4, [r0, #2]
  46 000e 121B     		subs	r2, r2, r4
  47 0010 002A     		cmp	r2, #0
  48 0012 B8BF     		it	lt
  49 0014 5242     		rsblt	r2, r2, #0
  50 0016 92B2     		uxth	r2, r2
  51 0018 2349     		ldr	r1, .L10
  52 001a 4A80     		strh	r2, [r1, #2]	@ movhi
  18:psoc6_dut_src/buffer.c ****         = abs( buffer.data[1].read - buffer.data[0].read);
  53              		.loc 1 18 0
  54 001c 0A80     		strh	r2, [r1]	@ movhi
  20:psoc6_dut_src/buffer.c ****         
  21:psoc6_dut_src/buffer.c ****         reference.maxWRDiff 
  22:psoc6_dut_src/buffer.c ****         = reference.minWRDiff
  23:psoc6_dut_src/buffer.c ****         = abs(buffer.data[0].written - buffer.data[0].read);        
  55              		.loc 1 23 0
  56 001e 8388     		ldrh	r3, [r0, #4]
  57 0020 1B1B     		subs	r3, r3, r4
  58 0022 002B     		cmp	r3, #0
  59 0024 B8BF     		it	lt
  60 0026 5B42     		rsblt	r3, r3, #0
  61 0028 9BB2     		uxth	r3, r3
  62 002a CB80     		strh	r3, [r1, #6]	@ movhi
  22:psoc6_dut_src/buffer.c ****         = abs(buffer.data[0].written - buffer.data[0].read);        
  63              		.loc 1 22 0
  64 002c 8B80     		strh	r3, [r1, #4]	@ movhi
  65              	.L2:
  11:psoc6_dut_src/buffer.c ****     int16 aux = 0;
  66              		.loc 1 11 0 discriminator 1
  67 002e 0023     		movs	r3, #0
  68 0030 33E0     		b	.L3
  69              	.LVL1:
  70              	.L8:
  71              	.LBB2:
  24:psoc6_dut_src/buffer.c ****     }
  25:psoc6_dut_src/buffer.c ****     
  26:psoc6_dut_src/buffer.c ****     for(int i=0; i < MAX_BUFFER_DATA; i++){
  27:psoc6_dut_src/buffer.c **** 
  28:psoc6_dut_src/buffer.c ****         //max and min slew rate               
  29:psoc6_dut_src/buffer.c ****         if(i < MAX_BUFFER_DATA - 1){
  72              		.loc 1 29 0
  73 0032 40F2E632 		movw	r2, #998
  74 0036 9342     		cmp	r3, r2
  75 0038 18DC     		bgt	.L4
  30:psoc6_dut_src/buffer.c ****             aux = abs(buffer.data[i+1].read - buffer.data[i].read);
  76              		.loc 1 30 0
  77 003a 5A1C     		adds	r2, r3, #1
  78 003c 1B49     		ldr	r1, .L10+4
  79 003e 01EBC202 		add	r2, r1, r2, lsl #3
  80 0042 5288     		ldrh	r2, [r2, #2]
  81 0044 01EBC301 		add	r1, r1, r3, lsl #3
ARM GAS  C:\Users\eduar\AppData\Local\Temp\ccc9nPpE.s 			page 3


  82 0048 4988     		ldrh	r1, [r1, #2]
  83 004a 521A     		subs	r2, r2, r1
  84 004c 002A     		cmp	r2, #0
  85 004e B8BF     		it	lt
  86 0050 5242     		rsblt	r2, r2, #0
  87 0052 11B2     		sxth	r1, r2
  31:psoc6_dut_src/buffer.c ****             
  32:psoc6_dut_src/buffer.c ****             if(aux > reference.maxSlewRate){
  88              		.loc 1 32 0
  89 0054 1448     		ldr	r0, .L10
  90 0056 0088     		ldrh	r0, [r0]
  91 0058 8142     		cmp	r1, r0
  92 005a 01DD     		ble	.L5
  33:psoc6_dut_src/buffer.c ****                 reference.maxSlewRate = aux;
  93              		.loc 1 33 0
  94 005c 1248     		ldr	r0, .L10
  95 005e 0280     		strh	r2, [r0]	@ movhi
  96              	.L5:
  34:psoc6_dut_src/buffer.c ****             }
  35:psoc6_dut_src/buffer.c ****             if(aux < reference.minSlewRate){
  97              		.loc 1 35 0
  98 0060 1148     		ldr	r0, .L10
  99 0062 4088     		ldrh	r0, [r0, #2]
 100 0064 8142     		cmp	r1, r0
 101 0066 01DA     		bge	.L4
  36:psoc6_dut_src/buffer.c ****                 reference.minSlewRate = aux;                    
 102              		.loc 1 36 0
 103 0068 0F49     		ldr	r1, .L10
 104 006a 4A80     		strh	r2, [r1, #2]	@ movhi
 105              	.L4:
  37:psoc6_dut_src/buffer.c ****             }                    
  38:psoc6_dut_src/buffer.c ****         }
  39:psoc6_dut_src/buffer.c **** 
  40:psoc6_dut_src/buffer.c ****         //max and min written and read diff
  41:psoc6_dut_src/buffer.c ****         aux = abs(buffer.data[i].written - buffer.data[i].read);
 106              		.loc 1 41 0
 107 006c 0F49     		ldr	r1, .L10+4
 108 006e 01EBC301 		add	r1, r1, r3, lsl #3
 109 0072 8A88     		ldrh	r2, [r1, #4]
 110 0074 4988     		ldrh	r1, [r1, #2]
 111 0076 521A     		subs	r2, r2, r1
 112 0078 002A     		cmp	r2, #0
 113 007a B8BF     		it	lt
 114 007c 5242     		rsblt	r2, r2, #0
 115 007e 11B2     		sxth	r1, r2
  42:psoc6_dut_src/buffer.c ****         
  43:psoc6_dut_src/buffer.c ****         if(aux > reference.maxWRDiff){
 116              		.loc 1 43 0
 117 0080 0948     		ldr	r0, .L10
 118 0082 8088     		ldrh	r0, [r0, #4]
 119 0084 8142     		cmp	r1, r0
 120 0086 01DD     		ble	.L6
  44:psoc6_dut_src/buffer.c ****             reference.maxWRDiff = aux;
 121              		.loc 1 44 0
 122 0088 0748     		ldr	r0, .L10
 123 008a 8280     		strh	r2, [r0, #4]	@ movhi
 124              	.L6:
ARM GAS  C:\Users\eduar\AppData\Local\Temp\ccc9nPpE.s 			page 4


  45:psoc6_dut_src/buffer.c ****         }
  46:psoc6_dut_src/buffer.c ****         if(aux < reference.minWRDiff){
 125              		.loc 1 46 0
 126 008c 0648     		ldr	r0, .L10
 127 008e C088     		ldrh	r0, [r0, #6]
 128 0090 8142     		cmp	r1, r0
 129 0092 01DA     		bge	.L7
  47:psoc6_dut_src/buffer.c ****             reference.minWRDiff = aux;                    
 130              		.loc 1 47 0
 131 0094 0449     		ldr	r1, .L10
 132 0096 CA80     		strh	r2, [r1, #6]	@ movhi
 133              	.L7:
  26:psoc6_dut_src/buffer.c **** 
 134              		.loc 1 26 0 discriminator 2
 135 0098 0133     		adds	r3, r3, #1
 136              	.LVL2:
 137              	.L3:
  26:psoc6_dut_src/buffer.c **** 
 138              		.loc 1 26 0 is_stmt 0 discriminator 1
 139 009a B3F57A7F 		cmp	r3, #1000
 140 009e C8DB     		blt	.L8
 141              	.LBE2:
  48:psoc6_dut_src/buffer.c ****         }                
  49:psoc6_dut_src/buffer.c **** 
  50:psoc6_dut_src/buffer.c ****     }   
  51:psoc6_dut_src/buffer.c **** }
 142              		.loc 1 51 0 is_stmt 1
 143 00a0 5DF8044B 		ldr	r4, [sp], #4
 144              		.cfi_restore 4
 145              		.cfi_def_cfa_offset 0
 146 00a4 7047     		bx	lr
 147              	.L11:
 148 00a6 00BF     		.align	2
 149              	.L10:
 150 00a8 00000000 		.word	reference
 151 00ac 00000000 		.word	buffer
 152              		.cfi_endproc
 153              	.LFE804:
 154              		.size	getReferenceValues, .-getReferenceValues
 155              		.section	.text.verifyFaults,"ax",%progbits
 156              		.align	2
 157              		.global	verifyFaults
 158              		.thumb
 159              		.thumb_func
 160              		.type	verifyFaults, %function
 161              	verifyFaults:
 162              	.LFB805:
  52:psoc6_dut_src/buffer.c **** 
  53:psoc6_dut_src/buffer.c **** //**************************************************************************
  54:psoc6_dut_src/buffer.c **** 
  55:psoc6_dut_src/buffer.c **** //compares the values in buffer with the reference values obtained before
  56:psoc6_dut_src/buffer.c **** uint16_t verifyFaults() {
 163              		.loc 1 56 0
 164              		.cfi_startproc
 165              		@ args = 0, pretend = 0, frame = 0
 166              		@ frame_needed = 0, uses_anonymous_args = 0
 167              		@ link register save eliminated.
ARM GAS  C:\Users\eduar\AppData\Local\Temp\ccc9nPpE.s 			page 5


 168 0000 10B4     		push	{r4}
 169              		.cfi_def_cfa_offset 4
 170              		.cfi_offset 4, -4
 171              	.LVL3:
 172              	.LBB3:
  57:psoc6_dut_src/buffer.c ****       
  58:psoc6_dut_src/buffer.c ****     int16   aux = 0,
  59:psoc6_dut_src/buffer.c ****             SR_faultIndex = 0, 
  60:psoc6_dut_src/buffer.c ****             WR_faultIndex = 0;
  61:psoc6_dut_src/buffer.c ****     
  62:psoc6_dut_src/buffer.c ****     for(int i=0; i < MAX_BUFFER_DATA; i++){
 173              		.loc 1 62 0
 174 0002 0023     		movs	r3, #0
 175              	.LBE3:
  60:psoc6_dut_src/buffer.c ****     
 176              		.loc 1 60 0
 177 0004 1946     		mov	r1, r3
  59:psoc6_dut_src/buffer.c ****             WR_faultIndex = 0;
 178              		.loc 1 59 0
 179 0006 1846     		mov	r0, r3
 180              	.LBB4:
 181              		.loc 1 62 0
 182 0008 49E0     		b	.L13
 183              	.LVL4:
 184              	.L20:
  63:psoc6_dut_src/buffer.c **** 
  64:psoc6_dut_src/buffer.c ****         //verify the slew rate
  65:psoc6_dut_src/buffer.c ****         if(i < MAX_BUFFER_DATA - 1){
 185              		.loc 1 65 0
 186 000a 40F2E632 		movw	r2, #998
 187 000e 9342     		cmp	r3, r2
 188 0010 23DC     		bgt	.L14
  66:psoc6_dut_src/buffer.c ****             aux = abs(buffer.data[i+1].read - buffer.data[i].read); 
 189              		.loc 1 66 0
 190 0012 5A1C     		adds	r2, r3, #1
 191 0014 2A4C     		ldr	r4, .L22
 192 0016 04EBC202 		add	r2, r4, r2, lsl #3
 193 001a 5288     		ldrh	r2, [r2, #2]
 194 001c 04EBC304 		add	r4, r4, r3, lsl #3
 195 0020 6488     		ldrh	r4, [r4, #2]
 196 0022 121B     		subs	r2, r2, r4
 197 0024 002A     		cmp	r2, #0
 198 0026 B8BF     		it	lt
 199 0028 5242     		rsblt	r2, r2, #0
 200 002a 12B2     		sxth	r2, r2
  67:psoc6_dut_src/buffer.c ****             if(!(aux >= (reference.minSlewRate - SR_TOL) && aux <= (reference.maxSlewRate + SR_TOL)
 201              		.loc 1 67 0
 202 002c 254C     		ldr	r4, .L22+4
 203 002e 6488     		ldrh	r4, [r4, #2]
 204 0030 0A3C     		subs	r4, r4, #10
 205 0032 A242     		cmp	r2, r4
 206 0034 04DB     		blt	.L15
 207              		.loc 1 67 0 is_stmt 0 discriminator 1
 208 0036 234C     		ldr	r4, .L22+4
 209 0038 2488     		ldrh	r4, [r4]
 210 003a 0A34     		adds	r4, r4, #10
 211 003c A242     		cmp	r2, r4
ARM GAS  C:\Users\eduar\AppData\Local\Temp\ccc9nPpE.s 			page 6


 212 003e 07DD     		ble	.L16
 213              	.L15:
  68:psoc6_dut_src/buffer.c ****                 SR_faultIndex++;
 214              		.loc 1 68 0 is_stmt 1
 215 0040 0130     		adds	r0, r0, #1
 216              	.LVL5:
 217 0042 00B2     		sxth	r0, r0
 218              	.LVL6:
  69:psoc6_dut_src/buffer.c ****                 buffer.data[i].SR_fault= true;
 219              		.loc 1 69 0
 220 0044 1E4A     		ldr	r2, .L22
 221 0046 02EBC302 		add	r2, r2, r3, lsl #3
 222 004a 0124     		movs	r4, #1
 223 004c D471     		strb	r4, [r2, #7]
 224 004e 04E0     		b	.L14
 225              	.L16:
  70:psoc6_dut_src/buffer.c ****             } 
  71:psoc6_dut_src/buffer.c ****             else {
  72:psoc6_dut_src/buffer.c ****                 buffer.data[i].SR_fault= false; 
 226              		.loc 1 72 0
 227 0050 1B4A     		ldr	r2, .L22
 228 0052 02EBC302 		add	r2, r2, r3, lsl #3
 229 0056 0024     		movs	r4, #0
 230 0058 D471     		strb	r4, [r2, #7]
 231              	.L14:
  73:psoc6_dut_src/buffer.c ****             }
  74:psoc6_dut_src/buffer.c ****             
  75:psoc6_dut_src/buffer.c ****         }
  76:psoc6_dut_src/buffer.c ****         
  77:psoc6_dut_src/buffer.c ****         //verify the difference between what was written and read "dWR"
  78:psoc6_dut_src/buffer.c ****         aux = abs(buffer.data[i].written - buffer.data[i].read);
 232              		.loc 1 78 0
 233 005a 194C     		ldr	r4, .L22
 234 005c 04EBC304 		add	r4, r4, r3, lsl #3
 235 0060 A288     		ldrh	r2, [r4, #4]
 236 0062 6488     		ldrh	r4, [r4, #2]
 237 0064 121B     		subs	r2, r2, r4
 238 0066 002A     		cmp	r2, #0
 239 0068 B8BF     		it	lt
 240 006a 5242     		rsblt	r2, r2, #0
 241 006c 12B2     		sxth	r2, r2
  79:psoc6_dut_src/buffer.c ****         if(!(aux >= (reference.minWRDiff - WR_TOL) && aux <= (reference.maxWRDiff + WR_TOL)) ){
 242              		.loc 1 79 0
 243 006e 154C     		ldr	r4, .L22+4
 244 0070 E488     		ldrh	r4, [r4, #6]
 245 0072 143C     		subs	r4, r4, #20
 246 0074 A242     		cmp	r2, r4
 247 0076 04DB     		blt	.L17
 248              		.loc 1 79 0 is_stmt 0 discriminator 1
 249 0078 124C     		ldr	r4, .L22+4
 250 007a A488     		ldrh	r4, [r4, #4]
 251 007c 1434     		adds	r4, r4, #20
 252 007e A242     		cmp	r2, r4
 253 0080 07DD     		ble	.L18
 254              	.L17:
  80:psoc6_dut_src/buffer.c ****             WR_faultIndex++;
 255              		.loc 1 80 0 is_stmt 1
ARM GAS  C:\Users\eduar\AppData\Local\Temp\ccc9nPpE.s 			page 7


 256 0082 0131     		adds	r1, r1, #1
 257              	.LVL7:
 258 0084 09B2     		sxth	r1, r1
 259              	.LVL8:
  81:psoc6_dut_src/buffer.c ****             buffer.data[i].WR_fault = true;
 260              		.loc 1 81 0
 261 0086 0E4A     		ldr	r2, .L22
 262 0088 02EBC302 		add	r2, r2, r3, lsl #3
 263 008c 0124     		movs	r4, #1
 264 008e 9471     		strb	r4, [r2, #6]
 265 0090 04E0     		b	.L19
 266              	.L18:
  82:psoc6_dut_src/buffer.c ****         } 
  83:psoc6_dut_src/buffer.c ****         else {
  84:psoc6_dut_src/buffer.c ****             buffer.data[i].WR_fault = false;
 267              		.loc 1 84 0
 268 0092 0B4A     		ldr	r2, .L22
 269 0094 02EBC302 		add	r2, r2, r3, lsl #3
 270 0098 0024     		movs	r4, #0
 271 009a 9471     		strb	r4, [r2, #6]
 272              	.L19:
  62:psoc6_dut_src/buffer.c **** 
 273              		.loc 1 62 0 discriminator 2
 274 009c 0133     		adds	r3, r3, #1
 275              	.LVL9:
 276              	.L13:
  62:psoc6_dut_src/buffer.c **** 
 277              		.loc 1 62 0 is_stmt 0 discriminator 1
 278 009e B3F57A7F 		cmp	r3, #1000
 279 00a2 B2DB     		blt	.L20
 280              	.LBE4:
  85:psoc6_dut_src/buffer.c ****         }
  86:psoc6_dut_src/buffer.c **** 
  87:psoc6_dut_src/buffer.c ****     }
  88:psoc6_dut_src/buffer.c **** 
  89:psoc6_dut_src/buffer.c ****     #if DEBUG_CODE
  90:psoc6_dut_src/buffer.c ****         char string[MAX_STRING_SIZE] = {0};  
  91:psoc6_dut_src/buffer.c ****         sprintf(string, "Ciclo: %d\r\n", buffer.cycleIndex);
  92:psoc6_dut_src/buffer.c ****         UART_PutString(string);
  93:psoc6_dut_src/buffer.c ****         
  94:psoc6_dut_src/buffer.c ****         if(SR_faultIndex + WR_faultIndex > 0){
  95:psoc6_dut_src/buffer.c ****             sprintf(string, "Fault count: SR-%i \t WR-%i  \r\n",SR_faultIndex, WR_faultIndex);
  96:psoc6_dut_src/buffer.c ****             UART_PutString(string); 
  97:psoc6_dut_src/buffer.c ****         }
  98:psoc6_dut_src/buffer.c ****     #endif
  99:psoc6_dut_src/buffer.c ****     
 100:psoc6_dut_src/buffer.c ****     buffer.SRfaultIndex = SR_faultIndex;
 281              		.loc 1 100 0 is_stmt 1
 282 00a4 80B2     		uxth	r0, r0
 283 00a6 064B     		ldr	r3, .L22
 284              	.LVL10:
 285 00a8 41F65072 		movw	r2, #8016
 286 00ac 9852     		strh	r0, [r3, r2]	@ movhi
 101:psoc6_dut_src/buffer.c ****     buffer.WRfaultIndex = WR_faultIndex;
 287              		.loc 1 101 0
 288 00ae 89B2     		uxth	r1, r1
 289 00b0 41F65272 		movw	r2, #8018
ARM GAS  C:\Users\eduar\AppData\Local\Temp\ccc9nPpE.s 			page 8


 290 00b4 9952     		strh	r1, [r3, r2]	@ movhi
 102:psoc6_dut_src/buffer.c **** 
 103:psoc6_dut_src/buffer.c ****     return SR_faultIndex + WR_faultIndex;   
 291              		.loc 1 103 0
 292 00b6 0844     		add	r0, r0, r1
 293              	.LVL11:
 104:psoc6_dut_src/buffer.c **** }
 294              		.loc 1 104 0
 295 00b8 80B2     		uxth	r0, r0
 296 00ba 5DF8044B 		ldr	r4, [sp], #4
 297              		.cfi_restore 4
 298              		.cfi_def_cfa_offset 0
 299 00be 7047     		bx	lr
 300              	.L23:
 301              		.align	2
 302              	.L22:
 303 00c0 00000000 		.word	buffer
 304 00c4 00000000 		.word	reference
 305              		.cfi_endproc
 306              	.LFE805:
 307              		.size	verifyFaults, .-verifyFaults
 308              		.text
 309              	.Letext0:
 310              		.file 2 "c:\\program files (x86)\\cypress\\psoc creator\\4.4\\psoc creator\\import\\gnu\\arm\\5.4.
 311              		.file 3 "c:\\program files (x86)\\cypress\\psoc creator\\4.4\\psoc creator\\import\\gnu\\arm\\5.4.
 312              		.file 4 "Generated_Source\\PSoC6\\pdl\\drivers/peripheral/device/cy_device.h"
 313              		.file 5 "Generated_Source\\PSoC6\\pdl\\drivers/peripheral/syslib/cy_syslib.h"
 314              		.file 6 "Generated_Source\\PSoC6\\pdl\\drivers/peripheral/ctb/cy_ctb.h"
 315              		.file 7 "Generated_Source\\PSoC6\\pdl\\drivers/peripheral/sysclk/cy_sysclk.h"
 316              		.file 8 "Generated_Source\\PSoC6\\pdl\\drivers/peripheral/ctdac/cy_ctdac.h"
 317              		.file 9 "Generated_Source\\PSoC6\\pdl\\drivers/peripheral/sar/cy_sar.h"
 318              		.file 10 "Generated_Source\\PSoC6\\pdl\\drivers/peripheral/scb/cy_scb_uart.h"
 319              		.file 11 "Generated_Source\\PSoC6\\pdl\\drivers/peripheral/tcpwm/cy_tcpwm_counter.h"
 320              		.file 12 "Generated_Source\\PSoC6/ADC.h"
 321              		.file 13 "psoc6_dut_src\\buffer.h"
 322              		.file 14 "Generated_Source\\PSoC6\\pdl\\cmsis/include/core_cm4.h"
 323              		.file 15 "Generated_Source\\PSoC6/UART.h"
 324              		.file 16 "Generated_Source\\PSoC6/DAC.h"
 325              		.file 17 "Generated_Source\\PSoC6/Stopwatch.h"