ARM GAS  C:\Users\eduar\AppData\Local\Temp\ccwtx1iP.s 			page 1


   1              		.syntax unified
   2              		.cpu cortex-m4
   3              		.eabi_attribute 27, 1
   4              		.fpu fpv4-sp-d16
   5              		.eabi_attribute 20, 1
   6              		.eabi_attribute 21, 1
   7              		.eabi_attribute 23, 3
   8              		.eabi_attribute 24, 1
   9              		.eabi_attribute 25, 1
  10              		.eabi_attribute 26, 1
  11              		.eabi_attribute 30, 1
  12              		.eabi_attribute 34, 1
  13              		.eabi_attribute 18, 4
  14              		.thumb
  15              		.syntax unified
  16              		.file	"cy_em_eeprom.c"
  17              		.text
  18              	.Ltext0:
  19              		.cfi_sections	.debug_frame
  20              		.section	.text.FindLastWrittenRow,"ax",%progbits
  21              		.align	2
  22              		.thumb
  23              		.thumb_func
  24              		.type	FindLastWrittenRow, %function
  25              	FindLastWrittenRow:
  26              	.LFB137:
  27              		.file 1 "Generated_Source\\PSoC6\\pdl\\middleware\\em_eeprom\\cy_em_eeprom.c"
   1:Generated_Source\PSoC6\pdl\middleware\em_eeprom/cy_em_eeprom.c **** /***************************************************************************//**
   2:Generated_Source\PSoC6\pdl\middleware\em_eeprom/cy_em_eeprom.c **** * \file cy_em_eeprom.c
   3:Generated_Source\PSoC6\pdl\middleware\em_eeprom/cy_em_eeprom.c **** * \version 1.10
   4:Generated_Source\PSoC6\pdl\middleware\em_eeprom/cy_em_eeprom.c **** *
   5:Generated_Source\PSoC6\pdl\middleware\em_eeprom/cy_em_eeprom.c **** * \brief
   6:Generated_Source\PSoC6\pdl\middleware\em_eeprom/cy_em_eeprom.c **** *  This file provides source code of the API for the Emulated EEPROM library.
   7:Generated_Source\PSoC6\pdl\middleware\em_eeprom/cy_em_eeprom.c **** *  The Emulated EEPROM API allows creating of an emulated EEPROM in flash that
   8:Generated_Source\PSoC6\pdl\middleware\em_eeprom/cy_em_eeprom.c **** *  has the ability to do wear leveling and restore corrupted data from a
   9:Generated_Source\PSoC6\pdl\middleware\em_eeprom/cy_em_eeprom.c **** *  redundant copy.
  10:Generated_Source\PSoC6\pdl\middleware\em_eeprom/cy_em_eeprom.c **** *
  11:Generated_Source\PSoC6\pdl\middleware\em_eeprom/cy_em_eeprom.c **** ********************************************************************************
  12:Generated_Source\PSoC6\pdl\middleware\em_eeprom/cy_em_eeprom.c **** * \copyright
  13:Generated_Source\PSoC6\pdl\middleware\em_eeprom/cy_em_eeprom.c **** * Copyright 2017-2018, Cypress Semiconductor Corporation.  All rights reserved.
  14:Generated_Source\PSoC6\pdl\middleware\em_eeprom/cy_em_eeprom.c **** * You may use this file only in accordance with the license, terms, conditions,
  15:Generated_Source\PSoC6\pdl\middleware\em_eeprom/cy_em_eeprom.c **** * disclaimers, and limitations in the end user license agreement accompanying
  16:Generated_Source\PSoC6\pdl\middleware\em_eeprom/cy_em_eeprom.c **** * the software package with which this file was provided.
  17:Generated_Source\PSoC6\pdl\middleware\em_eeprom/cy_em_eeprom.c **** *******************************************************************************/
  18:Generated_Source\PSoC6\pdl\middleware\em_eeprom/cy_em_eeprom.c **** 
  19:Generated_Source\PSoC6\pdl\middleware\em_eeprom/cy_em_eeprom.c **** 
  20:Generated_Source\PSoC6\pdl\middleware\em_eeprom/cy_em_eeprom.c **** #include <string.h>
  21:Generated_Source\PSoC6\pdl\middleware\em_eeprom/cy_em_eeprom.c **** 
  22:Generated_Source\PSoC6\pdl\middleware\em_eeprom/cy_em_eeprom.c **** #include "cy_em_eeprom.h"
  23:Generated_Source\PSoC6\pdl\middleware\em_eeprom/cy_em_eeprom.c **** 
  24:Generated_Source\PSoC6\pdl\middleware\em_eeprom/cy_em_eeprom.c **** 
  25:Generated_Source\PSoC6\pdl\middleware\em_eeprom/cy_em_eeprom.c **** #if defined(__cplusplus)
  26:Generated_Source\PSoC6\pdl\middleware\em_eeprom/cy_em_eeprom.c **** extern "C" {
  27:Generated_Source\PSoC6\pdl\middleware\em_eeprom/cy_em_eeprom.c **** #endif
  28:Generated_Source\PSoC6\pdl\middleware\em_eeprom/cy_em_eeprom.c **** 
  29:Generated_Source\PSoC6\pdl\middleware\em_eeprom/cy_em_eeprom.c **** 
  30:Generated_Source\PSoC6\pdl\middleware\em_eeprom/cy_em_eeprom.c **** /***************************************
ARM GAS  C:\Users\eduar\AppData\Local\Temp\ccwtx1iP.s 			page 2


  31:Generated_Source\PSoC6\pdl\middleware\em_eeprom/cy_em_eeprom.c **** * Private Function Prototypes
  32:Generated_Source\PSoC6\pdl\middleware\em_eeprom/cy_em_eeprom.c **** ***************************************/
  33:Generated_Source\PSoC6\pdl\middleware\em_eeprom/cy_em_eeprom.c **** static void FindLastWrittenRow(uint32_t * lastWrRowPtr, cy_stc_eeprom_context_t * context);
  34:Generated_Source\PSoC6\pdl\middleware\em_eeprom/cy_em_eeprom.c **** static uint32_t GetRowAddrBySeqNum(uint32_t seqNum, cy_stc_eeprom_context_t * context);
  35:Generated_Source\PSoC6\pdl\middleware\em_eeprom/cy_em_eeprom.c **** static uint8_t CalcChecksum(uint8_t rowData[], uint32_t len);
  36:Generated_Source\PSoC6\pdl\middleware\em_eeprom/cy_em_eeprom.c **** static void GetNextRowToWrite(uint32_t seqNum,
  37:Generated_Source\PSoC6\pdl\middleware\em_eeprom/cy_em_eeprom.c ****                             uint32_t * rowToWrPtr,
  38:Generated_Source\PSoC6\pdl\middleware\em_eeprom/cy_em_eeprom.c ****                             uint32_t * rowToRdPtr,
  39:Generated_Source\PSoC6\pdl\middleware\em_eeprom/cy_em_eeprom.c ****                             cy_stc_eeprom_context_t * context);
  40:Generated_Source\PSoC6\pdl\middleware\em_eeprom/cy_em_eeprom.c **** static cy_en_em_eeprom_status_t CheckRanges(cy_stc_eeprom_config_t* config);
  41:Generated_Source\PSoC6\pdl\middleware\em_eeprom/cy_em_eeprom.c **** static cy_en_em_eeprom_status_t WriteRow(uint32_t rowAddr, uint32_t *rowData, cy_stc_eeprom_context
  42:Generated_Source\PSoC6\pdl\middleware\em_eeprom/cy_em_eeprom.c **** static cy_en_em_eeprom_status_t EraseRow(uint32_t rowAddr, uint32_t ramBuffAddr, cy_stc_eeprom_cont
  43:Generated_Source\PSoC6\pdl\middleware\em_eeprom/cy_em_eeprom.c **** static cy_en_em_eeprom_status_t CheckCrcAndCopy(uint32_t startAddr,
  44:Generated_Source\PSoC6\pdl\middleware\em_eeprom/cy_em_eeprom.c ****                                                 uint32_t dstAddr,
  45:Generated_Source\PSoC6\pdl\middleware\em_eeprom/cy_em_eeprom.c ****                                                 uint32_t rowOffset,
  46:Generated_Source\PSoC6\pdl\middleware\em_eeprom/cy_em_eeprom.c ****                                                 uint32_t numBytes,
  47:Generated_Source\PSoC6\pdl\middleware\em_eeprom/cy_em_eeprom.c ****                                                 cy_stc_eeprom_context_t * context);
  48:Generated_Source\PSoC6\pdl\middleware\em_eeprom/cy_em_eeprom.c **** static uint32_t GetAddresses(uint32_t *startAddr, uint32_t *endAddr, uint32_t *offset, uint32_t row
  49:Generated_Source\PSoC6\pdl\middleware\em_eeprom/cy_em_eeprom.c **** static cy_en_em_eeprom_status_t FillChecksum(cy_stc_eeprom_context_t * context);
  50:Generated_Source\PSoC6\pdl\middleware\em_eeprom/cy_em_eeprom.c **** 
  51:Generated_Source\PSoC6\pdl\middleware\em_eeprom/cy_em_eeprom.c **** /**
  52:Generated_Source\PSoC6\pdl\middleware\em_eeprom/cy_em_eeprom.c **** * \addtogroup group_em_eeprom_functions
  53:Generated_Source\PSoC6\pdl\middleware\em_eeprom/cy_em_eeprom.c **** * \{
  54:Generated_Source\PSoC6\pdl\middleware\em_eeprom/cy_em_eeprom.c **** */
  55:Generated_Source\PSoC6\pdl\middleware\em_eeprom/cy_em_eeprom.c **** 
  56:Generated_Source\PSoC6\pdl\middleware\em_eeprom/cy_em_eeprom.c **** /*******************************************************************************
  57:Generated_Source\PSoC6\pdl\middleware\em_eeprom/cy_em_eeprom.c **** * Function Name: Cy_Em_EEPROM_Init
  58:Generated_Source\PSoC6\pdl\middleware\em_eeprom/cy_em_eeprom.c **** ****************************************************************************//**
  59:Generated_Source\PSoC6\pdl\middleware\em_eeprom/cy_em_eeprom.c **** *
  60:Generated_Source\PSoC6\pdl\middleware\em_eeprom/cy_em_eeprom.c **** * Initializes the Emulated EEPROM library by filling the context structure. 
  61:Generated_Source\PSoC6\pdl\middleware\em_eeprom/cy_em_eeprom.c **** *
  62:Generated_Source\PSoC6\pdl\middleware\em_eeprom/cy_em_eeprom.c **** * \param config
  63:Generated_Source\PSoC6\pdl\middleware\em_eeprom/cy_em_eeprom.c **** * The pointer to a configuration structure. See \ref cy_stc_eeprom_config_t.
  64:Generated_Source\PSoC6\pdl\middleware\em_eeprom/cy_em_eeprom.c **** *
  65:Generated_Source\PSoC6\pdl\middleware\em_eeprom/cy_em_eeprom.c **** * \param context
  66:Generated_Source\PSoC6\pdl\middleware\em_eeprom/cy_em_eeprom.c **** * The pointer to the EEPROM context structure to be filled by the function.
  67:Generated_Source\PSoC6\pdl\middleware\em_eeprom/cy_em_eeprom.c **** * \ref cy_stc_eeprom_context_t.
  68:Generated_Source\PSoC6\pdl\middleware\em_eeprom/cy_em_eeprom.c **** *
  69:Generated_Source\PSoC6\pdl\middleware\em_eeprom/cy_em_eeprom.c **** * \return
  70:Generated_Source\PSoC6\pdl\middleware\em_eeprom/cy_em_eeprom.c **** * error / status code. See \ref cy_en_em_eeprom_status_t.
  71:Generated_Source\PSoC6\pdl\middleware\em_eeprom/cy_em_eeprom.c **** *
  72:Generated_Source\PSoC6\pdl\middleware\em_eeprom/cy_em_eeprom.c **** * \note
  73:Generated_Source\PSoC6\pdl\middleware\em_eeprom/cy_em_eeprom.c **** * The context structure should not be modified by the user after it is filled
  74:Generated_Source\PSoC6\pdl\middleware\em_eeprom/cy_em_eeprom.c **** * with this function. Modification of context structure may cause the 
  75:Generated_Source\PSoC6\pdl\middleware\em_eeprom/cy_em_eeprom.c **** * unexpected behavior of the Cy_Em_EEPROM API functions which rely on it.
  76:Generated_Source\PSoC6\pdl\middleware\em_eeprom/cy_em_eeprom.c **** *
  77:Generated_Source\PSoC6\pdl\middleware\em_eeprom/cy_em_eeprom.c **** * \note
  78:Generated_Source\PSoC6\pdl\middleware\em_eeprom/cy_em_eeprom.c **** * This function uses a buffer of the flash row size to perform read
  79:Generated_Source\PSoC6\pdl\middleware\em_eeprom/cy_em_eeprom.c **** * operation. For the size of the row refer to the specific PSoC device
  80:Generated_Source\PSoC6\pdl\middleware\em_eeprom/cy_em_eeprom.c **** * datasheet.
  81:Generated_Source\PSoC6\pdl\middleware\em_eeprom/cy_em_eeprom.c **** *
  82:Generated_Source\PSoC6\pdl\middleware\em_eeprom/cy_em_eeprom.c **** * \sideeffect 
  83:Generated_Source\PSoC6\pdl\middleware\em_eeprom/cy_em_eeprom.c **** * If the "Redundant Copy" option is used, the function performs a number of 
  84:Generated_Source\PSoC6\pdl\middleware\em_eeprom/cy_em_eeprom.c **** * write operations to the EEPROM to initialize flash rows checksums. Therefore,
  85:Generated_Source\PSoC6\pdl\middleware\em_eeprom/cy_em_eeprom.c **** * Cy_Em_EEPROM_NumWrites(), when it is called right after Cy_Em_EEPROM_Init(), 
  86:Generated_Source\PSoC6\pdl\middleware\em_eeprom/cy_em_eeprom.c **** * will return a non-zero value that identifies the number of writes performed 
  87:Generated_Source\PSoC6\pdl\middleware\em_eeprom/cy_em_eeprom.c **** * by Cy_Em_EEPROM_Init().
ARM GAS  C:\Users\eduar\AppData\Local\Temp\ccwtx1iP.s 			page 3


  88:Generated_Source\PSoC6\pdl\middleware\em_eeprom/cy_em_eeprom.c **** *
  89:Generated_Source\PSoC6\pdl\middleware\em_eeprom/cy_em_eeprom.c **** *******************************************************************************/
  90:Generated_Source\PSoC6\pdl\middleware\em_eeprom/cy_em_eeprom.c **** cy_en_em_eeprom_status_t Cy_Em_EEPROM_Init(cy_stc_eeprom_config_t* config, cy_stc_eeprom_context_t 
  91:Generated_Source\PSoC6\pdl\middleware\em_eeprom/cy_em_eeprom.c **** {
  92:Generated_Source\PSoC6\pdl\middleware\em_eeprom/cy_em_eeprom.c ****     cy_en_em_eeprom_status_t ret = CY_EM_EEPROM_BAD_PARAM;
  93:Generated_Source\PSoC6\pdl\middleware\em_eeprom/cy_em_eeprom.c **** 
  94:Generated_Source\PSoC6\pdl\middleware\em_eeprom/cy_em_eeprom.c ****     if((NULL != context) && (NULL != config) && (NULL != ((uint32_t *)config->userFlashStartAddr)) 
  95:Generated_Source\PSoC6\pdl\middleware\em_eeprom/cy_em_eeprom.c ****         (config->wearLevelingFactor <= CY_EM_EEPROM_MAX_WEAR_LEVELING_FACTOR) && (config->eepromSiz
  96:Generated_Source\PSoC6\pdl\middleware\em_eeprom/cy_em_eeprom.c ****     {
  97:Generated_Source\PSoC6\pdl\middleware\em_eeprom/cy_em_eeprom.c ****         ret = CheckRanges(config);
  98:Generated_Source\PSoC6\pdl\middleware\em_eeprom/cy_em_eeprom.c **** 
  99:Generated_Source\PSoC6\pdl\middleware\em_eeprom/cy_em_eeprom.c ****         if(CY_EM_EEPROM_SUCCESS == ret)
 100:Generated_Source\PSoC6\pdl\middleware\em_eeprom/cy_em_eeprom.c ****         {
 101:Generated_Source\PSoC6\pdl\middleware\em_eeprom/cy_em_eeprom.c ****             /* Copy the user config structure fields into context */
 102:Generated_Source\PSoC6\pdl\middleware\em_eeprom/cy_em_eeprom.c ****             context->eepromSize = config->eepromSize;
 103:Generated_Source\PSoC6\pdl\middleware\em_eeprom/cy_em_eeprom.c ****             context->wearLevelingFactor = config->wearLevelingFactor;
 104:Generated_Source\PSoC6\pdl\middleware\em_eeprom/cy_em_eeprom.c ****             context->redundantCopy = config->redundantCopy;
 105:Generated_Source\PSoC6\pdl\middleware\em_eeprom/cy_em_eeprom.c ****             context->blockingWrite = config->blockingWrite;
 106:Generated_Source\PSoC6\pdl\middleware\em_eeprom/cy_em_eeprom.c ****             context->userFlashStartAddr = config->userFlashStartAddr;
 107:Generated_Source\PSoC6\pdl\middleware\em_eeprom/cy_em_eeprom.c ****             /* Store frequently used data for internal use */
 108:Generated_Source\PSoC6\pdl\middleware\em_eeprom/cy_em_eeprom.c ****             context->numberOfRows = CY_EM_EEPROM_GET_NUM_ROWS_IN_EEPROM(config->eepromSize);
 109:Generated_Source\PSoC6\pdl\middleware\em_eeprom/cy_em_eeprom.c ****             context->wlEndAddr = ((CY_EM_EEPROM_GET_EEPROM_SIZE(context->numberOfRows) * config->we
 110:Generated_Source\PSoC6\pdl\middleware\em_eeprom/cy_em_eeprom.c ****                     config->userFlashStartAddr);
 111:Generated_Source\PSoC6\pdl\middleware\em_eeprom/cy_em_eeprom.c ****             /* Find last written EEPROM row and store it for quick access */
 112:Generated_Source\PSoC6\pdl\middleware\em_eeprom/cy_em_eeprom.c ****             FindLastWrittenRow(&context->lastWrRowAddr, context);
 113:Generated_Source\PSoC6\pdl\middleware\em_eeprom/cy_em_eeprom.c **** 
 114:Generated_Source\PSoC6\pdl\middleware\em_eeprom/cy_em_eeprom.c ****             if((0u == CY_EM_EEPROM_GET_SEQ_NUM(context->lastWrRowAddr)) && (0u != context->redundan
 115:Generated_Source\PSoC6\pdl\middleware\em_eeprom/cy_em_eeprom.c ****             {
 116:Generated_Source\PSoC6\pdl\middleware\em_eeprom/cy_em_eeprom.c ****                 /* Call the function only after device reprogramming in case
 117:Generated_Source\PSoC6\pdl\middleware\em_eeprom/cy_em_eeprom.c ****                 * if redundant copy is enabled.
 118:Generated_Source\PSoC6\pdl\middleware\em_eeprom/cy_em_eeprom.c ****                 */
 119:Generated_Source\PSoC6\pdl\middleware\em_eeprom/cy_em_eeprom.c ****                 ret = FillChecksum(context);
 120:Generated_Source\PSoC6\pdl\middleware\em_eeprom/cy_em_eeprom.c ****                 
 121:Generated_Source\PSoC6\pdl\middleware\em_eeprom/cy_em_eeprom.c ****                 /* Update the last written EEPROM row for Cy_Em_EEPROM_NumWrites() */
 122:Generated_Source\PSoC6\pdl\middleware\em_eeprom/cy_em_eeprom.c ****                 FindLastWrittenRow(&context->lastWrRowAddr, context);
 123:Generated_Source\PSoC6\pdl\middleware\em_eeprom/cy_em_eeprom.c ****             }
 124:Generated_Source\PSoC6\pdl\middleware\em_eeprom/cy_em_eeprom.c ****         }
 125:Generated_Source\PSoC6\pdl\middleware\em_eeprom/cy_em_eeprom.c ****     }
 126:Generated_Source\PSoC6\pdl\middleware\em_eeprom/cy_em_eeprom.c **** 
 127:Generated_Source\PSoC6\pdl\middleware\em_eeprom/cy_em_eeprom.c ****     return(ret);
 128:Generated_Source\PSoC6\pdl\middleware\em_eeprom/cy_em_eeprom.c **** }
 129:Generated_Source\PSoC6\pdl\middleware\em_eeprom/cy_em_eeprom.c **** 
 130:Generated_Source\PSoC6\pdl\middleware\em_eeprom/cy_em_eeprom.c **** 
 131:Generated_Source\PSoC6\pdl\middleware\em_eeprom/cy_em_eeprom.c **** /*******************************************************************************
 132:Generated_Source\PSoC6\pdl\middleware\em_eeprom/cy_em_eeprom.c **** * Function Name: Cy_Em_EEPROM_Read
 133:Generated_Source\PSoC6\pdl\middleware\em_eeprom/cy_em_eeprom.c **** ****************************************************************************//**
 134:Generated_Source\PSoC6\pdl\middleware\em_eeprom/cy_em_eeprom.c **** *
 135:Generated_Source\PSoC6\pdl\middleware\em_eeprom/cy_em_eeprom.c **** * This function takes the logical EEPROM address, converts it to the actual
 136:Generated_Source\PSoC6\pdl\middleware\em_eeprom/cy_em_eeprom.c **** * physical address where the data is stored and returns the data to the user.
 137:Generated_Source\PSoC6\pdl\middleware\em_eeprom/cy_em_eeprom.c **** *
 138:Generated_Source\PSoC6\pdl\middleware\em_eeprom/cy_em_eeprom.c **** * \param addr
 139:Generated_Source\PSoC6\pdl\middleware\em_eeprom/cy_em_eeprom.c **** * The logical start address in EEPROM to start reading data from.
 140:Generated_Source\PSoC6\pdl\middleware\em_eeprom/cy_em_eeprom.c **** *
 141:Generated_Source\PSoC6\pdl\middleware\em_eeprom/cy_em_eeprom.c **** * \param eepromData
 142:Generated_Source\PSoC6\pdl\middleware\em_eeprom/cy_em_eeprom.c **** * The pointer to a user array to write data to.
 143:Generated_Source\PSoC6\pdl\middleware\em_eeprom/cy_em_eeprom.c **** *
 144:Generated_Source\PSoC6\pdl\middleware\em_eeprom/cy_em_eeprom.c **** * \param size
ARM GAS  C:\Users\eduar\AppData\Local\Temp\ccwtx1iP.s 			page 4


 145:Generated_Source\PSoC6\pdl\middleware\em_eeprom/cy_em_eeprom.c **** * The amount of data to read.
 146:Generated_Source\PSoC6\pdl\middleware\em_eeprom/cy_em_eeprom.c **** *
 147:Generated_Source\PSoC6\pdl\middleware\em_eeprom/cy_em_eeprom.c **** * \param context
 148:Generated_Source\PSoC6\pdl\middleware\em_eeprom/cy_em_eeprom.c **** * The pointer to the EEPROM context structure \ref cy_stc_eeprom_context_t.
 149:Generated_Source\PSoC6\pdl\middleware\em_eeprom/cy_em_eeprom.c **** *
 150:Generated_Source\PSoC6\pdl\middleware\em_eeprom/cy_em_eeprom.c **** * \return
 151:Generated_Source\PSoC6\pdl\middleware\em_eeprom/cy_em_eeprom.c **** * This function returns \ref cy_en_em_eeprom_status_t.
 152:Generated_Source\PSoC6\pdl\middleware\em_eeprom/cy_em_eeprom.c **** *
 153:Generated_Source\PSoC6\pdl\middleware\em_eeprom/cy_em_eeprom.c **** * \note
 154:Generated_Source\PSoC6\pdl\middleware\em_eeprom/cy_em_eeprom.c **** * This function uses a buffer of the flash row size to perform read
 155:Generated_Source\PSoC6\pdl\middleware\em_eeprom/cy_em_eeprom.c **** * operation. For the size of the row refer to the specific PSoC device
 156:Generated_Source\PSoC6\pdl\middleware\em_eeprom/cy_em_eeprom.c **** * datasheet.
 157:Generated_Source\PSoC6\pdl\middleware\em_eeprom/cy_em_eeprom.c **** *
 158:Generated_Source\PSoC6\pdl\middleware\em_eeprom/cy_em_eeprom.c **** * \note
 159:Generated_Source\PSoC6\pdl\middleware\em_eeprom/cy_em_eeprom.c **** * In case if redundant copy option is enabled the function may perform writes
 160:Generated_Source\PSoC6\pdl\middleware\em_eeprom/cy_em_eeprom.c **** * to EEPROM. This is done in case if the data in the EEPPROM is corrupted and
 161:Generated_Source\PSoC6\pdl\middleware\em_eeprom/cy_em_eeprom.c **** * the data in redundant copy is valid based on CRC-8 data integrity check.
 162:Generated_Source\PSoC6\pdl\middleware\em_eeprom/cy_em_eeprom.c **** *
 163:Generated_Source\PSoC6\pdl\middleware\em_eeprom/cy_em_eeprom.c **** *******************************************************************************/
 164:Generated_Source\PSoC6\pdl\middleware\em_eeprom/cy_em_eeprom.c **** cy_en_em_eeprom_status_t Cy_Em_EEPROM_Read(uint32_t addr, 
 165:Generated_Source\PSoC6\pdl\middleware\em_eeprom/cy_em_eeprom.c ****                                         void * eepromData, 
 166:Generated_Source\PSoC6\pdl\middleware\em_eeprom/cy_em_eeprom.c ****                                         uint32_t size,
 167:Generated_Source\PSoC6\pdl\middleware\em_eeprom/cy_em_eeprom.c ****                                         cy_stc_eeprom_context_t * context)
 168:Generated_Source\PSoC6\pdl\middleware\em_eeprom/cy_em_eeprom.c **** {
 169:Generated_Source\PSoC6\pdl\middleware\em_eeprom/cy_em_eeprom.c ****     cy_en_em_eeprom_status_t ret = CY_EM_EEPROM_BAD_PARAM;
 170:Generated_Source\PSoC6\pdl\middleware\em_eeprom/cy_em_eeprom.c ****     uint32_t i;
 171:Generated_Source\PSoC6\pdl\middleware\em_eeprom/cy_em_eeprom.c ****     uint32_t numBytesToRead;
 172:Generated_Source\PSoC6\pdl\middleware\em_eeprom/cy_em_eeprom.c ****     uint32_t curEepromBaseAddr;
 173:Generated_Source\PSoC6\pdl\middleware\em_eeprom/cy_em_eeprom.c ****     uint32_t curRowOffset;
 174:Generated_Source\PSoC6\pdl\middleware\em_eeprom/cy_em_eeprom.c ****     uint32_t startRowAddr;
 175:Generated_Source\PSoC6\pdl\middleware\em_eeprom/cy_em_eeprom.c ****     uint32_t actEepromRowNum;
 176:Generated_Source\PSoC6\pdl\middleware\em_eeprom/cy_em_eeprom.c ****     uint32_t curRdEepromRowNum = 0u;
 177:Generated_Source\PSoC6\pdl\middleware\em_eeprom/cy_em_eeprom.c ****     uint32_t dataStartEepromRowNum = 0u;
 178:Generated_Source\PSoC6\pdl\middleware\em_eeprom/cy_em_eeprom.c ****     uint32_t eeData = (uint32_t) eepromData; /* To avoid the pointer arithmetic with void */
 179:Generated_Source\PSoC6\pdl\middleware\em_eeprom/cy_em_eeprom.c **** 
 180:Generated_Source\PSoC6\pdl\middleware\em_eeprom/cy_em_eeprom.c ****     /* Validate input parameters */
 181:Generated_Source\PSoC6\pdl\middleware\em_eeprom/cy_em_eeprom.c ****     if((0u != size) && ((addr + size) <= (context->eepromSize)) && (NULL != eepromData))
 182:Generated_Source\PSoC6\pdl\middleware\em_eeprom/cy_em_eeprom.c ****     {
 183:Generated_Source\PSoC6\pdl\middleware\em_eeprom/cy_em_eeprom.c ****         uint32_t rdAddr = addr;
 184:Generated_Source\PSoC6\pdl\middleware\em_eeprom/cy_em_eeprom.c ****         uint32_t rdSize = size;
 185:Generated_Source\PSoC6\pdl\middleware\em_eeprom/cy_em_eeprom.c ****         /* Get the sequence number of the last written row */
 186:Generated_Source\PSoC6\pdl\middleware\em_eeprom/cy_em_eeprom.c ****         uint32_t seqNum = CY_EM_EEPROM_GET_SEQ_NUM(context->lastWrRowAddr);
 187:Generated_Source\PSoC6\pdl\middleware\em_eeprom/cy_em_eeprom.c ****         uint32_t updateAddrFlag = 0u;
 188:Generated_Source\PSoC6\pdl\middleware\em_eeprom/cy_em_eeprom.c **** 
 189:Generated_Source\PSoC6\pdl\middleware\em_eeprom/cy_em_eeprom.c ****         /* Calculate the number of the row read operations. Currently this only concerns
 190:Generated_Source\PSoC6\pdl\middleware\em_eeprom/cy_em_eeprom.c ****         * the reads from the EEPROM data locations.
 191:Generated_Source\PSoC6\pdl\middleware\em_eeprom/cy_em_eeprom.c ****         */
 192:Generated_Source\PSoC6\pdl\middleware\em_eeprom/cy_em_eeprom.c ****         uint32_t numRowReads = ((((rdAddr + rdSize) - 1u) / CY_EM_EEPROM_EEPROM_DATA_LEN) -
 193:Generated_Source\PSoC6\pdl\middleware\em_eeprom/cy_em_eeprom.c ****                               (rdAddr / CY_EM_EEPROM_EEPROM_DATA_LEN)) + 1u;
 194:Generated_Source\PSoC6\pdl\middleware\em_eeprom/cy_em_eeprom.c **** 
 195:Generated_Source\PSoC6\pdl\middleware\em_eeprom/cy_em_eeprom.c ****         /* Get the address of the first row of the currently active EEPROM sector. If
 196:Generated_Source\PSoC6\pdl\middleware\em_eeprom/cy_em_eeprom.c ****         * no wear leveling is used - the EEPROM has only one sector, so use the base
 197:Generated_Source\PSoC6\pdl\middleware\em_eeprom/cy_em_eeprom.c ****         * addr stored in "context->userFlashStartAddr".
 198:Generated_Source\PSoC6\pdl\middleware\em_eeprom/cy_em_eeprom.c ****         */
 199:Generated_Source\PSoC6\pdl\middleware\em_eeprom/cy_em_eeprom.c ****         curEepromBaseAddr = (((context->lastWrRowAddr - context->userFlashStartAddr) /
 200:Generated_Source\PSoC6\pdl\middleware\em_eeprom/cy_em_eeprom.c ****                               (CY_EM_EEPROM_FLASH_SIZEOF_ROW * context->numberOfRows)) *
 201:Generated_Source\PSoC6\pdl\middleware\em_eeprom/cy_em_eeprom.c ****                               (CY_EM_EEPROM_FLASH_SIZEOF_ROW * context->numberOfRows)) +
ARM GAS  C:\Users\eduar\AppData\Local\Temp\ccwtx1iP.s 			page 5


 202:Generated_Source\PSoC6\pdl\middleware\em_eeprom/cy_em_eeprom.c ****                                context->userFlashStartAddr;
 203:Generated_Source\PSoC6\pdl\middleware\em_eeprom/cy_em_eeprom.c **** 
 204:Generated_Source\PSoC6\pdl\middleware\em_eeprom/cy_em_eeprom.c ****         /* Find the number of the row that contains the start address of the data */
 205:Generated_Source\PSoC6\pdl\middleware\em_eeprom/cy_em_eeprom.c ****         for(i = 0u; i < context->numberOfRows; i++)
 206:Generated_Source\PSoC6\pdl\middleware\em_eeprom/cy_em_eeprom.c ****         {
 207:Generated_Source\PSoC6\pdl\middleware\em_eeprom/cy_em_eeprom.c ****             if(0u != CY_EM_EEPROM_IS_ADDR_IN_ROW_RANGE(rdAddr, i))
 208:Generated_Source\PSoC6\pdl\middleware\em_eeprom/cy_em_eeprom.c ****             {
 209:Generated_Source\PSoC6\pdl\middleware\em_eeprom/cy_em_eeprom.c ****                 dataStartEepromRowNum = i;
 210:Generated_Source\PSoC6\pdl\middleware\em_eeprom/cy_em_eeprom.c ****                 curRdEepromRowNum = dataStartEepromRowNum;
 211:Generated_Source\PSoC6\pdl\middleware\em_eeprom/cy_em_eeprom.c ****                 break;
 212:Generated_Source\PSoC6\pdl\middleware\em_eeprom/cy_em_eeprom.c ****             }
 213:Generated_Source\PSoC6\pdl\middleware\em_eeprom/cy_em_eeprom.c ****         }
 214:Generated_Source\PSoC6\pdl\middleware\em_eeprom/cy_em_eeprom.c **** 
 215:Generated_Source\PSoC6\pdl\middleware\em_eeprom/cy_em_eeprom.c ****         /* Find the row number of the last written row */
 216:Generated_Source\PSoC6\pdl\middleware\em_eeprom/cy_em_eeprom.c ****         actEepromRowNum = (context->lastWrRowAddr - curEepromBaseAddr) / CY_EM_EEPROM_FLASH_SIZEOF_
 217:Generated_Source\PSoC6\pdl\middleware\em_eeprom/cy_em_eeprom.c **** 
 218:Generated_Source\PSoC6\pdl\middleware\em_eeprom/cy_em_eeprom.c ****         /* Check if wear leveling is used */
 219:Generated_Source\PSoC6\pdl\middleware\em_eeprom/cy_em_eeprom.c ****         if(context->wearLevelingFactor > 1u)
 220:Generated_Source\PSoC6\pdl\middleware\em_eeprom/cy_em_eeprom.c ****         {
 221:Generated_Source\PSoC6\pdl\middleware\em_eeprom/cy_em_eeprom.c ****             uint32_t dataEndEepromRowNum = dataStartEepromRowNum + (numRowReads - 1u);
 222:Generated_Source\PSoC6\pdl\middleware\em_eeprom/cy_em_eeprom.c **** 
 223:Generated_Source\PSoC6\pdl\middleware\em_eeprom/cy_em_eeprom.c ****             /* Check if the future validation of the read address is required. */
 224:Generated_Source\PSoC6\pdl\middleware\em_eeprom/cy_em_eeprom.c ****             updateAddrFlag = (dataStartEepromRowNum > actEepromRowNum) ? 1u :
 225:Generated_Source\PSoC6\pdl\middleware\em_eeprom/cy_em_eeprom.c ****                               ((dataEndEepromRowNum > actEepromRowNum) ? 1u : 0u);
 226:Generated_Source\PSoC6\pdl\middleware\em_eeprom/cy_em_eeprom.c ****         }
 227:Generated_Source\PSoC6\pdl\middleware\em_eeprom/cy_em_eeprom.c **** 
 228:Generated_Source\PSoC6\pdl\middleware\em_eeprom/cy_em_eeprom.c ****         /* Copy data from the EEPROM data locations to the user buffer */
 229:Generated_Source\PSoC6\pdl\middleware\em_eeprom/cy_em_eeprom.c ****         for(i = 0u; i < numRowReads; i++)
 230:Generated_Source\PSoC6\pdl\middleware\em_eeprom/cy_em_eeprom.c ****         {
 231:Generated_Source\PSoC6\pdl\middleware\em_eeprom/cy_em_eeprom.c ****             startRowAddr = curEepromBaseAddr + (curRdEepromRowNum * CY_EM_EEPROM_FLASH_SIZEOF_ROW);
 232:Generated_Source\PSoC6\pdl\middleware\em_eeprom/cy_em_eeprom.c ****             curRowOffset = CY_EM_EEPROM_EEPROM_DATA_LEN + (rdAddr % CY_EM_EEPROM_EEPROM_DATA_LEN);
 233:Generated_Source\PSoC6\pdl\middleware\em_eeprom/cy_em_eeprom.c **** 
 234:Generated_Source\PSoC6\pdl\middleware\em_eeprom/cy_em_eeprom.c ****             /* Check if there are more reads pending and update the number of the
 235:Generated_Source\PSoC6\pdl\middleware\em_eeprom/cy_em_eeprom.c ****             * remaining bytes to read respectively.
 236:Generated_Source\PSoC6\pdl\middleware\em_eeprom/cy_em_eeprom.c ****             */
 237:Generated_Source\PSoC6\pdl\middleware\em_eeprom/cy_em_eeprom.c ****             if((i + 1u) < numRowReads)
 238:Generated_Source\PSoC6\pdl\middleware\em_eeprom/cy_em_eeprom.c ****             {
 239:Generated_Source\PSoC6\pdl\middleware\em_eeprom/cy_em_eeprom.c ****                 numBytesToRead = CY_EM_EEPROM_EEPROM_DATA_LEN - (rdAddr % CY_EM_EEPROM_EEPROM_DATA_
 240:Generated_Source\PSoC6\pdl\middleware\em_eeprom/cy_em_eeprom.c ****             }
 241:Generated_Source\PSoC6\pdl\middleware\em_eeprom/cy_em_eeprom.c ****             else
 242:Generated_Source\PSoC6\pdl\middleware\em_eeprom/cy_em_eeprom.c ****             {
 243:Generated_Source\PSoC6\pdl\middleware\em_eeprom/cy_em_eeprom.c ****                 numBytesToRead = rdSize;
 244:Generated_Source\PSoC6\pdl\middleware\em_eeprom/cy_em_eeprom.c ****             }
 245:Generated_Source\PSoC6\pdl\middleware\em_eeprom/cy_em_eeprom.c **** 
 246:Generated_Source\PSoC6\pdl\middleware\em_eeprom/cy_em_eeprom.c ****             /* Check if the read address needs to be updated to point to the correct
 247:Generated_Source\PSoC6\pdl\middleware\em_eeprom/cy_em_eeprom.c ****             * EEPROM sector.
 248:Generated_Source\PSoC6\pdl\middleware\em_eeprom/cy_em_eeprom.c ****             */
 249:Generated_Source\PSoC6\pdl\middleware\em_eeprom/cy_em_eeprom.c ****             if((0u != updateAddrFlag) && (curRdEepromRowNum > actEepromRowNum))
 250:Generated_Source\PSoC6\pdl\middleware\em_eeprom/cy_em_eeprom.c ****             {
 251:Generated_Source\PSoC6\pdl\middleware\em_eeprom/cy_em_eeprom.c ****                 startRowAddr -= context->numberOfRows * CY_EM_EEPROM_FLASH_SIZEOF_ROW;
 252:Generated_Source\PSoC6\pdl\middleware\em_eeprom/cy_em_eeprom.c **** 
 253:Generated_Source\PSoC6\pdl\middleware\em_eeprom/cy_em_eeprom.c ****                 if(startRowAddr < context->userFlashStartAddr)
 254:Generated_Source\PSoC6\pdl\middleware\em_eeprom/cy_em_eeprom.c ****                 {
 255:Generated_Source\PSoC6\pdl\middleware\em_eeprom/cy_em_eeprom.c ****                     startRowAddr = context->wlEndAddr -
 256:Generated_Source\PSoC6\pdl\middleware\em_eeprom/cy_em_eeprom.c ****                         ((context->numberOfRows - curRdEepromRowNum) * CY_EM_EEPROM_FLASH_SIZEOF_RO
 257:Generated_Source\PSoC6\pdl\middleware\em_eeprom/cy_em_eeprom.c ****                 }
 258:Generated_Source\PSoC6\pdl\middleware\em_eeprom/cy_em_eeprom.c ****             }
ARM GAS  C:\Users\eduar\AppData\Local\Temp\ccwtx1iP.s 			page 6


 259:Generated_Source\PSoC6\pdl\middleware\em_eeprom/cy_em_eeprom.c **** 
 260:Generated_Source\PSoC6\pdl\middleware\em_eeprom/cy_em_eeprom.c ****             if(0u != context->redundantCopy)
 261:Generated_Source\PSoC6\pdl\middleware\em_eeprom/cy_em_eeprom.c ****             {
 262:Generated_Source\PSoC6\pdl\middleware\em_eeprom/cy_em_eeprom.c ****                 /* Check a checksum of the EEPROM row and if it is bad, check a checksum in
 263:Generated_Source\PSoC6\pdl\middleware\em_eeprom/cy_em_eeprom.c ****                 * the corresponding row in redundant copy, otherwise return failure.
 264:Generated_Source\PSoC6\pdl\middleware\em_eeprom/cy_em_eeprom.c ****                 */
 265:Generated_Source\PSoC6\pdl\middleware\em_eeprom/cy_em_eeprom.c ****                 ret = CheckCrcAndCopy(startRowAddr, eeData, curRowOffset, numBytesToRead, context);
 266:Generated_Source\PSoC6\pdl\middleware\em_eeprom/cy_em_eeprom.c **** 
 267:Generated_Source\PSoC6\pdl\middleware\em_eeprom/cy_em_eeprom.c ****                 if(CY_EM_EEPROM_SUCCESS != ret)
 268:Generated_Source\PSoC6\pdl\middleware\em_eeprom/cy_em_eeprom.c ****                 {
 269:Generated_Source\PSoC6\pdl\middleware\em_eeprom/cy_em_eeprom.c ****                     break;
 270:Generated_Source\PSoC6\pdl\middleware\em_eeprom/cy_em_eeprom.c ****                 }
 271:Generated_Source\PSoC6\pdl\middleware\em_eeprom/cy_em_eeprom.c ****             }
 272:Generated_Source\PSoC6\pdl\middleware\em_eeprom/cy_em_eeprom.c ****             else
 273:Generated_Source\PSoC6\pdl\middleware\em_eeprom/cy_em_eeprom.c ****             {
 274:Generated_Source\PSoC6\pdl\middleware\em_eeprom/cy_em_eeprom.c ****                 /* Copy the data to the user buffer */
 275:Generated_Source\PSoC6\pdl\middleware\em_eeprom/cy_em_eeprom.c ****                 (void)memcpy((void *)(eeData),
 276:Generated_Source\PSoC6\pdl\middleware\em_eeprom/cy_em_eeprom.c ****                              (void *)(startRowAddr + curRowOffset),
 277:Generated_Source\PSoC6\pdl\middleware\em_eeprom/cy_em_eeprom.c ****                              numBytesToRead);
 278:Generated_Source\PSoC6\pdl\middleware\em_eeprom/cy_em_eeprom.c **** 
 279:Generated_Source\PSoC6\pdl\middleware\em_eeprom/cy_em_eeprom.c ****                 /* Indicate success to be able to execute next code block */
 280:Generated_Source\PSoC6\pdl\middleware\em_eeprom/cy_em_eeprom.c ****                 ret = CY_EM_EEPROM_SUCCESS;
 281:Generated_Source\PSoC6\pdl\middleware\em_eeprom/cy_em_eeprom.c ****             }
 282:Generated_Source\PSoC6\pdl\middleware\em_eeprom/cy_em_eeprom.c **** 
 283:Generated_Source\PSoC6\pdl\middleware\em_eeprom/cy_em_eeprom.c ****             /* Update variables anticipated in the read operation */
 284:Generated_Source\PSoC6\pdl\middleware\em_eeprom/cy_em_eeprom.c ****             rdAddr += numBytesToRead;
 285:Generated_Source\PSoC6\pdl\middleware\em_eeprom/cy_em_eeprom.c ****             rdSize -= numBytesToRead;
 286:Generated_Source\PSoC6\pdl\middleware\em_eeprom/cy_em_eeprom.c ****             eeData += numBytesToRead;
 287:Generated_Source\PSoC6\pdl\middleware\em_eeprom/cy_em_eeprom.c ****             curRdEepromRowNum++;
 288:Generated_Source\PSoC6\pdl\middleware\em_eeprom/cy_em_eeprom.c ****         }
 289:Generated_Source\PSoC6\pdl\middleware\em_eeprom/cy_em_eeprom.c **** 
 290:Generated_Source\PSoC6\pdl\middleware\em_eeprom/cy_em_eeprom.c ****         /* This code block will copy the latest data from the EEPROM headers into the
 291:Generated_Source\PSoC6\pdl\middleware\em_eeprom/cy_em_eeprom.c ****         * user buffer. The data previously copied into the user buffer may be updated
 292:Generated_Source\PSoC6\pdl\middleware\em_eeprom/cy_em_eeprom.c ****         * as the EEPROM headers contain more recent data. 
 293:Generated_Source\PSoC6\pdl\middleware\em_eeprom/cy_em_eeprom.c ****         * The code block is executed when two following conditions are true:
 294:Generated_Source\PSoC6\pdl\middleware\em_eeprom/cy_em_eeprom.c ****         *  1) The reads from "historic" data locations were successful;
 295:Generated_Source\PSoC6\pdl\middleware\em_eeprom/cy_em_eeprom.c ****         *  2) The user performed at least one write operation to Em_EEPROM (0u !=
 296:Generated_Source\PSoC6\pdl\middleware\em_eeprom/cy_em_eeprom.c ****         *     seqNum).        
 297:Generated_Source\PSoC6\pdl\middleware\em_eeprom/cy_em_eeprom.c ****         */
 298:Generated_Source\PSoC6\pdl\middleware\em_eeprom/cy_em_eeprom.c ****         if((CY_EM_EEPROM_SUCCESS == ret) && (0u != seqNum))
 299:Generated_Source\PSoC6\pdl\middleware\em_eeprom/cy_em_eeprom.c ****         {
 300:Generated_Source\PSoC6\pdl\middleware\em_eeprom/cy_em_eeprom.c ****             numRowReads = (context->numberOfRows <= seqNum) ? (context->numberOfRows) : (seqNum);
 301:Generated_Source\PSoC6\pdl\middleware\em_eeprom/cy_em_eeprom.c ****             numRowReads--;
 302:Generated_Source\PSoC6\pdl\middleware\em_eeprom/cy_em_eeprom.c **** 
 303:Generated_Source\PSoC6\pdl\middleware\em_eeprom/cy_em_eeprom.c ****             for(i = (seqNum - numRowReads); i <= seqNum; i++)
 304:Generated_Source\PSoC6\pdl\middleware\em_eeprom/cy_em_eeprom.c ****             {
 305:Generated_Source\PSoC6\pdl\middleware\em_eeprom/cy_em_eeprom.c ****                 startRowAddr = GetRowAddrBySeqNum(i, context);
 306:Generated_Source\PSoC6\pdl\middleware\em_eeprom/cy_em_eeprom.c **** 
 307:Generated_Source\PSoC6\pdl\middleware\em_eeprom/cy_em_eeprom.c ****                 if (0u != startRowAddr)
 308:Generated_Source\PSoC6\pdl\middleware\em_eeprom/cy_em_eeprom.c ****                 {
 309:Generated_Source\PSoC6\pdl\middleware\em_eeprom/cy_em_eeprom.c ****                     /* The following variables are introduced to increase code readability. */
 310:Generated_Source\PSoC6\pdl\middleware\em_eeprom/cy_em_eeprom.c ****                     uint32_t startAddr  = *(uint32_t *)(startRowAddr + CY_EM_EEPROM_HEADER_ADDR_OFF
 311:Generated_Source\PSoC6\pdl\middleware\em_eeprom/cy_em_eeprom.c ****                     uint32_t endAddr    = startAddr + (*(uint32_t *)(startRowAddr + CY_EM_EEPROM_HE
 312:Generated_Source\PSoC6\pdl\middleware\em_eeprom/cy_em_eeprom.c **** 
 313:Generated_Source\PSoC6\pdl\middleware\em_eeprom/cy_em_eeprom.c ****                     /* Check if the current row EEPROM header contains the data requested for read 
 314:Generated_Source\PSoC6\pdl\middleware\em_eeprom/cy_em_eeprom.c ****                     if(0u != CY_EM_EEPROM_IS_ADDRESES_CROSSING(startAddr, endAddr, addr, addr + siz
 315:Generated_Source\PSoC6\pdl\middleware\em_eeprom/cy_em_eeprom.c ****                     {
ARM GAS  C:\Users\eduar\AppData\Local\Temp\ccwtx1iP.s 			page 7


 316:Generated_Source\PSoC6\pdl\middleware\em_eeprom/cy_em_eeprom.c ****                         uint32_t srcOffset = (startAddr > addr) ? (0u) : (addr - startAddr);
 317:Generated_Source\PSoC6\pdl\middleware\em_eeprom/cy_em_eeprom.c ****                         uint32_t dstOffset = (startAddr > addr) ? (startAddr - addr): (0u);
 318:Generated_Source\PSoC6\pdl\middleware\em_eeprom/cy_em_eeprom.c ****                         rdAddr = (startAddr > addr) ? (startAddr) : (addr);
 319:Generated_Source\PSoC6\pdl\middleware\em_eeprom/cy_em_eeprom.c **** 
 320:Generated_Source\PSoC6\pdl\middleware\em_eeprom/cy_em_eeprom.c ****                         srcOffset += CY_EM_EEPROM_HEADER_DATA_OFFSET;
 321:Generated_Source\PSoC6\pdl\middleware\em_eeprom/cy_em_eeprom.c **** 
 322:Generated_Source\PSoC6\pdl\middleware\em_eeprom/cy_em_eeprom.c ****                         /* Calculate the number of bytes to be read from the current row's EEPROM h
 323:Generated_Source\PSoC6\pdl\middleware\em_eeprom/cy_em_eeprom.c ****                         numBytesToRead = ((endAddr < (addr + size)) ? endAddr : (addr + size)) - rd
 324:Generated_Source\PSoC6\pdl\middleware\em_eeprom/cy_em_eeprom.c **** 
 325:Generated_Source\PSoC6\pdl\middleware\em_eeprom/cy_em_eeprom.c ****                         /* Calculate the offset in the user buffer from which the data will be upda
 326:Generated_Source\PSoC6\pdl\middleware\em_eeprom/cy_em_eeprom.c ****                         eeData = ((uint32_t)eepromData) + dstOffset;
 327:Generated_Source\PSoC6\pdl\middleware\em_eeprom/cy_em_eeprom.c **** 
 328:Generated_Source\PSoC6\pdl\middleware\em_eeprom/cy_em_eeprom.c ****                         /* Check a checksum of the EEPROM row and if it is bad, check a checksum in
 329:Generated_Source\PSoC6\pdl\middleware\em_eeprom/cy_em_eeprom.c ****                         * corresponding row in redundant copy, otherwise return failure. Copy the d
 330:Generated_Source\PSoC6\pdl\middleware\em_eeprom/cy_em_eeprom.c ****                         * from the recent EEPROM headers to the user buffer. This will overwrite th
 331:Generated_Source\PSoC6\pdl\middleware\em_eeprom/cy_em_eeprom.c ****                         * data copied form EEPROM data locations as the data in EEPROM headers is n
 332:Generated_Source\PSoC6\pdl\middleware\em_eeprom/cy_em_eeprom.c ****                         */
 333:Generated_Source\PSoC6\pdl\middleware\em_eeprom/cy_em_eeprom.c ****                         if(0u != context->redundantCopy)
 334:Generated_Source\PSoC6\pdl\middleware\em_eeprom/cy_em_eeprom.c ****                         {
 335:Generated_Source\PSoC6\pdl\middleware\em_eeprom/cy_em_eeprom.c ****                             ret = CheckCrcAndCopy(startRowAddr, eeData, srcOffset, numBytesToRead, 
 336:Generated_Source\PSoC6\pdl\middleware\em_eeprom/cy_em_eeprom.c **** 
 337:Generated_Source\PSoC6\pdl\middleware\em_eeprom/cy_em_eeprom.c ****                             if(CY_EM_EEPROM_SUCCESS != ret)
 338:Generated_Source\PSoC6\pdl\middleware\em_eeprom/cy_em_eeprom.c ****                             {
 339:Generated_Source\PSoC6\pdl\middleware\em_eeprom/cy_em_eeprom.c ****                                 break;
 340:Generated_Source\PSoC6\pdl\middleware\em_eeprom/cy_em_eeprom.c ****                             }
 341:Generated_Source\PSoC6\pdl\middleware\em_eeprom/cy_em_eeprom.c ****                         }
 342:Generated_Source\PSoC6\pdl\middleware\em_eeprom/cy_em_eeprom.c ****                         else
 343:Generated_Source\PSoC6\pdl\middleware\em_eeprom/cy_em_eeprom.c ****                         {
 344:Generated_Source\PSoC6\pdl\middleware\em_eeprom/cy_em_eeprom.c ****                             (void)memcpy((void *)(eeData), (void *)(startRowAddr + srcOffset), numB
 345:Generated_Source\PSoC6\pdl\middleware\em_eeprom/cy_em_eeprom.c ****                         }
 346:Generated_Source\PSoC6\pdl\middleware\em_eeprom/cy_em_eeprom.c ****                     }
 347:Generated_Source\PSoC6\pdl\middleware\em_eeprom/cy_em_eeprom.c ****                 }
 348:Generated_Source\PSoC6\pdl\middleware\em_eeprom/cy_em_eeprom.c ****             }
 349:Generated_Source\PSoC6\pdl\middleware\em_eeprom/cy_em_eeprom.c ****         }
 350:Generated_Source\PSoC6\pdl\middleware\em_eeprom/cy_em_eeprom.c ****     }
 351:Generated_Source\PSoC6\pdl\middleware\em_eeprom/cy_em_eeprom.c **** 
 352:Generated_Source\PSoC6\pdl\middleware\em_eeprom/cy_em_eeprom.c ****     return(ret);
 353:Generated_Source\PSoC6\pdl\middleware\em_eeprom/cy_em_eeprom.c **** }
 354:Generated_Source\PSoC6\pdl\middleware\em_eeprom/cy_em_eeprom.c **** 
 355:Generated_Source\PSoC6\pdl\middleware\em_eeprom/cy_em_eeprom.c **** 
 356:Generated_Source\PSoC6\pdl\middleware\em_eeprom/cy_em_eeprom.c **** /*******************************************************************************
 357:Generated_Source\PSoC6\pdl\middleware\em_eeprom/cy_em_eeprom.c **** * Function Name: Cy_Em_EEPROM_Write
 358:Generated_Source\PSoC6\pdl\middleware\em_eeprom/cy_em_eeprom.c **** ****************************************************************************//**
 359:Generated_Source\PSoC6\pdl\middleware\em_eeprom/cy_em_eeprom.c **** *
 360:Generated_Source\PSoC6\pdl\middleware\em_eeprom/cy_em_eeprom.c **** * This function takes the logical EEPROM address and converts it to the actual
 361:Generated_Source\PSoC6\pdl\middleware\em_eeprom/cy_em_eeprom.c **** * physical address and writes data there. If wear leveling is implemented, the
 362:Generated_Source\PSoC6\pdl\middleware\em_eeprom/cy_em_eeprom.c **** * writing process will use the wear leveling techniques. This is a blocking
 363:Generated_Source\PSoC6\pdl\middleware\em_eeprom/cy_em_eeprom.c **** * function and it does not return until the write operation is completed. The
 364:Generated_Source\PSoC6\pdl\middleware\em_eeprom/cy_em_eeprom.c **** * user firmware should not enter Hibernate mode until write is completed. The
 365:Generated_Source\PSoC6\pdl\middleware\em_eeprom/cy_em_eeprom.c **** * write operation is allowed in Sleep and Deep-Sleep modes. During the flash
 366:Generated_Source\PSoC6\pdl\middleware\em_eeprom/cy_em_eeprom.c **** * operation, the device should not be reset, including the XRES pin, a software
 367:Generated_Source\PSoC6\pdl\middleware\em_eeprom/cy_em_eeprom.c **** * reset, and watchdog reset sources. Also, low-voltage detect circuits should
 368:Generated_Source\PSoC6\pdl\middleware\em_eeprom/cy_em_eeprom.c **** * be configured to generate an interrupt instead of a reset. Otherwise, portions
 369:Generated_Source\PSoC6\pdl\middleware\em_eeprom/cy_em_eeprom.c **** * of flash may undergo unexpected changes.
 370:Generated_Source\PSoC6\pdl\middleware\em_eeprom/cy_em_eeprom.c **** *
 371:Generated_Source\PSoC6\pdl\middleware\em_eeprom/cy_em_eeprom.c **** * \param addr
 372:Generated_Source\PSoC6\pdl\middleware\em_eeprom/cy_em_eeprom.c **** * The logical start address in EEPROM to start writing data from.
ARM GAS  C:\Users\eduar\AppData\Local\Temp\ccwtx1iP.s 			page 8


 373:Generated_Source\PSoC6\pdl\middleware\em_eeprom/cy_em_eeprom.c **** *
 374:Generated_Source\PSoC6\pdl\middleware\em_eeprom/cy_em_eeprom.c **** * \param eepromData
 375:Generated_Source\PSoC6\pdl\middleware\em_eeprom/cy_em_eeprom.c **** * Data to write to EEPROM.
 376:Generated_Source\PSoC6\pdl\middleware\em_eeprom/cy_em_eeprom.c **** *
 377:Generated_Source\PSoC6\pdl\middleware\em_eeprom/cy_em_eeprom.c **** * \param size
 378:Generated_Source\PSoC6\pdl\middleware\em_eeprom/cy_em_eeprom.c **** * The amount of data to write to EEPROM.
 379:Generated_Source\PSoC6\pdl\middleware\em_eeprom/cy_em_eeprom.c **** *
 380:Generated_Source\PSoC6\pdl\middleware\em_eeprom/cy_em_eeprom.c **** * \param context
 381:Generated_Source\PSoC6\pdl\middleware\em_eeprom/cy_em_eeprom.c **** * The pointer to the EEPROM context structure \ref cy_stc_eeprom_context_t.
 382:Generated_Source\PSoC6\pdl\middleware\em_eeprom/cy_em_eeprom.c **** *
 383:Generated_Source\PSoC6\pdl\middleware\em_eeprom/cy_em_eeprom.c **** * \return
 384:Generated_Source\PSoC6\pdl\middleware\em_eeprom/cy_em_eeprom.c **** * This function returns \ref cy_en_em_eeprom_status_t.
 385:Generated_Source\PSoC6\pdl\middleware\em_eeprom/cy_em_eeprom.c **** *
 386:Generated_Source\PSoC6\pdl\middleware\em_eeprom/cy_em_eeprom.c **** * \note
 387:Generated_Source\PSoC6\pdl\middleware\em_eeprom/cy_em_eeprom.c **** * This function uses a buffer of the flash row size to perform write
 388:Generated_Source\PSoC6\pdl\middleware\em_eeprom/cy_em_eeprom.c **** * operation. For the size of the row refer to the specific PSoC device
 389:Generated_Source\PSoC6\pdl\middleware\em_eeprom/cy_em_eeprom.c **** * datasheet.
 390:Generated_Source\PSoC6\pdl\middleware\em_eeprom/cy_em_eeprom.c **** *
 391:Generated_Source\PSoC6\pdl\middleware\em_eeprom/cy_em_eeprom.c **** * \sideeffect
 392:Generated_Source\PSoC6\pdl\middleware\em_eeprom/cy_em_eeprom.c **** * In case when blocking write option is used, if this function is called by
 393:Generated_Source\PSoC6\pdl\middleware\em_eeprom/cy_em_eeprom.c **** * the CM4 the user code on CM0P and the user code on CM4 are blocked until erase
 394:Generated_Source\PSoC6\pdl\middleware\em_eeprom/cy_em_eeprom.c **** * flash row operation is finished. If this function is called by the CM0P the
 395:Generated_Source\PSoC6\pdl\middleware\em_eeprom/cy_em_eeprom.c **** * user code on CM4 is not blocked and the user code on CM0P is blocked until
 396:Generated_Source\PSoC6\pdl\middleware\em_eeprom/cy_em_eeprom.c **** * erase flash row operation is finished. Plan your task allocation accordingly.
 397:Generated_Source\PSoC6\pdl\middleware\em_eeprom/cy_em_eeprom.c **** *
 398:Generated_Source\PSoC6\pdl\middleware\em_eeprom/cy_em_eeprom.c **** * \sideeffect
 399:Generated_Source\PSoC6\pdl\middleware\em_eeprom/cy_em_eeprom.c **** * In case if non-blocking write option is used and when user flash is used as
 400:Generated_Source\PSoC6\pdl\middleware\em_eeprom/cy_em_eeprom.c **** * an EEPROM storage care should be taken to prevent the read while write (RWW)
 401:Generated_Source\PSoC6\pdl\middleware\em_eeprom/cy_em_eeprom.c **** * exception. To prevent the RWW exception the user flash macro that includes
 402:Generated_Source\PSoC6\pdl\middleware\em_eeprom/cy_em_eeprom.c **** * the EEPROM storage should not be read while the EEPROM write is not completed.
 403:Generated_Source\PSoC6\pdl\middleware\em_eeprom/cy_em_eeprom.c **** * The read also means the user code execution from the respective flash macro.
 404:Generated_Source\PSoC6\pdl\middleware\em_eeprom/cy_em_eeprom.c **** *
 405:Generated_Source\PSoC6\pdl\middleware\em_eeprom/cy_em_eeprom.c **** *******************************************************************************/
 406:Generated_Source\PSoC6\pdl\middleware\em_eeprom/cy_em_eeprom.c **** cy_en_em_eeprom_status_t Cy_Em_EEPROM_Write(uint32_t addr,
 407:Generated_Source\PSoC6\pdl\middleware\em_eeprom/cy_em_eeprom.c ****                                             void * eepromData,
 408:Generated_Source\PSoC6\pdl\middleware\em_eeprom/cy_em_eeprom.c ****                                             uint32_t size,
 409:Generated_Source\PSoC6\pdl\middleware\em_eeprom/cy_em_eeprom.c ****                                             cy_stc_eeprom_context_t * context)
 410:Generated_Source\PSoC6\pdl\middleware\em_eeprom/cy_em_eeprom.c **** {
 411:Generated_Source\PSoC6\pdl\middleware\em_eeprom/cy_em_eeprom.c ****     cy_en_em_eeprom_status_t ret = CY_EM_EEPROM_BAD_PARAM;
 412:Generated_Source\PSoC6\pdl\middleware\em_eeprom/cy_em_eeprom.c ****     uint32_t i;
 413:Generated_Source\PSoC6\pdl\middleware\em_eeprom/cy_em_eeprom.c ****     uint32_t wrCnt;
 414:Generated_Source\PSoC6\pdl\middleware\em_eeprom/cy_em_eeprom.c ****     uint32_t actEmEepromRowNum;
 415:Generated_Source\PSoC6\pdl\middleware\em_eeprom/cy_em_eeprom.c ****     uint32_t writeRamBuffer[CY_EM_EEPROM_FLASH_SIZEOF_ROW / CY_EM_EEPROM_U32_DIV];
 416:Generated_Source\PSoC6\pdl\middleware\em_eeprom/cy_em_eeprom.c ****     uint32_t startAddr = 0u;
 417:Generated_Source\PSoC6\pdl\middleware\em_eeprom/cy_em_eeprom.c ****     uint32_t endAddr = 0u;
 418:Generated_Source\PSoC6\pdl\middleware\em_eeprom/cy_em_eeprom.c ****     uint32_t tmpRowAddr;
 419:Generated_Source\PSoC6\pdl\middleware\em_eeprom/cy_em_eeprom.c ****     uint32_t emEepromRowAddr = context->lastWrRowAddr;
 420:Generated_Source\PSoC6\pdl\middleware\em_eeprom/cy_em_eeprom.c ****     uint32_t emEepromRowRdAddr;
 421:Generated_Source\PSoC6\pdl\middleware\em_eeprom/cy_em_eeprom.c ****     void * tmpData;
 422:Generated_Source\PSoC6\pdl\middleware\em_eeprom/cy_em_eeprom.c ****     uint32_t eeData = (uint32_t) eepromData; /* To avoid the pointer arithmetic with void */
 423:Generated_Source\PSoC6\pdl\middleware\em_eeprom/cy_em_eeprom.c **** 
 424:Generated_Source\PSoC6\pdl\middleware\em_eeprom/cy_em_eeprom.c ****     /* Check if the EEPROM data does not exceed the EEPROM capacity */
 425:Generated_Source\PSoC6\pdl\middleware\em_eeprom/cy_em_eeprom.c ****     if((0u != size) && ((addr + size) <= (context->eepromSize)) && (NULL != eepromData))
 426:Generated_Source\PSoC6\pdl\middleware\em_eeprom/cy_em_eeprom.c ****     {
 427:Generated_Source\PSoC6\pdl\middleware\em_eeprom/cy_em_eeprom.c ****         uint32_t numWrites = ((size - 1u) / CY_EM_EEPROM_HEADER_DATA_LEN) + 1u;
 428:Generated_Source\PSoC6\pdl\middleware\em_eeprom/cy_em_eeprom.c ****         uint32_t eeHeaderDataOffset = 0u;
 429:Generated_Source\PSoC6\pdl\middleware\em_eeprom/cy_em_eeprom.c **** 
ARM GAS  C:\Users\eduar\AppData\Local\Temp\ccwtx1iP.s 			page 9


 430:Generated_Source\PSoC6\pdl\middleware\em_eeprom/cy_em_eeprom.c ****         for(wrCnt = 0u; wrCnt < numWrites; wrCnt++)
 431:Generated_Source\PSoC6\pdl\middleware\em_eeprom/cy_em_eeprom.c ****         {
 432:Generated_Source\PSoC6\pdl\middleware\em_eeprom/cy_em_eeprom.c ****             uint32_t skipOperation = 0u;
 433:Generated_Source\PSoC6\pdl\middleware\em_eeprom/cy_em_eeprom.c ****             /* Get the sequence number of the last written row */
 434:Generated_Source\PSoC6\pdl\middleware\em_eeprom/cy_em_eeprom.c ****             uint32_t seqNum = CY_EM_EEPROM_GET_SEQ_NUM(emEepromRowAddr);
 435:Generated_Source\PSoC6\pdl\middleware\em_eeprom/cy_em_eeprom.c **** 
 436:Generated_Source\PSoC6\pdl\middleware\em_eeprom/cy_em_eeprom.c ****             /* Get the address of the row to be written. The "emEepromRowAddr" may be
 437:Generated_Source\PSoC6\pdl\middleware\em_eeprom/cy_em_eeprom.c ****             * updated with the proper address (if wear leveling is used). The
 438:Generated_Source\PSoC6\pdl\middleware\em_eeprom/cy_em_eeprom.c ****             * "emEepromRowRdAddr" will point to the row address from which the historic
 439:Generated_Source\PSoC6\pdl\middleware\em_eeprom/cy_em_eeprom.c ****             * data will be read into the RAM buffer.
 440:Generated_Source\PSoC6\pdl\middleware\em_eeprom/cy_em_eeprom.c ****             */
 441:Generated_Source\PSoC6\pdl\middleware\em_eeprom/cy_em_eeprom.c ****             GetNextRowToWrite(seqNum, &emEepromRowAddr, &emEepromRowRdAddr, context);
 442:Generated_Source\PSoC6\pdl\middleware\em_eeprom/cy_em_eeprom.c **** 
 443:Generated_Source\PSoC6\pdl\middleware\em_eeprom/cy_em_eeprom.c ****             /* Clear the RAM buffer so to not put junk into flash */
 444:Generated_Source\PSoC6\pdl\middleware\em_eeprom/cy_em_eeprom.c ****             (void)memset(writeRamBuffer, 0, CY_EM_EEPROM_FLASH_SIZEOF_ROW);
 445:Generated_Source\PSoC6\pdl\middleware\em_eeprom/cy_em_eeprom.c **** 
 446:Generated_Source\PSoC6\pdl\middleware\em_eeprom/cy_em_eeprom.c ****             /* Fill the EM_EEPROM header info for the row in the RAM buffer */
 447:Generated_Source\PSoC6\pdl\middleware\em_eeprom/cy_em_eeprom.c ****             seqNum++;
 448:Generated_Source\PSoC6\pdl\middleware\em_eeprom/cy_em_eeprom.c ****             writeRamBuffer[CY_EM_EEPROM_HEADER_SEQ_NUM_OFFSET_U32] = seqNum;
 449:Generated_Source\PSoC6\pdl\middleware\em_eeprom/cy_em_eeprom.c ****             writeRamBuffer[CY_EM_EEPROM_HEADER_ADDR_OFFSET_U32] = addr;
 450:Generated_Source\PSoC6\pdl\middleware\em_eeprom/cy_em_eeprom.c ****             tmpData = (void *) eeData;
 451:Generated_Source\PSoC6\pdl\middleware\em_eeprom/cy_em_eeprom.c **** 
 452:Generated_Source\PSoC6\pdl\middleware\em_eeprom/cy_em_eeprom.c ****             /* Check if this is the last row to write */
 453:Generated_Source\PSoC6\pdl\middleware\em_eeprom/cy_em_eeprom.c ****             if(wrCnt == (numWrites - 1u))
 454:Generated_Source\PSoC6\pdl\middleware\em_eeprom/cy_em_eeprom.c ****             {
 455:Generated_Source\PSoC6\pdl\middleware\em_eeprom/cy_em_eeprom.c ****                 /* Fill in the remaining size value to the EEPROM header. */
 456:Generated_Source\PSoC6\pdl\middleware\em_eeprom/cy_em_eeprom.c ****                 writeRamBuffer[CY_EM_EEPROM_HEADER_LEN_OFFSET_U32] = size;
 457:Generated_Source\PSoC6\pdl\middleware\em_eeprom/cy_em_eeprom.c ****             }
 458:Generated_Source\PSoC6\pdl\middleware\em_eeprom/cy_em_eeprom.c ****             else
 459:Generated_Source\PSoC6\pdl\middleware\em_eeprom/cy_em_eeprom.c ****             {
 460:Generated_Source\PSoC6\pdl\middleware\em_eeprom/cy_em_eeprom.c ****                 /* This is not the last row to write in the current EEPROM write operation.
 461:Generated_Source\PSoC6\pdl\middleware\em_eeprom/cy_em_eeprom.c ****                 * Write the maximum possible data size to the EEPROM header. Update the
 462:Generated_Source\PSoC6\pdl\middleware\em_eeprom/cy_em_eeprom.c ****                 * size, eeData and addr respectively.
 463:Generated_Source\PSoC6\pdl\middleware\em_eeprom/cy_em_eeprom.c ****                 */
 464:Generated_Source\PSoC6\pdl\middleware\em_eeprom/cy_em_eeprom.c ****                 writeRamBuffer[CY_EM_EEPROM_HEADER_LEN_OFFSET_U32] = CY_EM_EEPROM_HEADER_DATA_LEN;
 465:Generated_Source\PSoC6\pdl\middleware\em_eeprom/cy_em_eeprom.c ****                 size -= CY_EM_EEPROM_HEADER_DATA_LEN;
 466:Generated_Source\PSoC6\pdl\middleware\em_eeprom/cy_em_eeprom.c ****                 addr += CY_EM_EEPROM_HEADER_DATA_LEN;
 467:Generated_Source\PSoC6\pdl\middleware\em_eeprom/cy_em_eeprom.c ****                 eeData += CY_EM_EEPROM_HEADER_DATA_LEN;
 468:Generated_Source\PSoC6\pdl\middleware\em_eeprom/cy_em_eeprom.c ****             }
 469:Generated_Source\PSoC6\pdl\middleware\em_eeprom/cy_em_eeprom.c **** 
 470:Generated_Source\PSoC6\pdl\middleware\em_eeprom/cy_em_eeprom.c ****             /* Write the data to the EEPROM header */
 471:Generated_Source\PSoC6\pdl\middleware\em_eeprom/cy_em_eeprom.c ****             (void)memcpy((void *)&writeRamBuffer[CY_EM_EEPROM_HEADER_DATA_OFFSET_U32],
 472:Generated_Source\PSoC6\pdl\middleware\em_eeprom/cy_em_eeprom.c ****                          tmpData,
 473:Generated_Source\PSoC6\pdl\middleware\em_eeprom/cy_em_eeprom.c ****                          writeRamBuffer[CY_EM_EEPROM_HEADER_LEN_OFFSET_U32]);
 474:Generated_Source\PSoC6\pdl\middleware\em_eeprom/cy_em_eeprom.c **** 
 475:Generated_Source\PSoC6\pdl\middleware\em_eeprom/cy_em_eeprom.c ****             if(emEepromRowRdAddr != 0UL)
 476:Generated_Source\PSoC6\pdl\middleware\em_eeprom/cy_em_eeprom.c ****             {
 477:Generated_Source\PSoC6\pdl\middleware\em_eeprom/cy_em_eeprom.c ****                 /* Copy the EEPROM historic data for this row from flash to RAM */
 478:Generated_Source\PSoC6\pdl\middleware\em_eeprom/cy_em_eeprom.c ****                 (void)memcpy((void *)&writeRamBuffer[CY_EM_EEPROM_EEPROM_DATA_OFFSET_U32],
 479:Generated_Source\PSoC6\pdl\middleware\em_eeprom/cy_em_eeprom.c ****                              (void *)(emEepromRowRdAddr + CY_EM_EEPROM_EEPROM_DATA_LEN),
 480:Generated_Source\PSoC6\pdl\middleware\em_eeprom/cy_em_eeprom.c ****                              CY_EM_EEPROM_EEPROM_DATA_LEN);
 481:Generated_Source\PSoC6\pdl\middleware\em_eeprom/cy_em_eeprom.c ****             }
 482:Generated_Source\PSoC6\pdl\middleware\em_eeprom/cy_em_eeprom.c **** 
 483:Generated_Source\PSoC6\pdl\middleware\em_eeprom/cy_em_eeprom.c ****             /* Check if there is data for this location in other EEPROM headers:
 484:Generated_Source\PSoC6\pdl\middleware\em_eeprom/cy_em_eeprom.c ****             * find out the row with the lowest possible sequence number which
 485:Generated_Source\PSoC6\pdl\middleware\em_eeprom/cy_em_eeprom.c ****             * may contain the data for the current row.
 486:Generated_Source\PSoC6\pdl\middleware\em_eeprom/cy_em_eeprom.c ****             */
ARM GAS  C:\Users\eduar\AppData\Local\Temp\ccwtx1iP.s 			page 10


 487:Generated_Source\PSoC6\pdl\middleware\em_eeprom/cy_em_eeprom.c ****             i = (seqNum > context->numberOfRows) ? ((seqNum - (context->numberOfRows)) + 1u) : 1u;
 488:Generated_Source\PSoC6\pdl\middleware\em_eeprom/cy_em_eeprom.c **** 
 489:Generated_Source\PSoC6\pdl\middleware\em_eeprom/cy_em_eeprom.c ****             for(; i <= seqNum; i++)
 490:Generated_Source\PSoC6\pdl\middleware\em_eeprom/cy_em_eeprom.c ****             {
 491:Generated_Source\PSoC6\pdl\middleware\em_eeprom/cy_em_eeprom.c ****                 if(i == seqNum)
 492:Generated_Source\PSoC6\pdl\middleware\em_eeprom/cy_em_eeprom.c ****                 {
 493:Generated_Source\PSoC6\pdl\middleware\em_eeprom/cy_em_eeprom.c ****                     /* The code reached the row that is about to be written. Analyze the recently
 494:Generated_Source\PSoC6\pdl\middleware\em_eeprom/cy_em_eeprom.c ****                     * created EEPROM header (stored in the RAM buffer currently): if it contains
 495:Generated_Source\PSoC6\pdl\middleware\em_eeprom/cy_em_eeprom.c ****                     * the data for EEPROM data locations in the row that is about to be written.
 496:Generated_Source\PSoC6\pdl\middleware\em_eeprom/cy_em_eeprom.c ****                     */
 497:Generated_Source\PSoC6\pdl\middleware\em_eeprom/cy_em_eeprom.c ****                     tmpRowAddr = (uint32_t) writeRamBuffer;
 498:Generated_Source\PSoC6\pdl\middleware\em_eeprom/cy_em_eeprom.c ****                 }
 499:Generated_Source\PSoC6\pdl\middleware\em_eeprom/cy_em_eeprom.c ****                 else
 500:Generated_Source\PSoC6\pdl\middleware\em_eeprom/cy_em_eeprom.c ****                 {
 501:Generated_Source\PSoC6\pdl\middleware\em_eeprom/cy_em_eeprom.c ****                     /* Retrieve the address of the previously written row by its sequence number.
 502:Generated_Source\PSoC6\pdl\middleware\em_eeprom/cy_em_eeprom.c ****                     * The pointer will be used to get data from the respective EEPROM header.
 503:Generated_Source\PSoC6\pdl\middleware\em_eeprom/cy_em_eeprom.c ****                     */
 504:Generated_Source\PSoC6\pdl\middleware\em_eeprom/cy_em_eeprom.c ****                     tmpRowAddr = GetRowAddrBySeqNum(i, context);
 505:Generated_Source\PSoC6\pdl\middleware\em_eeprom/cy_em_eeprom.c ****                 }
 506:Generated_Source\PSoC6\pdl\middleware\em_eeprom/cy_em_eeprom.c **** 
 507:Generated_Source\PSoC6\pdl\middleware\em_eeprom/cy_em_eeprom.c ****                 actEmEepromRowNum = CY_EM_EEPROM_GET_ACT_ROW_NUM_FROM_ADDR(emEepromRowAddr,
 508:Generated_Source\PSoC6\pdl\middleware\em_eeprom/cy_em_eeprom.c ****                                                                            context->numberOfRows,
 509:Generated_Source\PSoC6\pdl\middleware\em_eeprom/cy_em_eeprom.c ****                                                                            context->userFlashStartA
 510:Generated_Source\PSoC6\pdl\middleware\em_eeprom/cy_em_eeprom.c ****                 if(0UL != tmpRowAddr)
 511:Generated_Source\PSoC6\pdl\middleware\em_eeprom/cy_em_eeprom.c ****                 {
 512:Generated_Source\PSoC6\pdl\middleware\em_eeprom/cy_em_eeprom.c ****                     /* Calculate the required addressed for the later EEPROM historic data update *
 513:Generated_Source\PSoC6\pdl\middleware\em_eeprom/cy_em_eeprom.c ****                     skipOperation = GetAddresses(
 514:Generated_Source\PSoC6\pdl\middleware\em_eeprom/cy_em_eeprom.c ****                                               &startAddr,
 515:Generated_Source\PSoC6\pdl\middleware\em_eeprom/cy_em_eeprom.c ****                                               &endAddr,
 516:Generated_Source\PSoC6\pdl\middleware\em_eeprom/cy_em_eeprom.c ****                                               &eeHeaderDataOffset,
 517:Generated_Source\PSoC6\pdl\middleware\em_eeprom/cy_em_eeprom.c ****                                               actEmEepromRowNum,
 518:Generated_Source\PSoC6\pdl\middleware\em_eeprom/cy_em_eeprom.c ****                                               *(uint32_t *)(tmpRowAddr + CY_EM_EEPROM_HEADER_ADDR_O
 519:Generated_Source\PSoC6\pdl\middleware\em_eeprom/cy_em_eeprom.c ****                                               *(uint32_t *)(tmpRowAddr + CY_EM_EEPROM_HEADER_LEN_OF
 520:Generated_Source\PSoC6\pdl\middleware\em_eeprom/cy_em_eeprom.c ****                 }
 521:Generated_Source\PSoC6\pdl\middleware\em_eeprom/cy_em_eeprom.c ****                 else
 522:Generated_Source\PSoC6\pdl\middleware\em_eeprom/cy_em_eeprom.c ****                 {
 523:Generated_Source\PSoC6\pdl\middleware\em_eeprom/cy_em_eeprom.c ****                     /* Skip writes to the RAM buffer */
 524:Generated_Source\PSoC6\pdl\middleware\em_eeprom/cy_em_eeprom.c ****                     skipOperation++;
 525:Generated_Source\PSoC6\pdl\middleware\em_eeprom/cy_em_eeprom.c ****                 }
 526:Generated_Source\PSoC6\pdl\middleware\em_eeprom/cy_em_eeprom.c **** 
 527:Generated_Source\PSoC6\pdl\middleware\em_eeprom/cy_em_eeprom.c ****                 /* Write data to the RAM buffer */
 528:Generated_Source\PSoC6\pdl\middleware\em_eeprom/cy_em_eeprom.c ****                 if(0u == skipOperation)
 529:Generated_Source\PSoC6\pdl\middleware\em_eeprom/cy_em_eeprom.c ****                 {
 530:Generated_Source\PSoC6\pdl\middleware\em_eeprom/cy_em_eeprom.c ****                     uint32_t dataAddr = ((uint32_t)((uint8_t *)&writeRamBuffer)) + startAddr;
 531:Generated_Source\PSoC6\pdl\middleware\em_eeprom/cy_em_eeprom.c **** 
 532:Generated_Source\PSoC6\pdl\middleware\em_eeprom/cy_em_eeprom.c ****                     /* Update the address to point to the EEPROM header data and not to
 533:Generated_Source\PSoC6\pdl\middleware\em_eeprom/cy_em_eeprom.c ****                     * the start of the row.
 534:Generated_Source\PSoC6\pdl\middleware\em_eeprom/cy_em_eeprom.c ****                     */
 535:Generated_Source\PSoC6\pdl\middleware\em_eeprom/cy_em_eeprom.c ****                     tmpRowAddr = tmpRowAddr + CY_EM_EEPROM_HEADER_DATA_OFFSET + eeHeaderDataOffset;
 536:Generated_Source\PSoC6\pdl\middleware\em_eeprom/cy_em_eeprom.c ****                     (void)memcpy((void *)(dataAddr), (void *)(tmpRowAddr), endAddr - startAddr);
 537:Generated_Source\PSoC6\pdl\middleware\em_eeprom/cy_em_eeprom.c ****                 }
 538:Generated_Source\PSoC6\pdl\middleware\em_eeprom/cy_em_eeprom.c **** 
 539:Generated_Source\PSoC6\pdl\middleware\em_eeprom/cy_em_eeprom.c ****                 /* Calculate the checksum if redundant copy is enabled */
 540:Generated_Source\PSoC6\pdl\middleware\em_eeprom/cy_em_eeprom.c ****                 if(0u != context->redundantCopy)
 541:Generated_Source\PSoC6\pdl\middleware\em_eeprom/cy_em_eeprom.c ****                 {
 542:Generated_Source\PSoC6\pdl\middleware\em_eeprom/cy_em_eeprom.c ****                     writeRamBuffer[CY_EM_EEPROM_HEADER_CHECKSUM_OFFSET_U32] = (uint32_t)
 543:Generated_Source\PSoC6\pdl\middleware\em_eeprom/cy_em_eeprom.c ****                         CalcChecksum((uint8_t *) &writeRamBuffer[CY_EM_EEPROM_EEPROM_DATA_OFFSET_U3
ARM GAS  C:\Users\eduar\AppData\Local\Temp\ccwtx1iP.s 			page 11


 544:Generated_Source\PSoC6\pdl\middleware\em_eeprom/cy_em_eeprom.c ****                                                   CY_EM_EEPROM_EEPROM_DATA_LEN);
 545:Generated_Source\PSoC6\pdl\middleware\em_eeprom/cy_em_eeprom.c ****                 }
 546:Generated_Source\PSoC6\pdl\middleware\em_eeprom/cy_em_eeprom.c ****             }
 547:Generated_Source\PSoC6\pdl\middleware\em_eeprom/cy_em_eeprom.c **** 
 548:Generated_Source\PSoC6\pdl\middleware\em_eeprom/cy_em_eeprom.c ****             /* Write the data to the specified flash row */
 549:Generated_Source\PSoC6\pdl\middleware\em_eeprom/cy_em_eeprom.c ****             ret = WriteRow(emEepromRowAddr, writeRamBuffer, context);
 550:Generated_Source\PSoC6\pdl\middleware\em_eeprom/cy_em_eeprom.c ****             tmpRowAddr = emEepromRowAddr;
 551:Generated_Source\PSoC6\pdl\middleware\em_eeprom/cy_em_eeprom.c **** 
 552:Generated_Source\PSoC6\pdl\middleware\em_eeprom/cy_em_eeprom.c ****             /* Check if redundant copy is used */
 553:Generated_Source\PSoC6\pdl\middleware\em_eeprom/cy_em_eeprom.c ****             if((0u != context->redundantCopy) && (CY_EM_EEPROM_SUCCESS == ret))
 554:Generated_Source\PSoC6\pdl\middleware\em_eeprom/cy_em_eeprom.c ****             {
 555:Generated_Source\PSoC6\pdl\middleware\em_eeprom/cy_em_eeprom.c ****                 /* Update the row address to point to the row in the redundant EEPROM's copy */
 556:Generated_Source\PSoC6\pdl\middleware\em_eeprom/cy_em_eeprom.c ****                 tmpRowAddr = (emEepromRowAddr - context->userFlashStartAddr) + context->wlEndAddr;
 557:Generated_Source\PSoC6\pdl\middleware\em_eeprom/cy_em_eeprom.c **** 
 558:Generated_Source\PSoC6\pdl\middleware\em_eeprom/cy_em_eeprom.c ****                 /* Write the data to the specified flash row */
 559:Generated_Source\PSoC6\pdl\middleware\em_eeprom/cy_em_eeprom.c ****                 ret = WriteRow(tmpRowAddr, writeRamBuffer, context);
 560:Generated_Source\PSoC6\pdl\middleware\em_eeprom/cy_em_eeprom.c ****             }
 561:Generated_Source\PSoC6\pdl\middleware\em_eeprom/cy_em_eeprom.c **** 
 562:Generated_Source\PSoC6\pdl\middleware\em_eeprom/cy_em_eeprom.c ****             if(CY_EM_EEPROM_SUCCESS == ret)
 563:Generated_Source\PSoC6\pdl\middleware\em_eeprom/cy_em_eeprom.c ****             {
 564:Generated_Source\PSoC6\pdl\middleware\em_eeprom/cy_em_eeprom.c ****                 /* Store last written row address only when EEPROM and redundant
 565:Generated_Source\PSoC6\pdl\middleware\em_eeprom/cy_em_eeprom.c ****                 * copy writes were successful.
 566:Generated_Source\PSoC6\pdl\middleware\em_eeprom/cy_em_eeprom.c ****                 */
 567:Generated_Source\PSoC6\pdl\middleware\em_eeprom/cy_em_eeprom.c ****                 context->lastWrRowAddr = emEepromRowAddr;
 568:Generated_Source\PSoC6\pdl\middleware\em_eeprom/cy_em_eeprom.c ****             }
 569:Generated_Source\PSoC6\pdl\middleware\em_eeprom/cy_em_eeprom.c ****             else
 570:Generated_Source\PSoC6\pdl\middleware\em_eeprom/cy_em_eeprom.c ****             {
 571:Generated_Source\PSoC6\pdl\middleware\em_eeprom/cy_em_eeprom.c ****                 break;
 572:Generated_Source\PSoC6\pdl\middleware\em_eeprom/cy_em_eeprom.c ****             }
 573:Generated_Source\PSoC6\pdl\middleware\em_eeprom/cy_em_eeprom.c ****         }
 574:Generated_Source\PSoC6\pdl\middleware\em_eeprom/cy_em_eeprom.c ****     }
 575:Generated_Source\PSoC6\pdl\middleware\em_eeprom/cy_em_eeprom.c ****     return(ret);
 576:Generated_Source\PSoC6\pdl\middleware\em_eeprom/cy_em_eeprom.c **** }
 577:Generated_Source\PSoC6\pdl\middleware\em_eeprom/cy_em_eeprom.c **** 
 578:Generated_Source\PSoC6\pdl\middleware\em_eeprom/cy_em_eeprom.c **** 
 579:Generated_Source\PSoC6\pdl\middleware\em_eeprom/cy_em_eeprom.c **** /*******************************************************************************
 580:Generated_Source\PSoC6\pdl\middleware\em_eeprom/cy_em_eeprom.c **** * Function Name: Cy_Em_EEPROM_Erase
 581:Generated_Source\PSoC6\pdl\middleware\em_eeprom/cy_em_eeprom.c **** ****************************************************************************//**
 582:Generated_Source\PSoC6\pdl\middleware\em_eeprom/cy_em_eeprom.c **** *
 583:Generated_Source\PSoC6\pdl\middleware\em_eeprom/cy_em_eeprom.c **** * This function erases the entire contents of the EEPROM. Erased values are all
 584:Generated_Source\PSoC6\pdl\middleware\em_eeprom/cy_em_eeprom.c **** * zeros. This is a blocking function and it does not return until the write
 585:Generated_Source\PSoC6\pdl\middleware\em_eeprom/cy_em_eeprom.c **** * operation is completed. The user firmware should not enter Hibernate mode until
 586:Generated_Source\PSoC6\pdl\middleware\em_eeprom/cy_em_eeprom.c **** * erase is completed. The erase operation is allowed in Sleep and Deep-Sleep modes.
 587:Generated_Source\PSoC6\pdl\middleware\em_eeprom/cy_em_eeprom.c **** * During the flash operation, the device should not be reset, including the
 588:Generated_Source\PSoC6\pdl\middleware\em_eeprom/cy_em_eeprom.c **** * XRES pin, a software reset, and watchdog reset sources. Also, low-voltage
 589:Generated_Source\PSoC6\pdl\middleware\em_eeprom/cy_em_eeprom.c **** * detect circuits should be configured to generate an interrupt instead of a
 590:Generated_Source\PSoC6\pdl\middleware\em_eeprom/cy_em_eeprom.c **** * reset. Otherwise, portions of flash may undergo unexpected changes.
 591:Generated_Source\PSoC6\pdl\middleware\em_eeprom/cy_em_eeprom.c **** *
 592:Generated_Source\PSoC6\pdl\middleware\em_eeprom/cy_em_eeprom.c **** * \param context
 593:Generated_Source\PSoC6\pdl\middleware\em_eeprom/cy_em_eeprom.c **** * The pointer to the EEPROM context structure \ref cy_stc_eeprom_context_t.
 594:Generated_Source\PSoC6\pdl\middleware\em_eeprom/cy_em_eeprom.c **** *
 595:Generated_Source\PSoC6\pdl\middleware\em_eeprom/cy_em_eeprom.c **** * \return
 596:Generated_Source\PSoC6\pdl\middleware\em_eeprom/cy_em_eeprom.c **** * This function returns \ref cy_en_em_eeprom_status_t.
 597:Generated_Source\PSoC6\pdl\middleware\em_eeprom/cy_em_eeprom.c **** *
 598:Generated_Source\PSoC6\pdl\middleware\em_eeprom/cy_em_eeprom.c **** * \note
 599:Generated_Source\PSoC6\pdl\middleware\em_eeprom/cy_em_eeprom.c **** * For all non PSoC 6 devices the erase operation is performed by clearing
 600:Generated_Source\PSoC6\pdl\middleware\em_eeprom/cy_em_eeprom.c **** * the EEPROM data using flash write. This affects the flash durability.
ARM GAS  C:\Users\eduar\AppData\Local\Temp\ccwtx1iP.s 			page 12


 601:Generated_Source\PSoC6\pdl\middleware\em_eeprom/cy_em_eeprom.c **** * So it is recommended to use this function in utmost case to prolongate
 602:Generated_Source\PSoC6\pdl\middleware\em_eeprom/cy_em_eeprom.c **** * flash life.
 603:Generated_Source\PSoC6\pdl\middleware\em_eeprom/cy_em_eeprom.c **** *
 604:Generated_Source\PSoC6\pdl\middleware\em_eeprom/cy_em_eeprom.c **** * \note
 605:Generated_Source\PSoC6\pdl\middleware\em_eeprom/cy_em_eeprom.c **** * This function uses a buffer of the flash row size to perform erase
 606:Generated_Source\PSoC6\pdl\middleware\em_eeprom/cy_em_eeprom.c **** * operation. For the size of the row refer to the specific PSoC device
 607:Generated_Source\PSoC6\pdl\middleware\em_eeprom/cy_em_eeprom.c **** * datasheet.
 608:Generated_Source\PSoC6\pdl\middleware\em_eeprom/cy_em_eeprom.c **** *
 609:Generated_Source\PSoC6\pdl\middleware\em_eeprom/cy_em_eeprom.c **** * \sideeffect
 610:Generated_Source\PSoC6\pdl\middleware\em_eeprom/cy_em_eeprom.c **** * In case when blocking write option is used, if this function is called by
 611:Generated_Source\PSoC6\pdl\middleware\em_eeprom/cy_em_eeprom.c **** * the CM4 the user code on CM0P and the user code on CM4 are blocked until erase
 612:Generated_Source\PSoC6\pdl\middleware\em_eeprom/cy_em_eeprom.c **** * flash row operation is finished. If this function is called by the CM0P the
 613:Generated_Source\PSoC6\pdl\middleware\em_eeprom/cy_em_eeprom.c **** * user code on CM4 is not blocked and the user code on CM0P is blocked until
 614:Generated_Source\PSoC6\pdl\middleware\em_eeprom/cy_em_eeprom.c **** * erase flash row operation is finished. Plan your task allocation accordingly.
 615:Generated_Source\PSoC6\pdl\middleware\em_eeprom/cy_em_eeprom.c **** *
 616:Generated_Source\PSoC6\pdl\middleware\em_eeprom/cy_em_eeprom.c **** * \sideeffect
 617:Generated_Source\PSoC6\pdl\middleware\em_eeprom/cy_em_eeprom.c **** * In case if non-blocking write option is used and when user flash is used as
 618:Generated_Source\PSoC6\pdl\middleware\em_eeprom/cy_em_eeprom.c **** * an EEPROM storage care should be taken to prevent the read while write (RWW)
 619:Generated_Source\PSoC6\pdl\middleware\em_eeprom/cy_em_eeprom.c **** * exception. To prevent the RWW exception the user flash macro that includes
 620:Generated_Source\PSoC6\pdl\middleware\em_eeprom/cy_em_eeprom.c **** * the EEPROM storage should not be read while the EEPROM erase is not completed.
 621:Generated_Source\PSoC6\pdl\middleware\em_eeprom/cy_em_eeprom.c **** * The read also means the user code execution from the respective flash macro.
 622:Generated_Source\PSoC6\pdl\middleware\em_eeprom/cy_em_eeprom.c **** *
 623:Generated_Source\PSoC6\pdl\middleware\em_eeprom/cy_em_eeprom.c **** *******************************************************************************/
 624:Generated_Source\PSoC6\pdl\middleware\em_eeprom/cy_em_eeprom.c **** cy_en_em_eeprom_status_t Cy_Em_EEPROM_Erase(cy_stc_eeprom_context_t * context)
 625:Generated_Source\PSoC6\pdl\middleware\em_eeprom/cy_em_eeprom.c **** {
 626:Generated_Source\PSoC6\pdl\middleware\em_eeprom/cy_em_eeprom.c ****     uint32_t i;
 627:Generated_Source\PSoC6\pdl\middleware\em_eeprom/cy_em_eeprom.c ****     uint32_t seqNum;
 628:Generated_Source\PSoC6\pdl\middleware\em_eeprom/cy_em_eeprom.c ****     uint32_t emEepromRowAddr = context->lastWrRowAddr;
 629:Generated_Source\PSoC6\pdl\middleware\em_eeprom/cy_em_eeprom.c ****     uint32_t emEepromRowRdAddr;
 630:Generated_Source\PSoC6\pdl\middleware\em_eeprom/cy_em_eeprom.c ****     cy_en_em_eeprom_status_t ret = CY_EM_EEPROM_WRITE_FAIL;
 631:Generated_Source\PSoC6\pdl\middleware\em_eeprom/cy_em_eeprom.c ****     uint32_t writeRamBuffer[CY_EM_EEPROM_FLASH_SIZEOF_ROW / CY_EM_EEPROM_U32_DIV] = {0u};
 632:Generated_Source\PSoC6\pdl\middleware\em_eeprom/cy_em_eeprom.c ****     uint32_t emEepromStoredRowAddr = context->lastWrRowAddr;
 633:Generated_Source\PSoC6\pdl\middleware\em_eeprom/cy_em_eeprom.c ****     uint32_t storedSeqNum;
 634:Generated_Source\PSoC6\pdl\middleware\em_eeprom/cy_em_eeprom.c **** 
 635:Generated_Source\PSoC6\pdl\middleware\em_eeprom/cy_em_eeprom.c ****     /* Get the sequence number of the last written row */
 636:Generated_Source\PSoC6\pdl\middleware\em_eeprom/cy_em_eeprom.c ****     seqNum = CY_EM_EEPROM_GET_SEQ_NUM(emEepromRowAddr);
 637:Generated_Source\PSoC6\pdl\middleware\em_eeprom/cy_em_eeprom.c **** 
 638:Generated_Source\PSoC6\pdl\middleware\em_eeprom/cy_em_eeprom.c ****     /* If there were no writes to EEPROM - nothing to erase */
 639:Generated_Source\PSoC6\pdl\middleware\em_eeprom/cy_em_eeprom.c ****     if(0u != seqNum)
 640:Generated_Source\PSoC6\pdl\middleware\em_eeprom/cy_em_eeprom.c ****     {
 641:Generated_Source\PSoC6\pdl\middleware\em_eeprom/cy_em_eeprom.c ****         /* Calculate the number of row erase operations required */
 642:Generated_Source\PSoC6\pdl\middleware\em_eeprom/cy_em_eeprom.c ****         uint32_t numWrites = context->numberOfRows * context->wearLevelingFactor;
 643:Generated_Source\PSoC6\pdl\middleware\em_eeprom/cy_em_eeprom.c **** 
 644:Generated_Source\PSoC6\pdl\middleware\em_eeprom/cy_em_eeprom.c ****         GetNextRowToWrite(seqNum, &emEepromStoredRowAddr, &emEepromRowRdAddr, context);
 645:Generated_Source\PSoC6\pdl\middleware\em_eeprom/cy_em_eeprom.c ****         storedSeqNum = seqNum + 1u;
 646:Generated_Source\PSoC6\pdl\middleware\em_eeprom/cy_em_eeprom.c **** 
 647:Generated_Source\PSoC6\pdl\middleware\em_eeprom/cy_em_eeprom.c ****         if(0u != context->redundantCopy)
 648:Generated_Source\PSoC6\pdl\middleware\em_eeprom/cy_em_eeprom.c ****         {
 649:Generated_Source\PSoC6\pdl\middleware\em_eeprom/cy_em_eeprom.c ****             writeRamBuffer[CY_EM_EEPROM_HEADER_CHECKSUM_OFFSET_U32] = (uint32_t)
 650:Generated_Source\PSoC6\pdl\middleware\em_eeprom/cy_em_eeprom.c ****                         CalcChecksum((uint8_t *) &writeRamBuffer[CY_EM_EEPROM_EEPROM_DATA_OFFSET_U3
 651:Generated_Source\PSoC6\pdl\middleware\em_eeprom/cy_em_eeprom.c ****                                                   CY_EM_EEPROM_EEPROM_DATA_LEN);
 652:Generated_Source\PSoC6\pdl\middleware\em_eeprom/cy_em_eeprom.c ****         }
 653:Generated_Source\PSoC6\pdl\middleware\em_eeprom/cy_em_eeprom.c **** 
 654:Generated_Source\PSoC6\pdl\middleware\em_eeprom/cy_em_eeprom.c ****         for(i = 0u; i < numWrites; i++)
 655:Generated_Source\PSoC6\pdl\middleware\em_eeprom/cy_em_eeprom.c ****         {
 656:Generated_Source\PSoC6\pdl\middleware\em_eeprom/cy_em_eeprom.c ****             /* For PSoC 6 the erase operation moves backwards. From last written row
 657:Generated_Source\PSoC6\pdl\middleware\em_eeprom/cy_em_eeprom.c ****             * identified by "seqNum" down to "seqNum" - "numWrites". If "emEepromRowAddr"
ARM GAS  C:\Users\eduar\AppData\Local\Temp\ccwtx1iP.s 			page 13


 658:Generated_Source\PSoC6\pdl\middleware\em_eeprom/cy_em_eeprom.c ****             * is zero this means that the row identified by "seqNum" was previously 
 659:Generated_Source\PSoC6\pdl\middleware\em_eeprom/cy_em_eeprom.c ****             * erased.
 660:Generated_Source\PSoC6\pdl\middleware\em_eeprom/cy_em_eeprom.c ****             */
 661:Generated_Source\PSoC6\pdl\middleware\em_eeprom/cy_em_eeprom.c ****             if(0u != emEepromRowAddr)
 662:Generated_Source\PSoC6\pdl\middleware\em_eeprom/cy_em_eeprom.c ****             {
 663:Generated_Source\PSoC6\pdl\middleware\em_eeprom/cy_em_eeprom.c ****                 ret = EraseRow(emEepromRowAddr, (uint32_t)writeRamBuffer, context);
 664:Generated_Source\PSoC6\pdl\middleware\em_eeprom/cy_em_eeprom.c ****             }
 665:Generated_Source\PSoC6\pdl\middleware\em_eeprom/cy_em_eeprom.c **** 
 666:Generated_Source\PSoC6\pdl\middleware\em_eeprom/cy_em_eeprom.c ****             seqNum--;
 667:Generated_Source\PSoC6\pdl\middleware\em_eeprom/cy_em_eeprom.c **** 
 668:Generated_Source\PSoC6\pdl\middleware\em_eeprom/cy_em_eeprom.c ****             if(0u == seqNum)
 669:Generated_Source\PSoC6\pdl\middleware\em_eeprom/cy_em_eeprom.c ****             {
 670:Generated_Source\PSoC6\pdl\middleware\em_eeprom/cy_em_eeprom.c ****                 /* Exit the loop as there is no more row is EEPROM to be erased */
 671:Generated_Source\PSoC6\pdl\middleware\em_eeprom/cy_em_eeprom.c ****                 break;
 672:Generated_Source\PSoC6\pdl\middleware\em_eeprom/cy_em_eeprom.c ****             }
 673:Generated_Source\PSoC6\pdl\middleware\em_eeprom/cy_em_eeprom.c ****             emEepromRowAddr = GetRowAddrBySeqNum(seqNum, context);
 674:Generated_Source\PSoC6\pdl\middleware\em_eeprom/cy_em_eeprom.c ****         }
 675:Generated_Source\PSoC6\pdl\middleware\em_eeprom/cy_em_eeprom.c **** 
 676:Generated_Source\PSoC6\pdl\middleware\em_eeprom/cy_em_eeprom.c ****         if(CY_EM_EEPROM_SUCCESS == ret)
 677:Generated_Source\PSoC6\pdl\middleware\em_eeprom/cy_em_eeprom.c ****         {
 678:Generated_Source\PSoC6\pdl\middleware\em_eeprom/cy_em_eeprom.c ****             writeRamBuffer[0u] = storedSeqNum;
 679:Generated_Source\PSoC6\pdl\middleware\em_eeprom/cy_em_eeprom.c **** 
 680:Generated_Source\PSoC6\pdl\middleware\em_eeprom/cy_em_eeprom.c ****             /* Write the previously stored sequence number to the flash row which would be
 681:Generated_Source\PSoC6\pdl\middleware\em_eeprom/cy_em_eeprom.c ****             * written next if the erase wouldn't happen. In this case the write to
 682:Generated_Source\PSoC6\pdl\middleware\em_eeprom/cy_em_eeprom.c ****             * redundant copy can be skipped as it does not add any value.
 683:Generated_Source\PSoC6\pdl\middleware\em_eeprom/cy_em_eeprom.c ****             */
 684:Generated_Source\PSoC6\pdl\middleware\em_eeprom/cy_em_eeprom.c ****             ret = WriteRow(emEepromStoredRowAddr, writeRamBuffer, context);
 685:Generated_Source\PSoC6\pdl\middleware\em_eeprom/cy_em_eeprom.c **** 
 686:Generated_Source\PSoC6\pdl\middleware\em_eeprom/cy_em_eeprom.c ****             if(CY_EM_EEPROM_SUCCESS == ret)
 687:Generated_Source\PSoC6\pdl\middleware\em_eeprom/cy_em_eeprom.c ****             {
 688:Generated_Source\PSoC6\pdl\middleware\em_eeprom/cy_em_eeprom.c ****                 context->lastWrRowAddr = emEepromStoredRowAddr;
 689:Generated_Source\PSoC6\pdl\middleware\em_eeprom/cy_em_eeprom.c ****             }
 690:Generated_Source\PSoC6\pdl\middleware\em_eeprom/cy_em_eeprom.c ****         }
 691:Generated_Source\PSoC6\pdl\middleware\em_eeprom/cy_em_eeprom.c **** 
 692:Generated_Source\PSoC6\pdl\middleware\em_eeprom/cy_em_eeprom.c ****     }
 693:Generated_Source\PSoC6\pdl\middleware\em_eeprom/cy_em_eeprom.c ****     return(ret);
 694:Generated_Source\PSoC6\pdl\middleware\em_eeprom/cy_em_eeprom.c **** }
 695:Generated_Source\PSoC6\pdl\middleware\em_eeprom/cy_em_eeprom.c **** 
 696:Generated_Source\PSoC6\pdl\middleware\em_eeprom/cy_em_eeprom.c **** 
 697:Generated_Source\PSoC6\pdl\middleware\em_eeprom/cy_em_eeprom.c **** /*******************************************************************************
 698:Generated_Source\PSoC6\pdl\middleware\em_eeprom/cy_em_eeprom.c **** * Function Name: Cy_Em_EEPROM_NumWrites
 699:Generated_Source\PSoC6\pdl\middleware\em_eeprom/cy_em_eeprom.c **** ****************************************************************************//**
 700:Generated_Source\PSoC6\pdl\middleware\em_eeprom/cy_em_eeprom.c **** *
 701:Generated_Source\PSoC6\pdl\middleware\em_eeprom/cy_em_eeprom.c **** * Returns the number of the EEPROM writes completed so far.
 702:Generated_Source\PSoC6\pdl\middleware\em_eeprom/cy_em_eeprom.c **** *
 703:Generated_Source\PSoC6\pdl\middleware\em_eeprom/cy_em_eeprom.c **** * \param context
 704:Generated_Source\PSoC6\pdl\middleware\em_eeprom/cy_em_eeprom.c **** * The pointer to the EEPROM context structure \ref cy_stc_eeprom_context_t.
 705:Generated_Source\PSoC6\pdl\middleware\em_eeprom/cy_em_eeprom.c **** *
 706:Generated_Source\PSoC6\pdl\middleware\em_eeprom/cy_em_eeprom.c **** * \return
 707:Generated_Source\PSoC6\pdl\middleware\em_eeprom/cy_em_eeprom.c **** * The number of writes performed to the EEPROM.
 708:Generated_Source\PSoC6\pdl\middleware\em_eeprom/cy_em_eeprom.c **** *
 709:Generated_Source\PSoC6\pdl\middleware\em_eeprom/cy_em_eeprom.c **** *******************************************************************************/
 710:Generated_Source\PSoC6\pdl\middleware\em_eeprom/cy_em_eeprom.c **** uint32_t Cy_Em_EEPROM_NumWrites(cy_stc_eeprom_context_t * context)
 711:Generated_Source\PSoC6\pdl\middleware\em_eeprom/cy_em_eeprom.c **** {
 712:Generated_Source\PSoC6\pdl\middleware\em_eeprom/cy_em_eeprom.c ****     return(CY_EM_EEPROM_GET_SEQ_NUM(context->lastWrRowAddr));
 713:Generated_Source\PSoC6\pdl\middleware\em_eeprom/cy_em_eeprom.c **** }
 714:Generated_Source\PSoC6\pdl\middleware\em_eeprom/cy_em_eeprom.c **** 
ARM GAS  C:\Users\eduar\AppData\Local\Temp\ccwtx1iP.s 			page 14


 715:Generated_Source\PSoC6\pdl\middleware\em_eeprom/cy_em_eeprom.c **** /** \} */
 716:Generated_Source\PSoC6\pdl\middleware\em_eeprom/cy_em_eeprom.c **** 
 717:Generated_Source\PSoC6\pdl\middleware\em_eeprom/cy_em_eeprom.c **** /** \cond INTERNAL */
 718:Generated_Source\PSoC6\pdl\middleware\em_eeprom/cy_em_eeprom.c **** 
 719:Generated_Source\PSoC6\pdl\middleware\em_eeprom/cy_em_eeprom.c **** 
 720:Generated_Source\PSoC6\pdl\middleware\em_eeprom/cy_em_eeprom.c **** /*******************************************************************************
 721:Generated_Source\PSoC6\pdl\middleware\em_eeprom/cy_em_eeprom.c **** * Function Name: FindLastWrittenRow
 722:Generated_Source\PSoC6\pdl\middleware\em_eeprom/cy_em_eeprom.c **** ****************************************************************************//**
 723:Generated_Source\PSoC6\pdl\middleware\em_eeprom/cy_em_eeprom.c **** *
 724:Generated_Source\PSoC6\pdl\middleware\em_eeprom/cy_em_eeprom.c **** * Performs a search of the last written row address of the EEPROM associated
 725:Generated_Source\PSoC6\pdl\middleware\em_eeprom/cy_em_eeprom.c **** * with the context structure. If there were no writes to the EEPROM the
 726:Generated_Source\PSoC6\pdl\middleware\em_eeprom/cy_em_eeprom.c **** * function returns the start address of the EEPROM. The row address is returned
 727:Generated_Source\PSoC6\pdl\middleware\em_eeprom/cy_em_eeprom.c **** * in the input parameter.
 728:Generated_Source\PSoC6\pdl\middleware\em_eeprom/cy_em_eeprom.c **** *
 729:Generated_Source\PSoC6\pdl\middleware\em_eeprom/cy_em_eeprom.c **** * \param lastWrRowPtr
 730:Generated_Source\PSoC6\pdl\middleware\em_eeprom/cy_em_eeprom.c **** * The pointer to a memory where the last written row will be returned.
 731:Generated_Source\PSoC6\pdl\middleware\em_eeprom/cy_em_eeprom.c **** *
 732:Generated_Source\PSoC6\pdl\middleware\em_eeprom/cy_em_eeprom.c **** * \param context
 733:Generated_Source\PSoC6\pdl\middleware\em_eeprom/cy_em_eeprom.c **** * The pointer to the EEPROM context structure \ref cy_stc_eeprom_context_t.
 734:Generated_Source\PSoC6\pdl\middleware\em_eeprom/cy_em_eeprom.c **** *
 735:Generated_Source\PSoC6\pdl\middleware\em_eeprom/cy_em_eeprom.c **** *******************************************************************************/
 736:Generated_Source\PSoC6\pdl\middleware\em_eeprom/cy_em_eeprom.c **** static void FindLastWrittenRow(uint32_t * lastWrRowPtr, cy_stc_eeprom_context_t * context)
 737:Generated_Source\PSoC6\pdl\middleware\em_eeprom/cy_em_eeprom.c **** {
  28              		.loc 1 737 0
  29              		.cfi_startproc
  30              		@ args = 0, pretend = 0, frame = 0
  31              		@ frame_needed = 0, uses_anonymous_args = 0
  32              		@ link register save eliminated.
  33              	.LVL0:
  34 0000 70B4     		push	{r4, r5, r6}
  35              		.cfi_def_cfa_offset 12
  36              		.cfi_offset 4, -12
  37              		.cfi_offset 5, -8
  38              		.cfi_offset 6, -4
  39              	.LVL1:
 738:Generated_Source\PSoC6\pdl\middleware\em_eeprom/cy_em_eeprom.c ****     uint32_t seqNum = 0u;
 739:Generated_Source\PSoC6\pdl\middleware\em_eeprom/cy_em_eeprom.c ****     uint32_t prevSeqNum = 0u;
 740:Generated_Source\PSoC6\pdl\middleware\em_eeprom/cy_em_eeprom.c ****     uint32_t numRows;
 741:Generated_Source\PSoC6\pdl\middleware\em_eeprom/cy_em_eeprom.c ****     uint32_t emEepromAddr = context->userFlashStartAddr;
  40              		.loc 1 741 0
  41 0002 8A69     		ldr	r2, [r1, #24]
  42              	.LVL2:
 742:Generated_Source\PSoC6\pdl\middleware\em_eeprom/cy_em_eeprom.c **** 
 743:Generated_Source\PSoC6\pdl\middleware\em_eeprom/cy_em_eeprom.c ****     *lastWrRowPtr = emEepromAddr;
  43              		.loc 1 743 0
  44 0004 0260     		str	r2, [r0]
  45              	.LVL3:
 744:Generated_Source\PSoC6\pdl\middleware\em_eeprom/cy_em_eeprom.c **** 
 745:Generated_Source\PSoC6\pdl\middleware\em_eeprom/cy_em_eeprom.c ****     for(numRows = 0u; numRows < (context->numberOfRows * context->wearLevelingFactor); numRows++)
  46              		.loc 1 745 0
  47 0006 0024     		movs	r4, #0
 739:Generated_Source\PSoC6\pdl\middleware\em_eeprom/cy_em_eeprom.c ****     uint32_t numRows;
  48              		.loc 1 739 0
  49 0008 2646     		mov	r6, r4
  50              		.loc 1 745 0
  51 000a 08E0     		b	.L2
  52              	.LVL4:
ARM GAS  C:\Users\eduar\AppData\Local\Temp\ccwtx1iP.s 			page 15


  53              	.L4:
 746:Generated_Source\PSoC6\pdl\middleware\em_eeprom/cy_em_eeprom.c ****     {
 747:Generated_Source\PSoC6\pdl\middleware\em_eeprom/cy_em_eeprom.c ****         seqNum = CY_EM_EEPROM_GET_SEQ_NUM(emEepromAddr);
  54              		.loc 1 747 0
  55 000c 1368     		ldr	r3, [r2]
  56              	.LVL5:
 748:Generated_Source\PSoC6\pdl\middleware\em_eeprom/cy_em_eeprom.c ****         if((0u != seqNum) && (seqNum > prevSeqNum))
  57              		.loc 1 748 0
  58 000e 1BB1     		cbz	r3, .L3
  59              		.loc 1 748 0 is_stmt 0 discriminator 1
  60 0010 9E42     		cmp	r6, r3
  61 0012 01D2     		bcs	.L3
  62              	.LVL6:
 749:Generated_Source\PSoC6\pdl\middleware\em_eeprom/cy_em_eeprom.c ****         {
 750:Generated_Source\PSoC6\pdl\middleware\em_eeprom/cy_em_eeprom.c ****             /* Some record in EEPROM was found. Store found sequence
 751:Generated_Source\PSoC6\pdl\middleware\em_eeprom/cy_em_eeprom.c ****             * number and row address.
 752:Generated_Source\PSoC6\pdl\middleware\em_eeprom/cy_em_eeprom.c ****             */
 753:Generated_Source\PSoC6\pdl\middleware\em_eeprom/cy_em_eeprom.c ****             prevSeqNum = seqNum;
 754:Generated_Source\PSoC6\pdl\middleware\em_eeprom/cy_em_eeprom.c ****             *lastWrRowPtr = emEepromAddr;
  63              		.loc 1 754 0 is_stmt 1
  64 0014 0260     		str	r2, [r0]
 753:Generated_Source\PSoC6\pdl\middleware\em_eeprom/cy_em_eeprom.c ****             *lastWrRowPtr = emEepromAddr;
  65              		.loc 1 753 0
  66 0016 1E46     		mov	r6, r3
  67              	.LVL7:
  68              	.L3:
 755:Generated_Source\PSoC6\pdl\middleware\em_eeprom/cy_em_eeprom.c ****         }
 756:Generated_Source\PSoC6\pdl\middleware\em_eeprom/cy_em_eeprom.c **** 
 757:Generated_Source\PSoC6\pdl\middleware\em_eeprom/cy_em_eeprom.c ****         /* Switch to the next row */
 758:Generated_Source\PSoC6\pdl\middleware\em_eeprom/cy_em_eeprom.c ****         emEepromAddr = emEepromAddr + CY_EM_EEPROM_FLASH_SIZEOF_ROW;
  69              		.loc 1 758 0 discriminator 2
  70 0018 02F50072 		add	r2, r2, #512
  71              	.LVL8:
 745:Generated_Source\PSoC6\pdl\middleware\em_eeprom/cy_em_eeprom.c ****     {
  72              		.loc 1 745 0 discriminator 2
  73 001c 0134     		adds	r4, r4, #1
  74              	.LVL9:
  75              	.L2:
 745:Generated_Source\PSoC6\pdl\middleware\em_eeprom/cy_em_eeprom.c ****     {
  76              		.loc 1 745 0 is_stmt 0 discriminator 1
  77 001e 4D68     		ldr	r5, [r1, #4]
  78 0020 0B69     		ldr	r3, [r1, #16]
  79 0022 03FB05F3 		mul	r3, r3, r5
  80 0026 9C42     		cmp	r4, r3
  81 0028 F0D3     		bcc	.L4
 759:Generated_Source\PSoC6\pdl\middleware\em_eeprom/cy_em_eeprom.c ****     }
 760:Generated_Source\PSoC6\pdl\middleware\em_eeprom/cy_em_eeprom.c **** }
  82              		.loc 1 760 0 is_stmt 1
  83 002a 70BC     		pop	{r4, r5, r6}
  84              		.cfi_restore 6
  85              		.cfi_restore 5
  86              		.cfi_restore 4
  87              		.cfi_def_cfa_offset 0
  88              	.LVL10:
  89 002c 7047     		bx	lr
  90              		.cfi_endproc
  91              	.LFE137:
ARM GAS  C:\Users\eduar\AppData\Local\Temp\ccwtx1iP.s 			page 16


  92              		.size	FindLastWrittenRow, .-FindLastWrittenRow
  93 002e 00BF     		.section	.text.GetRowAddrBySeqNum,"ax",%progbits
  94              		.align	2
  95              		.thumb
  96              		.thumb_func
  97              		.type	GetRowAddrBySeqNum, %function
  98              	GetRowAddrBySeqNum:
  99              	.LFB138:
 761:Generated_Source\PSoC6\pdl\middleware\em_eeprom/cy_em_eeprom.c **** 
 762:Generated_Source\PSoC6\pdl\middleware\em_eeprom/cy_em_eeprom.c **** 
 763:Generated_Source\PSoC6\pdl\middleware\em_eeprom/cy_em_eeprom.c **** /*******************************************************************************
 764:Generated_Source\PSoC6\pdl\middleware\em_eeprom/cy_em_eeprom.c **** * Function Name: GetRowAddrBySeqNum
 765:Generated_Source\PSoC6\pdl\middleware\em_eeprom/cy_em_eeprom.c **** ****************************************************************************//**
 766:Generated_Source\PSoC6\pdl\middleware\em_eeprom/cy_em_eeprom.c **** *
 767:Generated_Source\PSoC6\pdl\middleware\em_eeprom/cy_em_eeprom.c **** * Returns the address of the row in EEPROM using its sequence number.
 768:Generated_Source\PSoC6\pdl\middleware\em_eeprom/cy_em_eeprom.c **** *
 769:Generated_Source\PSoC6\pdl\middleware\em_eeprom/cy_em_eeprom.c **** * \param seqNum
 770:Generated_Source\PSoC6\pdl\middleware\em_eeprom/cy_em_eeprom.c **** * The sequence number of the row.
 771:Generated_Source\PSoC6\pdl\middleware\em_eeprom/cy_em_eeprom.c **** *
 772:Generated_Source\PSoC6\pdl\middleware\em_eeprom/cy_em_eeprom.c **** * \param context
 773:Generated_Source\PSoC6\pdl\middleware\em_eeprom/cy_em_eeprom.c **** * The pointer to the EEPROM context structure.
 774:Generated_Source\PSoC6\pdl\middleware\em_eeprom/cy_em_eeprom.c **** *
 775:Generated_Source\PSoC6\pdl\middleware\em_eeprom/cy_em_eeprom.c **** * \return
 776:Generated_Source\PSoC6\pdl\middleware\em_eeprom/cy_em_eeprom.c **** * The address of the row or zero if the row with the sequence number was not
 777:Generated_Source\PSoC6\pdl\middleware\em_eeprom/cy_em_eeprom.c **** * found.
 778:Generated_Source\PSoC6\pdl\middleware\em_eeprom/cy_em_eeprom.c **** *
 779:Generated_Source\PSoC6\pdl\middleware\em_eeprom/cy_em_eeprom.c **** *******************************************************************************/
 780:Generated_Source\PSoC6\pdl\middleware\em_eeprom/cy_em_eeprom.c **** static uint32_t GetRowAddrBySeqNum(uint32_t seqNum, cy_stc_eeprom_context_t * context)
 781:Generated_Source\PSoC6\pdl\middleware\em_eeprom/cy_em_eeprom.c **** {
 100              		.loc 1 781 0
 101              		.cfi_startproc
 102              		@ args = 0, pretend = 0, frame = 0
 103              		@ frame_needed = 0, uses_anonymous_args = 0
 104              		@ link register save eliminated.
 105              	.LVL11:
 782:Generated_Source\PSoC6\pdl\middleware\em_eeprom/cy_em_eeprom.c ****     uint32_t emEepromAddr = context->userFlashStartAddr;
 106              		.loc 1 782 0
 107 0000 8B69     		ldr	r3, [r1, #24]
 108              	.LVL12:
 783:Generated_Source\PSoC6\pdl\middleware\em_eeprom/cy_em_eeprom.c **** 
 784:Generated_Source\PSoC6\pdl\middleware\em_eeprom/cy_em_eeprom.c ****     while(CY_EM_EEPROM_GET_SEQ_NUM(emEepromAddr) != seqNum)
 109              		.loc 1 784 0
 110 0002 04E0     		b	.L7
 111              	.L9:
 785:Generated_Source\PSoC6\pdl\middleware\em_eeprom/cy_em_eeprom.c ****     {
 786:Generated_Source\PSoC6\pdl\middleware\em_eeprom/cy_em_eeprom.c ****         /* Switch to the next row */
 787:Generated_Source\PSoC6\pdl\middleware\em_eeprom/cy_em_eeprom.c ****         emEepromAddr = emEepromAddr + CY_EM_EEPROM_FLASH_SIZEOF_ROW;
 112              		.loc 1 787 0
 113 0004 03F50073 		add	r3, r3, #512
 114              	.LVL13:
 788:Generated_Source\PSoC6\pdl\middleware\em_eeprom/cy_em_eeprom.c **** 
 789:Generated_Source\PSoC6\pdl\middleware\em_eeprom/cy_em_eeprom.c ****         if (CY_EM_EEPROM_ADDR_IN_RANGE !=
 790:Generated_Source\PSoC6\pdl\middleware\em_eeprom/cy_em_eeprom.c ****             CY_EM_EEPROM_IS_ADDR_EXCEED_RANGE(emEepromAddr, context->wlEndAddr))
 115              		.loc 1 790 0
 116 0008 0A68     		ldr	r2, [r1]
 789:Generated_Source\PSoC6\pdl\middleware\em_eeprom/cy_em_eeprom.c ****             CY_EM_EEPROM_IS_ADDR_EXCEED_RANGE(emEepromAddr, context->wlEndAddr))
 117              		.loc 1 789 0
ARM GAS  C:\Users\eduar\AppData\Local\Temp\ccwtx1iP.s 			page 17


 118 000a 9342     		cmp	r3, r2
 119 000c 03D2     		bcs	.L10
 120              	.L7:
 784:Generated_Source\PSoC6\pdl\middleware\em_eeprom/cy_em_eeprom.c ****     {
 121              		.loc 1 784 0
 122 000e 1A68     		ldr	r2, [r3]
 123 0010 8242     		cmp	r2, r0
 124 0012 F7D1     		bne	.L9
 125 0014 00E0     		b	.L8
 126              	.L10:
 791:Generated_Source\PSoC6\pdl\middleware\em_eeprom/cy_em_eeprom.c ****         {
 792:Generated_Source\PSoC6\pdl\middleware\em_eeprom/cy_em_eeprom.c ****             emEepromAddr = 0u;
 127              		.loc 1 792 0
 128 0016 0023     		movs	r3, #0
 129              	.LVL14:
 130              	.L8:
 793:Generated_Source\PSoC6\pdl\middleware\em_eeprom/cy_em_eeprom.c ****             /* Exit the loop as we reached the end of EEPROM */
 794:Generated_Source\PSoC6\pdl\middleware\em_eeprom/cy_em_eeprom.c ****             break;
 795:Generated_Source\PSoC6\pdl\middleware\em_eeprom/cy_em_eeprom.c ****         }
 796:Generated_Source\PSoC6\pdl\middleware\em_eeprom/cy_em_eeprom.c ****     }
 797:Generated_Source\PSoC6\pdl\middleware\em_eeprom/cy_em_eeprom.c **** 
 798:Generated_Source\PSoC6\pdl\middleware\em_eeprom/cy_em_eeprom.c ****     return (emEepromAddr);
 799:Generated_Source\PSoC6\pdl\middleware\em_eeprom/cy_em_eeprom.c **** }
 131              		.loc 1 799 0
 132 0018 1846     		mov	r0, r3
 133              	.LVL15:
 134 001a 7047     		bx	lr
 135              		.cfi_endproc
 136              	.LFE138:
 137              		.size	GetRowAddrBySeqNum, .-GetRowAddrBySeqNum
 138              		.section	.text.GetNextRowToWrite,"ax",%progbits
 139              		.align	2
 140              		.thumb
 141              		.thumb_func
 142              		.type	GetNextRowToWrite, %function
 143              	GetNextRowToWrite:
 144              	.LFB139:
 800:Generated_Source\PSoC6\pdl\middleware\em_eeprom/cy_em_eeprom.c **** 
 801:Generated_Source\PSoC6\pdl\middleware\em_eeprom/cy_em_eeprom.c **** 
 802:Generated_Source\PSoC6\pdl\middleware\em_eeprom/cy_em_eeprom.c **** /*******************************************************************************
 803:Generated_Source\PSoC6\pdl\middleware\em_eeprom/cy_em_eeprom.c **** * Function Name: GetNextRowToWrite
 804:Generated_Source\PSoC6\pdl\middleware\em_eeprom/cy_em_eeprom.c **** ****************************************************************************//**
 805:Generated_Source\PSoC6\pdl\middleware\em_eeprom/cy_em_eeprom.c **** *
 806:Generated_Source\PSoC6\pdl\middleware\em_eeprom/cy_em_eeprom.c **** * Performs a range check of the row that should be written and updates the
 807:Generated_Source\PSoC6\pdl\middleware\em_eeprom/cy_em_eeprom.c **** * address to the row respectively. The similar actions are done for the read
 808:Generated_Source\PSoC6\pdl\middleware\em_eeprom/cy_em_eeprom.c **** * address.
 809:Generated_Source\PSoC6\pdl\middleware\em_eeprom/cy_em_eeprom.c **** *
 810:Generated_Source\PSoC6\pdl\middleware\em_eeprom/cy_em_eeprom.c **** * \param seqNum
 811:Generated_Source\PSoC6\pdl\middleware\em_eeprom/cy_em_eeprom.c **** * The sequence number of the last written row.
 812:Generated_Source\PSoC6\pdl\middleware\em_eeprom/cy_em_eeprom.c **** *
 813:Generated_Source\PSoC6\pdl\middleware\em_eeprom/cy_em_eeprom.c **** * \param rowToWrPtr
 814:Generated_Source\PSoC6\pdl\middleware\em_eeprom/cy_em_eeprom.c **** * The address of the last written row (input). The address of the row to be 
 815:Generated_Source\PSoC6\pdl\middleware\em_eeprom/cy_em_eeprom.c **** * written (output).
 816:Generated_Source\PSoC6\pdl\middleware\em_eeprom/cy_em_eeprom.c **** *
 817:Generated_Source\PSoC6\pdl\middleware\em_eeprom/cy_em_eeprom.c **** * \param rowToRdPtr
 818:Generated_Source\PSoC6\pdl\middleware\em_eeprom/cy_em_eeprom.c **** * The address of the row from which the data should be read into the RAM buffer
 819:Generated_Source\PSoC6\pdl\middleware\em_eeprom/cy_em_eeprom.c **** * in a later write operation. Out parameter.
ARM GAS  C:\Users\eduar\AppData\Local\Temp\ccwtx1iP.s 			page 18


 820:Generated_Source\PSoC6\pdl\middleware\em_eeprom/cy_em_eeprom.c **** *
 821:Generated_Source\PSoC6\pdl\middleware\em_eeprom/cy_em_eeprom.c **** * \param context
 822:Generated_Source\PSoC6\pdl\middleware\em_eeprom/cy_em_eeprom.c **** * The pointer to the EEPROM context structure \ref cy_stc_eeprom_context_t.
 823:Generated_Source\PSoC6\pdl\middleware\em_eeprom/cy_em_eeprom.c **** *
 824:Generated_Source\PSoC6\pdl\middleware\em_eeprom/cy_em_eeprom.c **** *******************************************************************************/
 825:Generated_Source\PSoC6\pdl\middleware\em_eeprom/cy_em_eeprom.c **** static void GetNextRowToWrite(uint32_t seqNum,
 826:Generated_Source\PSoC6\pdl\middleware\em_eeprom/cy_em_eeprom.c ****                             uint32_t * rowToWrPtr,
 827:Generated_Source\PSoC6\pdl\middleware\em_eeprom/cy_em_eeprom.c ****                             uint32_t * rowToRdPtr,
 828:Generated_Source\PSoC6\pdl\middleware\em_eeprom/cy_em_eeprom.c ****                             cy_stc_eeprom_context_t * context)
 829:Generated_Source\PSoC6\pdl\middleware\em_eeprom/cy_em_eeprom.c **** {
 145              		.loc 1 829 0
 146              		.cfi_startproc
 147              		@ args = 0, pretend = 0, frame = 0
 148              		@ frame_needed = 0, uses_anonymous_args = 0
 149              		@ link register save eliminated.
 150              	.LVL16:
 151 0000 30B4     		push	{r4, r5}
 152              		.cfi_def_cfa_offset 8
 153              		.cfi_offset 4, -8
 154              		.cfi_offset 5, -4
 830:Generated_Source\PSoC6\pdl\middleware\em_eeprom/cy_em_eeprom.c ****     /* Switch to the next row to be written if the current sequence number is
 831:Generated_Source\PSoC6\pdl\middleware\em_eeprom/cy_em_eeprom.c ****     * not zero.
 832:Generated_Source\PSoC6\pdl\middleware\em_eeprom/cy_em_eeprom.c ****     */
 833:Generated_Source\PSoC6\pdl\middleware\em_eeprom/cy_em_eeprom.c ****     if(0u != seqNum)
 155              		.loc 1 833 0
 156 0002 0446     		mov	r4, r0
 157 0004 18B1     		cbz	r0, .L12
 834:Generated_Source\PSoC6\pdl\middleware\em_eeprom/cy_em_eeprom.c ****     {
 835:Generated_Source\PSoC6\pdl\middleware\em_eeprom/cy_em_eeprom.c ****         *rowToWrPtr = (*rowToWrPtr + CY_EM_EEPROM_FLASH_SIZEOF_ROW);
 158              		.loc 1 835 0
 159 0006 0868     		ldr	r0, [r1]
 160              	.LVL17:
 161 0008 00F50070 		add	r0, r0, #512
 162 000c 0860     		str	r0, [r1]
 163              	.L12:
 836:Generated_Source\PSoC6\pdl\middleware\em_eeprom/cy_em_eeprom.c ****     }
 837:Generated_Source\PSoC6\pdl\middleware\em_eeprom/cy_em_eeprom.c **** 
 838:Generated_Source\PSoC6\pdl\middleware\em_eeprom/cy_em_eeprom.c ****     /* If the resulting row address is out of EEPROM, then switch to the base
 839:Generated_Source\PSoC6\pdl\middleware\em_eeprom/cy_em_eeprom.c ****     * EEPROM address (Row#0).
 840:Generated_Source\PSoC6\pdl\middleware\em_eeprom/cy_em_eeprom.c ****     */
 841:Generated_Source\PSoC6\pdl\middleware\em_eeprom/cy_em_eeprom.c ****     if(CY_EM_EEPROM_ADDR_IN_RANGE !=
 842:Generated_Source\PSoC6\pdl\middleware\em_eeprom/cy_em_eeprom.c ****             CY_EM_EEPROM_IS_ADDR_EXCEED_RANGE(*rowToWrPtr, context->wlEndAddr))
 164              		.loc 1 842 0
 165 000e 0D68     		ldr	r5, [r1]
 166 0010 1868     		ldr	r0, [r3]
 841:Generated_Source\PSoC6\pdl\middleware\em_eeprom/cy_em_eeprom.c ****             CY_EM_EEPROM_IS_ADDR_EXCEED_RANGE(*rowToWrPtr, context->wlEndAddr))
 167              		.loc 1 841 0
 168 0012 8542     		cmp	r5, r0
 169 0014 01D3     		bcc	.L13
 843:Generated_Source\PSoC6\pdl\middleware\em_eeprom/cy_em_eeprom.c ****     {
 844:Generated_Source\PSoC6\pdl\middleware\em_eeprom/cy_em_eeprom.c ****         *rowToWrPtr = context->userFlashStartAddr;
 170              		.loc 1 844 0
 171 0016 9869     		ldr	r0, [r3, #24]
 172 0018 0860     		str	r0, [r1]
 173              	.L13:
 845:Generated_Source\PSoC6\pdl\middleware\em_eeprom/cy_em_eeprom.c ****     }
 846:Generated_Source\PSoC6\pdl\middleware\em_eeprom/cy_em_eeprom.c **** 
ARM GAS  C:\Users\eduar\AppData\Local\Temp\ccwtx1iP.s 			page 19


 847:Generated_Source\PSoC6\pdl\middleware\em_eeprom/cy_em_eeprom.c ****     *rowToRdPtr = 0u;
 174              		.loc 1 847 0
 175 001a 0020     		movs	r0, #0
 176 001c 1060     		str	r0, [r2]
 848:Generated_Source\PSoC6\pdl\middleware\em_eeprom/cy_em_eeprom.c **** 
 849:Generated_Source\PSoC6\pdl\middleware\em_eeprom/cy_em_eeprom.c ****     /* Check if the sequence number is larger than the number of rows in the EEPROM.
 850:Generated_Source\PSoC6\pdl\middleware\em_eeprom/cy_em_eeprom.c ****     * If not, do not update the row read address because there is no historic
 851:Generated_Source\PSoC6\pdl\middleware\em_eeprom/cy_em_eeprom.c ****     * data to be read.
 852:Generated_Source\PSoC6\pdl\middleware\em_eeprom/cy_em_eeprom.c ****     */
 853:Generated_Source\PSoC6\pdl\middleware\em_eeprom/cy_em_eeprom.c ****     if(context->numberOfRows <= seqNum)
 177              		.loc 1 853 0
 178 001e 5868     		ldr	r0, [r3, #4]
 179 0020 8442     		cmp	r4, r0
 180 0022 16D3     		bcc	.L11
 854:Generated_Source\PSoC6\pdl\middleware\em_eeprom/cy_em_eeprom.c ****     {
 855:Generated_Source\PSoC6\pdl\middleware\em_eeprom/cy_em_eeprom.c ****         /* Check if wear leveling is used in EEPROM */
 856:Generated_Source\PSoC6\pdl\middleware\em_eeprom/cy_em_eeprom.c ****         if(context->wearLevelingFactor > 1u)
 181              		.loc 1 856 0
 182 0024 1C69     		ldr	r4, [r3, #16]
 183              	.LVL18:
 184 0026 012C     		cmp	r4, #1
 185 0028 11D9     		bls	.L15
 857:Generated_Source\PSoC6\pdl\middleware\em_eeprom/cy_em_eeprom.c ****         {
 858:Generated_Source\PSoC6\pdl\middleware\em_eeprom/cy_em_eeprom.c ****             /* The read row address should be taken from an EEPROM copy that became
 859:Generated_Source\PSoC6\pdl\middleware\em_eeprom/cy_em_eeprom.c ****             * inactive recently. This condition check handles that.
 860:Generated_Source\PSoC6\pdl\middleware\em_eeprom/cy_em_eeprom.c ****             */
 861:Generated_Source\PSoC6\pdl\middleware\em_eeprom/cy_em_eeprom.c ****             if((*rowToWrPtr - (context->numberOfRows * CY_EM_EEPROM_FLASH_SIZEOF_ROW)) <
 186              		.loc 1 861 0
 187 002a 0968     		ldr	r1, [r1]
 188              	.LVL19:
 189 002c A1EB4025 		sub	r5, r1, r0, lsl #9
 862:Generated_Source\PSoC6\pdl\middleware\em_eeprom/cy_em_eeprom.c ****                 context->userFlashStartAddr)
 190              		.loc 1 862 0
 191 0030 9B69     		ldr	r3, [r3, #24]
 192              	.LVL20:
 861:Generated_Source\PSoC6\pdl\middleware\em_eeprom/cy_em_eeprom.c ****                 context->userFlashStartAddr)
 193              		.loc 1 861 0
 194 0032 9D42     		cmp	r5, r3
 195 0034 09D2     		bcs	.L16
 863:Generated_Source\PSoC6\pdl\middleware\em_eeprom/cy_em_eeprom.c ****             {
 864:Generated_Source\PSoC6\pdl\middleware\em_eeprom/cy_em_eeprom.c ****                 *rowToRdPtr = context->userFlashStartAddr +
 865:Generated_Source\PSoC6\pdl\middleware\em_eeprom/cy_em_eeprom.c ****                     (context->numberOfRows * (context->wearLevelingFactor - 1u) *
 196              		.loc 1 865 0
 197 0036 084D     		ldr	r5, .L18
 198 0038 2544     		add	r5, r5, r4
 199 003a 00FB05F0 		mul	r0, r0, r5
 864:Generated_Source\PSoC6\pdl\middleware\em_eeprom/cy_em_eeprom.c ****                     (context->numberOfRows * (context->wearLevelingFactor - 1u) *
 200              		.loc 1 864 0
 201 003e 03EB4020 		add	r0, r3, r0, lsl #9
 866:Generated_Source\PSoC6\pdl\middleware\em_eeprom/cy_em_eeprom.c ****                         CY_EM_EEPROM_FLASH_SIZEOF_ROW) + (*rowToWrPtr - context->userFlashStartAddr
 202              		.loc 1 866 0
 203 0042 C91A     		subs	r1, r1, r3
 204 0044 0844     		add	r0, r0, r1
 864:Generated_Source\PSoC6\pdl\middleware\em_eeprom/cy_em_eeprom.c ****                     (context->numberOfRows * (context->wearLevelingFactor - 1u) *
 205              		.loc 1 864 0
 206 0046 1060     		str	r0, [r2]
 207 0048 03E0     		b	.L11
ARM GAS  C:\Users\eduar\AppData\Local\Temp\ccwtx1iP.s 			page 20


 208              	.L16:
 867:Generated_Source\PSoC6\pdl\middleware\em_eeprom/cy_em_eeprom.c ****             }
 868:Generated_Source\PSoC6\pdl\middleware\em_eeprom/cy_em_eeprom.c ****             else
 869:Generated_Source\PSoC6\pdl\middleware\em_eeprom/cy_em_eeprom.c ****             {
 870:Generated_Source\PSoC6\pdl\middleware\em_eeprom/cy_em_eeprom.c ****                 *rowToRdPtr = *rowToWrPtr - (context->numberOfRows * CY_EM_EEPROM_FLASH_SIZEOF_ROW)
 209              		.loc 1 870 0
 210 004a 1560     		str	r5, [r2]
 211 004c 01E0     		b	.L11
 212              	.LVL21:
 213              	.L15:
 871:Generated_Source\PSoC6\pdl\middleware\em_eeprom/cy_em_eeprom.c ****             }
 872:Generated_Source\PSoC6\pdl\middleware\em_eeprom/cy_em_eeprom.c ****         }
 873:Generated_Source\PSoC6\pdl\middleware\em_eeprom/cy_em_eeprom.c ****         else
 874:Generated_Source\PSoC6\pdl\middleware\em_eeprom/cy_em_eeprom.c ****         {
 875:Generated_Source\PSoC6\pdl\middleware\em_eeprom/cy_em_eeprom.c ****             /* If no wear leveling, always read from the same flash row that
 876:Generated_Source\PSoC6\pdl\middleware\em_eeprom/cy_em_eeprom.c ****             * should be written.
 877:Generated_Source\PSoC6\pdl\middleware\em_eeprom/cy_em_eeprom.c ****             */
 878:Generated_Source\PSoC6\pdl\middleware\em_eeprom/cy_em_eeprom.c ****             *rowToRdPtr = *rowToWrPtr;
 214              		.loc 1 878 0
 215 004e 0B68     		ldr	r3, [r1]
 216              	.LVL22:
 217 0050 1360     		str	r3, [r2]
 218              	.LVL23:
 219              	.L11:
 879:Generated_Source\PSoC6\pdl\middleware\em_eeprom/cy_em_eeprom.c ****         }
 880:Generated_Source\PSoC6\pdl\middleware\em_eeprom/cy_em_eeprom.c ****     }
 881:Generated_Source\PSoC6\pdl\middleware\em_eeprom/cy_em_eeprom.c **** }
 220              		.loc 1 881 0
 221 0052 30BC     		pop	{r4, r5}
 222              		.cfi_restore 5
 223              		.cfi_restore 4
 224              		.cfi_def_cfa_offset 0
 225 0054 7047     		bx	lr
 226              	.L19:
 227 0056 00BF     		.align	2
 228              	.L18:
 229 0058 FFFF7F00 		.word	8388607
 230              		.cfi_endproc
 231              	.LFE139:
 232              		.size	GetNextRowToWrite, .-GetNextRowToWrite
 233              		.section	.text.CalcChecksum,"ax",%progbits
 234              		.align	2
 235              		.thumb
 236              		.thumb_func
 237              		.type	CalcChecksum, %function
 238              	CalcChecksum:
 239              	.LFB140:
 882:Generated_Source\PSoC6\pdl\middleware\em_eeprom/cy_em_eeprom.c **** 
 883:Generated_Source\PSoC6\pdl\middleware\em_eeprom/cy_em_eeprom.c **** 
 884:Generated_Source\PSoC6\pdl\middleware\em_eeprom/cy_em_eeprom.c **** /*******************************************************************************
 885:Generated_Source\PSoC6\pdl\middleware\em_eeprom/cy_em_eeprom.c **** * Function Name: CalcChecksum
 886:Generated_Source\PSoC6\pdl\middleware\em_eeprom/cy_em_eeprom.c **** ****************************************************************************//**
 887:Generated_Source\PSoC6\pdl\middleware\em_eeprom/cy_em_eeprom.c **** *
 888:Generated_Source\PSoC6\pdl\middleware\em_eeprom/cy_em_eeprom.c **** * Implements CRC-8 that is used in checksum calculation for the redundant copy
 889:Generated_Source\PSoC6\pdl\middleware\em_eeprom/cy_em_eeprom.c **** * algorithm.
 890:Generated_Source\PSoC6\pdl\middleware\em_eeprom/cy_em_eeprom.c **** *
 891:Generated_Source\PSoC6\pdl\middleware\em_eeprom/cy_em_eeprom.c **** * \param rowData
ARM GAS  C:\Users\eduar\AppData\Local\Temp\ccwtx1iP.s 			page 21


 892:Generated_Source\PSoC6\pdl\middleware\em_eeprom/cy_em_eeprom.c **** * The row data to be used to calculate the checksum.
 893:Generated_Source\PSoC6\pdl\middleware\em_eeprom/cy_em_eeprom.c **** *
 894:Generated_Source\PSoC6\pdl\middleware\em_eeprom/cy_em_eeprom.c **** * \param len
 895:Generated_Source\PSoC6\pdl\middleware\em_eeprom/cy_em_eeprom.c **** * The length of rowData.
 896:Generated_Source\PSoC6\pdl\middleware\em_eeprom/cy_em_eeprom.c **** *
 897:Generated_Source\PSoC6\pdl\middleware\em_eeprom/cy_em_eeprom.c **** * \return
 898:Generated_Source\PSoC6\pdl\middleware\em_eeprom/cy_em_eeprom.c **** * The calculated value of CRC-8.
 899:Generated_Source\PSoC6\pdl\middleware\em_eeprom/cy_em_eeprom.c **** *
 900:Generated_Source\PSoC6\pdl\middleware\em_eeprom/cy_em_eeprom.c **** *******************************************************************************/
 901:Generated_Source\PSoC6\pdl\middleware\em_eeprom/cy_em_eeprom.c **** static uint8_t CalcChecksum(uint8_t rowData[], uint32_t len)
 902:Generated_Source\PSoC6\pdl\middleware\em_eeprom/cy_em_eeprom.c **** {
 240              		.loc 1 902 0
 241              		.cfi_startproc
 242              		@ args = 0, pretend = 0, frame = 0
 243              		@ frame_needed = 0, uses_anonymous_args = 0
 244              		@ link register save eliminated.
 245              	.LVL24:
 246 0000 10B4     		push	{r4}
 247              		.cfi_def_cfa_offset 4
 248              		.cfi_offset 4, -4
 249 0002 0446     		mov	r4, r0
 250              	.LVL25:
 903:Generated_Source\PSoC6\pdl\middleware\em_eeprom/cy_em_eeprom.c ****     uint8_t crc = CY_EM_EEPROM_CRC8_SEED;
 904:Generated_Source\PSoC6\pdl\middleware\em_eeprom/cy_em_eeprom.c ****     uint8_t i;
 905:Generated_Source\PSoC6\pdl\middleware\em_eeprom/cy_em_eeprom.c ****     uint16_t cnt = 0u;
 251              		.loc 1 905 0
 252 0004 0022     		movs	r2, #0
 903:Generated_Source\PSoC6\pdl\middleware\em_eeprom/cy_em_eeprom.c ****     uint8_t crc = CY_EM_EEPROM_CRC8_SEED;
 253              		.loc 1 903 0
 254 0006 FF20     		movs	r0, #255
 255              	.LVL26:
 906:Generated_Source\PSoC6\pdl\middleware\em_eeprom/cy_em_eeprom.c **** 
 907:Generated_Source\PSoC6\pdl\middleware\em_eeprom/cy_em_eeprom.c ****     while(cnt != len)
 256              		.loc 1 907 0
 257 0008 13E0     		b	.L21
 258              	.LVL27:
 259              	.L26:
 908:Generated_Source\PSoC6\pdl\middleware\em_eeprom/cy_em_eeprom.c ****     {
 909:Generated_Source\PSoC6\pdl\middleware\em_eeprom/cy_em_eeprom.c ****         crc ^= rowData[cnt];
 260              		.loc 1 909 0
 261 000a A35C     		ldrb	r3, [r4, r2]	@ zero_extendqisi2
 262 000c 5840     		eors	r0, r0, r3
 263              	.LVL28:
 910:Generated_Source\PSoC6\pdl\middleware\em_eeprom/cy_em_eeprom.c ****         for (i = 0u; i < CY_EM_EEPROM_CRC8_POLYNOM_LEN; i++)
 264              		.loc 1 910 0
 265 000e 0023     		movs	r3, #0
 266 0010 0BE0     		b	.L22
 267              	.LVL29:
 268              	.L25:
 911:Generated_Source\PSoC6\pdl\middleware\em_eeprom/cy_em_eeprom.c ****         {
 912:Generated_Source\PSoC6\pdl\middleware\em_eeprom/cy_em_eeprom.c ****             crc = CY_EM_EEPROM_CALCULATE_CRC8(crc);
 269              		.loc 1 912 0
 270 0012 10F0800F 		tst	r0, #128
 271 0016 04D0     		beq	.L23
 272              		.loc 1 912 0 is_stmt 0 discriminator 1
 273 0018 4000     		lsls	r0, r0, #1
 274              	.LVL30:
ARM GAS  C:\Users\eduar\AppData\Local\Temp\ccwtx1iP.s 			page 22


 275 001a C0B2     		uxtb	r0, r0
 276 001c 80F03100 		eor	r0, r0, #49
 277 0020 01E0     		b	.L24
 278              	.LVL31:
 279              	.L23:
 280              		.loc 1 912 0 discriminator 2
 281 0022 4000     		lsls	r0, r0, #1
 282              	.LVL32:
 283 0024 C0B2     		uxtb	r0, r0
 284              	.L24:
 285              	.LVL33:
 910:Generated_Source\PSoC6\pdl\middleware\em_eeprom/cy_em_eeprom.c ****         for (i = 0u; i < CY_EM_EEPROM_CRC8_POLYNOM_LEN; i++)
 286              		.loc 1 910 0 is_stmt 1 discriminator 4
 287 0026 0133     		adds	r3, r3, #1
 288              	.LVL34:
 289 0028 DBB2     		uxtb	r3, r3
 290              	.LVL35:
 291              	.L22:
 910:Generated_Source\PSoC6\pdl\middleware\em_eeprom/cy_em_eeprom.c ****         for (i = 0u; i < CY_EM_EEPROM_CRC8_POLYNOM_LEN; i++)
 292              		.loc 1 910 0 is_stmt 0 discriminator 2
 293 002a 072B     		cmp	r3, #7
 294 002c F1D9     		bls	.L25
 913:Generated_Source\PSoC6\pdl\middleware\em_eeprom/cy_em_eeprom.c ****         }
 914:Generated_Source\PSoC6\pdl\middleware\em_eeprom/cy_em_eeprom.c ****         cnt++;
 295              		.loc 1 914 0 is_stmt 1
 296 002e 0132     		adds	r2, r2, #1
 297              	.LVL36:
 298 0030 92B2     		uxth	r2, r2
 299              	.LVL37:
 300              	.L21:
 907:Generated_Source\PSoC6\pdl\middleware\em_eeprom/cy_em_eeprom.c ****     {
 301              		.loc 1 907 0
 302 0032 8A42     		cmp	r2, r1
 303 0034 E9D1     		bne	.L26
 915:Generated_Source\PSoC6\pdl\middleware\em_eeprom/cy_em_eeprom.c ****     }
 916:Generated_Source\PSoC6\pdl\middleware\em_eeprom/cy_em_eeprom.c **** 
 917:Generated_Source\PSoC6\pdl\middleware\em_eeprom/cy_em_eeprom.c ****     return (crc);
 918:Generated_Source\PSoC6\pdl\middleware\em_eeprom/cy_em_eeprom.c **** }
 304              		.loc 1 918 0
 305 0036 5DF8044B 		ldr	r4, [sp], #4
 306              		.cfi_restore 4
 307              		.cfi_def_cfa_offset 0
 308              	.LVL38:
 309 003a 7047     		bx	lr
 310              		.cfi_endproc
 311              	.LFE140:
 312              		.size	CalcChecksum, .-CalcChecksum
 313              		.section	.text.CheckRanges,"ax",%progbits
 314              		.align	2
 315              		.thumb
 316              		.thumb_func
 317              		.type	CheckRanges, %function
 318              	CheckRanges:
 319              	.LFB141:
 919:Generated_Source\PSoC6\pdl\middleware\em_eeprom/cy_em_eeprom.c **** 
 920:Generated_Source\PSoC6\pdl\middleware\em_eeprom/cy_em_eeprom.c **** 
 921:Generated_Source\PSoC6\pdl\middleware\em_eeprom/cy_em_eeprom.c **** /*******************************************************************************
ARM GAS  C:\Users\eduar\AppData\Local\Temp\ccwtx1iP.s 			page 23


 922:Generated_Source\PSoC6\pdl\middleware\em_eeprom/cy_em_eeprom.c **** * Function Name: CheckRanges
 923:Generated_Source\PSoC6\pdl\middleware\em_eeprom/cy_em_eeprom.c **** ****************************************************************************//**
 924:Generated_Source\PSoC6\pdl\middleware\em_eeprom/cy_em_eeprom.c **** *
 925:Generated_Source\PSoC6\pdl\middleware\em_eeprom/cy_em_eeprom.c **** * Checks if the EEPROM of the requested size can be placed in flash.
 926:Generated_Source\PSoC6\pdl\middleware\em_eeprom/cy_em_eeprom.c **** *
 927:Generated_Source\PSoC6\pdl\middleware\em_eeprom/cy_em_eeprom.c **** * \param config
 928:Generated_Source\PSoC6\pdl\middleware\em_eeprom/cy_em_eeprom.c **** * The pointer to a configuration structure. See \ref cy_stc_eeprom_config_t.
 929:Generated_Source\PSoC6\pdl\middleware\em_eeprom/cy_em_eeprom.c **** *
 930:Generated_Source\PSoC6\pdl\middleware\em_eeprom/cy_em_eeprom.c **** * \return
 931:Generated_Source\PSoC6\pdl\middleware\em_eeprom/cy_em_eeprom.c **** * error / status code. See \ref cy_en_em_eeprom_status_t.
 932:Generated_Source\PSoC6\pdl\middleware\em_eeprom/cy_em_eeprom.c **** *
 933:Generated_Source\PSoC6\pdl\middleware\em_eeprom/cy_em_eeprom.c **** *******************************************************************************/
 934:Generated_Source\PSoC6\pdl\middleware\em_eeprom/cy_em_eeprom.c **** static cy_en_em_eeprom_status_t CheckRanges(cy_stc_eeprom_config_t* config)
 935:Generated_Source\PSoC6\pdl\middleware\em_eeprom/cy_em_eeprom.c **** {
 320              		.loc 1 935 0
 321              		.cfi_startproc
 322              		@ args = 0, pretend = 0, frame = 0
 323              		@ frame_needed = 0, uses_anonymous_args = 0
 324              		@ link register save eliminated.
 325              	.LVL39:
 936:Generated_Source\PSoC6\pdl\middleware\em_eeprom/cy_em_eeprom.c ****     cy_en_em_eeprom_status_t ret = CY_EM_EEPROM_BAD_DATA;
 937:Generated_Source\PSoC6\pdl\middleware\em_eeprom/cy_em_eeprom.c ****     uint32_t startAddr = config->userFlashStartAddr;
 326              		.loc 1 937 0
 327 0000 C168     		ldr	r1, [r0, #12]
 328              	.LVL40:
 938:Generated_Source\PSoC6\pdl\middleware\em_eeprom/cy_em_eeprom.c ****     uint32_t endAddr = startAddr + CY_EM_EEPROM_GET_PHYSICAL_SIZE(config->eepromSize,
 329              		.loc 1 938 0
 330 0002 0268     		ldr	r2, [r0]
 331 0004 130A     		lsrs	r3, r2, #8
 332 0006 12F0FF02 		ands	r2, r2, #255
 333 000a 00D0     		beq	.L29
 334 000c 0122     		movs	r2, #1
 335              	.L29:
 336              		.loc 1 938 0 is_stmt 0 discriminator 4
 337 000e 1A44     		add	r2, r2, r3
 338 0010 4368     		ldr	r3, [r0, #4]
 339 0012 03FB02F3 		mul	r3, r3, r2
 340 0016 027A     		ldrb	r2, [r0, #8]	@ zero_extendqisi2
 341 0018 02FB0333 		mla	r3, r2, r3, r3
 342 001c 01EB4323 		add	r3, r1, r3, lsl #9
 343              	.LVL41:
 939:Generated_Source\PSoC6\pdl\middleware\em_eeprom/cy_em_eeprom.c ****             config->wearLevelingFactor, config->redundantCopy);
 940:Generated_Source\PSoC6\pdl\middleware\em_eeprom/cy_em_eeprom.c **** 
 941:Generated_Source\PSoC6\pdl\middleware\em_eeprom/cy_em_eeprom.c ****     /* Range check if there is enough flash for EEPROM */
 942:Generated_Source\PSoC6\pdl\middleware\em_eeprom/cy_em_eeprom.c ****     if (CY_EM_EEPROM_IS_IN_FLASH_RANGE(startAddr, endAddr))
 344              		.loc 1 942 0 is_stmt 1 discriminator 4
 345 0020 B1F1805F 		cmp	r1, #268435456
 346 0024 02D9     		bls	.L30
 347              		.loc 1 942 0 is_stmt 0 discriminator 1
 348 0026 084A     		ldr	r2, .L35
 349 0028 9342     		cmp	r3, r2
 350 002a 07D9     		bls	.L32
 351              	.L30:
 352              		.loc 1 942 0 discriminator 3
 353 002c B1F1A05F 		cmp	r1, #335544320
 354 0030 06D3     		bcc	.L33
 355              		.loc 1 942 0 discriminator 4
ARM GAS  C:\Users\eduar\AppData\Local\Temp\ccwtx1iP.s 			page 24


 356 0032 064A     		ldr	r2, .L35+4
 357 0034 9342     		cmp	r3, r2
 358 0036 05D9     		bls	.L34
 936:Generated_Source\PSoC6\pdl\middleware\em_eeprom/cy_em_eeprom.c ****     uint32_t startAddr = config->userFlashStartAddr;
 359              		.loc 1 936 0 is_stmt 1
 360 0038 0548     		ldr	r0, .L35+8
 361              	.LVL42:
 362 003a 7047     		bx	lr
 363              	.LVL43:
 364              	.L32:
 943:Generated_Source\PSoC6\pdl\middleware\em_eeprom/cy_em_eeprom.c ****     {
 944:Generated_Source\PSoC6\pdl\middleware\em_eeprom/cy_em_eeprom.c ****         ret = CY_EM_EEPROM_SUCCESS;
 365              		.loc 1 944 0
 366 003c 0020     		movs	r0, #0
 367              	.LVL44:
 368 003e 7047     		bx	lr
 369              	.LVL45:
 370              	.L33:
 936:Generated_Source\PSoC6\pdl\middleware\em_eeprom/cy_em_eeprom.c ****     uint32_t startAddr = config->userFlashStartAddr;
 371              		.loc 1 936 0
 372 0040 0348     		ldr	r0, .L35+8
 373              	.LVL46:
 374 0042 7047     		bx	lr
 375              	.LVL47:
 376              	.L34:
 377              		.loc 1 944 0
 378 0044 0020     		movs	r0, #0
 379              	.LVL48:
 945:Generated_Source\PSoC6\pdl\middleware\em_eeprom/cy_em_eeprom.c ****     }
 946:Generated_Source\PSoC6\pdl\middleware\em_eeprom/cy_em_eeprom.c ****     return (ret);
 947:Generated_Source\PSoC6\pdl\middleware\em_eeprom/cy_em_eeprom.c **** }
 380              		.loc 1 947 0
 381 0046 7047     		bx	lr
 382              	.L36:
 383              		.align	2
 384              	.L35:
 385 0048 00001010 		.word	269484032
 386 004c 00800014 		.word	335577088
 387 0050 03006E00 		.word	7208963
 388              		.cfi_endproc
 389              	.LFE141:
 390              		.size	CheckRanges, .-CheckRanges
 391              		.section	.text.GetAddresses,"ax",%progbits
 392              		.align	2
 393              		.thumb
 394              		.thumb_func
 395              		.type	GetAddresses, %function
 396              	GetAddresses:
 397              	.LFB145:
 948:Generated_Source\PSoC6\pdl\middleware\em_eeprom/cy_em_eeprom.c **** 
 949:Generated_Source\PSoC6\pdl\middleware\em_eeprom/cy_em_eeprom.c **** 
 950:Generated_Source\PSoC6\pdl\middleware\em_eeprom/cy_em_eeprom.c **** /*******************************************************************************
 951:Generated_Source\PSoC6\pdl\middleware\em_eeprom/cy_em_eeprom.c **** * Function Name: WriteRow
 952:Generated_Source\PSoC6\pdl\middleware\em_eeprom/cy_em_eeprom.c **** ****************************************************************************//**
 953:Generated_Source\PSoC6\pdl\middleware\em_eeprom/cy_em_eeprom.c **** *
 954:Generated_Source\PSoC6\pdl\middleware\em_eeprom/cy_em_eeprom.c **** * Writes one flash row starting from the specified row address.
 955:Generated_Source\PSoC6\pdl\middleware\em_eeprom/cy_em_eeprom.c **** *
ARM GAS  C:\Users\eduar\AppData\Local\Temp\ccwtx1iP.s 			page 25


 956:Generated_Source\PSoC6\pdl\middleware\em_eeprom/cy_em_eeprom.c **** * \param rowAdd
 957:Generated_Source\PSoC6\pdl\middleware\em_eeprom/cy_em_eeprom.c **** * The address of the flash row.
 958:Generated_Source\PSoC6\pdl\middleware\em_eeprom/cy_em_eeprom.c **** *
 959:Generated_Source\PSoC6\pdl\middleware\em_eeprom/cy_em_eeprom.c **** * \param rowData
 960:Generated_Source\PSoC6\pdl\middleware\em_eeprom/cy_em_eeprom.c **** * The pointer to the data to be written to the row.
 961:Generated_Source\PSoC6\pdl\middleware\em_eeprom/cy_em_eeprom.c **** *
 962:Generated_Source\PSoC6\pdl\middleware\em_eeprom/cy_em_eeprom.c **** * \param context
 963:Generated_Source\PSoC6\pdl\middleware\em_eeprom/cy_em_eeprom.c **** * The pointer to the EEPROM context structure \ref cy_stc_eeprom_context_t.
 964:Generated_Source\PSoC6\pdl\middleware\em_eeprom/cy_em_eeprom.c **** *
 965:Generated_Source\PSoC6\pdl\middleware\em_eeprom/cy_em_eeprom.c **** * \return
 966:Generated_Source\PSoC6\pdl\middleware\em_eeprom/cy_em_eeprom.c **** * error / status code. See \ref cy_en_em_eeprom_status_t.
 967:Generated_Source\PSoC6\pdl\middleware\em_eeprom/cy_em_eeprom.c **** *
 968:Generated_Source\PSoC6\pdl\middleware\em_eeprom/cy_em_eeprom.c **** *******************************************************************************/
 969:Generated_Source\PSoC6\pdl\middleware\em_eeprom/cy_em_eeprom.c **** static cy_en_em_eeprom_status_t WriteRow(uint32_t rowAddr,
 970:Generated_Source\PSoC6\pdl\middleware\em_eeprom/cy_em_eeprom.c ****                                         uint32_t *rowData,
 971:Generated_Source\PSoC6\pdl\middleware\em_eeprom/cy_em_eeprom.c ****                                         cy_stc_eeprom_context_t * context)
 972:Generated_Source\PSoC6\pdl\middleware\em_eeprom/cy_em_eeprom.c **** {
 973:Generated_Source\PSoC6\pdl\middleware\em_eeprom/cy_em_eeprom.c ****     cy_en_em_eeprom_status_t ret = CY_EM_EEPROM_WRITE_FAIL;
 974:Generated_Source\PSoC6\pdl\middleware\em_eeprom/cy_em_eeprom.c ****     if(0u != context->blockingWrite)
 975:Generated_Source\PSoC6\pdl\middleware\em_eeprom/cy_em_eeprom.c ****     {
 976:Generated_Source\PSoC6\pdl\middleware\em_eeprom/cy_em_eeprom.c ****         /* Do blocking write */
 977:Generated_Source\PSoC6\pdl\middleware\em_eeprom/cy_em_eeprom.c ****         if(CY_FLASH_DRV_SUCCESS == Cy_Flash_WriteRow(rowAddr, (const uint32_t *)rowData))
 978:Generated_Source\PSoC6\pdl\middleware\em_eeprom/cy_em_eeprom.c ****         {
 979:Generated_Source\PSoC6\pdl\middleware\em_eeprom/cy_em_eeprom.c ****             ret = CY_EM_EEPROM_SUCCESS;
 980:Generated_Source\PSoC6\pdl\middleware\em_eeprom/cy_em_eeprom.c ****         }
 981:Generated_Source\PSoC6\pdl\middleware\em_eeprom/cy_em_eeprom.c ****     }
 982:Generated_Source\PSoC6\pdl\middleware\em_eeprom/cy_em_eeprom.c ****     else
 983:Generated_Source\PSoC6\pdl\middleware\em_eeprom/cy_em_eeprom.c ****     {
 984:Generated_Source\PSoC6\pdl\middleware\em_eeprom/cy_em_eeprom.c ****         /* Initiate write */
 985:Generated_Source\PSoC6\pdl\middleware\em_eeprom/cy_em_eeprom.c ****         if(CY_FLASH_DRV_OPERATION_STARTED == Cy_Flash_StartWrite(rowAddr, (const uint32_t *)rowData
 986:Generated_Source\PSoC6\pdl\middleware\em_eeprom/cy_em_eeprom.c ****         {
 987:Generated_Source\PSoC6\pdl\middleware\em_eeprom/cy_em_eeprom.c ****             uint32_t countMs = CY_EM_EEPROM_MAX_WRITE_DURATION_MS;
 988:Generated_Source\PSoC6\pdl\middleware\em_eeprom/cy_em_eeprom.c ****             cy_en_flashdrv_status_t rc;
 989:Generated_Source\PSoC6\pdl\middleware\em_eeprom/cy_em_eeprom.c **** 
 990:Generated_Source\PSoC6\pdl\middleware\em_eeprom/cy_em_eeprom.c ****             do
 991:Generated_Source\PSoC6\pdl\middleware\em_eeprom/cy_em_eeprom.c ****             {
 992:Generated_Source\PSoC6\pdl\middleware\em_eeprom/cy_em_eeprom.c ****                 CyDelay(1u);                         /* Wait 1ms */
 993:Generated_Source\PSoC6\pdl\middleware\em_eeprom/cy_em_eeprom.c ****                 rc = Cy_Flash_IsWriteComplete();     /* Check if write completed */
 994:Generated_Source\PSoC6\pdl\middleware\em_eeprom/cy_em_eeprom.c ****                 countMs--;
 995:Generated_Source\PSoC6\pdl\middleware\em_eeprom/cy_em_eeprom.c ****             }
 996:Generated_Source\PSoC6\pdl\middleware\em_eeprom/cy_em_eeprom.c ****             while ((rc == CY_FLASH_DRV_OPCODE_BUSY) && (0u != countMs));
 997:Generated_Source\PSoC6\pdl\middleware\em_eeprom/cy_em_eeprom.c **** 
 998:Generated_Source\PSoC6\pdl\middleware\em_eeprom/cy_em_eeprom.c ****             if(CY_FLASH_DRV_SUCCESS == rc)
 999:Generated_Source\PSoC6\pdl\middleware\em_eeprom/cy_em_eeprom.c ****             {
1000:Generated_Source\PSoC6\pdl\middleware\em_eeprom/cy_em_eeprom.c ****                 ret = CY_EM_EEPROM_SUCCESS;
1001:Generated_Source\PSoC6\pdl\middleware\em_eeprom/cy_em_eeprom.c ****             }
1002:Generated_Source\PSoC6\pdl\middleware\em_eeprom/cy_em_eeprom.c ****         }
1003:Generated_Source\PSoC6\pdl\middleware\em_eeprom/cy_em_eeprom.c ****     }
1004:Generated_Source\PSoC6\pdl\middleware\em_eeprom/cy_em_eeprom.c **** 
1005:Generated_Source\PSoC6\pdl\middleware\em_eeprom/cy_em_eeprom.c ****     return (ret);
1006:Generated_Source\PSoC6\pdl\middleware\em_eeprom/cy_em_eeprom.c **** }
1007:Generated_Source\PSoC6\pdl\middleware\em_eeprom/cy_em_eeprom.c **** 
1008:Generated_Source\PSoC6\pdl\middleware\em_eeprom/cy_em_eeprom.c **** 
1009:Generated_Source\PSoC6\pdl\middleware\em_eeprom/cy_em_eeprom.c **** /*******************************************************************************
1010:Generated_Source\PSoC6\pdl\middleware\em_eeprom/cy_em_eeprom.c **** * Function Name: EraseRow
1011:Generated_Source\PSoC6\pdl\middleware\em_eeprom/cy_em_eeprom.c **** ****************************************************************************//**
1012:Generated_Source\PSoC6\pdl\middleware\em_eeprom/cy_em_eeprom.c **** *
ARM GAS  C:\Users\eduar\AppData\Local\Temp\ccwtx1iP.s 			page 26


1013:Generated_Source\PSoC6\pdl\middleware\em_eeprom/cy_em_eeprom.c **** * Erases one flash row starting from the specified row address. If the redundant
1014:Generated_Source\PSoC6\pdl\middleware\em_eeprom/cy_em_eeprom.c **** * copy option is enabled the corresponding row in the redundant copy will also
1015:Generated_Source\PSoC6\pdl\middleware\em_eeprom/cy_em_eeprom.c **** * be erased.
1016:Generated_Source\PSoC6\pdl\middleware\em_eeprom/cy_em_eeprom.c **** *
1017:Generated_Source\PSoC6\pdl\middleware\em_eeprom/cy_em_eeprom.c **** * \param rowAdd
1018:Generated_Source\PSoC6\pdl\middleware\em_eeprom/cy_em_eeprom.c **** * The address of the flash row.
1019:Generated_Source\PSoC6\pdl\middleware\em_eeprom/cy_em_eeprom.c **** *
1020:Generated_Source\PSoC6\pdl\middleware\em_eeprom/cy_em_eeprom.c **** * \param ramBuffAddr
1021:Generated_Source\PSoC6\pdl\middleware\em_eeprom/cy_em_eeprom.c **** * The address of the RAM buffer that contains zeroed data (used only for
1022:Generated_Source\PSoC6\pdl\middleware\em_eeprom/cy_em_eeprom.c **** * non-PSoC 6 devices).
1023:Generated_Source\PSoC6\pdl\middleware\em_eeprom/cy_em_eeprom.c **** *
1024:Generated_Source\PSoC6\pdl\middleware\em_eeprom/cy_em_eeprom.c **** * \param context
1025:Generated_Source\PSoC6\pdl\middleware\em_eeprom/cy_em_eeprom.c **** * The pointer to the EEPROM context structure \ref cy_stc_eeprom_context_t.
1026:Generated_Source\PSoC6\pdl\middleware\em_eeprom/cy_em_eeprom.c **** *
1027:Generated_Source\PSoC6\pdl\middleware\em_eeprom/cy_em_eeprom.c **** * \return
1028:Generated_Source\PSoC6\pdl\middleware\em_eeprom/cy_em_eeprom.c **** * error / status code. See \ref cy_en_em_eeprom_status_t.
1029:Generated_Source\PSoC6\pdl\middleware\em_eeprom/cy_em_eeprom.c **** *
1030:Generated_Source\PSoC6\pdl\middleware\em_eeprom/cy_em_eeprom.c **** *******************************************************************************/
1031:Generated_Source\PSoC6\pdl\middleware\em_eeprom/cy_em_eeprom.c **** static cy_en_em_eeprom_status_t EraseRow(uint32_t rowAddr,
1032:Generated_Source\PSoC6\pdl\middleware\em_eeprom/cy_em_eeprom.c ****                                         uint32_t ramBuffAddr,
1033:Generated_Source\PSoC6\pdl\middleware\em_eeprom/cy_em_eeprom.c ****                                         cy_stc_eeprom_context_t * context)
1034:Generated_Source\PSoC6\pdl\middleware\em_eeprom/cy_em_eeprom.c **** {
1035:Generated_Source\PSoC6\pdl\middleware\em_eeprom/cy_em_eeprom.c ****     uint32_t emEepromRowAddr = rowAddr;
1036:Generated_Source\PSoC6\pdl\middleware\em_eeprom/cy_em_eeprom.c ****     cy_en_em_eeprom_status_t ret = CY_EM_EEPROM_WRITE_FAIL;
1037:Generated_Source\PSoC6\pdl\middleware\em_eeprom/cy_em_eeprom.c ****     uint32_t i = 1u;
1038:Generated_Source\PSoC6\pdl\middleware\em_eeprom/cy_em_eeprom.c **** 
1039:Generated_Source\PSoC6\pdl\middleware\em_eeprom/cy_em_eeprom.c ****     (void)ramBuffAddr; /* To avoid compiler warning */
1040:Generated_Source\PSoC6\pdl\middleware\em_eeprom/cy_em_eeprom.c **** 
1041:Generated_Source\PSoC6\pdl\middleware\em_eeprom/cy_em_eeprom.c ****     if(0u != context->redundantCopy)
1042:Generated_Source\PSoC6\pdl\middleware\em_eeprom/cy_em_eeprom.c ****     {
1043:Generated_Source\PSoC6\pdl\middleware\em_eeprom/cy_em_eeprom.c ****         i++;
1044:Generated_Source\PSoC6\pdl\middleware\em_eeprom/cy_em_eeprom.c ****     }
1045:Generated_Source\PSoC6\pdl\middleware\em_eeprom/cy_em_eeprom.c **** 
1046:Generated_Source\PSoC6\pdl\middleware\em_eeprom/cy_em_eeprom.c ****     do
1047:Generated_Source\PSoC6\pdl\middleware\em_eeprom/cy_em_eeprom.c ****     {
1048:Generated_Source\PSoC6\pdl\middleware\em_eeprom/cy_em_eeprom.c ****         if(0u != context->blockingWrite)
1049:Generated_Source\PSoC6\pdl\middleware\em_eeprom/cy_em_eeprom.c ****         {
1050:Generated_Source\PSoC6\pdl\middleware\em_eeprom/cy_em_eeprom.c ****             /* Erase the flash row */
1051:Generated_Source\PSoC6\pdl\middleware\em_eeprom/cy_em_eeprom.c ****             if(CY_FLASH_DRV_SUCCESS == Cy_Flash_EraseRow(emEepromRowAddr))
1052:Generated_Source\PSoC6\pdl\middleware\em_eeprom/cy_em_eeprom.c ****             {
1053:Generated_Source\PSoC6\pdl\middleware\em_eeprom/cy_em_eeprom.c ****                 ret = CY_EM_EEPROM_SUCCESS;
1054:Generated_Source\PSoC6\pdl\middleware\em_eeprom/cy_em_eeprom.c ****             }
1055:Generated_Source\PSoC6\pdl\middleware\em_eeprom/cy_em_eeprom.c ****         }
1056:Generated_Source\PSoC6\pdl\middleware\em_eeprom/cy_em_eeprom.c ****         else
1057:Generated_Source\PSoC6\pdl\middleware\em_eeprom/cy_em_eeprom.c ****         {
1058:Generated_Source\PSoC6\pdl\middleware\em_eeprom/cy_em_eeprom.c ****             /* Initiate erase */
1059:Generated_Source\PSoC6\pdl\middleware\em_eeprom/cy_em_eeprom.c ****             if(CY_FLASH_DRV_OPERATION_STARTED == Cy_Flash_StartErase(emEepromRowAddr))
1060:Generated_Source\PSoC6\pdl\middleware\em_eeprom/cy_em_eeprom.c ****             {
1061:Generated_Source\PSoC6\pdl\middleware\em_eeprom/cy_em_eeprom.c ****                 uint32_t countMs = CY_EM_EEPROM_MAX_WRITE_DURATION_MS;
1062:Generated_Source\PSoC6\pdl\middleware\em_eeprom/cy_em_eeprom.c ****                 cy_en_flashdrv_status_t rc;
1063:Generated_Source\PSoC6\pdl\middleware\em_eeprom/cy_em_eeprom.c **** 
1064:Generated_Source\PSoC6\pdl\middleware\em_eeprom/cy_em_eeprom.c ****                 do
1065:Generated_Source\PSoC6\pdl\middleware\em_eeprom/cy_em_eeprom.c ****                 {
1066:Generated_Source\PSoC6\pdl\middleware\em_eeprom/cy_em_eeprom.c ****                     CyDelay(1u);                         /* Wait 1ms */
1067:Generated_Source\PSoC6\pdl\middleware\em_eeprom/cy_em_eeprom.c ****                     rc = Cy_Flash_IsWriteComplete();     /* Check if erase completed */
1068:Generated_Source\PSoC6\pdl\middleware\em_eeprom/cy_em_eeprom.c ****                     countMs--;
1069:Generated_Source\PSoC6\pdl\middleware\em_eeprom/cy_em_eeprom.c ****                 }
ARM GAS  C:\Users\eduar\AppData\Local\Temp\ccwtx1iP.s 			page 27


1070:Generated_Source\PSoC6\pdl\middleware\em_eeprom/cy_em_eeprom.c ****                 while ((rc == CY_FLASH_DRV_OPCODE_BUSY) && (0u != countMs));
1071:Generated_Source\PSoC6\pdl\middleware\em_eeprom/cy_em_eeprom.c **** 
1072:Generated_Source\PSoC6\pdl\middleware\em_eeprom/cy_em_eeprom.c ****                 if(CY_FLASH_DRV_SUCCESS == rc)
1073:Generated_Source\PSoC6\pdl\middleware\em_eeprom/cy_em_eeprom.c ****                 {
1074:Generated_Source\PSoC6\pdl\middleware\em_eeprom/cy_em_eeprom.c ****                     ret = CY_EM_EEPROM_SUCCESS;
1075:Generated_Source\PSoC6\pdl\middleware\em_eeprom/cy_em_eeprom.c ****                 }
1076:Generated_Source\PSoC6\pdl\middleware\em_eeprom/cy_em_eeprom.c ****             }
1077:Generated_Source\PSoC6\pdl\middleware\em_eeprom/cy_em_eeprom.c ****         }
1078:Generated_Source\PSoC6\pdl\middleware\em_eeprom/cy_em_eeprom.c **** 
1079:Generated_Source\PSoC6\pdl\middleware\em_eeprom/cy_em_eeprom.c ****         if(CY_EM_EEPROM_SUCCESS == ret)
1080:Generated_Source\PSoC6\pdl\middleware\em_eeprom/cy_em_eeprom.c ****         {
1081:Generated_Source\PSoC6\pdl\middleware\em_eeprom/cy_em_eeprom.c ****             /* Update the address to point to the redundant copy row */
1082:Generated_Source\PSoC6\pdl\middleware\em_eeprom/cy_em_eeprom.c ****             emEepromRowAddr = (emEepromRowAddr - context->userFlashStartAddr) + context->wlEndAddr;
1083:Generated_Source\PSoC6\pdl\middleware\em_eeprom/cy_em_eeprom.c ****         }
1084:Generated_Source\PSoC6\pdl\middleware\em_eeprom/cy_em_eeprom.c ****         else
1085:Generated_Source\PSoC6\pdl\middleware\em_eeprom/cy_em_eeprom.c ****         {
1086:Generated_Source\PSoC6\pdl\middleware\em_eeprom/cy_em_eeprom.c ****             break;
1087:Generated_Source\PSoC6\pdl\middleware\em_eeprom/cy_em_eeprom.c ****         }
1088:Generated_Source\PSoC6\pdl\middleware\em_eeprom/cy_em_eeprom.c ****         i--;
1089:Generated_Source\PSoC6\pdl\middleware\em_eeprom/cy_em_eeprom.c ****     } while (0u != i);
1090:Generated_Source\PSoC6\pdl\middleware\em_eeprom/cy_em_eeprom.c **** 
1091:Generated_Source\PSoC6\pdl\middleware\em_eeprom/cy_em_eeprom.c ****     return(ret);
1092:Generated_Source\PSoC6\pdl\middleware\em_eeprom/cy_em_eeprom.c **** }
1093:Generated_Source\PSoC6\pdl\middleware\em_eeprom/cy_em_eeprom.c **** 
1094:Generated_Source\PSoC6\pdl\middleware\em_eeprom/cy_em_eeprom.c **** 
1095:Generated_Source\PSoC6\pdl\middleware\em_eeprom/cy_em_eeprom.c **** /*******************************************************************************
1096:Generated_Source\PSoC6\pdl\middleware\em_eeprom/cy_em_eeprom.c **** * Function Name: CheckCrcAndCopy
1097:Generated_Source\PSoC6\pdl\middleware\em_eeprom/cy_em_eeprom.c **** ****************************************************************************//**
1098:Generated_Source\PSoC6\pdl\middleware\em_eeprom/cy_em_eeprom.c **** *
1099:Generated_Source\PSoC6\pdl\middleware\em_eeprom/cy_em_eeprom.c **** * Checks the checksum of the specific row in EEPROM. If the CRC matches - copies
1100:Generated_Source\PSoC6\pdl\middleware\em_eeprom/cy_em_eeprom.c **** * the data to the "datAddr" from EEPROM. f the CRC does not match checks the
1101:Generated_Source\PSoC6\pdl\middleware\em_eeprom/cy_em_eeprom.c **** * CRC of the corresponding row in the EEPROM's redundant copy. If the CRC
1102:Generated_Source\PSoC6\pdl\middleware\em_eeprom/cy_em_eeprom.c **** * matches - copies the data to the "datAddr" from EEPROM redundant copy. If the
1103:Generated_Source\PSoC6\pdl\middleware\em_eeprom/cy_em_eeprom.c **** * CRC of the redundant copy does not match - returns bad checksum.
1104:Generated_Source\PSoC6\pdl\middleware\em_eeprom/cy_em_eeprom.c **** *
1105:Generated_Source\PSoC6\pdl\middleware\em_eeprom/cy_em_eeprom.c **** * \param startAddr
1106:Generated_Source\PSoC6\pdl\middleware\em_eeprom/cy_em_eeprom.c **** * The address that points to the start of the specified row.
1107:Generated_Source\PSoC6\pdl\middleware\em_eeprom/cy_em_eeprom.c **** *
1108:Generated_Source\PSoC6\pdl\middleware\em_eeprom/cy_em_eeprom.c **** * \param datAddr
1109:Generated_Source\PSoC6\pdl\middleware\em_eeprom/cy_em_eeprom.c **** * The start address of where the row data will be copied if the CRC check
1110:Generated_Source\PSoC6\pdl\middleware\em_eeprom/cy_em_eeprom.c **** * will succeed.
1111:Generated_Source\PSoC6\pdl\middleware\em_eeprom/cy_em_eeprom.c **** *
1112:Generated_Source\PSoC6\pdl\middleware\em_eeprom/cy_em_eeprom.c **** * \param rowOffset
1113:Generated_Source\PSoC6\pdl\middleware\em_eeprom/cy_em_eeprom.c **** * The offset in the row from which the data should be copied.
1114:Generated_Source\PSoC6\pdl\middleware\em_eeprom/cy_em_eeprom.c **** *
1115:Generated_Source\PSoC6\pdl\middleware\em_eeprom/cy_em_eeprom.c **** * \param numBytes
1116:Generated_Source\PSoC6\pdl\middleware\em_eeprom/cy_em_eeprom.c **** * The number of bytes to be copied.
1117:Generated_Source\PSoC6\pdl\middleware\em_eeprom/cy_em_eeprom.c **** *
1118:Generated_Source\PSoC6\pdl\middleware\em_eeprom/cy_em_eeprom.c **** * \param context
1119:Generated_Source\PSoC6\pdl\middleware\em_eeprom/cy_em_eeprom.c **** * The pointer to the EEPROM context structure \ref cy_stc_eeprom_context_t.
1120:Generated_Source\PSoC6\pdl\middleware\em_eeprom/cy_em_eeprom.c **** *
1121:Generated_Source\PSoC6\pdl\middleware\em_eeprom/cy_em_eeprom.c **** * \return
1122:Generated_Source\PSoC6\pdl\middleware\em_eeprom/cy_em_eeprom.c **** * error / status code. See \ref cy_en_em_eeprom_status_t.
1123:Generated_Source\PSoC6\pdl\middleware\em_eeprom/cy_em_eeprom.c **** *
1124:Generated_Source\PSoC6\pdl\middleware\em_eeprom/cy_em_eeprom.c **** * \note
1125:Generated_Source\PSoC6\pdl\middleware\em_eeprom/cy_em_eeprom.c **** * This function uses a buffer of the flash row size to perform read
1126:Generated_Source\PSoC6\pdl\middleware\em_eeprom/cy_em_eeprom.c **** * operation. For the size of the row refer to the specific PSoC device
ARM GAS  C:\Users\eduar\AppData\Local\Temp\ccwtx1iP.s 			page 28


1127:Generated_Source\PSoC6\pdl\middleware\em_eeprom/cy_em_eeprom.c **** * datasheet.
1128:Generated_Source\PSoC6\pdl\middleware\em_eeprom/cy_em_eeprom.c **** *
1129:Generated_Source\PSoC6\pdl\middleware\em_eeprom/cy_em_eeprom.c **** *******************************************************************************/
1130:Generated_Source\PSoC6\pdl\middleware\em_eeprom/cy_em_eeprom.c **** static cy_en_em_eeprom_status_t CheckCrcAndCopy(uint32_t startAddr,
1131:Generated_Source\PSoC6\pdl\middleware\em_eeprom/cy_em_eeprom.c ****                                                 uint32_t dstAddr,
1132:Generated_Source\PSoC6\pdl\middleware\em_eeprom/cy_em_eeprom.c ****                                                 uint32_t rowOffset,
1133:Generated_Source\PSoC6\pdl\middleware\em_eeprom/cy_em_eeprom.c ****                                                 uint32_t numBytes,
1134:Generated_Source\PSoC6\pdl\middleware\em_eeprom/cy_em_eeprom.c ****                                                 cy_stc_eeprom_context_t * context)
1135:Generated_Source\PSoC6\pdl\middleware\em_eeprom/cy_em_eeprom.c **** {
1136:Generated_Source\PSoC6\pdl\middleware\em_eeprom/cy_em_eeprom.c ****     cy_en_em_eeprom_status_t ret;
1137:Generated_Source\PSoC6\pdl\middleware\em_eeprom/cy_em_eeprom.c ****     uint32_t writeRamBuffer[CY_EM_EEPROM_FLASH_SIZEOF_ROW / CY_EM_EEPROM_U32_DIV];
1138:Generated_Source\PSoC6\pdl\middleware\em_eeprom/cy_em_eeprom.c **** 
1139:Generated_Source\PSoC6\pdl\middleware\em_eeprom/cy_em_eeprom.c ****     /* Calculate the row address in the EEPROM's redundant copy */
1140:Generated_Source\PSoC6\pdl\middleware\em_eeprom/cy_em_eeprom.c ****     uint32_t rcStartRowAddr = (startAddr - context->userFlashStartAddr) + context->wlEndAddr;
1141:Generated_Source\PSoC6\pdl\middleware\em_eeprom/cy_em_eeprom.c **** 
1142:Generated_Source\PSoC6\pdl\middleware\em_eeprom/cy_em_eeprom.c ****     /* Check the row data CRC in the EEPROM */
1143:Generated_Source\PSoC6\pdl\middleware\em_eeprom/cy_em_eeprom.c ****     if((*(uint32_t *)(startAddr + CY_EM_EEPROM_HEADER_CHECKSUM_OFFSET)) ==
1144:Generated_Source\PSoC6\pdl\middleware\em_eeprom/cy_em_eeprom.c ****         ((uint32_t) CalcChecksum((uint8_t *)(startAddr + CY_EM_EEPROM_EEPROM_DATA_OFFSET),
1145:Generated_Source\PSoC6\pdl\middleware\em_eeprom/cy_em_eeprom.c ****             CY_EM_EEPROM_EEPROM_DATA_LEN)))
1146:Generated_Source\PSoC6\pdl\middleware\em_eeprom/cy_em_eeprom.c ****     {
1147:Generated_Source\PSoC6\pdl\middleware\em_eeprom/cy_em_eeprom.c ****         (void)memcpy((void *)(dstAddr), (void *)(startAddr + rowOffset), numBytes);
1148:Generated_Source\PSoC6\pdl\middleware\em_eeprom/cy_em_eeprom.c **** 
1149:Generated_Source\PSoC6\pdl\middleware\em_eeprom/cy_em_eeprom.c ****         ret = CY_EM_EEPROM_SUCCESS;
1150:Generated_Source\PSoC6\pdl\middleware\em_eeprom/cy_em_eeprom.c ****     }
1151:Generated_Source\PSoC6\pdl\middleware\em_eeprom/cy_em_eeprom.c ****     /* Check the row data CRC in the EEPROM's redundant copy */
1152:Generated_Source\PSoC6\pdl\middleware\em_eeprom/cy_em_eeprom.c ****     else if((*(uint32_t *)(rcStartRowAddr + CY_EM_EEPROM_HEADER_CHECKSUM_OFFSET)) ==
1153:Generated_Source\PSoC6\pdl\middleware\em_eeprom/cy_em_eeprom.c ****             ((uint32_t) CalcChecksum((uint8_t *)(rcStartRowAddr + CY_EM_EEPROM_EEPROM_DATA_OFFSET),
1154:Generated_Source\PSoC6\pdl\middleware\em_eeprom/cy_em_eeprom.c ****                 CY_EM_EEPROM_EEPROM_DATA_LEN)))
1155:Generated_Source\PSoC6\pdl\middleware\em_eeprom/cy_em_eeprom.c ****     {
1156:Generated_Source\PSoC6\pdl\middleware\em_eeprom/cy_em_eeprom.c ****         /* Copy the redundant copy row to RAM buffer to avoid read while write (RWW)
1157:Generated_Source\PSoC6\pdl\middleware\em_eeprom/cy_em_eeprom.c ****         * flash exception. The RWW occurs while trying to write and read the data from
1158:Generated_Source\PSoC6\pdl\middleware\em_eeprom/cy_em_eeprom.c ****         * same flash macro.
1159:Generated_Source\PSoC6\pdl\middleware\em_eeprom/cy_em_eeprom.c ****         */
1160:Generated_Source\PSoC6\pdl\middleware\em_eeprom/cy_em_eeprom.c ****         (void)memcpy((void *)(writeRamBuffer), (void *)(rcStartRowAddr), CY_EM_EEPROM_FLASH_SIZEOF_
1161:Generated_Source\PSoC6\pdl\middleware\em_eeprom/cy_em_eeprom.c **** 
1162:Generated_Source\PSoC6\pdl\middleware\em_eeprom/cy_em_eeprom.c ****         /* Restore bad row data from the RAM buffer */
1163:Generated_Source\PSoC6\pdl\middleware\em_eeprom/cy_em_eeprom.c ****         ret = WriteRow(startAddr, (uint32_t *)writeRamBuffer, context);
1164:Generated_Source\PSoC6\pdl\middleware\em_eeprom/cy_em_eeprom.c **** 
1165:Generated_Source\PSoC6\pdl\middleware\em_eeprom/cy_em_eeprom.c ****         if(CY_EM_EEPROM_SUCCESS == ret)
1166:Generated_Source\PSoC6\pdl\middleware\em_eeprom/cy_em_eeprom.c ****         {
1167:Generated_Source\PSoC6\pdl\middleware\em_eeprom/cy_em_eeprom.c ****             (void)memcpy((void *)(dstAddr), (void *)(writeRamBuffer + rowOffset), numBytes);
1168:Generated_Source\PSoC6\pdl\middleware\em_eeprom/cy_em_eeprom.c ****         }
1169:Generated_Source\PSoC6\pdl\middleware\em_eeprom/cy_em_eeprom.c ****     }
1170:Generated_Source\PSoC6\pdl\middleware\em_eeprom/cy_em_eeprom.c ****     else
1171:Generated_Source\PSoC6\pdl\middleware\em_eeprom/cy_em_eeprom.c ****     {
1172:Generated_Source\PSoC6\pdl\middleware\em_eeprom/cy_em_eeprom.c ****         ret = CY_EM_EEPROM_BAD_CHECKSUM;
1173:Generated_Source\PSoC6\pdl\middleware\em_eeprom/cy_em_eeprom.c ****     }
1174:Generated_Source\PSoC6\pdl\middleware\em_eeprom/cy_em_eeprom.c **** 
1175:Generated_Source\PSoC6\pdl\middleware\em_eeprom/cy_em_eeprom.c ****     return(ret);
1176:Generated_Source\PSoC6\pdl\middleware\em_eeprom/cy_em_eeprom.c **** }
1177:Generated_Source\PSoC6\pdl\middleware\em_eeprom/cy_em_eeprom.c **** 
1178:Generated_Source\PSoC6\pdl\middleware\em_eeprom/cy_em_eeprom.c **** 
1179:Generated_Source\PSoC6\pdl\middleware\em_eeprom/cy_em_eeprom.c **** /*******************************************************************************
1180:Generated_Source\PSoC6\pdl\middleware\em_eeprom/cy_em_eeprom.c **** * Function Name: GetAddresses
1181:Generated_Source\PSoC6\pdl\middleware\em_eeprom/cy_em_eeprom.c **** ****************************************************************************//**
1182:Generated_Source\PSoC6\pdl\middleware\em_eeprom/cy_em_eeprom.c **** *
1183:Generated_Source\PSoC6\pdl\middleware\em_eeprom/cy_em_eeprom.c **** * Calculates the start and end address of the row's EEPROM data to be updated.
ARM GAS  C:\Users\eduar\AppData\Local\Temp\ccwtx1iP.s 			page 29


1184:Generated_Source\PSoC6\pdl\middleware\em_eeprom/cy_em_eeprom.c **** * The start and end are not absolute addresses but a relative addresses in a
1185:Generated_Source\PSoC6\pdl\middleware\em_eeprom/cy_em_eeprom.c **** * flash row.
1186:Generated_Source\PSoC6\pdl\middleware\em_eeprom/cy_em_eeprom.c **** *
1187:Generated_Source\PSoC6\pdl\middleware\em_eeprom/cy_em_eeprom.c **** * \param startAddr
1188:Generated_Source\PSoC6\pdl\middleware\em_eeprom/cy_em_eeprom.c **** * The pointer the address where the EEPROM data start address will be returned.
1189:Generated_Source\PSoC6\pdl\middleware\em_eeprom/cy_em_eeprom.c **** *
1190:Generated_Source\PSoC6\pdl\middleware\em_eeprom/cy_em_eeprom.c **** * \param endAddr
1191:Generated_Source\PSoC6\pdl\middleware\em_eeprom/cy_em_eeprom.c **** * The pointer the address where the EEPROM data end address will be returned.
1192:Generated_Source\PSoC6\pdl\middleware\em_eeprom/cy_em_eeprom.c **** *
1193:Generated_Source\PSoC6\pdl\middleware\em_eeprom/cy_em_eeprom.c **** * \param offset
1194:Generated_Source\PSoC6\pdl\middleware\em_eeprom/cy_em_eeprom.c **** * The pointer the address where the calculated offset of the EEPROM header data
1195:Generated_Source\PSoC6\pdl\middleware\em_eeprom/cy_em_eeprom.c **** * will be returned.
1196:Generated_Source\PSoC6\pdl\middleware\em_eeprom/cy_em_eeprom.c **** *
1197:Generated_Source\PSoC6\pdl\middleware\em_eeprom/cy_em_eeprom.c **** * \param rowNum
1198:Generated_Source\PSoC6\pdl\middleware\em_eeprom/cy_em_eeprom.c **** * The row number that is about to be written.
1199:Generated_Source\PSoC6\pdl\middleware\em_eeprom/cy_em_eeprom.c **** *
1200:Generated_Source\PSoC6\pdl\middleware\em_eeprom/cy_em_eeprom.c **** * \param addr
1201:Generated_Source\PSoC6\pdl\middleware\em_eeprom/cy_em_eeprom.c **** * The address of the EEPROM header data in the currently analyzed row that may
1202:Generated_Source\PSoC6\pdl\middleware\em_eeprom/cy_em_eeprom.c **** * concern to the row about to be written.
1203:Generated_Source\PSoC6\pdl\middleware\em_eeprom/cy_em_eeprom.c **** *
1204:Generated_Source\PSoC6\pdl\middleware\em_eeprom/cy_em_eeprom.c **** * \param len
1205:Generated_Source\PSoC6\pdl\middleware\em_eeprom/cy_em_eeprom.c **** * The length of the EEPROM header data in the currently analyzed row that may
1206:Generated_Source\PSoC6\pdl\middleware\em_eeprom/cy_em_eeprom.c **** * concern to the row about to be written.
1207:Generated_Source\PSoC6\pdl\middleware\em_eeprom/cy_em_eeprom.c **** *
1208:Generated_Source\PSoC6\pdl\middleware\em_eeprom/cy_em_eeprom.c **** * \return
1209:Generated_Source\PSoC6\pdl\middleware\em_eeprom/cy_em_eeprom.c **** * Zero indicates that the currently analyzed row has the data to be written to
1210:Generated_Source\PSoC6\pdl\middleware\em_eeprom/cy_em_eeprom.c **** * the active EEPROM row data locations. Non zero value indicates that there is
1211:Generated_Source\PSoC6\pdl\middleware\em_eeprom/cy_em_eeprom.c **** * no data to be written
1212:Generated_Source\PSoC6\pdl\middleware\em_eeprom/cy_em_eeprom.c **** *
1213:Generated_Source\PSoC6\pdl\middleware\em_eeprom/cy_em_eeprom.c **** *******************************************************************************/
1214:Generated_Source\PSoC6\pdl\middleware\em_eeprom/cy_em_eeprom.c **** static uint32_t GetAddresses(uint32_t *startAddr, 
1215:Generated_Source\PSoC6\pdl\middleware\em_eeprom/cy_em_eeprom.c ****                         uint32_t *endAddr, 
1216:Generated_Source\PSoC6\pdl\middleware\em_eeprom/cy_em_eeprom.c ****                         uint32_t *offset,
1217:Generated_Source\PSoC6\pdl\middleware\em_eeprom/cy_em_eeprom.c ****                         uint32_t rowNum,
1218:Generated_Source\PSoC6\pdl\middleware\em_eeprom/cy_em_eeprom.c ****                         uint32_t addr,
1219:Generated_Source\PSoC6\pdl\middleware\em_eeprom/cy_em_eeprom.c ****                         uint32_t len)
1220:Generated_Source\PSoC6\pdl\middleware\em_eeprom/cy_em_eeprom.c **** {
 398              		.loc 1 1220 0
 399              		.cfi_startproc
 400              		@ args = 8, pretend = 0, frame = 0
 401              		@ frame_needed = 0, uses_anonymous_args = 0
 402              	.LVL49:
 403 0000 F0B5     		push	{r4, r5, r6, r7, lr}
 404              		.cfi_def_cfa_offset 20
 405              		.cfi_offset 4, -20
 406              		.cfi_offset 5, -16
 407              		.cfi_offset 6, -12
 408              		.cfi_offset 7, -8
 409              		.cfi_offset 14, -4
 410 0002 059C     		ldr	r4, [sp, #20]
 411 0004 069F     		ldr	r7, [sp, #24]
 412              	.LVL50:
1221:Generated_Source\PSoC6\pdl\middleware\em_eeprom/cy_em_eeprom.c ****     uint32_t skip = 0u;
1222:Generated_Source\PSoC6\pdl\middleware\em_eeprom/cy_em_eeprom.c **** 
1223:Generated_Source\PSoC6\pdl\middleware\em_eeprom/cy_em_eeprom.c ****     *offset =0u;
 413              		.loc 1 1223 0
 414 0006 0025     		movs	r5, #0
ARM GAS  C:\Users\eduar\AppData\Local\Temp\ccwtx1iP.s 			page 30


 415 0008 1560     		str	r5, [r2]
1224:Generated_Source\PSoC6\pdl\middleware\em_eeprom/cy_em_eeprom.c **** 
1225:Generated_Source\PSoC6\pdl\middleware\em_eeprom/cy_em_eeprom.c ****     if(0u != CY_EM_EEPROM_IS_ADDR_IN_ROW_RANGE(addr, rowNum))
 416              		.loc 1 1225 0
 417 000a 1D02     		lsls	r5, r3, #8
 418 000c A542     		cmp	r5, r4
 419 000e 06D8     		bhi	.L44
 420              		.loc 1 1225 0 is_stmt 0 discriminator 1
 421 0010 5E1C     		adds	r6, r3, #1
 422 0012 3602     		lsls	r6, r6, #8
 423 0014 013E     		subs	r6, r6, #1
 424 0016 B442     		cmp	r4, r6
 425 0018 03D9     		bls	.L45
 426              		.loc 1 1225 0
 427 001a 0026     		movs	r6, #0
 428 001c 02E0     		b	.L38
 429              	.L44:
 430 001e 0026     		movs	r6, #0
 431 0020 00E0     		b	.L38
 432              	.L45:
 433 0022 0126     		movs	r6, #1
 434              	.L38:
 435              		.loc 1 1225 0 discriminator 6
 436 0024 D6B1     		cbz	r6, .L39
1226:Generated_Source\PSoC6\pdl\middleware\em_eeprom/cy_em_eeprom.c ****     {
1227:Generated_Source\PSoC6\pdl\middleware\em_eeprom/cy_em_eeprom.c ****         *startAddr = CY_EM_EEPROM_EEPROM_DATA_LEN + (addr % CY_EM_EEPROM_EEPROM_DATA_LEN);
 437              		.loc 1 1227 0 is_stmt 1
 438 0026 E2B2     		uxtb	r2, r4
 439              	.LVL51:
 440 0028 02F58072 		add	r2, r2, #256
 441 002c 0260     		str	r2, [r0]
1228:Generated_Source\PSoC6\pdl\middleware\em_eeprom/cy_em_eeprom.c **** 
1229:Generated_Source\PSoC6\pdl\middleware\em_eeprom/cy_em_eeprom.c ****         if(0u != CY_EM_EEPROM_IS_ADDR_IN_ROW_RANGE(addr + len, rowNum))
 442              		.loc 1 1229 0
 443 002e 3C44     		add	r4, r4, r7
 444 0030 A542     		cmp	r5, r4
 445 0032 06D8     		bhi	.L46
 446              		.loc 1 1229 0 is_stmt 0 discriminator 1
 447 0034 0133     		adds	r3, r3, #1
 448              	.LVL52:
 449 0036 1B02     		lsls	r3, r3, #8
 450              	.LVL53:
 451 0038 013B     		subs	r3, r3, #1
 452 003a 9C42     		cmp	r4, r3
 453 003c 03D9     		bls	.L47
 454              		.loc 1 1229 0
 455 003e 0023     		movs	r3, #0
 456 0040 02E0     		b	.L40
 457              	.LVL54:
 458              	.L46:
 459 0042 0023     		movs	r3, #0
 460              	.LVL55:
 461 0044 00E0     		b	.L40
 462              	.L47:
 463 0046 0123     		movs	r3, #1
 464              	.L40:
 465              		.loc 1 1229 0 discriminator 6
ARM GAS  C:\Users\eduar\AppData\Local\Temp\ccwtx1iP.s 			page 31


 466 0048 1BB1     		cbz	r3, .L41
1230:Generated_Source\PSoC6\pdl\middleware\em_eeprom/cy_em_eeprom.c ****         {
1231:Generated_Source\PSoC6\pdl\middleware\em_eeprom/cy_em_eeprom.c ****             *endAddr = *startAddr + len;
 467              		.loc 1 1231 0 is_stmt 1
 468 004a 1744     		add	r7, r7, r2
 469 004c 0F60     		str	r7, [r1]
1221:Generated_Source\PSoC6\pdl\middleware\em_eeprom/cy_em_eeprom.c **** 
 470              		.loc 1 1221 0
 471 004e 0020     		movs	r0, #0
 472              	.LVL56:
 473 0050 F0BD     		pop	{r4, r5, r6, r7, pc}
 474              	.LVL57:
 475              	.L41:
1232:Generated_Source\PSoC6\pdl\middleware\em_eeprom/cy_em_eeprom.c ****         }
1233:Generated_Source\PSoC6\pdl\middleware\em_eeprom/cy_em_eeprom.c ****         else
1234:Generated_Source\PSoC6\pdl\middleware\em_eeprom/cy_em_eeprom.c ****         {
1235:Generated_Source\PSoC6\pdl\middleware\em_eeprom/cy_em_eeprom.c ****             *endAddr = CY_EM_EEPROM_FLASH_SIZEOF_ROW;
 476              		.loc 1 1235 0
 477 0052 4FF40073 		mov	r3, #512
 478 0056 0B60     		str	r3, [r1]
1221:Generated_Source\PSoC6\pdl\middleware\em_eeprom/cy_em_eeprom.c **** 
 479              		.loc 1 1221 0
 480 0058 0020     		movs	r0, #0
 481              	.LVL58:
 482 005a F0BD     		pop	{r4, r5, r6, r7, pc}
 483              	.LVL59:
 484              	.L39:
1236:Generated_Source\PSoC6\pdl\middleware\em_eeprom/cy_em_eeprom.c ****         }
1237:Generated_Source\PSoC6\pdl\middleware\em_eeprom/cy_em_eeprom.c ****     }
1238:Generated_Source\PSoC6\pdl\middleware\em_eeprom/cy_em_eeprom.c ****     else
1239:Generated_Source\PSoC6\pdl\middleware\em_eeprom/cy_em_eeprom.c ****     {
1240:Generated_Source\PSoC6\pdl\middleware\em_eeprom/cy_em_eeprom.c **** 
1241:Generated_Source\PSoC6\pdl\middleware\em_eeprom/cy_em_eeprom.c ****         if(0u != CY_EM_EEPROM_IS_ADDR_IN_ROW_RANGE(addr + len, rowNum))
 485              		.loc 1 1241 0
 486 005c 04EB070E 		add	lr, r4, r7
 487 0060 7545     		cmp	r5, lr
 488 0062 05D8     		bhi	.L43
 489              		.loc 1 1241 0 is_stmt 0 discriminator 1
 490 0064 0133     		adds	r3, r3, #1
 491              	.LVL60:
 492 0066 1B02     		lsls	r3, r3, #8
 493              	.LVL61:
 494 0068 013B     		subs	r3, r3, #1
 495 006a 9E45     		cmp	lr, r3
 496 006c 00D8     		bhi	.L43
 497              		.loc 1 1241 0
 498 006e 0126     		movs	r6, #1
 499              	.L43:
 500              		.loc 1 1241 0 discriminator 6
 501 0070 76B1     		cbz	r6, .L49
1242:Generated_Source\PSoC6\pdl\middleware\em_eeprom/cy_em_eeprom.c ****         {
1243:Generated_Source\PSoC6\pdl\middleware\em_eeprom/cy_em_eeprom.c ****             *startAddr = CY_EM_EEPROM_EEPROM_DATA_LEN;
 502              		.loc 1 1243 0 is_stmt 1
 503 0072 4FF48073 		mov	r3, #256
 504 0076 0360     		str	r3, [r0]
1244:Generated_Source\PSoC6\pdl\middleware\em_eeprom/cy_em_eeprom.c ****             *endAddr = (*startAddr + len) - (*startAddr - (addr % CY_EM_EEPROM_EEPROM_DATA_LEN));
 505              		.loc 1 1244 0
ARM GAS  C:\Users\eduar\AppData\Local\Temp\ccwtx1iP.s 			page 32


 506 0078 FB18     		adds	r3, r7, r3
 507 007a E4B2     		uxtb	r4, r4
 508 007c A4F58074 		sub	r4, r4, #256
 509 0080 1C44     		add	r4, r4, r3
 510 0082 0C60     		str	r4, [r1]
1245:Generated_Source\PSoC6\pdl\middleware\em_eeprom/cy_em_eeprom.c ****             *offset = len - (*endAddr - *startAddr);
 511              		.loc 1 1245 0
 512 0084 0368     		ldr	r3, [r0]
 513 0086 1C1B     		subs	r4, r3, r4
 514 0088 2744     		add	r7, r7, r4
 515 008a 1760     		str	r7, [r2]
1221:Generated_Source\PSoC6\pdl\middleware\em_eeprom/cy_em_eeprom.c **** 
 516              		.loc 1 1221 0
 517 008c 0020     		movs	r0, #0
 518              	.LVL62:
 519 008e F0BD     		pop	{r4, r5, r6, r7, pc}
 520              	.LVL63:
 521              	.L49:
1246:Generated_Source\PSoC6\pdl\middleware\em_eeprom/cy_em_eeprom.c ****         }
1247:Generated_Source\PSoC6\pdl\middleware\em_eeprom/cy_em_eeprom.c ****         else
1248:Generated_Source\PSoC6\pdl\middleware\em_eeprom/cy_em_eeprom.c ****         {
1249:Generated_Source\PSoC6\pdl\middleware\em_eeprom/cy_em_eeprom.c ****             skip++;
 522              		.loc 1 1249 0
 523 0090 0120     		movs	r0, #1
 524              	.LVL64:
1250:Generated_Source\PSoC6\pdl\middleware\em_eeprom/cy_em_eeprom.c ****         }
1251:Generated_Source\PSoC6\pdl\middleware\em_eeprom/cy_em_eeprom.c ****     }
1252:Generated_Source\PSoC6\pdl\middleware\em_eeprom/cy_em_eeprom.c **** 
1253:Generated_Source\PSoC6\pdl\middleware\em_eeprom/cy_em_eeprom.c ****     return (skip);
1254:Generated_Source\PSoC6\pdl\middleware\em_eeprom/cy_em_eeprom.c **** }
 525              		.loc 1 1254 0
 526 0092 F0BD     		pop	{r4, r5, r6, r7, pc}
 527              		.cfi_endproc
 528              	.LFE145:
 529              		.size	GetAddresses, .-GetAddresses
 530              		.section	.text.WriteRow,"ax",%progbits
 531              		.align	2
 532              		.thumb
 533              		.thumb_func
 534              		.type	WriteRow, %function
 535              	WriteRow:
 536              	.LFB142:
 972:Generated_Source\PSoC6\pdl\middleware\em_eeprom/cy_em_eeprom.c ****     cy_en_em_eeprom_status_t ret = CY_EM_EEPROM_WRITE_FAIL;
 537              		.loc 1 972 0
 538              		.cfi_startproc
 539              		@ args = 0, pretend = 0, frame = 0
 540              		@ frame_needed = 0, uses_anonymous_args = 0
 541              	.LVL65:
 542 0000 10B5     		push	{r4, lr}
 543              		.cfi_def_cfa_offset 8
 544              		.cfi_offset 4, -8
 545              		.cfi_offset 14, -4
 546              	.LVL66:
 974:Generated_Source\PSoC6\pdl\middleware\em_eeprom/cy_em_eeprom.c ****     {
 547              		.loc 1 974 0
 548 0002 537D     		ldrb	r3, [r2, #21]	@ zero_extendqisi2
 549 0004 23B1     		cbz	r3, .L52
ARM GAS  C:\Users\eduar\AppData\Local\Temp\ccwtx1iP.s 			page 33


 977:Generated_Source\PSoC6\pdl\middleware\em_eeprom/cy_em_eeprom.c ****         {
 550              		.loc 1 977 0
 551 0006 FFF7FEFF 		bl	Cy_Flash_WriteRow
 552              	.LVL67:
 553 000a A8B1     		cbz	r0, .L56
 973:Generated_Source\PSoC6\pdl\middleware\em_eeprom/cy_em_eeprom.c ****     if(0u != context->blockingWrite)
 554              		.loc 1 973 0
 555 000c 0D48     		ldr	r0, .L60
 556 000e 10BD     		pop	{r4, pc}
 557              	.LVL68:
 558              	.L52:
 985:Generated_Source\PSoC6\pdl\middleware\em_eeprom/cy_em_eeprom.c ****         {
 559              		.loc 1 985 0
 560 0010 FFF7FEFF 		bl	Cy_Flash_StartWrite
 561              	.LVL69:
 562 0014 0C4B     		ldr	r3, .L60+4
 563 0016 9842     		cmp	r0, r3
 564 0018 10D1     		bne	.L57
 565 001a 3224     		movs	r4, #50
 566              	.L55:
 567              	.LVL70:
 568              	.LBB2:
 992:Generated_Source\PSoC6\pdl\middleware\em_eeprom/cy_em_eeprom.c ****                 rc = Cy_Flash_IsWriteComplete();     /* Check if write completed */
 569              		.loc 1 992 0 discriminator 2
 570 001c 0120     		movs	r0, #1
 571 001e FFF7FEFF 		bl	Cy_SysLib_Delay
 572              	.LVL71:
 993:Generated_Source\PSoC6\pdl\middleware\em_eeprom/cy_em_eeprom.c ****                 countMs--;
 573              		.loc 1 993 0 discriminator 2
 574 0022 FFF7FEFF 		bl	Cy_Flash_IsOperationComplete
 575              	.LVL72:
 994:Generated_Source\PSoC6\pdl\middleware\em_eeprom/cy_em_eeprom.c ****             }
 576              		.loc 1 994 0 discriminator 2
 577 0026 013C     		subs	r4, r4, #1
 578              	.LVL73:
 996:Generated_Source\PSoC6\pdl\middleware\em_eeprom/cy_em_eeprom.c **** 
 579              		.loc 1 996 0 discriminator 2
 580 0028 084B     		ldr	r3, .L60+8
 581 002a 9842     		cmp	r0, r3
 582 002c 01D1     		bne	.L54
 996:Generated_Source\PSoC6\pdl\middleware\em_eeprom/cy_em_eeprom.c **** 
 583              		.loc 1 996 0 is_stmt 0 discriminator 1
 584 002e 002C     		cmp	r4, #0
 585 0030 F4D1     		bne	.L55
 586              	.L54:
 998:Generated_Source\PSoC6\pdl\middleware\em_eeprom/cy_em_eeprom.c ****             {
 587              		.loc 1 998 0 is_stmt 1
 588 0032 28B1     		cbz	r0, .L58
 589              	.LBE2:
 973:Generated_Source\PSoC6\pdl\middleware\em_eeprom/cy_em_eeprom.c ****     if(0u != context->blockingWrite)
 590              		.loc 1 973 0
 591 0034 0348     		ldr	r0, .L60
 592              	.LVL74:
 593 0036 10BD     		pop	{r4, pc}
 594              	.LVL75:
 595              	.L56:
 979:Generated_Source\PSoC6\pdl\middleware\em_eeprom/cy_em_eeprom.c ****         }
ARM GAS  C:\Users\eduar\AppData\Local\Temp\ccwtx1iP.s 			page 34


 596              		.loc 1 979 0
 597 0038 0020     		movs	r0, #0
 598 003a 10BD     		pop	{r4, pc}
 599              	.L57:
 973:Generated_Source\PSoC6\pdl\middleware\em_eeprom/cy_em_eeprom.c ****     if(0u != context->blockingWrite)
 600              		.loc 1 973 0
 601 003c 0148     		ldr	r0, .L60
 602 003e 10BD     		pop	{r4, pc}
 603              	.LVL76:
 604              	.L58:
 605              	.LBB3:
1000:Generated_Source\PSoC6\pdl\middleware\em_eeprom/cy_em_eeprom.c ****             }
 606              		.loc 1 1000 0
 607 0040 0020     		movs	r0, #0
 608              	.LVL77:
 609              	.LBE3:
1006:Generated_Source\PSoC6\pdl\middleware\em_eeprom/cy_em_eeprom.c **** 
 610              		.loc 1 1006 0
 611 0042 10BD     		pop	{r4, pc}
 612              	.LVL78:
 613              	.L61:
 614              		.align	2
 615              	.L60:
 616 0044 04006E00 		.word	7208964
 617 0048 01005000 		.word	5242881
 618 004c 02005000 		.word	5242882
 619              		.cfi_endproc
 620              	.LFE142:
 621              		.size	WriteRow, .-WriteRow
 622              		.section	.text.FillChecksum,"ax",%progbits
 623              		.align	2
 624              		.thumb
 625              		.thumb_func
 626              		.type	FillChecksum, %function
 627              	FillChecksum:
 628              	.LFB146:
1255:Generated_Source\PSoC6\pdl\middleware\em_eeprom/cy_em_eeprom.c **** 
1256:Generated_Source\PSoC6\pdl\middleware\em_eeprom/cy_em_eeprom.c **** 
1257:Generated_Source\PSoC6\pdl\middleware\em_eeprom/cy_em_eeprom.c **** /*******************************************************************************
1258:Generated_Source\PSoC6\pdl\middleware\em_eeprom/cy_em_eeprom.c **** * Function Name: FillChecksum
1259:Generated_Source\PSoC6\pdl\middleware\em_eeprom/cy_em_eeprom.c **** ****************************************************************************//**
1260:Generated_Source\PSoC6\pdl\middleware\em_eeprom/cy_em_eeprom.c **** *
1261:Generated_Source\PSoC6\pdl\middleware\em_eeprom/cy_em_eeprom.c **** * Performs calculation of the checksum on each row in the Em_EEPROM and fills
1262:Generated_Source\PSoC6\pdl\middleware\em_eeprom/cy_em_eeprom.c **** * the Em_EEPROM headers checksum field with the calculated checksums.
1263:Generated_Source\PSoC6\pdl\middleware\em_eeprom/cy_em_eeprom.c **** *
1264:Generated_Source\PSoC6\pdl\middleware\em_eeprom/cy_em_eeprom.c **** * \param context
1265:Generated_Source\PSoC6\pdl\middleware\em_eeprom/cy_em_eeprom.c **** * The pointer to the EEPROM context structure.
1266:Generated_Source\PSoC6\pdl\middleware\em_eeprom/cy_em_eeprom.c **** *
1267:Generated_Source\PSoC6\pdl\middleware\em_eeprom/cy_em_eeprom.c **** * \return
1268:Generated_Source\PSoC6\pdl\middleware\em_eeprom/cy_em_eeprom.c **** * error / status code. See \ref cy_en_em_eeprom_status_t.
1269:Generated_Source\PSoC6\pdl\middleware\em_eeprom/cy_em_eeprom.c **** *
1270:Generated_Source\PSoC6\pdl\middleware\em_eeprom/cy_em_eeprom.c **** * \theory 
1271:Generated_Source\PSoC6\pdl\middleware\em_eeprom/cy_em_eeprom.c **** * In case if redundant copy option is used the Em_EEPROM would return bad 
1272:Generated_Source\PSoC6\pdl\middleware\em_eeprom/cy_em_eeprom.c **** * checksum while trying to read the EEPROM rows which were not yet written by 
1273:Generated_Source\PSoC6\pdl\middleware\em_eeprom/cy_em_eeprom.c **** * the user. E.g. any read after device reprogramming without previous Write() 
1274:Generated_Source\PSoC6\pdl\middleware\em_eeprom/cy_em_eeprom.c **** * operation to the EEPROM would fail. This would happen because the Em_EEPROM 
1275:Generated_Source\PSoC6\pdl\middleware\em_eeprom/cy_em_eeprom.c **** * headers checksum field values (which is zero at the moment) would not be 
ARM GAS  C:\Users\eduar\AppData\Local\Temp\ccwtx1iP.s 			page 35


1276:Generated_Source\PSoC6\pdl\middleware\em_eeprom/cy_em_eeprom.c **** * equal to the actual data checksum. This function allows to avoid read failure
1277:Generated_Source\PSoC6\pdl\middleware\em_eeprom/cy_em_eeprom.c **** * after device reprogramming. 
1278:Generated_Source\PSoC6\pdl\middleware\em_eeprom/cy_em_eeprom.c **** *
1279:Generated_Source\PSoC6\pdl\middleware\em_eeprom/cy_em_eeprom.c **** * \note
1280:Generated_Source\PSoC6\pdl\middleware\em_eeprom/cy_em_eeprom.c **** * This function uses a buffer of the flash row size to perform read
1281:Generated_Source\PSoC6\pdl\middleware\em_eeprom/cy_em_eeprom.c **** * operation. For the size of the row refer to the specific PSoC device
1282:Generated_Source\PSoC6\pdl\middleware\em_eeprom/cy_em_eeprom.c **** * datasheet.
1283:Generated_Source\PSoC6\pdl\middleware\em_eeprom/cy_em_eeprom.c **** *
1284:Generated_Source\PSoC6\pdl\middleware\em_eeprom/cy_em_eeprom.c **** *******************************************************************************/
1285:Generated_Source\PSoC6\pdl\middleware\em_eeprom/cy_em_eeprom.c **** static cy_en_em_eeprom_status_t FillChecksum(cy_stc_eeprom_context_t * context)
1286:Generated_Source\PSoC6\pdl\middleware\em_eeprom/cy_em_eeprom.c **** {
 629              		.loc 1 1286 0
 630              		.cfi_startproc
 631              		@ args = 0, pretend = 0, frame = 520
 632              		@ frame_needed = 0, uses_anonymous_args = 0
 633              	.LVL79:
 634 0000 F0B5     		push	{r4, r5, r6, r7, lr}
 635              		.cfi_def_cfa_offset 20
 636              		.cfi_offset 4, -20
 637              		.cfi_offset 5, -16
 638              		.cfi_offset 6, -12
 639              		.cfi_offset 7, -8
 640              		.cfi_offset 14, -4
 641 0002 ADF5037D 		sub	sp, sp, #524
 642              		.cfi_def_cfa_offset 544
 643 0006 0446     		mov	r4, r0
1287:Generated_Source\PSoC6\pdl\middleware\em_eeprom/cy_em_eeprom.c ****     uint32_t i;
1288:Generated_Source\PSoC6\pdl\middleware\em_eeprom/cy_em_eeprom.c ****     uint32_t rdAddr;
1289:Generated_Source\PSoC6\pdl\middleware\em_eeprom/cy_em_eeprom.c ****     uint32_t writeRamBuffer[CY_EM_EEPROM_FLASH_SIZEOF_ROW / CY_EM_EEPROM_U32_DIV];
1290:Generated_Source\PSoC6\pdl\middleware\em_eeprom/cy_em_eeprom.c ****     uint32_t wrAddr = context->lastWrRowAddr;
 644              		.loc 1 1290 0
 645 0008 8368     		ldr	r3, [r0, #8]
 646 000a 0093     		str	r3, [sp]
1291:Generated_Source\PSoC6\pdl\middleware\em_eeprom/cy_em_eeprom.c ****     uint32_t tmpRowAddr;
1292:Generated_Source\PSoC6\pdl\middleware\em_eeprom/cy_em_eeprom.c ****     /* Get the sequence number (number of writes) */
1293:Generated_Source\PSoC6\pdl\middleware\em_eeprom/cy_em_eeprom.c ****     uint32_t seqNum = CY_EM_EEPROM_GET_SEQ_NUM(wrAddr);
 647              		.loc 1 1293 0
 648 000c 1D68     		ldr	r5, [r3]
 649              	.LVL80:
1294:Generated_Source\PSoC6\pdl\middleware\em_eeprom/cy_em_eeprom.c ****     cy_en_em_eeprom_status_t ret = CY_EM_EEPROM_BAD_PARAM;
 650              		.loc 1 1294 0
 651 000e 194F     		ldr	r7, .L66
1295:Generated_Source\PSoC6\pdl\middleware\em_eeprom/cy_em_eeprom.c **** 
1296:Generated_Source\PSoC6\pdl\middleware\em_eeprom/cy_em_eeprom.c ****     for(i = 0u; i < (context->numberOfRows * context->wearLevelingFactor); i++)
 652              		.loc 1 1296 0
 653 0010 0026     		movs	r6, #0
 654 0012 24E0     		b	.L63
 655              	.LVL81:
 656              	.L64:
1297:Generated_Source\PSoC6\pdl\middleware\em_eeprom/cy_em_eeprom.c ****     {
1298:Generated_Source\PSoC6\pdl\middleware\em_eeprom/cy_em_eeprom.c ****         /* Copy the EEPROM row from Flash to RAM */
1299:Generated_Source\PSoC6\pdl\middleware\em_eeprom/cy_em_eeprom.c ****         (void)memcpy((void *)&writeRamBuffer[0u], (void *)(wrAddr), CY_EM_EEPROM_FLASH_SIZEOF_ROW);
 657              		.loc 1 1299 0 discriminator 3
 658 0014 009F     		ldr	r7, [sp]
 659              	.LVL82:
 660 0016 4FF40072 		mov	r2, #512
 661 001a 3946     		mov	r1, r7
ARM GAS  C:\Users\eduar\AppData\Local\Temp\ccwtx1iP.s 			page 36


 662 001c 01A8     		add	r0, sp, #4
 663 001e FFF7FEFF 		bl	memcpy
 664              	.LVL83:
1300:Generated_Source\PSoC6\pdl\middleware\em_eeprom/cy_em_eeprom.c **** 
1301:Generated_Source\PSoC6\pdl\middleware\em_eeprom/cy_em_eeprom.c ****         /* Increment the sequence number */
1302:Generated_Source\PSoC6\pdl\middleware\em_eeprom/cy_em_eeprom.c ****         seqNum++;
 665              		.loc 1 1302 0 discriminator 3
 666 0022 0135     		adds	r5, r5, #1
 667              	.LVL84:
1303:Generated_Source\PSoC6\pdl\middleware\em_eeprom/cy_em_eeprom.c ****         writeRamBuffer[CY_EM_EEPROM_HEADER_SEQ_NUM_OFFSET_U32] = seqNum;
 668              		.loc 1 1303 0 discriminator 3
 669 0024 0195     		str	r5, [sp, #4]
1304:Generated_Source\PSoC6\pdl\middleware\em_eeprom/cy_em_eeprom.c **** 
1305:Generated_Source\PSoC6\pdl\middleware\em_eeprom/cy_em_eeprom.c ****         /* Calculate and fill the checksum to the Em_EEPROM header */
1306:Generated_Source\PSoC6\pdl\middleware\em_eeprom/cy_em_eeprom.c ****         writeRamBuffer[CY_EM_EEPROM_HEADER_CHECKSUM_OFFSET_U32] = (uint32_t)
1307:Generated_Source\PSoC6\pdl\middleware\em_eeprom/cy_em_eeprom.c ****                     CalcChecksum((uint8_t *) &writeRamBuffer[CY_EM_EEPROM_EEPROM_DATA_OFFSET_U32],
 670              		.loc 1 1307 0 discriminator 3
 671 0026 4FF48071 		mov	r1, #256
 672 002a 41A8     		add	r0, sp, #260
 673 002c FFF7FEFF 		bl	CalcChecksum
 674              	.LVL85:
1306:Generated_Source\PSoC6\pdl\middleware\em_eeprom/cy_em_eeprom.c ****                     CalcChecksum((uint8_t *) &writeRamBuffer[CY_EM_EEPROM_EEPROM_DATA_OFFSET_U32],
 675              		.loc 1 1306 0 discriminator 3
 676 0030 4090     		str	r0, [sp, #256]
1308:Generated_Source\PSoC6\pdl\middleware\em_eeprom/cy_em_eeprom.c ****                                               CY_EM_EEPROM_EEPROM_DATA_LEN);
1309:Generated_Source\PSoC6\pdl\middleware\em_eeprom/cy_em_eeprom.c **** 
1310:Generated_Source\PSoC6\pdl\middleware\em_eeprom/cy_em_eeprom.c ****         /* Write the data to the specified flash row */
1311:Generated_Source\PSoC6\pdl\middleware\em_eeprom/cy_em_eeprom.c ****         ret = WriteRow(wrAddr, writeRamBuffer, context);
 677              		.loc 1 1311 0 discriminator 3
 678 0032 2246     		mov	r2, r4
 679 0034 01A9     		add	r1, sp, #4
 680 0036 3846     		mov	r0, r7
 681 0038 FFF7FEFF 		bl	WriteRow
 682              	.LVL86:
1312:Generated_Source\PSoC6\pdl\middleware\em_eeprom/cy_em_eeprom.c **** 
1313:Generated_Source\PSoC6\pdl\middleware\em_eeprom/cy_em_eeprom.c ****         /* Update the row address to point to the relevant row in the redundant 
1314:Generated_Source\PSoC6\pdl\middleware\em_eeprom/cy_em_eeprom.c ****         * EEPROM's copy.
1315:Generated_Source\PSoC6\pdl\middleware\em_eeprom/cy_em_eeprom.c ****         */
1316:Generated_Source\PSoC6\pdl\middleware\em_eeprom/cy_em_eeprom.c ****         tmpRowAddr = (wrAddr - context->userFlashStartAddr) + context->wlEndAddr;
 683              		.loc 1 1316 0 discriminator 3
 684 003c A069     		ldr	r0, [r4, #24]
 685 003e 009B     		ldr	r3, [sp]
 686 0040 1B1A     		subs	r3, r3, r0
 687 0042 2068     		ldr	r0, [r4]
 688              	.LVL87:
1317:Generated_Source\PSoC6\pdl\middleware\em_eeprom/cy_em_eeprom.c **** 
1318:Generated_Source\PSoC6\pdl\middleware\em_eeprom/cy_em_eeprom.c ****         /* Write the data to the specified flash row */
1319:Generated_Source\PSoC6\pdl\middleware\em_eeprom/cy_em_eeprom.c ****         ret = WriteRow(tmpRowAddr, writeRamBuffer, context);
 689              		.loc 1 1319 0 discriminator 3
 690 0044 2246     		mov	r2, r4
 691 0046 01A9     		add	r1, sp, #4
 692 0048 1844     		add	r0, r0, r3
 693              	.LVL88:
 694 004a FFF7FEFF 		bl	WriteRow
 695              	.LVL89:
 696 004e 0746     		mov	r7, r0
 697              	.LVL90:
ARM GAS  C:\Users\eduar\AppData\Local\Temp\ccwtx1iP.s 			page 37


1320:Generated_Source\PSoC6\pdl\middleware\em_eeprom/cy_em_eeprom.c **** 
1321:Generated_Source\PSoC6\pdl\middleware\em_eeprom/cy_em_eeprom.c ****         /* Get the address of the next row to be written. 
1322:Generated_Source\PSoC6\pdl\middleware\em_eeprom/cy_em_eeprom.c ****         * "rdAddr" is not used in this function but provided to prevent NULL 
1323:Generated_Source\PSoC6\pdl\middleware\em_eeprom/cy_em_eeprom.c ****         * pointer exception in GetNextRowToWrite().
1324:Generated_Source\PSoC6\pdl\middleware\em_eeprom/cy_em_eeprom.c ****         */
1325:Generated_Source\PSoC6\pdl\middleware\em_eeprom/cy_em_eeprom.c ****         GetNextRowToWrite(seqNum, &wrAddr, &rdAddr, context);
 698              		.loc 1 1325 0 discriminator 3
 699 0050 2346     		mov	r3, r4
 700 0052 81AA     		add	r2, sp, #516
 701 0054 6946     		mov	r1, sp
 702 0056 2846     		mov	r0, r5
 703              	.LVL91:
 704 0058 FFF7FEFF 		bl	GetNextRowToWrite
 705              	.LVL92:
1296:Generated_Source\PSoC6\pdl\middleware\em_eeprom/cy_em_eeprom.c ****     {
 706              		.loc 1 1296 0 discriminator 3
 707 005c 0136     		adds	r6, r6, #1
 708              	.LVL93:
 709              	.L63:
1296:Generated_Source\PSoC6\pdl\middleware\em_eeprom/cy_em_eeprom.c ****     {
 710              		.loc 1 1296 0 is_stmt 0 discriminator 1
 711 005e 6268     		ldr	r2, [r4, #4]
 712 0060 2369     		ldr	r3, [r4, #16]
 713 0062 03FB02F3 		mul	r3, r3, r2
 714 0066 9E42     		cmp	r6, r3
 715 0068 D4D3     		bcc	.L64
1326:Generated_Source\PSoC6\pdl\middleware\em_eeprom/cy_em_eeprom.c ****     }
1327:Generated_Source\PSoC6\pdl\middleware\em_eeprom/cy_em_eeprom.c ****     
1328:Generated_Source\PSoC6\pdl\middleware\em_eeprom/cy_em_eeprom.c ****     return(ret);
1329:Generated_Source\PSoC6\pdl\middleware\em_eeprom/cy_em_eeprom.c **** }
 716              		.loc 1 1329 0 is_stmt 1
 717 006a 3846     		mov	r0, r7
 718 006c 0DF5037D 		add	sp, sp, #524
 719              		.cfi_def_cfa_offset 20
 720              		@ sp needed
 721 0070 F0BD     		pop	{r4, r5, r6, r7, pc}
 722              	.LVL94:
 723              	.L67:
 724 0072 00BF     		.align	2
 725              	.L66:
 726 0074 01006E00 		.word	7208961
 727              		.cfi_endproc
 728              	.LFE146:
 729              		.size	FillChecksum, .-FillChecksum
 730              		.section	.text.CheckCrcAndCopy,"ax",%progbits
 731              		.align	2
 732              		.thumb
 733              		.thumb_func
 734              		.type	CheckCrcAndCopy, %function
 735              	CheckCrcAndCopy:
 736              	.LFB144:
1135:Generated_Source\PSoC6\pdl\middleware\em_eeprom/cy_em_eeprom.c ****     cy_en_em_eeprom_status_t ret;
 737              		.loc 1 1135 0
 738              		.cfi_startproc
 739              		@ args = 4, pretend = 0, frame = 512
 740              		@ frame_needed = 0, uses_anonymous_args = 0
 741              	.LVL95:
ARM GAS  C:\Users\eduar\AppData\Local\Temp\ccwtx1iP.s 			page 38


 742 0000 2DE9F047 		push	{r4, r5, r6, r7, r8, r9, r10, lr}
 743              		.cfi_def_cfa_offset 32
 744              		.cfi_offset 4, -32
 745              		.cfi_offset 5, -28
 746              		.cfi_offset 6, -24
 747              		.cfi_offset 7, -20
 748              		.cfi_offset 8, -16
 749              		.cfi_offset 9, -12
 750              		.cfi_offset 10, -8
 751              		.cfi_offset 14, -4
 752 0004 ADF5007D 		sub	sp, sp, #512
 753              		.cfi_def_cfa_offset 544
 754 0008 0546     		mov	r5, r0
 755 000a 8A46     		mov	r10, r1
 756 000c 9046     		mov	r8, r2
 757 000e 9946     		mov	r9, r3
 758 0010 889E     		ldr	r6, [sp, #544]
1140:Generated_Source\PSoC6\pdl\middleware\em_eeprom/cy_em_eeprom.c **** 
 759              		.loc 1 1140 0
 760 0012 B469     		ldr	r4, [r6, #24]
 761 0014 041B     		subs	r4, r0, r4
 762 0016 3368     		ldr	r3, [r6]
 763              	.LVL96:
 764 0018 1C44     		add	r4, r4, r3
 765              	.LVL97:
1143:Generated_Source\PSoC6\pdl\middleware\em_eeprom/cy_em_eeprom.c ****         ((uint32_t) CalcChecksum((uint8_t *)(startAddr + CY_EM_EEPROM_EEPROM_DATA_OFFSET),
 766              		.loc 1 1143 0
 767 001a D0F8FC70 		ldr	r7, [r0, #252]
1144:Generated_Source\PSoC6\pdl\middleware\em_eeprom/cy_em_eeprom.c ****             CY_EM_EEPROM_EEPROM_DATA_LEN)))
 768              		.loc 1 1144 0
 769 001e 4FF48071 		mov	r1, #256
 770              	.LVL98:
 771 0022 0844     		add	r0, r0, r1
 772              	.LVL99:
 773 0024 FFF7FEFF 		bl	CalcChecksum
 774              	.LVL100:
1143:Generated_Source\PSoC6\pdl\middleware\em_eeprom/cy_em_eeprom.c ****         ((uint32_t) CalcChecksum((uint8_t *)(startAddr + CY_EM_EEPROM_EEPROM_DATA_OFFSET),
 775              		.loc 1 1143 0
 776 0028 8742     		cmp	r7, r0
 777 002a 07D1     		bne	.L69
1147:Generated_Source\PSoC6\pdl\middleware\em_eeprom/cy_em_eeprom.c **** 
 778              		.loc 1 1147 0
 779 002c 4A46     		mov	r2, r9
 780 002e 05EB0801 		add	r1, r5, r8
 781 0032 5046     		mov	r0, r10
 782 0034 FFF7FEFF 		bl	memcpy
 783              	.LVL101:
1149:Generated_Source\PSoC6\pdl\middleware\em_eeprom/cy_em_eeprom.c ****     }
 784              		.loc 1 1149 0
 785 0038 0024     		movs	r4, #0
 786              	.LVL102:
 787 003a 1DE0     		b	.L70
 788              	.LVL103:
 789              	.L69:
1152:Generated_Source\PSoC6\pdl\middleware\em_eeprom/cy_em_eeprom.c ****             ((uint32_t) CalcChecksum((uint8_t *)(rcStartRowAddr + CY_EM_EEPROM_EEPROM_DATA_OFFSET),
 790              		.loc 1 1152 0
 791 003c D4F8FC70 		ldr	r7, [r4, #252]
ARM GAS  C:\Users\eduar\AppData\Local\Temp\ccwtx1iP.s 			page 39


1153:Generated_Source\PSoC6\pdl\middleware\em_eeprom/cy_em_eeprom.c ****                 CY_EM_EEPROM_EEPROM_DATA_LEN)))
 792              		.loc 1 1153 0
 793 0040 4FF48071 		mov	r1, #256
 794 0044 6018     		adds	r0, r4, r1
 795 0046 FFF7FEFF 		bl	CalcChecksum
 796              	.LVL104:
1152:Generated_Source\PSoC6\pdl\middleware\em_eeprom/cy_em_eeprom.c ****             ((uint32_t) CalcChecksum((uint8_t *)(rcStartRowAddr + CY_EM_EEPROM_EEPROM_DATA_OFFSET),
 797              		.loc 1 1152 0
 798 004a 8742     		cmp	r7, r0
 799 004c 13D1     		bne	.L71
1160:Generated_Source\PSoC6\pdl\middleware\em_eeprom/cy_em_eeprom.c **** 
 800              		.loc 1 1160 0
 801 004e 4FF40072 		mov	r2, #512
 802 0052 2146     		mov	r1, r4
 803 0054 6846     		mov	r0, sp
 804 0056 FFF7FEFF 		bl	memcpy
 805              	.LVL105:
1163:Generated_Source\PSoC6\pdl\middleware\em_eeprom/cy_em_eeprom.c **** 
 806              		.loc 1 1163 0
 807 005a 3246     		mov	r2, r6
 808 005c 6946     		mov	r1, sp
 809 005e 2846     		mov	r0, r5
 810 0060 FFF7FEFF 		bl	WriteRow
 811              	.LVL106:
1165:Generated_Source\PSoC6\pdl\middleware\em_eeprom/cy_em_eeprom.c ****         {
 812              		.loc 1 1165 0
 813 0064 0446     		mov	r4, r0
 814              	.LVL107:
 815 0066 38B9     		cbnz	r0, .L70
1167:Generated_Source\PSoC6\pdl\middleware\em_eeprom/cy_em_eeprom.c ****         }
 816              		.loc 1 1167 0
 817 0068 4A46     		mov	r2, r9
 818 006a 0DEB8801 		add	r1, sp, r8, lsl #2
 819 006e 5046     		mov	r0, r10
 820              	.LVL108:
 821 0070 FFF7FEFF 		bl	memcpy
 822              	.LVL109:
 823 0074 00E0     		b	.L70
 824              	.LVL110:
 825              	.L71:
1172:Generated_Source\PSoC6\pdl\middleware\em_eeprom/cy_em_eeprom.c ****     }
 826              		.loc 1 1172 0
 827 0076 034C     		ldr	r4, .L73
 828              	.LVL111:
 829              	.L70:
1176:Generated_Source\PSoC6\pdl\middleware\em_eeprom/cy_em_eeprom.c **** 
 830              		.loc 1 1176 0
 831 0078 2046     		mov	r0, r4
 832 007a 0DF5007D 		add	sp, sp, #512
 833              		.cfi_def_cfa_offset 32
 834              		@ sp needed
 835 007e BDE8F087 		pop	{r4, r5, r6, r7, r8, r9, r10, pc}
 836              	.LVL112:
 837              	.L74:
 838 0082 00BF     		.align	2
 839              	.L73:
 840 0084 02006E00 		.word	7208962
ARM GAS  C:\Users\eduar\AppData\Local\Temp\ccwtx1iP.s 			page 40


 841              		.cfi_endproc
 842              	.LFE144:
 843              		.size	CheckCrcAndCopy, .-CheckCrcAndCopy
 844              		.section	.text.EraseRow,"ax",%progbits
 845              		.align	2
 846              		.thumb
 847              		.thumb_func
 848              		.type	EraseRow, %function
 849              	EraseRow:
 850              	.LFB143:
1034:Generated_Source\PSoC6\pdl\middleware\em_eeprom/cy_em_eeprom.c ****     uint32_t emEepromRowAddr = rowAddr;
 851              		.loc 1 1034 0
 852              		.cfi_startproc
 853              		@ args = 0, pretend = 0, frame = 0
 854              		@ frame_needed = 0, uses_anonymous_args = 0
 855              	.LVL113:
 856 0000 2DE9F041 		push	{r4, r5, r6, r7, r8, lr}
 857              		.cfi_def_cfa_offset 24
 858              		.cfi_offset 4, -24
 859              		.cfi_offset 5, -20
 860              		.cfi_offset 6, -16
 861              		.cfi_offset 7, -12
 862              		.cfi_offset 8, -8
 863              		.cfi_offset 14, -4
 864 0004 0546     		mov	r5, r0
 865 0006 1646     		mov	r6, r2
 866              	.LVL114:
1041:Generated_Source\PSoC6\pdl\middleware\em_eeprom/cy_em_eeprom.c ****     {
 867              		.loc 1 1041 0
 868 0008 137D     		ldrb	r3, [r2, #20]	@ zero_extendqisi2
 869 000a 0BB9     		cbnz	r3, .L83
1037:Generated_Source\PSoC6\pdl\middleware\em_eeprom/cy_em_eeprom.c **** 
 870              		.loc 1 1037 0
 871 000c 0127     		movs	r7, #1
 872 000e 00E0     		b	.L76
 873              	.L83:
1043:Generated_Source\PSoC6\pdl\middleware\em_eeprom/cy_em_eeprom.c ****     }
 874              		.loc 1 1043 0
 875 0010 0227     		movs	r7, #2
 876              	.L76:
 877 0012 DFF86480 		ldr	r8, .L87+8
 878              	.LVL115:
 879              	.L82:
1048:Generated_Source\PSoC6\pdl\middleware\em_eeprom/cy_em_eeprom.c ****         {
 880              		.loc 1 1048 0
 881 0016 737D     		ldrb	r3, [r6, #21]	@ zero_extendqisi2
 882 0018 23B1     		cbz	r3, .L77
1051:Generated_Source\PSoC6\pdl\middleware\em_eeprom/cy_em_eeprom.c ****             {
 883              		.loc 1 1051 0
 884 001a 2846     		mov	r0, r5
 885 001c FFF7FEFF 		bl	Cy_Flash_EraseRow
 886              	.LVL116:
 887 0020 A0B1     		cbz	r0, .L84
 888 0022 18E0     		b	.L78
 889              	.L77:
1059:Generated_Source\PSoC6\pdl\middleware\em_eeprom/cy_em_eeprom.c ****             {
 890              		.loc 1 1059 0
ARM GAS  C:\Users\eduar\AppData\Local\Temp\ccwtx1iP.s 			page 41


 891 0024 2846     		mov	r0, r5
 892 0026 FFF7FEFF 		bl	Cy_Flash_StartErase
 893              	.LVL117:
 894 002a 114B     		ldr	r3, .L87
 895 002c 9842     		cmp	r0, r3
 896 002e 12D1     		bne	.L78
 897 0030 3224     		movs	r4, #50
 898              	.L80:
 899              	.LVL118:
 900              	.LBB4:
1066:Generated_Source\PSoC6\pdl\middleware\em_eeprom/cy_em_eeprom.c ****                     rc = Cy_Flash_IsWriteComplete();     /* Check if erase completed */
 901              		.loc 1 1066 0 discriminator 2
 902 0032 0120     		movs	r0, #1
 903 0034 FFF7FEFF 		bl	Cy_SysLib_Delay
 904              	.LVL119:
1067:Generated_Source\PSoC6\pdl\middleware\em_eeprom/cy_em_eeprom.c ****                     countMs--;
 905              		.loc 1 1067 0 discriminator 2
 906 0038 FFF7FEFF 		bl	Cy_Flash_IsOperationComplete
 907              	.LVL120:
1068:Generated_Source\PSoC6\pdl\middleware\em_eeprom/cy_em_eeprom.c ****                 }
 908              		.loc 1 1068 0 discriminator 2
 909 003c 013C     		subs	r4, r4, #1
 910              	.LVL121:
1070:Generated_Source\PSoC6\pdl\middleware\em_eeprom/cy_em_eeprom.c **** 
 911              		.loc 1 1070 0 discriminator 2
 912 003e 0D4B     		ldr	r3, .L87+4
 913 0040 9842     		cmp	r0, r3
 914 0042 01D1     		bne	.L79
1070:Generated_Source\PSoC6\pdl\middleware\em_eeprom/cy_em_eeprom.c **** 
 915              		.loc 1 1070 0 is_stmt 0 discriminator 1
 916 0044 002C     		cmp	r4, #0
 917 0046 F4D1     		bne	.L80
 918              	.L79:
1072:Generated_Source\PSoC6\pdl\middleware\em_eeprom/cy_em_eeprom.c ****                 {
 919              		.loc 1 1072 0 is_stmt 1
 920 0048 18B1     		cbz	r0, .L85
 921 004a 04E0     		b	.L78
 922              	.LVL122:
 923              	.L84:
 924              	.LBE4:
1053:Generated_Source\PSoC6\pdl\middleware\em_eeprom/cy_em_eeprom.c ****             }
 925              		.loc 1 1053 0
 926 004c 4FF00008 		mov	r8, #0
 927              	.LVL123:
 928 0050 01E0     		b	.L78
 929              	.LVL124:
 930              	.L85:
 931              	.LBB5:
1074:Generated_Source\PSoC6\pdl\middleware\em_eeprom/cy_em_eeprom.c ****                 }
 932              		.loc 1 1074 0
 933 0052 4FF00008 		mov	r8, #0
 934              	.LVL125:
 935              	.L78:
 936              	.LBE5:
1079:Generated_Source\PSoC6\pdl\middleware\em_eeprom/cy_em_eeprom.c ****         {
 937              		.loc 1 1079 0
 938 0056 B8F1000F 		cmp	r8, #0
ARM GAS  C:\Users\eduar\AppData\Local\Temp\ccwtx1iP.s 			page 42


 939 005a 05D1     		bne	.L81
1082:Generated_Source\PSoC6\pdl\middleware\em_eeprom/cy_em_eeprom.c ****         }
 940              		.loc 1 1082 0
 941 005c B369     		ldr	r3, [r6, #24]
 942 005e ED1A     		subs	r5, r5, r3
 943              	.LVL126:
 944 0060 3368     		ldr	r3, [r6]
 945 0062 1D44     		add	r5, r5, r3
 946              	.LVL127:
1089:Generated_Source\PSoC6\pdl\middleware\em_eeprom/cy_em_eeprom.c **** 
 947              		.loc 1 1089 0
 948 0064 013F     		subs	r7, r7, #1
 949              	.LVL128:
 950 0066 D6D1     		bne	.L82
 951              	.L81:
1092:Generated_Source\PSoC6\pdl\middleware\em_eeprom/cy_em_eeprom.c **** 
 952              		.loc 1 1092 0
 953 0068 4046     		mov	r0, r8
 954 006a BDE8F081 		pop	{r4, r5, r6, r7, r8, pc}
 955              	.LVL129:
 956              	.L88:
 957 006e 00BF     		.align	2
 958              	.L87:
 959 0070 01005000 		.word	5242881
 960 0074 02005000 		.word	5242882
 961 0078 04006E00 		.word	7208964
 962              		.cfi_endproc
 963              	.LFE143:
 964              		.size	EraseRow, .-EraseRow
 965              		.section	.text.Cy_Em_EEPROM_Init,"ax",%progbits
 966              		.align	2
 967              		.global	Cy_Em_EEPROM_Init
 968              		.thumb
 969              		.thumb_func
 970              		.type	Cy_Em_EEPROM_Init, %function
 971              	Cy_Em_EEPROM_Init:
 972              	.LFB132:
  91:Generated_Source\PSoC6\pdl\middleware\em_eeprom/cy_em_eeprom.c ****     cy_en_em_eeprom_status_t ret = CY_EM_EEPROM_BAD_PARAM;
 973              		.loc 1 91 0
 974              		.cfi_startproc
 975              		@ args = 0, pretend = 0, frame = 0
 976              		@ frame_needed = 0, uses_anonymous_args = 0
 977              	.LVL130:
 978 0000 F8B5     		push	{r3, r4, r5, r6, r7, lr}
 979              		.cfi_def_cfa_offset 24
 980              		.cfi_offset 3, -24
 981              		.cfi_offset 4, -20
 982              		.cfi_offset 5, -16
 983              		.cfi_offset 6, -12
 984              		.cfi_offset 7, -8
 985              		.cfi_offset 14, -4
 986              	.LVL131:
  94:Generated_Source\PSoC6\pdl\middleware\em_eeprom/cy_em_eeprom.c ****         (config->wearLevelingFactor <= CY_EM_EEPROM_MAX_WEAR_LEVELING_FACTOR) && (config->eepromSiz
 987              		.loc 1 94 0
 988 0002 0029     		cmp	r1, #0
 989 0004 3DD0     		beq	.L92
  94:Generated_Source\PSoC6\pdl\middleware\em_eeprom/cy_em_eeprom.c ****         (config->wearLevelingFactor <= CY_EM_EEPROM_MAX_WEAR_LEVELING_FACTOR) && (config->eepromSiz
ARM GAS  C:\Users\eduar\AppData\Local\Temp\ccwtx1iP.s 			page 43


 990              		.loc 1 94 0 is_stmt 0 discriminator 1
 991 0006 0028     		cmp	r0, #0
 992 0008 3DD0     		beq	.L93
  94:Generated_Source\PSoC6\pdl\middleware\em_eeprom/cy_em_eeprom.c ****         (config->wearLevelingFactor <= CY_EM_EEPROM_MAX_WEAR_LEVELING_FACTOR) && (config->eepromSiz
 993              		.loc 1 94 0 discriminator 2
 994 000a C368     		ldr	r3, [r0, #12]
 995 000c 002B     		cmp	r3, #0
 996 000e 3CD0     		beq	.L94
  95:Generated_Source\PSoC6\pdl\middleware\em_eeprom/cy_em_eeprom.c ****     {
 997              		.loc 1 95 0 is_stmt 1 discriminator 3
 998 0010 4368     		ldr	r3, [r0, #4]
  94:Generated_Source\PSoC6\pdl\middleware\em_eeprom/cy_em_eeprom.c ****         (config->wearLevelingFactor <= CY_EM_EEPROM_MAX_WEAR_LEVELING_FACTOR) && (config->eepromSiz
 999              		.loc 1 94 0 discriminator 3
 1000 0012 0A2B     		cmp	r3, #10
 1001 0014 3BD8     		bhi	.L95
  95:Generated_Source\PSoC6\pdl\middleware\em_eeprom/cy_em_eeprom.c ****     {
 1002              		.loc 1 95 0
 1003 0016 0768     		ldr	r7, [r0]
 1004 0018 002F     		cmp	r7, #0
 1005 001a 3AD0     		beq	.L96
 1006 001c 0E46     		mov	r6, r1
 1007 001e 0446     		mov	r4, r0
  97:Generated_Source\PSoC6\pdl\middleware\em_eeprom/cy_em_eeprom.c **** 
 1008              		.loc 1 97 0
 1009 0020 FFF7FEFF 		bl	CheckRanges
 1010              	.LVL132:
  99:Generated_Source\PSoC6\pdl\middleware\em_eeprom/cy_em_eeprom.c ****         {
 1011              		.loc 1 99 0
 1012 0024 0546     		mov	r5, r0
 1013 0026 0028     		cmp	r0, #0
 1014 0028 34D1     		bne	.L90
 102:Generated_Source\PSoC6\pdl\middleware\em_eeprom/cy_em_eeprom.c ****             context->wearLevelingFactor = config->wearLevelingFactor;
 1015              		.loc 1 102 0
 1016 002a F760     		str	r7, [r6, #12]
 103:Generated_Source\PSoC6\pdl\middleware\em_eeprom/cy_em_eeprom.c ****             context->redundantCopy = config->redundantCopy;
 1017              		.loc 1 103 0
 1018 002c 6368     		ldr	r3, [r4, #4]
 1019 002e 3361     		str	r3, [r6, #16]
 104:Generated_Source\PSoC6\pdl\middleware\em_eeprom/cy_em_eeprom.c ****             context->blockingWrite = config->blockingWrite;
 1020              		.loc 1 104 0
 1021 0030 237A     		ldrb	r3, [r4, #8]	@ zero_extendqisi2
 1022 0032 3375     		strb	r3, [r6, #20]
 105:Generated_Source\PSoC6\pdl\middleware\em_eeprom/cy_em_eeprom.c ****             context->userFlashStartAddr = config->userFlashStartAddr;
 1023              		.loc 1 105 0
 1024 0034 637A     		ldrb	r3, [r4, #9]	@ zero_extendqisi2
 1025 0036 7375     		strb	r3, [r6, #21]
 106:Generated_Source\PSoC6\pdl\middleware\em_eeprom/cy_em_eeprom.c ****             /* Store frequently used data for internal use */
 1026              		.loc 1 106 0
 1027 0038 E368     		ldr	r3, [r4, #12]
 1028 003a B361     		str	r3, [r6, #24]
 108:Generated_Source\PSoC6\pdl\middleware\em_eeprom/cy_em_eeprom.c ****             context->wlEndAddr = ((CY_EM_EEPROM_GET_EEPROM_SIZE(context->numberOfRows) * config->we
 1029              		.loc 1 108 0
 1030 003c 2368     		ldr	r3, [r4]
 1031 003e 1A0A     		lsrs	r2, r3, #8
 1032 0040 13F0FF03 		ands	r3, r3, #255
 1033 0044 00D0     		beq	.L91
 1034 0046 0123     		movs	r3, #1
ARM GAS  C:\Users\eduar\AppData\Local\Temp\ccwtx1iP.s 			page 44


 1035              	.L91:
 108:Generated_Source\PSoC6\pdl\middleware\em_eeprom/cy_em_eeprom.c ****             context->wlEndAddr = ((CY_EM_EEPROM_GET_EEPROM_SIZE(context->numberOfRows) * config->we
 1036              		.loc 1 108 0 is_stmt 0 discriminator 4
 1037 0048 1344     		add	r3, r3, r2
 1038 004a 7360     		str	r3, [r6, #4]
 109:Generated_Source\PSoC6\pdl\middleware\em_eeprom/cy_em_eeprom.c ****                     config->userFlashStartAddr);
 1039              		.loc 1 109 0 is_stmt 1 discriminator 4
 1040 004c 6268     		ldr	r2, [r4, #4]
 1041 004e 02FB03F3 		mul	r3, r2, r3
 110:Generated_Source\PSoC6\pdl\middleware\em_eeprom/cy_em_eeprom.c ****             /* Find last written EEPROM row and store it for quick access */
 1042              		.loc 1 110 0 discriminator 4
 1043 0052 E268     		ldr	r2, [r4, #12]
 109:Generated_Source\PSoC6\pdl\middleware\em_eeprom/cy_em_eeprom.c ****                     config->userFlashStartAddr);
 1044              		.loc 1 109 0 discriminator 4
 1045 0054 02EB4323 		add	r3, r2, r3, lsl #9
 1046 0058 3446     		mov	r4, r6
 1047              	.LVL133:
 1048 005a 44F8083B 		str	r3, [r4], #8
 112:Generated_Source\PSoC6\pdl\middleware\em_eeprom/cy_em_eeprom.c **** 
 1049              		.loc 1 112 0 discriminator 4
 1050 005e 3146     		mov	r1, r6
 1051 0060 2046     		mov	r0, r4
 1052              	.LVL134:
 1053 0062 FFF7FEFF 		bl	FindLastWrittenRow
 1054              	.LVL135:
 114:Generated_Source\PSoC6\pdl\middleware\em_eeprom/cy_em_eeprom.c ****             {
 1055              		.loc 1 114 0 discriminator 4
 1056 0066 B368     		ldr	r3, [r6, #8]
 1057 0068 1B68     		ldr	r3, [r3]
 1058 006a 9BB9     		cbnz	r3, .L90
 114:Generated_Source\PSoC6\pdl\middleware\em_eeprom/cy_em_eeprom.c ****             {
 1059              		.loc 1 114 0 is_stmt 0 discriminator 1
 1060 006c 337D     		ldrb	r3, [r6, #20]	@ zero_extendqisi2
 1061 006e 8BB1     		cbz	r3, .L90
 119:Generated_Source\PSoC6\pdl\middleware\em_eeprom/cy_em_eeprom.c ****                 
 1062              		.loc 1 119 0 is_stmt 1
 1063 0070 3046     		mov	r0, r6
 1064 0072 FFF7FEFF 		bl	FillChecksum
 1065              	.LVL136:
 1066 0076 0546     		mov	r5, r0
 1067              	.LVL137:
 122:Generated_Source\PSoC6\pdl\middleware\em_eeprom/cy_em_eeprom.c ****             }
 1068              		.loc 1 122 0
 1069 0078 3146     		mov	r1, r6
 1070 007a 2046     		mov	r0, r4
 1071              	.LVL138:
 1072 007c FFF7FEFF 		bl	FindLastWrittenRow
 1073              	.LVL139:
 1074 0080 08E0     		b	.L90
 1075              	.LVL140:
 1076              	.L92:
  92:Generated_Source\PSoC6\pdl\middleware\em_eeprom/cy_em_eeprom.c **** 
 1077              		.loc 1 92 0
 1078 0082 054D     		ldr	r5, .L98
 1079 0084 06E0     		b	.L90
 1080              	.L93:
 1081 0086 044D     		ldr	r5, .L98
ARM GAS  C:\Users\eduar\AppData\Local\Temp\ccwtx1iP.s 			page 45


 1082 0088 04E0     		b	.L90
 1083              	.L94:
 1084 008a 034D     		ldr	r5, .L98
 1085 008c 02E0     		b	.L90
 1086              	.L95:
 1087 008e 024D     		ldr	r5, .L98
 1088 0090 00E0     		b	.L90
 1089              	.L96:
 1090 0092 014D     		ldr	r5, .L98
 1091              	.LVL141:
 1092              	.L90:
 128:Generated_Source\PSoC6\pdl\middleware\em_eeprom/cy_em_eeprom.c **** 
 1093              		.loc 1 128 0
 1094 0094 2846     		mov	r0, r5
 1095 0096 F8BD     		pop	{r3, r4, r5, r6, r7, pc}
 1096              	.LVL142:
 1097              	.L99:
 1098              		.align	2
 1099              	.L98:
 1100 0098 01006E00 		.word	7208961
 1101              		.cfi_endproc
 1102              	.LFE132:
 1103              		.size	Cy_Em_EEPROM_Init, .-Cy_Em_EEPROM_Init
 1104              		.section	.text.Cy_Em_EEPROM_Read,"ax",%progbits
 1105              		.align	2
 1106              		.global	Cy_Em_EEPROM_Read
 1107              		.thumb
 1108              		.thumb_func
 1109              		.type	Cy_Em_EEPROM_Read, %function
 1110              	Cy_Em_EEPROM_Read:
 1111              	.LFB133:
 168:Generated_Source\PSoC6\pdl\middleware\em_eeprom/cy_em_eeprom.c ****     cy_en_em_eeprom_status_t ret = CY_EM_EEPROM_BAD_PARAM;
 1112              		.loc 1 168 0
 1113              		.cfi_startproc
 1114              		@ args = 0, pretend = 0, frame = 32
 1115              		@ frame_needed = 0, uses_anonymous_args = 0
 1116              	.LVL143:
 1117 0000 2DE9F04F 		push	{r4, r5, r6, r7, r8, r9, r10, fp, lr}
 1118              		.cfi_def_cfa_offset 36
 1119              		.cfi_offset 4, -36
 1120              		.cfi_offset 5, -32
 1121              		.cfi_offset 6, -28
 1122              		.cfi_offset 7, -24
 1123              		.cfi_offset 8, -20
 1124              		.cfi_offset 9, -16
 1125              		.cfi_offset 10, -12
 1126              		.cfi_offset 11, -8
 1127              		.cfi_offset 14, -4
 1128 0004 8BB0     		sub	sp, sp, #44
 1129              		.cfi_def_cfa_offset 80
 1130              	.LVL144:
 178:Generated_Source\PSoC6\pdl\middleware\em_eeprom/cy_em_eeprom.c **** 
 1131              		.loc 1 178 0
 1132 0006 0591     		str	r1, [sp, #20]
 1133              	.LVL145:
 181:Generated_Source\PSoC6\pdl\middleware\em_eeprom/cy_em_eeprom.c ****     {
 1134              		.loc 1 181 0
ARM GAS  C:\Users\eduar\AppData\Local\Temp\ccwtx1iP.s 			page 46


 1135 0008 002A     		cmp	r2, #0
 1136 000a 00F0E680 		beq	.L122
 1137 000e 8046     		mov	r8, r0
 1138 0010 1E46     		mov	r6, r3
 1139 0012 9146     		mov	r9, r2
 181:Generated_Source\PSoC6\pdl\middleware\em_eeprom/cy_em_eeprom.c ****     {
 1140              		.loc 1 181 0 is_stmt 0 discriminator 1
 1141 0014 1318     		adds	r3, r2, r0
 1142              	.LVL146:
 1143 0016 1A46     		mov	r2, r3
 1144              	.LVL147:
 1145 0018 0793     		str	r3, [sp, #28]
 1146 001a F368     		ldr	r3, [r6, #12]
 1147 001c 9A42     		cmp	r2, r3
 1148 001e 00F2DF80 		bhi	.L123
 181:Generated_Source\PSoC6\pdl\middleware\em_eeprom/cy_em_eeprom.c ****     {
 1149              		.loc 1 181 0 discriminator 2
 1150 0022 0029     		cmp	r1, #0
 1151 0024 00F0DF80 		beq	.L124
 1152              	.LVL148:
 1153              	.LBB6:
 186:Generated_Source\PSoC6\pdl\middleware\em_eeprom/cy_em_eeprom.c ****         uint32_t updateAddrFlag = 0u;
 1154              		.loc 1 186 0 is_stmt 1
 1155 0028 B068     		ldr	r0, [r6, #8]
 1156              	.LVL149:
 1157 002a 0368     		ldr	r3, [r0]
 1158 002c 0993     		str	r3, [sp, #36]
 1159              	.LVL150:
 192:Generated_Source\PSoC6\pdl\middleware\em_eeprom/cy_em_eeprom.c ****                               (rdAddr / CY_EM_EEPROM_EEPROM_DATA_LEN)) + 1u;
 1160              		.loc 1 192 0
 1161 002e 02F1FF3B 		add	fp, r2, #-1
 193:Generated_Source\PSoC6\pdl\middleware\em_eeprom/cy_em_eeprom.c **** 
 1162              		.loc 1 193 0
 1163 0032 4FEA1823 		lsr	r3, r8, #8
 1164              	.LVL151:
 192:Generated_Source\PSoC6\pdl\middleware\em_eeprom/cy_em_eeprom.c ****                               (rdAddr / CY_EM_EEPROM_EEPROM_DATA_LEN)) + 1u;
 1165              		.loc 1 192 0
 1166 0036 C3EB1B2B 		rsb	fp, r3, fp, lsr #8
 1167 003a 0BF1010B 		add	fp, fp, #1
 1168              	.LVL152:
 199:Generated_Source\PSoC6\pdl\middleware\em_eeprom/cy_em_eeprom.c ****                               (CY_EM_EEPROM_FLASH_SIZEOF_ROW * context->numberOfRows)) *
 1169              		.loc 1 199 0
 1170 003e B469     		ldr	r4, [r6, #24]
 1171 0040 031B     		subs	r3, r0, r4
 200:Generated_Source\PSoC6\pdl\middleware\em_eeprom/cy_em_eeprom.c ****                               (CY_EM_EEPROM_FLASH_SIZEOF_ROW * context->numberOfRows)) +
 1172              		.loc 1 200 0
 1173 0042 7268     		ldr	r2, [r6, #4]
 1174 0044 5502     		lsls	r5, r2, #9
 199:Generated_Source\PSoC6\pdl\middleware\em_eeprom/cy_em_eeprom.c ****                               (CY_EM_EEPROM_FLASH_SIZEOF_ROW * context->numberOfRows)) *
 1175              		.loc 1 199 0
 1176 0046 B3FBF5F3 		udiv	r3, r3, r5
 200:Generated_Source\PSoC6\pdl\middleware\em_eeprom/cy_em_eeprom.c ****                               (CY_EM_EEPROM_FLASH_SIZEOF_ROW * context->numberOfRows)) +
 1177              		.loc 1 200 0
 1178 004a 03FB02F3 		mul	r3, r3, r2
 199:Generated_Source\PSoC6\pdl\middleware\em_eeprom/cy_em_eeprom.c ****                               (CY_EM_EEPROM_FLASH_SIZEOF_ROW * context->numberOfRows)) *
 1179              		.loc 1 199 0
 1180 004e 04EB4323 		add	r3, r4, r3, lsl #9
ARM GAS  C:\Users\eduar\AppData\Local\Temp\ccwtx1iP.s 			page 47


 1181 0052 0393     		str	r3, [sp, #12]
 1182              	.LVL153:
 205:Generated_Source\PSoC6\pdl\middleware\em_eeprom/cy_em_eeprom.c ****         {
 1183              		.loc 1 205 0
 1184 0054 0025     		movs	r5, #0
 1185 0056 0EE0     		b	.L102
 1186              	.LVL154:
 1187              	.L105:
 207:Generated_Source\PSoC6\pdl\middleware\em_eeprom/cy_em_eeprom.c ****             {
 1188              		.loc 1 207 0
 1189 0058 B8EB052F 		cmp	r8, r5, lsl #8
 1190 005c 06D3     		bcc	.L125
 207:Generated_Source\PSoC6\pdl\middleware\em_eeprom/cy_em_eeprom.c ****             {
 1191              		.loc 1 207 0 is_stmt 0 discriminator 1
 1192 005e 6B1C     		adds	r3, r5, #1
 1193 0060 1B02     		lsls	r3, r3, #8
 1194 0062 013B     		subs	r3, r3, #1
 1195 0064 9845     		cmp	r8, r3
 1196 0066 03D9     		bls	.L126
 207:Generated_Source\PSoC6\pdl\middleware\em_eeprom/cy_em_eeprom.c ****             {
 1197              		.loc 1 207 0
 1198 0068 0023     		movs	r3, #0
 1199 006a 02E0     		b	.L103
 1200              	.L125:
 1201 006c 0023     		movs	r3, #0
 1202 006e 00E0     		b	.L103
 1203              	.L126:
 1204 0070 0123     		movs	r3, #1
 1205              	.L103:
 207:Generated_Source\PSoC6\pdl\middleware\em_eeprom/cy_em_eeprom.c ****             {
 1206              		.loc 1 207 0 discriminator 6
 1207 0072 1BB9     		cbnz	r3, .L104
 205:Generated_Source\PSoC6\pdl\middleware\em_eeprom/cy_em_eeprom.c ****         {
 1208              		.loc 1 205 0 is_stmt 1 discriminator 2
 1209 0074 0135     		adds	r5, r5, #1
 1210              	.LVL155:
 1211              	.L102:
 205:Generated_Source\PSoC6\pdl\middleware\em_eeprom/cy_em_eeprom.c ****         {
 1212              		.loc 1 205 0 is_stmt 0 discriminator 1
 1213 0076 9542     		cmp	r5, r2
 1214 0078 EED3     		bcc	.L105
 1215              	.LBE6:
 176:Generated_Source\PSoC6\pdl\middleware\em_eeprom/cy_em_eeprom.c ****     uint32_t dataStartEepromRowNum = 0u;
 1216              		.loc 1 176 0 is_stmt 1
 1217 007a 0025     		movs	r5, #0
 1218              	.LVL156:
 1219              	.L104:
 1220              	.LBB13:
 216:Generated_Source\PSoC6\pdl\middleware\em_eeprom/cy_em_eeprom.c **** 
 1221              		.loc 1 216 0
 1222 007c 039B     		ldr	r3, [sp, #12]
 1223 007e C01A     		subs	r0, r0, r3
 1224              	.LVL157:
 1225 0080 430A     		lsrs	r3, r0, #9
 1226 0082 1846     		mov	r0, r3
 1227 0084 0693     		str	r3, [sp, #24]
 1228              	.LVL158:
ARM GAS  C:\Users\eduar\AppData\Local\Temp\ccwtx1iP.s 			page 48


 219:Generated_Source\PSoC6\pdl\middleware\em_eeprom/cy_em_eeprom.c ****         {
 1229              		.loc 1 219 0
 1230 0086 3369     		ldr	r3, [r6, #16]
 1231 0088 012B     		cmp	r3, #1
 1232 008a 09D9     		bls	.L127
 1233              	.LBB7:
 221:Generated_Source\PSoC6\pdl\middleware\em_eeprom/cy_em_eeprom.c **** 
 1234              		.loc 1 221 0
 1235 008c 05EB0B03 		add	r3, r5, fp
 1236 0090 013B     		subs	r3, r3, #1
 1237              	.LVL159:
 224:Generated_Source\PSoC6\pdl\middleware\em_eeprom/cy_em_eeprom.c ****                               ((dataEndEepromRowNum > actEepromRowNum) ? 1u : 0u);
 1238              		.loc 1 224 0
 1239 0092 8542     		cmp	r5, r0
 1240 0094 07D8     		bhi	.L128
 224:Generated_Source\PSoC6\pdl\middleware\em_eeprom/cy_em_eeprom.c ****                               ((dataEndEepromRowNum > actEepromRowNum) ? 1u : 0u);
 1241              		.loc 1 224 0 is_stmt 0 discriminator 1
 1242 0096 9842     		cmp	r0, r3
 1243 0098 08D2     		bcs	.L129
 224:Generated_Source\PSoC6\pdl\middleware\em_eeprom/cy_em_eeprom.c ****                               ((dataEndEepromRowNum > actEepromRowNum) ? 1u : 0u);
 1244              		.loc 1 224 0
 1245 009a 0123     		movs	r3, #1
 1246              	.LVL160:
 1247 009c 0493     		str	r3, [sp, #16]
 1248 009e 07E0     		b	.L106
 1249              	.LVL161:
 1250              	.L127:
 1251              	.LBE7:
 187:Generated_Source\PSoC6\pdl\middleware\em_eeprom/cy_em_eeprom.c **** 
 1252              		.loc 1 187 0 is_stmt 1
 1253 00a0 0023     		movs	r3, #0
 1254 00a2 0493     		str	r3, [sp, #16]
 1255 00a4 04E0     		b	.L106
 1256              	.LVL162:
 1257              	.L128:
 1258              	.LBB8:
 224:Generated_Source\PSoC6\pdl\middleware\em_eeprom/cy_em_eeprom.c ****                               ((dataEndEepromRowNum > actEepromRowNum) ? 1u : 0u);
 1259              		.loc 1 224 0
 1260 00a6 0123     		movs	r3, #1
 1261              	.LVL163:
 1262 00a8 0493     		str	r3, [sp, #16]
 1263 00aa 01E0     		b	.L106
 1264              	.LVL164:
 1265              	.L129:
 1266 00ac 0023     		movs	r3, #0
 1267              	.LVL165:
 1268 00ae 0493     		str	r3, [sp, #16]
 1269              	.LVL166:
 1270              	.L106:
 1271              	.LBE8:
 183:Generated_Source\PSoC6\pdl\middleware\em_eeprom/cy_em_eeprom.c ****         uint32_t rdSize = size;
 1272              		.loc 1 183 0
 1273 00b0 C246     		mov	r10, r8
 229:Generated_Source\PSoC6\pdl\middleware\em_eeprom/cy_em_eeprom.c ****         {
 1274              		.loc 1 229 0
 1275 00b2 0027     		movs	r7, #0
 1276              	.LBE13:
ARM GAS  C:\Users\eduar\AppData\Local\Temp\ccwtx1iP.s 			page 49


 169:Generated_Source\PSoC6\pdl\middleware\em_eeprom/cy_em_eeprom.c ****     uint32_t i;
 1277              		.loc 1 169 0
 1278 00b4 4F4B     		ldr	r3, .L135
 1279 00b6 CDF82080 		str	r8, [sp, #32]
 1280 00ba 8846     		mov	r8, r1
 1281              	.LVL167:
 1282              	.LBB14:
 229:Generated_Source\PSoC6\pdl\middleware\em_eeprom/cy_em_eeprom.c ****         {
 1283              		.loc 1 229 0
 1284 00bc 35E0     		b	.L107
 1285              	.LVL168:
 1286              	.L113:
 231:Generated_Source\PSoC6\pdl\middleware\em_eeprom/cy_em_eeprom.c ****             curRowOffset = CY_EM_EEPROM_EEPROM_DATA_LEN + (rdAddr % CY_EM_EEPROM_EEPROM_DATA_LEN);
 1287              		.loc 1 231 0
 1288 00be 039B     		ldr	r3, [sp, #12]
 1289              	.LVL169:
 1290 00c0 03EB4520 		add	r0, r3, r5, lsl #9
 1291              	.LVL170:
 232:Generated_Source\PSoC6\pdl\middleware\em_eeprom/cy_em_eeprom.c **** 
 1292              		.loc 1 232 0
 1293 00c4 5FFA8AF4 		uxtb	r4, r10
 1294 00c8 04F58071 		add	r1, r4, #256
 1295              	.LVL171:
 237:Generated_Source\PSoC6\pdl\middleware\em_eeprom/cy_em_eeprom.c ****             {
 1296              		.loc 1 237 0
 1297 00cc 0137     		adds	r7, r7, #1
 1298              	.LVL172:
 1299 00ce BB45     		cmp	fp, r7
 1300 00d0 02D9     		bls	.L130
 239:Generated_Source\PSoC6\pdl\middleware\em_eeprom/cy_em_eeprom.c ****             }
 1301              		.loc 1 239 0
 1302 00d2 C4F58074 		rsb	r4, r4, #256
 1303              	.LVL173:
 1304 00d6 00E0     		b	.L108
 1305              	.LVL174:
 1306              	.L130:
 243:Generated_Source\PSoC6\pdl\middleware\em_eeprom/cy_em_eeprom.c ****             }
 1307              		.loc 1 243 0
 1308 00d8 4C46     		mov	r4, r9
 1309              	.L108:
 1310              	.LVL175:
 249:Generated_Source\PSoC6\pdl\middleware\em_eeprom/cy_em_eeprom.c ****             {
 1311              		.loc 1 249 0
 1312 00da 049B     		ldr	r3, [sp, #16]
 1313 00dc 63B1     		cbz	r3, .L109
 249:Generated_Source\PSoC6\pdl\middleware\em_eeprom/cy_em_eeprom.c ****             {
 1314              		.loc 1 249 0 is_stmt 0 discriminator 1
 1315 00de 069B     		ldr	r3, [sp, #24]
 1316 00e0 9D42     		cmp	r5, r3
 1317 00e2 09D9     		bls	.L109
 251:Generated_Source\PSoC6\pdl\middleware\em_eeprom/cy_em_eeprom.c **** 
 1318              		.loc 1 251 0 is_stmt 1
 1319 00e4 7368     		ldr	r3, [r6, #4]
 1320 00e6 A0EB4320 		sub	r0, r0, r3, lsl #9
 1321              	.LVL176:
 253:Generated_Source\PSoC6\pdl\middleware\em_eeprom/cy_em_eeprom.c ****                 {
 1322              		.loc 1 253 0
ARM GAS  C:\Users\eduar\AppData\Local\Temp\ccwtx1iP.s 			page 50


 1323 00ea B269     		ldr	r2, [r6, #24]
 1324 00ec 9042     		cmp	r0, r2
 1325 00ee 03D2     		bcs	.L109
 255:Generated_Source\PSoC6\pdl\middleware\em_eeprom/cy_em_eeprom.c ****                         ((context->numberOfRows - curRdEepromRowNum) * CY_EM_EEPROM_FLASH_SIZEOF_RO
 1326              		.loc 1 255 0
 1327 00f0 3068     		ldr	r0, [r6]
 1328              	.LVL177:
 256:Generated_Source\PSoC6\pdl\middleware\em_eeprom/cy_em_eeprom.c ****                 }
 1329              		.loc 1 256 0
 1330 00f2 5B1B     		subs	r3, r3, r5
 1331              	.LVL178:
 255:Generated_Source\PSoC6\pdl\middleware\em_eeprom/cy_em_eeprom.c ****                         ((context->numberOfRows - curRdEepromRowNum) * CY_EM_EEPROM_FLASH_SIZEOF_RO
 1332              		.loc 1 255 0
 1333 00f4 A0EB4320 		sub	r0, r0, r3, lsl #9
 1334              	.LVL179:
 1335              	.L109:
 260:Generated_Source\PSoC6\pdl\middleware\em_eeprom/cy_em_eeprom.c ****             {
 1336              		.loc 1 260 0
 1337 00f8 337D     		ldrb	r3, [r6, #20]	@ zero_extendqisi2
 1338 00fa 5BB1     		cbz	r3, .L110
 265:Generated_Source\PSoC6\pdl\middleware\em_eeprom/cy_em_eeprom.c **** 
 1339              		.loc 1 265 0
 1340 00fc 0096     		str	r6, [sp]
 1341 00fe 2346     		mov	r3, r4
 1342 0100 0A46     		mov	r2, r1
 1343 0102 4146     		mov	r1, r8
 1344              	.LVL180:
 1345 0104 FFF7FEFF 		bl	CheckCrcAndCopy
 1346              	.LVL181:
 267:Generated_Source\PSoC6\pdl\middleware\em_eeprom/cy_em_eeprom.c ****                 {
 1347              		.loc 1 267 0
 1348 0108 0346     		mov	r3, r0
 1349 010a 48B1     		cbz	r0, .L112
 1350 010c 8246     		mov	r10, r0
 1351              	.LVL182:
 1352 010e DDF82080 		ldr	r8, [sp, #32]
 1353              	.LVL183:
 1354 0112 0FE0     		b	.L111
 1355              	.LVL184:
 1356              	.L110:
 275:Generated_Source\PSoC6\pdl\middleware\em_eeprom/cy_em_eeprom.c ****                              (void *)(startRowAddr + curRowOffset),
 1357              		.loc 1 275 0
 1358 0114 2246     		mov	r2, r4
 1359 0116 0144     		add	r1, r1, r0
 1360              	.LVL185:
 1361 0118 4046     		mov	r0, r8
 1362              	.LVL186:
 1363 011a FFF7FEFF 		bl	memcpy
 1364              	.LVL187:
 280:Generated_Source\PSoC6\pdl\middleware\em_eeprom/cy_em_eeprom.c ****             }
 1365              		.loc 1 280 0
 1366 011e 0023     		movs	r3, #0
 1367              	.LVL188:
 1368              	.L112:
 284:Generated_Source\PSoC6\pdl\middleware\em_eeprom/cy_em_eeprom.c ****             rdSize -= numBytesToRead;
 1369              		.loc 1 284 0 discriminator 2
 1370 0120 A244     		add	r10, r10, r4
ARM GAS  C:\Users\eduar\AppData\Local\Temp\ccwtx1iP.s 			page 51


 1371              	.LVL189:
 285:Generated_Source\PSoC6\pdl\middleware\em_eeprom/cy_em_eeprom.c ****             eeData += numBytesToRead;
 1372              		.loc 1 285 0 discriminator 2
 1373 0122 C4EB0909 		rsb	r9, r4, r9
 1374              	.LVL190:
 286:Generated_Source\PSoC6\pdl\middleware\em_eeprom/cy_em_eeprom.c ****             curRdEepromRowNum++;
 1375              		.loc 1 286 0 discriminator 2
 1376 0126 A044     		add	r8, r8, r4
 1377              	.LVL191:
 287:Generated_Source\PSoC6\pdl\middleware\em_eeprom/cy_em_eeprom.c ****         }
 1378              		.loc 1 287 0 discriminator 2
 1379 0128 0135     		adds	r5, r5, #1
 1380              	.LVL192:
 1381              	.L107:
 229:Generated_Source\PSoC6\pdl\middleware\em_eeprom/cy_em_eeprom.c ****         {
 1382              		.loc 1 229 0 discriminator 1
 1383 012a 5F45     		cmp	r7, fp
 1384 012c C7D3     		bcc	.L113
 1385 012e 9A46     		mov	r10, r3
 1386              	.LVL193:
 1387 0130 DDF82080 		ldr	r8, [sp, #32]
 1388              	.LVL194:
 1389              	.L111:
 298:Generated_Source\PSoC6\pdl\middleware\em_eeprom/cy_em_eeprom.c ****         {
 1390              		.loc 1 298 0
 1391 0134 5346     		mov	r3, r10
 1392 0136 002B     		cmp	r3, #0
 1393 0138 57D1     		bne	.L101
 298:Generated_Source\PSoC6\pdl\middleware\em_eeprom/cy_em_eeprom.c ****         {
 1394              		.loc 1 298 0 is_stmt 0 discriminator 1
 1395 013a 099B     		ldr	r3, [sp, #36]
 1396              	.LVL195:
 1397 013c 002B     		cmp	r3, #0
 1398 013e 54D0     		beq	.L101
 300:Generated_Source\PSoC6\pdl\middleware\em_eeprom/cy_em_eeprom.c ****             numRowReads--;
 1399              		.loc 1 300 0 is_stmt 1
 1400 0140 7568     		ldr	r5, [r6, #4]
 1401              	.LVL196:
 1402 0142 9D42     		cmp	r5, r3
 1403 0144 28BF     		it	cs
 1404 0146 1D46     		movcs	r5, r3
 1405              	.LVL197:
 301:Generated_Source\PSoC6\pdl\middleware\em_eeprom/cy_em_eeprom.c **** 
 1406              		.loc 1 301 0
 1407 0148 013D     		subs	r5, r5, #1
 1408              	.LVL198:
 303:Generated_Source\PSoC6\pdl\middleware\em_eeprom/cy_em_eeprom.c ****             {
 1409              		.loc 1 303 0
 1410 014a 5D1B     		subs	r5, r3, r5
 1411              	.LVL199:
 1412 014c DDF81490 		ldr	r9, [sp, #20]
 1413              	.LVL200:
 1414 0150 079F     		ldr	r7, [sp, #28]
 1415 0152 1C46     		mov	r4, r3
 1416 0154 3EE0     		b	.L114
 1417              	.LVL201:
 1418              	.L121:
ARM GAS  C:\Users\eduar\AppData\Local\Temp\ccwtx1iP.s 			page 52


 305:Generated_Source\PSoC6\pdl\middleware\em_eeprom/cy_em_eeprom.c **** 
 1419              		.loc 1 305 0
 1420 0156 3146     		mov	r1, r6
 1421 0158 2846     		mov	r0, r5
 1422 015a FFF7FEFF 		bl	GetRowAddrBySeqNum
 1423              	.LVL202:
 307:Generated_Source\PSoC6\pdl\middleware\em_eeprom/cy_em_eeprom.c ****                 {
 1424              		.loc 1 307 0
 1425 015e 8646     		mov	lr, r0
 1426 0160 0028     		cmp	r0, #0
 1427 0162 36D0     		beq	.L115
 1428              	.LBB9:
 310:Generated_Source\PSoC6\pdl\middleware\em_eeprom/cy_em_eeprom.c ****                     uint32_t endAddr    = startAddr + (*(uint32_t *)(startRowAddr + CY_EM_EEPROM_HE
 1429              		.loc 1 310 0
 1430 0164 4368     		ldr	r3, [r0, #4]
 1431              	.LVL203:
 311:Generated_Source\PSoC6\pdl\middleware\em_eeprom/cy_em_eeprom.c **** 
 1432              		.loc 1 311 0
 1433 0166 8168     		ldr	r1, [r0, #8]
 1434 0168 1944     		add	r1, r1, r3
 1435              	.LVL204:
 314:Generated_Source\PSoC6\pdl\middleware\em_eeprom/cy_em_eeprom.c ****                     {
 1436              		.loc 1 314 0
 1437 016a 9845     		cmp	r8, r3
 1438 016c 04D2     		bcs	.L116
 314:Generated_Source\PSoC6\pdl\middleware\em_eeprom/cy_em_eeprom.c ****                     {
 1439              		.loc 1 314 0 is_stmt 0 discriminator 1
 1440 016e 9F42     		cmp	r7, r3
 1441 0170 94BF     		ite	ls
 1442 0172 0022     		movls	r2, #0
 1443 0174 0122     		movhi	r2, #1
 1444 0176 03E0     		b	.L117
 1445              	.L116:
 314:Generated_Source\PSoC6\pdl\middleware\em_eeprom/cy_em_eeprom.c ****                     {
 1446              		.loc 1 314 0 discriminator 2
 1447 0178 8845     		cmp	r8, r1
 1448 017a 2CBF     		ite	cs
 1449 017c 0022     		movcs	r2, #0
 1450 017e 0122     		movcc	r2, #1
 1451              	.L117:
 314:Generated_Source\PSoC6\pdl\middleware\em_eeprom/cy_em_eeprom.c ****                     {
 1452              		.loc 1 314 0 discriminator 4
 1453 0180 3AB3     		cbz	r2, .L115
 1454              	.LBB10:
 316:Generated_Source\PSoC6\pdl\middleware\em_eeprom/cy_em_eeprom.c ****                         uint32_t dstOffset = (startAddr > addr) ? (startAddr - addr): (0u);
 1455              		.loc 1 316 0 is_stmt 1
 1456 0182 9845     		cmp	r8, r3
 1457 0184 02D3     		bcc	.L131
 316:Generated_Source\PSoC6\pdl\middleware\em_eeprom/cy_em_eeprom.c ****                         uint32_t dstOffset = (startAddr > addr) ? (startAddr - addr): (0u);
 1458              		.loc 1 316 0 is_stmt 0 discriminator 1
 1459 0186 C3EB080C 		rsb	ip, r3, r8
 1460 018a 01E0     		b	.L118
 1461              	.L131:
 316:Generated_Source\PSoC6\pdl\middleware\em_eeprom/cy_em_eeprom.c ****                         uint32_t dstOffset = (startAddr > addr) ? (startAddr - addr): (0u);
 1462              		.loc 1 316 0
 1463 018c 4FF0000C 		mov	ip, #0
 1464              	.L118:
ARM GAS  C:\Users\eduar\AppData\Local\Temp\ccwtx1iP.s 			page 53


 1465              	.LVL205:
 317:Generated_Source\PSoC6\pdl\middleware\em_eeprom/cy_em_eeprom.c ****                         rdAddr = (startAddr > addr) ? (startAddr) : (addr);
 1466              		.loc 1 317 0 is_stmt 1 discriminator 4
 1467 0190 9845     		cmp	r8, r3
 1468 0192 02D2     		bcs	.L132
 317:Generated_Source\PSoC6\pdl\middleware\em_eeprom/cy_em_eeprom.c ****                         rdAddr = (startAddr > addr) ? (startAddr) : (addr);
 1469              		.loc 1 317 0 is_stmt 0 discriminator 1
 1470 0194 C8EB0300 		rsb	r0, r8, r3
 1471              	.LVL206:
 1472 0198 00E0     		b	.L119
 1473              	.LVL207:
 1474              	.L132:
 317:Generated_Source\PSoC6\pdl\middleware\em_eeprom/cy_em_eeprom.c ****                         rdAddr = (startAddr > addr) ? (startAddr) : (addr);
 1475              		.loc 1 317 0
 1476 019a 0020     		movs	r0, #0
 1477              	.LVL208:
 1478              	.L119:
 320:Generated_Source\PSoC6\pdl\middleware\em_eeprom/cy_em_eeprom.c **** 
 1479              		.loc 1 320 0 is_stmt 1 discriminator 4
 1480 019c 0CF10C0C 		add	ip, ip, #12
 1481              	.LVL209:
 323:Generated_Source\PSoC6\pdl\middleware\em_eeprom/cy_em_eeprom.c **** 
 1482              		.loc 1 323 0 discriminator 4
 1483 01a0 B942     		cmp	r1, r7
 1484 01a2 28BF     		it	cs
 1485 01a4 3946     		movcs	r1, r7
 1486              	.LVL210:
 1487 01a6 9845     		cmp	r8, r3
 1488 01a8 2CBF     		ite	cs
 1489 01aa C8EB0103 		rsbcs	r3, r8, r1
 1490              	.LVL211:
 1491 01ae CB1A     		subcc	r3, r1, r3
 1492              	.LVL212:
 326:Generated_Source\PSoC6\pdl\middleware\em_eeprom/cy_em_eeprom.c **** 
 1493              		.loc 1 326 0 discriminator 4
 1494 01b0 4844     		add	r0, r0, r9
 1495              	.LVL213:
 333:Generated_Source\PSoC6\pdl\middleware\em_eeprom/cy_em_eeprom.c ****                         {
 1496              		.loc 1 333 0 discriminator 4
 1497 01b2 327D     		ldrb	r2, [r6, #20]	@ zero_extendqisi2
 1498 01b4 42B1     		cbz	r2, .L120
 335:Generated_Source\PSoC6\pdl\middleware\em_eeprom/cy_em_eeprom.c **** 
 1499              		.loc 1 335 0
 1500 01b6 0096     		str	r6, [sp]
 1501              	.LVL214:
 1502 01b8 6246     		mov	r2, ip
 1503 01ba 0146     		mov	r1, r0
 1504 01bc 7046     		mov	r0, lr
 1505              	.LVL215:
 1506 01be FFF7FEFF 		bl	CheckCrcAndCopy
 1507              	.LVL216:
 337:Generated_Source\PSoC6\pdl\middleware\em_eeprom/cy_em_eeprom.c ****                             {
 1508              		.loc 1 337 0
 1509 01c2 8246     		mov	r10, r0
 1510 01c4 28B1     		cbz	r0, .L115
 1511              	.LBE10:
 1512              	.LBE9:
ARM GAS  C:\Users\eduar\AppData\Local\Temp\ccwtx1iP.s 			page 54


 1513 01c6 10E0     		b	.L101
 1514              	.LVL217:
 1515              	.L120:
 1516              	.LBB12:
 1517              	.LBB11:
 344:Generated_Source\PSoC6\pdl\middleware\em_eeprom/cy_em_eeprom.c ****                         }
 1518              		.loc 1 344 0
 1519 01c8 1A46     		mov	r2, r3
 1520 01ca 0EEB0C01 		add	r1, lr, ip
 1521 01ce FFF7FEFF 		bl	memcpy
 1522              	.LVL218:
 1523              	.L115:
 1524              	.LBE11:
 1525              	.LBE12:
 303:Generated_Source\PSoC6\pdl\middleware\em_eeprom/cy_em_eeprom.c ****             {
 1526              		.loc 1 303 0 discriminator 2
 1527 01d2 0135     		adds	r5, r5, #1
 1528              	.LVL219:
 1529              	.L114:
 303:Generated_Source\PSoC6\pdl\middleware\em_eeprom/cy_em_eeprom.c ****             {
 1530              		.loc 1 303 0 is_stmt 0 discriminator 1
 1531 01d4 A542     		cmp	r5, r4
 1532 01d6 BED9     		bls	.L121
 1533 01d8 07E0     		b	.L101
 1534              	.LVL220:
 1535              	.L122:
 1536              	.LBE14:
 169:Generated_Source\PSoC6\pdl\middleware\em_eeprom/cy_em_eeprom.c ****     uint32_t i;
 1537              		.loc 1 169 0 is_stmt 1
 1538 01da 064B     		ldr	r3, .L135
 1539              	.LVL221:
 1540 01dc 9A46     		mov	r10, r3
 1541 01de 04E0     		b	.L101
 1542              	.LVL222:
 1543              	.L123:
 1544 01e0 044B     		ldr	r3, .L135
 1545 01e2 9A46     		mov	r10, r3
 1546 01e4 01E0     		b	.L101
 1547              	.L124:
 1548 01e6 034B     		ldr	r3, .L135
 1549 01e8 9A46     		mov	r10, r3
 1550              	.LVL223:
 1551              	.L101:
 353:Generated_Source\PSoC6\pdl\middleware\em_eeprom/cy_em_eeprom.c **** 
 1552              		.loc 1 353 0
 1553 01ea 5046     		mov	r0, r10
 1554 01ec 0BB0     		add	sp, sp, #44
 1555              		.cfi_def_cfa_offset 36
 1556              		@ sp needed
 1557 01ee BDE8F08F 		pop	{r4, r5, r6, r7, r8, r9, r10, fp, pc}
 1558              	.LVL224:
 1559              	.L136:
 1560 01f2 00BF     		.align	2
 1561              	.L135:
 1562 01f4 01006E00 		.word	7208961
 1563              		.cfi_endproc
 1564              	.LFE133:
ARM GAS  C:\Users\eduar\AppData\Local\Temp\ccwtx1iP.s 			page 55


 1565              		.size	Cy_Em_EEPROM_Read, .-Cy_Em_EEPROM_Read
 1566              		.section	.text.Cy_Em_EEPROM_Write,"ax",%progbits
 1567              		.align	2
 1568              		.global	Cy_Em_EEPROM_Write
 1569              		.thumb
 1570              		.thumb_func
 1571              		.type	Cy_Em_EEPROM_Write, %function
 1572              	Cy_Em_EEPROM_Write:
 1573              	.LFB134:
 410:Generated_Source\PSoC6\pdl\middleware\em_eeprom/cy_em_eeprom.c ****     cy_en_em_eeprom_status_t ret = CY_EM_EEPROM_BAD_PARAM;
 1574              		.loc 1 410 0
 1575              		.cfi_startproc
 1576              		@ args = 0, pretend = 0, frame = 552
 1577              		@ frame_needed = 0, uses_anonymous_args = 0
 1578              	.LVL225:
 1579 0000 2DE9F04F 		push	{r4, r5, r6, r7, r8, r9, r10, fp, lr}
 1580              		.cfi_def_cfa_offset 36
 1581              		.cfi_offset 4, -36
 1582              		.cfi_offset 5, -32
 1583              		.cfi_offset 6, -28
 1584              		.cfi_offset 7, -24
 1585              		.cfi_offset 8, -20
 1586              		.cfi_offset 9, -16
 1587              		.cfi_offset 10, -12
 1588              		.cfi_offset 11, -8
 1589              		.cfi_offset 14, -4
 1590 0004 ADF50D7D 		sub	sp, sp, #564
 1591              		.cfi_def_cfa_offset 600
 1592 0008 1D46     		mov	r5, r3
 1593              	.LVL226:
 416:Generated_Source\PSoC6\pdl\middleware\em_eeprom/cy_em_eeprom.c ****     uint32_t endAddr = 0u;
 1594              		.loc 1 416 0
 1595 000a 0023     		movs	r3, #0
 1596              	.LVL227:
 1597 000c 0B93     		str	r3, [sp, #44]
 417:Generated_Source\PSoC6\pdl\middleware\em_eeprom/cy_em_eeprom.c ****     uint32_t tmpRowAddr;
 1598              		.loc 1 417 0
 1599 000e 0A93     		str	r3, [sp, #40]
 419:Generated_Source\PSoC6\pdl\middleware\em_eeprom/cy_em_eeprom.c ****     uint32_t emEepromRowRdAddr;
 1600              		.loc 1 419 0
 1601 0010 AB68     		ldr	r3, [r5, #8]
 1602 0012 0993     		str	r3, [sp, #36]
 422:Generated_Source\PSoC6\pdl\middleware\em_eeprom/cy_em_eeprom.c **** 
 1603              		.loc 1 422 0
 1604 0014 0391     		str	r1, [sp, #12]
 1605              	.LVL228:
 425:Generated_Source\PSoC6\pdl\middleware\em_eeprom/cy_em_eeprom.c ****     {
 1606              		.loc 1 425 0
 1607 0016 002A     		cmp	r2, #0
 1608 0018 00F0A180 		beq	.L155
 1609 001c 8146     		mov	r9, r0
 1610 001e 9346     		mov	fp, r2
 425:Generated_Source\PSoC6\pdl\middleware\em_eeprom/cy_em_eeprom.c ****     {
 1611              		.loc 1 425 0 is_stmt 0 discriminator 1
 1612 0020 1318     		adds	r3, r2, r0
 1613 0022 EA68     		ldr	r2, [r5, #12]
 1614              	.LVL229:
ARM GAS  C:\Users\eduar\AppData\Local\Temp\ccwtx1iP.s 			page 56


 1615 0024 9342     		cmp	r3, r2
 1616 0026 00F29C80 		bhi	.L156
 425:Generated_Source\PSoC6\pdl\middleware\em_eeprom/cy_em_eeprom.c ****     {
 1617              		.loc 1 425 0 discriminator 2
 1618 002a 0029     		cmp	r1, #0
 1619 002c 00F09B80 		beq	.L157
 1620              	.LBB15:
 427:Generated_Source\PSoC6\pdl\middleware\em_eeprom/cy_em_eeprom.c ****         uint32_t eeHeaderDataOffset = 0u;
 1621              		.loc 1 427 0 is_stmt 1
 1622 0030 0BF1FF33 		add	r3, fp, #-1
 1623 0034 4E4A     		ldr	r2, .L161
 1624 0036 A2FB0323 		umull	r2, r3, r2, r3
 1625 003a DB09     		lsrs	r3, r3, #7
 1626 003c 0593     		str	r3, [sp, #20]
 1627 003e 0133     		adds	r3, r3, #1
 1628 0040 0493     		str	r3, [sp, #16]
 1629              	.LVL230:
 428:Generated_Source\PSoC6\pdl\middleware\em_eeprom/cy_em_eeprom.c **** 
 1630              		.loc 1 428 0
 1631 0042 0023     		movs	r3, #0
 1632              	.LVL231:
 1633 0044 0793     		str	r3, [sp, #28]
 1634              	.LVL232:
 430:Generated_Source\PSoC6\pdl\middleware\em_eeprom/cy_em_eeprom.c ****         {
 1635              		.loc 1 430 0
 1636 0046 9A46     		mov	r10, r3
 1637              	.LBE15:
 411:Generated_Source\PSoC6\pdl\middleware\em_eeprom/cy_em_eeprom.c ****     uint32_t i;
 1638              		.loc 1 411 0
 1639 0048 4A48     		ldr	r0, .L161+4
 1640              	.LVL233:
 1641              	.LBB18:
 430:Generated_Source\PSoC6\pdl\middleware\em_eeprom/cy_em_eeprom.c ****         {
 1642              		.loc 1 430 0
 1643 004a 83E0     		b	.L139
 1644              	.LVL234:
 1645              	.L154:
 1646              	.LBB16:
 434:Generated_Source\PSoC6\pdl\middleware\em_eeprom/cy_em_eeprom.c **** 
 1647              		.loc 1 434 0
 1648 004c 099B     		ldr	r3, [sp, #36]
 1649 004e 1C68     		ldr	r4, [r3]
 1650              	.LVL235:
 441:Generated_Source\PSoC6\pdl\middleware\em_eeprom/cy_em_eeprom.c **** 
 1651              		.loc 1 441 0
 1652 0050 2B46     		mov	r3, r5
 1653 0052 08AA     		add	r2, sp, #32
 1654 0054 09A9     		add	r1, sp, #36
 1655 0056 2046     		mov	r0, r4
 1656              	.LVL236:
 1657 0058 FFF7FEFF 		bl	GetNextRowToWrite
 1658              	.LVL237:
 444:Generated_Source\PSoC6\pdl\middleware\em_eeprom/cy_em_eeprom.c **** 
 1659              		.loc 1 444 0
 1660 005c 4FF40072 		mov	r2, #512
 1661 0060 0021     		movs	r1, #0
 1662 0062 0CA8     		add	r0, sp, #48
ARM GAS  C:\Users\eduar\AppData\Local\Temp\ccwtx1iP.s 			page 57


 1663 0064 FFF7FEFF 		bl	memset
 1664              	.LVL238:
 447:Generated_Source\PSoC6\pdl\middleware\em_eeprom/cy_em_eeprom.c ****             writeRamBuffer[CY_EM_EEPROM_HEADER_SEQ_NUM_OFFSET_U32] = seqNum;
 1665              		.loc 1 447 0
 1666 0068 04F10108 		add	r8, r4, #1
 1667              	.LVL239:
 448:Generated_Source\PSoC6\pdl\middleware\em_eeprom/cy_em_eeprom.c ****             writeRamBuffer[CY_EM_EEPROM_HEADER_ADDR_OFFSET_U32] = addr;
 1668              		.loc 1 448 0
 1669 006c CDF83080 		str	r8, [sp, #48]
 449:Generated_Source\PSoC6\pdl\middleware\em_eeprom/cy_em_eeprom.c ****             tmpData = (void *) eeData;
 1670              		.loc 1 449 0
 1671 0070 CDF83490 		str	r9, [sp, #52]
 450:Generated_Source\PSoC6\pdl\middleware\em_eeprom/cy_em_eeprom.c **** 
 1672              		.loc 1 450 0
 1673 0074 0399     		ldr	r1, [sp, #12]
 1674              	.LVL240:
 453:Generated_Source\PSoC6\pdl\middleware\em_eeprom/cy_em_eeprom.c ****             {
 1675              		.loc 1 453 0
 1676 0076 059B     		ldr	r3, [sp, #20]
 1677 0078 9A45     		cmp	r10, r3
 1678 007a 02D1     		bne	.L140
 456:Generated_Source\PSoC6\pdl\middleware\em_eeprom/cy_em_eeprom.c ****             }
 1679              		.loc 1 456 0
 1680 007c CDF838B0 		str	fp, [sp, #56]
 1681 0080 07E0     		b	.L141
 1682              	.L140:
 464:Generated_Source\PSoC6\pdl\middleware\em_eeprom/cy_em_eeprom.c ****                 size -= CY_EM_EEPROM_HEADER_DATA_LEN;
 1683              		.loc 1 464 0
 1684 0082 F023     		movs	r3, #240
 1685 0084 0E93     		str	r3, [sp, #56]
 465:Generated_Source\PSoC6\pdl\middleware\em_eeprom/cy_em_eeprom.c ****                 addr += CY_EM_EEPROM_HEADER_DATA_LEN;
 1686              		.loc 1 465 0
 1687 0086 ABF1F00B 		sub	fp, fp, #240
 1688              	.LVL241:
 466:Generated_Source\PSoC6\pdl\middleware\em_eeprom/cy_em_eeprom.c ****                 eeData += CY_EM_EEPROM_HEADER_DATA_LEN;
 1689              		.loc 1 466 0
 1690 008a 9944     		add	r9, r9, r3
 1691              	.LVL242:
 467:Generated_Source\PSoC6\pdl\middleware\em_eeprom/cy_em_eeprom.c ****             }
 1692              		.loc 1 467 0
 1693 008c 039B     		ldr	r3, [sp, #12]
 1694 008e F033     		adds	r3, r3, #240
 1695 0090 0393     		str	r3, [sp, #12]
 1696              	.LVL243:
 1697              	.L141:
 471:Generated_Source\PSoC6\pdl\middleware\em_eeprom/cy_em_eeprom.c ****                          tmpData,
 1698              		.loc 1 471 0
 1699 0092 0E9A     		ldr	r2, [sp, #56]
 1700 0094 0FA8     		add	r0, sp, #60
 1701 0096 FFF7FEFF 		bl	memcpy
 1702              	.LVL244:
 475:Generated_Source\PSoC6\pdl\middleware\em_eeprom/cy_em_eeprom.c ****             {
 1703              		.loc 1 475 0
 1704 009a 0899     		ldr	r1, [sp, #32]
 1705 009c 29B1     		cbz	r1, .L142
 478:Generated_Source\PSoC6\pdl\middleware\em_eeprom/cy_em_eeprom.c ****                              (void *)(emEepromRowRdAddr + CY_EM_EEPROM_EEPROM_DATA_LEN),
 1706              		.loc 1 478 0
ARM GAS  C:\Users\eduar\AppData\Local\Temp\ccwtx1iP.s 			page 58


 1707 009e 4FF48072 		mov	r2, #256
 1708 00a2 1144     		add	r1, r1, r2
 1709 00a4 4CA8     		add	r0, sp, #304
 1710 00a6 FFF7FEFF 		bl	memcpy
 1711              	.LVL245:
 1712              	.L142:
 487:Generated_Source\PSoC6\pdl\middleware\em_eeprom/cy_em_eeprom.c **** 
 1713              		.loc 1 487 0
 1714 00aa 6C68     		ldr	r4, [r5, #4]
 1715 00ac A045     		cmp	r8, r4
 1716 00ae 03D9     		bls	.L158
 487:Generated_Source\PSoC6\pdl\middleware\em_eeprom/cy_em_eeprom.c **** 
 1717              		.loc 1 487 0 is_stmt 0 discriminator 1
 1718 00b0 C4EB0804 		rsb	r4, r4, r8
 1719 00b4 0134     		adds	r4, r4, #1
 1720 00b6 00E0     		b	.L143
 1721              	.L158:
 487:Generated_Source\PSoC6\pdl\middleware\em_eeprom/cy_em_eeprom.c **** 
 1722              		.loc 1 487 0
 1723 00b8 0124     		movs	r4, #1
 1724              	.L143:
 487:Generated_Source\PSoC6\pdl\middleware\em_eeprom/cy_em_eeprom.c **** 
 1725              		.loc 1 487 0 discriminator 1
 1726 00ba 0027     		movs	r7, #0
 1727 00bc 32E0     		b	.L144
 1728              	.LVL246:
 1729              	.L151:
 491:Generated_Source\PSoC6\pdl\middleware\em_eeprom/cy_em_eeprom.c ****                 {
 1730              		.loc 1 491 0 is_stmt 1
 1731 00be 4445     		cmp	r4, r8
 1732 00c0 01D1     		bne	.L145
 497:Generated_Source\PSoC6\pdl\middleware\em_eeprom/cy_em_eeprom.c ****                 }
 1733              		.loc 1 497 0
 1734 00c2 0CAE     		add	r6, sp, #48
 1735              	.LVL247:
 1736 00c4 04E0     		b	.L146
 1737              	.LVL248:
 1738              	.L145:
 504:Generated_Source\PSoC6\pdl\middleware\em_eeprom/cy_em_eeprom.c ****                 }
 1739              		.loc 1 504 0
 1740 00c6 2946     		mov	r1, r5
 1741 00c8 2046     		mov	r0, r4
 1742 00ca FFF7FEFF 		bl	GetRowAddrBySeqNum
 1743              	.LVL249:
 1744 00ce 0646     		mov	r6, r0
 1745              	.LVL250:
 1746              	.L146:
 507:Generated_Source\PSoC6\pdl\middleware\em_eeprom/cy_em_eeprom.c ****                                                                            context->numberOfRows,
 1747              		.loc 1 507 0
 1748 00d0 AA69     		ldr	r2, [r5, #24]
 1749 00d2 099B     		ldr	r3, [sp, #36]
 1750 00d4 9A1A     		subs	r2, r3, r2
 1751 00d6 520A     		lsrs	r2, r2, #9
 1752 00d8 6968     		ldr	r1, [r5, #4]
 1753 00da B2FBF1F3 		udiv	r3, r2, r1
 1754 00de 01FB1323 		mls	r3, r1, r3, r2
 1755              	.LVL251:
ARM GAS  C:\Users\eduar\AppData\Local\Temp\ccwtx1iP.s 			page 59


 510:Generated_Source\PSoC6\pdl\middleware\em_eeprom/cy_em_eeprom.c ****                 {
 1756              		.loc 1 510 0
 1757 00e2 56B1     		cbz	r6, .L147
 513:Generated_Source\PSoC6\pdl\middleware\em_eeprom/cy_em_eeprom.c ****                                               &startAddr,
 1758              		.loc 1 513 0
 1759 00e4 7268     		ldr	r2, [r6, #4]
 1760 00e6 B168     		ldr	r1, [r6, #8]
 1761 00e8 0191     		str	r1, [sp, #4]
 1762 00ea 0092     		str	r2, [sp]
 1763 00ec 07AA     		add	r2, sp, #28
 1764 00ee 0AA9     		add	r1, sp, #40
 1765 00f0 0BA8     		add	r0, sp, #44
 1766 00f2 FFF7FEFF 		bl	GetAddresses
 1767              	.LVL252:
 1768 00f6 0746     		mov	r7, r0
 1769              	.LVL253:
 1770 00f8 00E0     		b	.L148
 1771              	.LVL254:
 1772              	.L147:
 524:Generated_Source\PSoC6\pdl\middleware\em_eeprom/cy_em_eeprom.c ****                 }
 1773              		.loc 1 524 0
 1774 00fa 0137     		adds	r7, r7, #1
 1775              	.LVL255:
 1776              	.L148:
 528:Generated_Source\PSoC6\pdl\middleware\em_eeprom/cy_em_eeprom.c ****                 {
 1777              		.loc 1 528 0
 1778 00fc 4FB9     		cbnz	r7, .L149
 1779              	.LBB17:
 530:Generated_Source\PSoC6\pdl\middleware\em_eeprom/cy_em_eeprom.c **** 
 1780              		.loc 1 530 0
 1781 00fe 0B98     		ldr	r0, [sp, #44]
 1782              	.LVL256:
 535:Generated_Source\PSoC6\pdl\middleware\em_eeprom/cy_em_eeprom.c ****                     (void)memcpy((void *)(dataAddr), (void *)(tmpRowAddr), endAddr - startAddr);
 1783              		.loc 1 535 0
 1784 0100 0799     		ldr	r1, [sp, #28]
 1785 0102 3144     		add	r1, r1, r6
 1786              	.LVL257:
 536:Generated_Source\PSoC6\pdl\middleware\em_eeprom/cy_em_eeprom.c ****                 }
 1787              		.loc 1 536 0
 1788 0104 0A9A     		ldr	r2, [sp, #40]
 1789 0106 121A     		subs	r2, r2, r0
 1790 0108 0C31     		adds	r1, r1, #12
 1791              	.LVL258:
 1792 010a 0CAB     		add	r3, sp, #48
 1793 010c 1844     		add	r0, r0, r3
 1794              	.LVL259:
 1795 010e FFF7FEFF 		bl	memcpy
 1796              	.LVL260:
 1797              	.L149:
 1798              	.LBE17:
 540:Generated_Source\PSoC6\pdl\middleware\em_eeprom/cy_em_eeprom.c ****                 {
 1799              		.loc 1 540 0
 1800 0112 2B7D     		ldrb	r3, [r5, #20]	@ zero_extendqisi2
 1801 0114 2BB1     		cbz	r3, .L150
 543:Generated_Source\PSoC6\pdl\middleware\em_eeprom/cy_em_eeprom.c ****                                                   CY_EM_EEPROM_EEPROM_DATA_LEN);
 1802              		.loc 1 543 0
 1803 0116 4FF48071 		mov	r1, #256
ARM GAS  C:\Users\eduar\AppData\Local\Temp\ccwtx1iP.s 			page 60


 1804 011a 4CA8     		add	r0, sp, #304
 1805 011c FFF7FEFF 		bl	CalcChecksum
 1806              	.LVL261:
 542:Generated_Source\PSoC6\pdl\middleware\em_eeprom/cy_em_eeprom.c ****                         CalcChecksum((uint8_t *) &writeRamBuffer[CY_EM_EEPROM_EEPROM_DATA_OFFSET_U3
 1807              		.loc 1 542 0
 1808 0120 4B90     		str	r0, [sp, #300]
 1809              	.L150:
 489:Generated_Source\PSoC6\pdl\middleware\em_eeprom/cy_em_eeprom.c ****             {
 1810              		.loc 1 489 0
 1811 0122 0134     		adds	r4, r4, #1
 1812              	.LVL262:
 1813              	.L144:
 489:Generated_Source\PSoC6\pdl\middleware\em_eeprom/cy_em_eeprom.c ****             {
 1814              		.loc 1 489 0 is_stmt 0 discriminator 1
 1815 0124 4445     		cmp	r4, r8
 1816 0126 CAD9     		bls	.L151
 549:Generated_Source\PSoC6\pdl\middleware\em_eeprom/cy_em_eeprom.c ****             tmpRowAddr = emEepromRowAddr;
 1817              		.loc 1 549 0 is_stmt 1
 1818 0128 2A46     		mov	r2, r5
 1819 012a 0CA9     		add	r1, sp, #48
 1820 012c 0998     		ldr	r0, [sp, #36]
 1821 012e FFF7FEFF 		bl	WriteRow
 1822              	.LVL263:
 553:Generated_Source\PSoC6\pdl\middleware\em_eeprom/cy_em_eeprom.c ****             {
 1823              		.loc 1 553 0
 1824 0132 2B7D     		ldrb	r3, [r5, #20]	@ zero_extendqisi2
 1825 0134 4BB1     		cbz	r3, .L152
 553:Generated_Source\PSoC6\pdl\middleware\em_eeprom/cy_em_eeprom.c ****             {
 1826              		.loc 1 553 0 is_stmt 0 discriminator 1
 1827 0136 40B9     		cbnz	r0, .L152
 556:Generated_Source\PSoC6\pdl\middleware\em_eeprom/cy_em_eeprom.c **** 
 1828              		.loc 1 556 0 is_stmt 1
 1829 0138 AA69     		ldr	r2, [r5, #24]
 1830 013a 099B     		ldr	r3, [sp, #36]
 1831 013c 9B1A     		subs	r3, r3, r2
 1832 013e 2868     		ldr	r0, [r5]
 1833              	.LVL264:
 559:Generated_Source\PSoC6\pdl\middleware\em_eeprom/cy_em_eeprom.c ****             }
 1834              		.loc 1 559 0
 1835 0140 2A46     		mov	r2, r5
 1836 0142 0CA9     		add	r1, sp, #48
 1837 0144 1844     		add	r0, r0, r3
 1838              	.LVL265:
 1839 0146 FFF7FEFF 		bl	WriteRow
 1840              	.LVL266:
 1841              	.L152:
 562:Generated_Source\PSoC6\pdl\middleware\em_eeprom/cy_em_eeprom.c ****             {
 1842              		.loc 1 562 0
 1843 014a 68B9     		cbnz	r0, .L138
 567:Generated_Source\PSoC6\pdl\middleware\em_eeprom/cy_em_eeprom.c ****             }
 1844              		.loc 1 567 0 discriminator 2
 1845 014c 099B     		ldr	r3, [sp, #36]
 1846 014e AB60     		str	r3, [r5, #8]
 1847              	.LBE16:
 430:Generated_Source\PSoC6\pdl\middleware\em_eeprom/cy_em_eeprom.c ****         {
 1848              		.loc 1 430 0 discriminator 2
 1849 0150 0AF1010A 		add	r10, r10, #1
ARM GAS  C:\Users\eduar\AppData\Local\Temp\ccwtx1iP.s 			page 61


 1850              	.LVL267:
 1851              	.L139:
 430:Generated_Source\PSoC6\pdl\middleware\em_eeprom/cy_em_eeprom.c ****         {
 1852              		.loc 1 430 0 is_stmt 0 discriminator 1
 1853 0154 049B     		ldr	r3, [sp, #16]
 1854 0156 9A45     		cmp	r10, r3
 1855 0158 FFF478AF 		bcc	.L154
 1856 015c 04E0     		b	.L138
 1857              	.LVL268:
 1858              	.L155:
 1859              	.LBE18:
 411:Generated_Source\PSoC6\pdl\middleware\em_eeprom/cy_em_eeprom.c ****     uint32_t i;
 1860              		.loc 1 411 0 is_stmt 1
 1861 015e 0548     		ldr	r0, .L161+4
 1862              	.LVL269:
 1863 0160 02E0     		b	.L138
 1864              	.LVL270:
 1865              	.L156:
 1866 0162 0448     		ldr	r0, .L161+4
 1867              	.LVL271:
 1868 0164 00E0     		b	.L138
 1869              	.LVL272:
 1870              	.L157:
 1871 0166 0348     		ldr	r0, .L161+4
 1872              	.LVL273:
 1873              	.L138:
 576:Generated_Source\PSoC6\pdl\middleware\em_eeprom/cy_em_eeprom.c **** 
 1874              		.loc 1 576 0
 1875 0168 0DF50D7D 		add	sp, sp, #564
 1876              		.cfi_def_cfa_offset 36
 1877              		@ sp needed
 1878 016c BDE8F08F 		pop	{r4, r5, r6, r7, r8, r9, r10, fp, pc}
 1879              	.LVL274:
 1880              	.L162:
 1881              		.align	2
 1882              	.L161:
 1883 0170 89888888 		.word	-2004318071
 1884 0174 01006E00 		.word	7208961
 1885              		.cfi_endproc
 1886              	.LFE134:
 1887              		.size	Cy_Em_EEPROM_Write, .-Cy_Em_EEPROM_Write
 1888              		.section	.text.Cy_Em_EEPROM_Erase,"ax",%progbits
 1889              		.align	2
 1890              		.global	Cy_Em_EEPROM_Erase
 1891              		.thumb
 1892              		.thumb_func
 1893              		.type	Cy_Em_EEPROM_Erase, %function
 1894              	Cy_Em_EEPROM_Erase:
 1895              	.LFB135:
 625:Generated_Source\PSoC6\pdl\middleware\em_eeprom/cy_em_eeprom.c ****     uint32_t i;
 1896              		.loc 1 625 0
 1897              		.cfi_startproc
 1898              		@ args = 0, pretend = 0, frame = 520
 1899              		@ frame_needed = 0, uses_anonymous_args = 0
 1900              	.LVL275:
 1901 0000 2DE9F047 		push	{r4, r5, r6, r7, r8, r9, r10, lr}
 1902              		.cfi_def_cfa_offset 32
ARM GAS  C:\Users\eduar\AppData\Local\Temp\ccwtx1iP.s 			page 62


 1903              		.cfi_offset 4, -32
 1904              		.cfi_offset 5, -28
 1905              		.cfi_offset 6, -24
 1906              		.cfi_offset 7, -20
 1907              		.cfi_offset 8, -16
 1908              		.cfi_offset 9, -12
 1909              		.cfi_offset 10, -8
 1910              		.cfi_offset 14, -4
 1911 0004 ADF5027D 		sub	sp, sp, #520
 1912              		.cfi_def_cfa_offset 552
 1913 0008 0646     		mov	r6, r0
 628:Generated_Source\PSoC6\pdl\middleware\em_eeprom/cy_em_eeprom.c ****     uint32_t emEepromRowRdAddr;
 1914              		.loc 1 628 0
 1915 000a 8568     		ldr	r5, [r0, #8]
 1916              	.LVL276:
 631:Generated_Source\PSoC6\pdl\middleware\em_eeprom/cy_em_eeprom.c ****     uint32_t emEepromStoredRowAddr = context->lastWrRowAddr;
 1917              		.loc 1 631 0
 1918 000c 4FF40072 		mov	r2, #512
 1919 0010 0021     		movs	r1, #0
 1920 0012 01A8     		add	r0, sp, #4
 1921              	.LVL277:
 1922 0014 FFF7FEFF 		bl	memset
 1923              	.LVL278:
 632:Generated_Source\PSoC6\pdl\middleware\em_eeprom/cy_em_eeprom.c ****     uint32_t storedSeqNum;
 1924              		.loc 1 632 0
 1925 0018 B368     		ldr	r3, [r6, #8]
 1926 001a 0093     		str	r3, [sp]
 636:Generated_Source\PSoC6\pdl\middleware\em_eeprom/cy_em_eeprom.c **** 
 1927              		.loc 1 636 0
 1928 001c 2C68     		ldr	r4, [r5]
 1929              	.LVL279:
 639:Generated_Source\PSoC6\pdl\middleware\em_eeprom/cy_em_eeprom.c ****     {
 1930              		.loc 1 639 0
 1931 001e 002C     		cmp	r4, #0
 1932 0020 37D0     		beq	.L170
 1933              	.LBB19:
 642:Generated_Source\PSoC6\pdl\middleware\em_eeprom/cy_em_eeprom.c **** 
 1934              		.loc 1 642 0
 1935 0022 7268     		ldr	r2, [r6, #4]
 1936 0024 3369     		ldr	r3, [r6, #16]
 1937 0026 03FB02F9 		mul	r9, r3, r2
 1938              	.LVL280:
 644:Generated_Source\PSoC6\pdl\middleware\em_eeprom/cy_em_eeprom.c ****         storedSeqNum = seqNum + 1u;
 1939              		.loc 1 644 0
 1940 002a 3346     		mov	r3, r6
 1941 002c 81AA     		add	r2, sp, #516
 1942 002e 6946     		mov	r1, sp
 1943 0030 2046     		mov	r0, r4
 1944 0032 FFF7FEFF 		bl	GetNextRowToWrite
 1945              	.LVL281:
 645:Generated_Source\PSoC6\pdl\middleware\em_eeprom/cy_em_eeprom.c **** 
 1946              		.loc 1 645 0
 1947 0036 04F1010A 		add	r10, r4, #1
 1948              	.LVL282:
 647:Generated_Source\PSoC6\pdl\middleware\em_eeprom/cy_em_eeprom.c ****         {
 1949              		.loc 1 647 0
 1950 003a 337D     		ldrb	r3, [r6, #20]	@ zero_extendqisi2
ARM GAS  C:\Users\eduar\AppData\Local\Temp\ccwtx1iP.s 			page 63


 1951 003c 2BB1     		cbz	r3, .L165
 650:Generated_Source\PSoC6\pdl\middleware\em_eeprom/cy_em_eeprom.c ****                                                   CY_EM_EEPROM_EEPROM_DATA_LEN);
 1952              		.loc 1 650 0
 1953 003e 4FF48071 		mov	r1, #256
 1954 0042 41A8     		add	r0, sp, #260
 1955 0044 FFF7FEFF 		bl	CalcChecksum
 1956              	.LVL283:
 649:Generated_Source\PSoC6\pdl\middleware\em_eeprom/cy_em_eeprom.c ****                         CalcChecksum((uint8_t *) &writeRamBuffer[CY_EM_EEPROM_EEPROM_DATA_OFFSET_U3
 1957              		.loc 1 649 0
 1958 0048 4090     		str	r0, [sp, #256]
 1959              	.L165:
 1960              	.LBE19:
 625:Generated_Source\PSoC6\pdl\middleware\em_eeprom/cy_em_eeprom.c ****     uint32_t i;
 1961              		.loc 1 625 0 discriminator 1
 1962 004a DFF85480 		ldr	r8, .L172
 1963 004e 0027     		movs	r7, #0
 1964 0050 0EE0     		b	.L166
 1965              	.LVL284:
 1966              	.L169:
 1967              	.LBB20:
 661:Generated_Source\PSoC6\pdl\middleware\em_eeprom/cy_em_eeprom.c ****             {
 1968              		.loc 1 661 0
 1969 0052 2DB1     		cbz	r5, .L167
 663:Generated_Source\PSoC6\pdl\middleware\em_eeprom/cy_em_eeprom.c ****             }
 1970              		.loc 1 663 0
 1971 0054 3246     		mov	r2, r6
 1972 0056 01A9     		add	r1, sp, #4
 1973 0058 2846     		mov	r0, r5
 1974 005a FFF7FEFF 		bl	EraseRow
 1975              	.LVL285:
 1976 005e 8046     		mov	r8, r0
 1977              	.LVL286:
 1978              	.L167:
 668:Generated_Source\PSoC6\pdl\middleware\em_eeprom/cy_em_eeprom.c ****             {
 1979              		.loc 1 668 0
 1980 0060 013C     		subs	r4, r4, #1
 1981              	.LVL287:
 1982 0062 07D0     		beq	.L168
 673:Generated_Source\PSoC6\pdl\middleware\em_eeprom/cy_em_eeprom.c ****         }
 1983              		.loc 1 673 0 discriminator 2
 1984 0064 3146     		mov	r1, r6
 1985 0066 2046     		mov	r0, r4
 1986 0068 FFF7FEFF 		bl	GetRowAddrBySeqNum
 1987              	.LVL288:
 1988 006c 0546     		mov	r5, r0
 1989              	.LVL289:
 654:Generated_Source\PSoC6\pdl\middleware\em_eeprom/cy_em_eeprom.c ****         {
 1990              		.loc 1 654 0 discriminator 2
 1991 006e 0137     		adds	r7, r7, #1
 1992              	.LVL290:
 1993              	.L166:
 654:Generated_Source\PSoC6\pdl\middleware\em_eeprom/cy_em_eeprom.c ****         {
 1994              		.loc 1 654 0 is_stmt 0 discriminator 1
 1995 0070 4F45     		cmp	r7, r9
 1996 0072 EED3     		bcc	.L169
 1997              	.L168:
 676:Generated_Source\PSoC6\pdl\middleware\em_eeprom/cy_em_eeprom.c ****         {
ARM GAS  C:\Users\eduar\AppData\Local\Temp\ccwtx1iP.s 			page 64


 1998              		.loc 1 676 0 is_stmt 1
 1999 0074 B8F1000F 		cmp	r8, #0
 2000 0078 0DD1     		bne	.L164
 678:Generated_Source\PSoC6\pdl\middleware\em_eeprom/cy_em_eeprom.c **** 
 2001              		.loc 1 678 0
 2002 007a CDF804A0 		str	r10, [sp, #4]
 684:Generated_Source\PSoC6\pdl\middleware\em_eeprom/cy_em_eeprom.c **** 
 2003              		.loc 1 684 0
 2004 007e 3246     		mov	r2, r6
 2005 0080 01A9     		add	r1, sp, #4
 2006 0082 0098     		ldr	r0, [sp]
 2007 0084 FFF7FEFF 		bl	WriteRow
 2008              	.LVL291:
 686:Generated_Source\PSoC6\pdl\middleware\em_eeprom/cy_em_eeprom.c ****             {
 2009              		.loc 1 686 0
 2010 0088 8046     		mov	r8, r0
 2011 008a 20B9     		cbnz	r0, .L164
 688:Generated_Source\PSoC6\pdl\middleware\em_eeprom/cy_em_eeprom.c ****             }
 2012              		.loc 1 688 0
 2013 008c 009B     		ldr	r3, [sp]
 2014 008e B360     		str	r3, [r6, #8]
 2015 0090 01E0     		b	.L164
 2016              	.LVL292:
 2017              	.L170:
 2018              	.LBE20:
 630:Generated_Source\PSoC6\pdl\middleware\em_eeprom/cy_em_eeprom.c ****     uint32_t writeRamBuffer[CY_EM_EEPROM_FLASH_SIZEOF_ROW / CY_EM_EEPROM_U32_DIV] = {0u};
 2019              		.loc 1 630 0
 2020 0092 DFF80C80 		ldr	r8, .L172
 2021              	.LVL293:
 2022              	.L164:
 694:Generated_Source\PSoC6\pdl\middleware\em_eeprom/cy_em_eeprom.c **** 
 2023              		.loc 1 694 0
 2024 0096 4046     		mov	r0, r8
 2025 0098 0DF5027D 		add	sp, sp, #520
 2026              		.cfi_def_cfa_offset 32
 2027              		@ sp needed
 2028 009c BDE8F087 		pop	{r4, r5, r6, r7, r8, r9, r10, pc}
 2029              	.LVL294:
 2030              	.L173:
 2031              		.align	2
 2032              	.L172:
 2033 00a0 04006E00 		.word	7208964
 2034              		.cfi_endproc
 2035              	.LFE135:
 2036              		.size	Cy_Em_EEPROM_Erase, .-Cy_Em_EEPROM_Erase
 2037              		.section	.text.Cy_Em_EEPROM_NumWrites,"ax",%progbits
 2038              		.align	2
 2039              		.global	Cy_Em_EEPROM_NumWrites
 2040              		.thumb
 2041              		.thumb_func
 2042              		.type	Cy_Em_EEPROM_NumWrites, %function
 2043              	Cy_Em_EEPROM_NumWrites:
 2044              	.LFB136:
 711:Generated_Source\PSoC6\pdl\middleware\em_eeprom/cy_em_eeprom.c ****     return(CY_EM_EEPROM_GET_SEQ_NUM(context->lastWrRowAddr));
 2045              		.loc 1 711 0
 2046              		.cfi_startproc
 2047              		@ args = 0, pretend = 0, frame = 0
ARM GAS  C:\Users\eduar\AppData\Local\Temp\ccwtx1iP.s 			page 65


 2048              		@ frame_needed = 0, uses_anonymous_args = 0
 2049              		@ link register save eliminated.
 2050              	.LVL295:
 712:Generated_Source\PSoC6\pdl\middleware\em_eeprom/cy_em_eeprom.c **** }
 2051              		.loc 1 712 0
 2052 0000 8368     		ldr	r3, [r0, #8]
 713:Generated_Source\PSoC6\pdl\middleware\em_eeprom/cy_em_eeprom.c **** 
 2053              		.loc 1 713 0
 2054 0002 1868     		ldr	r0, [r3]
 2055              	.LVL296:
 2056 0004 7047     		bx	lr
 2057              		.cfi_endproc
 2058              	.LFE136:
 2059              		.size	Cy_Em_EEPROM_NumWrites, .-Cy_Em_EEPROM_NumWrites
 2060 0006 00BF     		.text
 2061              	.Letext0:
 2062              		.file 2 "c:\\program files (x86)\\cypress\\psoc creator\\4.4\\psoc creator\\import\\gnu\\arm\\5.4.
 2063              		.file 3 "c:\\program files (x86)\\cypress\\psoc creator\\4.4\\psoc creator\\import\\gnu\\arm\\5.4.
 2064              		.file 4 "Generated_Source\\PSoC6\\pdl\\drivers/peripheral/flash/cy_flash.h"
 2065              		.file 5 "Generated_Source\\PSoC6\\pdl\\middleware\\em_eeprom\\cy_em_eeprom.h"
 2066              		.file 6 "Generated_Source\\PSoC6\\pdl\\drivers/peripheral/syslib/cy_syslib.h"
 2067              		.file 7 "Generated_Source\\PSoC6\\pdl\\cmsis/include/core_cm4.h"
 2068              		.section	.debug_info,"",%progbits
 2069              	.Ldebug_info0:
 2070 0000 94100000 		.4byte	0x1094
 2071 0004 0400     		.2byte	0x4
 2072 0006 00000000 		.4byte	.Ldebug_abbrev0
 2073 000a 04       		.byte	0x4
 2074 000b 01       		.uleb128 0x1
 2075 000c 44040000 		.4byte	.LASF128
 2076 0010 0C       		.byte	0xc
 2077 0011 C2070000 		.4byte	.LASF129
 2078 0015 E9050000 		.4byte	.LASF130
 2079 0019 C8000000 		.4byte	.Ldebug_ranges0+0xc8
 2080 001d 00000000 		.4byte	0
 2081 0021 00000000 		.4byte	.Ldebug_line0
 2082 0025 02       		.uleb128 0x2
 2083 0026 04       		.byte	0x4
 2084 0027 05       		.byte	0x5
 2085 0028 696E7400 		.ascii	"int\000"
 2086 002c 03       		.uleb128 0x3
 2087 002d 04       		.byte	0x4
 2088 002e 07       		.byte	0x7
 2089 002f 36020000 		.4byte	.LASF0
 2090 0033 03       		.uleb128 0x3
 2091 0034 08       		.byte	0x8
 2092 0035 05       		.byte	0x5
 2093 0036 C7000000 		.4byte	.LASF1
 2094 003a 03       		.uleb128 0x3
 2095 003b 08       		.byte	0x8
 2096 003c 04       		.byte	0x4
 2097 003d AE060000 		.4byte	.LASF2
 2098 0041 03       		.uleb128 0x3
 2099 0042 01       		.byte	0x1
 2100 0043 06       		.byte	0x6
 2101 0044 D5000000 		.4byte	.LASF3
 2102 0048 04       		.uleb128 0x4
ARM GAS  C:\Users\eduar\AppData\Local\Temp\ccwtx1iP.s 			page 66


 2103 0049 53000000 		.4byte	.LASF6
 2104 004d 02       		.byte	0x2
 2105 004e 1D       		.byte	0x1d
 2106 004f 53000000 		.4byte	0x53
 2107 0053 03       		.uleb128 0x3
 2108 0054 01       		.byte	0x1
 2109 0055 08       		.byte	0x8
 2110 0056 6E050000 		.4byte	.LASF4
 2111 005a 03       		.uleb128 0x3
 2112 005b 02       		.byte	0x2
 2113 005c 05       		.byte	0x5
 2114 005d A3050000 		.4byte	.LASF5
 2115 0061 04       		.uleb128 0x4
 2116 0062 ED060000 		.4byte	.LASF7
 2117 0066 02       		.byte	0x2
 2118 0067 2B       		.byte	0x2b
 2119 0068 6C000000 		.4byte	0x6c
 2120 006c 03       		.uleb128 0x3
 2121 006d 02       		.byte	0x2
 2122 006e 07       		.byte	0x7
 2123 006f 28070000 		.4byte	.LASF8
 2124 0073 04       		.uleb128 0x4
 2125 0074 0E030000 		.4byte	.LASF9
 2126 0078 02       		.byte	0x2
 2127 0079 3F       		.byte	0x3f
 2128 007a 7E000000 		.4byte	0x7e
 2129 007e 03       		.uleb128 0x3
 2130 007f 04       		.byte	0x4
 2131 0080 05       		.byte	0x5
 2132 0081 39010000 		.4byte	.LASF10
 2133 0085 04       		.uleb128 0x4
 2134 0086 C7010000 		.4byte	.LASF11
 2135 008a 02       		.byte	0x2
 2136 008b 41       		.byte	0x41
 2137 008c 90000000 		.4byte	0x90
 2138 0090 03       		.uleb128 0x3
 2139 0091 04       		.byte	0x4
 2140 0092 07       		.byte	0x7
 2141 0093 57020000 		.4byte	.LASF12
 2142 0097 03       		.uleb128 0x3
 2143 0098 08       		.byte	0x8
 2144 0099 07       		.byte	0x7
 2145 009a 93000000 		.4byte	.LASF13
 2146 009e 03       		.uleb128 0x3
 2147 009f 04       		.byte	0x4
 2148 00a0 07       		.byte	0x7
 2149 00a1 71030000 		.4byte	.LASF14
 2150 00a5 05       		.uleb128 0x5
 2151 00a6 04       		.byte	0x4
 2152 00a7 03       		.uleb128 0x3
 2153 00a8 01       		.byte	0x1
 2154 00a9 08       		.byte	0x8
 2155 00aa BA060000 		.4byte	.LASF15
 2156 00ae 04       		.uleb128 0x4
 2157 00af 14070000 		.4byte	.LASF16
 2158 00b3 03       		.byte	0x3
 2159 00b4 18       		.byte	0x18
ARM GAS  C:\Users\eduar\AppData\Local\Temp\ccwtx1iP.s 			page 67


 2160 00b5 48000000 		.4byte	0x48
 2161 00b9 04       		.uleb128 0x4
 2162 00ba 6E010000 		.4byte	.LASF17
 2163 00be 03       		.byte	0x3
 2164 00bf 24       		.byte	0x24
 2165 00c0 61000000 		.4byte	0x61
 2166 00c4 04       		.uleb128 0x4
 2167 00c5 66050000 		.4byte	.LASF18
 2168 00c9 03       		.byte	0x3
 2169 00ca 2C       		.byte	0x2c
 2170 00cb 73000000 		.4byte	0x73
 2171 00cf 04       		.uleb128 0x4
 2172 00d0 4A060000 		.4byte	.LASF19
 2173 00d4 03       		.byte	0x3
 2174 00d5 30       		.byte	0x30
 2175 00d6 85000000 		.4byte	0x85
 2176 00da 03       		.uleb128 0x3
 2177 00db 04       		.byte	0x4
 2178 00dc 04       		.byte	0x4
 2179 00dd 19050000 		.4byte	.LASF20
 2180 00e1 03       		.uleb128 0x3
 2181 00e2 08       		.byte	0x8
 2182 00e3 04       		.byte	0x4
 2183 00e4 77010000 		.4byte	.LASF21
 2184 00e8 06       		.uleb128 0x6
 2185 00e9 1E080000 		.4byte	.LASF131
 2186 00ed 04       		.byte	0x4
 2187 00ee 2C000000 		.4byte	0x2c
 2188 00f2 04       		.byte	0x4
 2189 00f3 7E01     		.2byte	0x17e
 2190 00f5 63010000 		.4byte	0x163
 2191 00f9 07       		.uleb128 0x7
 2192 00fa A5080000 		.4byte	.LASF22
 2193 00fe 00       		.byte	0
 2194 00ff 08       		.uleb128 0x8
 2195 0100 17020000 		.4byte	.LASF23
 2196 0104 00005200 		.4byte	0x520000
 2197 0108 08       		.uleb128 0x8
 2198 0109 7A030000 		.4byte	.LASF24
 2199 010d 01005200 		.4byte	0x520001
 2200 0111 08       		.uleb128 0x8
 2201 0112 13000000 		.4byte	.LASF25
 2202 0116 02005200 		.4byte	0x520002
 2203 011a 08       		.uleb128 0x8
 2204 011b FE030000 		.4byte	.LASF26
 2205 011f 03005200 		.4byte	0x520003
 2206 0123 08       		.uleb128 0x8
 2207 0124 98060000 		.4byte	.LASF27
 2208 0128 05005200 		.4byte	0x520005
 2209 012c 08       		.uleb128 0x8
 2210 012d 72060000 		.4byte	.LASF28
 2211 0131 06005200 		.4byte	0x520006
 2212 0135 08       		.uleb128 0x8
 2213 0136 9D030000 		.4byte	.LASF29
 2214 013a 22005200 		.4byte	0x520022
 2215 013e 08       		.uleb128 0x8
 2216 013f 04050000 		.4byte	.LASF30
ARM GAS  C:\Users\eduar\AppData\Local\Temp\ccwtx1iP.s 			page 68


 2217 0143 FF005200 		.4byte	0x5200ff
 2218 0147 08       		.uleb128 0x8
 2219 0148 7C050000 		.4byte	.LASF31
 2220 014c 00005000 		.4byte	0x500000
 2221 0150 08       		.uleb128 0x8
 2222 0151 27050000 		.4byte	.LASF32
 2223 0155 01005000 		.4byte	0x500001
 2224 0159 08       		.uleb128 0x8
 2225 015a 8C080000 		.4byte	.LASF33
 2226 015e 02005000 		.4byte	0x500002
 2227 0162 00       		.byte	0
 2228 0163 09       		.uleb128 0x9
 2229 0164 BF060000 		.4byte	.LASF34
 2230 0168 04       		.byte	0x4
 2231 0169 8C01     		.2byte	0x18c
 2232 016b E8000000 		.4byte	0xe8
 2233 016f 0A       		.uleb128 0xa
 2234 0170 10       		.byte	0x10
 2235 0171 05       		.byte	0x5
 2236 0172 9801     		.2byte	0x198
 2237 0174 BA010000 		.4byte	0x1ba
 2238 0178 0B       		.uleb128 0xb
 2239 0179 BC000000 		.4byte	.LASF35
 2240 017d 05       		.byte	0x5
 2241 017e 9B01     		.2byte	0x19b
 2242 0180 CF000000 		.4byte	0xcf
 2243 0184 00       		.byte	0
 2244 0185 0B       		.uleb128 0xb
 2245 0186 8C070000 		.4byte	.LASF36
 2246 018a 05       		.byte	0x5
 2247 018b A001     		.2byte	0x1a0
 2248 018d CF000000 		.4byte	0xcf
 2249 0191 04       		.byte	0x4
 2250 0192 0B       		.uleb128 0xb
 2251 0193 09020000 		.4byte	.LASF37
 2252 0197 05       		.byte	0x5
 2253 0198 A301     		.2byte	0x1a3
 2254 019a AE000000 		.4byte	0xae
 2255 019e 08       		.byte	0x8
 2256 019f 0B       		.uleb128 0xb
 2257 01a0 34080000 		.4byte	.LASF38
 2258 01a4 05       		.byte	0x5
 2259 01a5 A801     		.2byte	0x1a8
 2260 01a7 AE000000 		.4byte	0xae
 2261 01ab 09       		.byte	0x9
 2262 01ac 0B       		.uleb128 0xb
 2263 01ad 54010000 		.4byte	.LASF39
 2264 01b1 05       		.byte	0x5
 2265 01b2 AD01     		.2byte	0x1ad
 2266 01b4 CF000000 		.4byte	0xcf
 2267 01b8 0C       		.byte	0xc
 2268 01b9 00       		.byte	0
 2269 01ba 09       		.uleb128 0x9
 2270 01bb 6E070000 		.4byte	.LASF40
 2271 01bf 05       		.byte	0x5
 2272 01c0 AE01     		.2byte	0x1ae
 2273 01c2 6F010000 		.4byte	0x16f
ARM GAS  C:\Users\eduar\AppData\Local\Temp\ccwtx1iP.s 			page 69


 2274 01c6 0A       		.uleb128 0xa
 2275 01c7 1C       		.byte	0x1c
 2276 01c8 05       		.byte	0x5
 2277 01c9 B501     		.2byte	0x1b5
 2278 01cb 38020000 		.4byte	0x238
 2279 01cf 0B       		.uleb128 0xb
 2280 01d0 5C050000 		.4byte	.LASF41
 2281 01d4 05       		.byte	0x5
 2282 01d5 BA01     		.2byte	0x1ba
 2283 01d7 CF000000 		.4byte	0xcf
 2284 01db 00       		.byte	0
 2285 01dc 0B       		.uleb128 0xb
 2286 01dd 64030000 		.4byte	.LASF42
 2287 01e1 05       		.byte	0x5
 2288 01e2 BF01     		.2byte	0x1bf
 2289 01e4 CF000000 		.4byte	0xcf
 2290 01e8 04       		.byte	0x4
 2291 01e9 0B       		.uleb128 0xb
 2292 01ea 3B070000 		.4byte	.LASF43
 2293 01ee 05       		.byte	0x5
 2294 01ef C201     		.2byte	0x1c2
 2295 01f1 CF000000 		.4byte	0xcf
 2296 01f5 08       		.byte	0x8
 2297 01f6 0B       		.uleb128 0xb
 2298 01f7 BC000000 		.4byte	.LASF35
 2299 01fb 05       		.byte	0x5
 2300 01fc C501     		.2byte	0x1c5
 2301 01fe CF000000 		.4byte	0xcf
 2302 0202 0C       		.byte	0xc
 2303 0203 0B       		.uleb128 0xb
 2304 0204 8C070000 		.4byte	.LASF36
 2305 0208 05       		.byte	0x5
 2306 0209 CA01     		.2byte	0x1ca
 2307 020b CF000000 		.4byte	0xcf
 2308 020f 10       		.byte	0x10
 2309 0210 0B       		.uleb128 0xb
 2310 0211 09020000 		.4byte	.LASF37
 2311 0215 05       		.byte	0x5
 2312 0216 CD01     		.2byte	0x1cd
 2313 0218 AE000000 		.4byte	0xae
 2314 021c 14       		.byte	0x14
 2315 021d 0B       		.uleb128 0xb
 2316 021e 34080000 		.4byte	.LASF38
 2317 0222 05       		.byte	0x5
 2318 0223 D201     		.2byte	0x1d2
 2319 0225 AE000000 		.4byte	0xae
 2320 0229 15       		.byte	0x15
 2321 022a 0B       		.uleb128 0xb
 2322 022b 54010000 		.4byte	.LASF39
 2323 022f 05       		.byte	0x5
 2324 0230 D501     		.2byte	0x1d5
 2325 0232 CF000000 		.4byte	0xcf
 2326 0236 18       		.byte	0x18
 2327 0237 00       		.byte	0
 2328 0238 09       		.uleb128 0x9
 2329 0239 E6030000 		.4byte	.LASF44
 2330 023d 05       		.byte	0x5
ARM GAS  C:\Users\eduar\AppData\Local\Temp\ccwtx1iP.s 			page 70


 2331 023e D601     		.2byte	0x1d6
 2332 0240 C6010000 		.4byte	0x1c6
 2333 0244 0C       		.uleb128 0xc
 2334 0245 04       		.byte	0x4
 2335 0246 2C000000 		.4byte	0x2c
 2336 024a 05       		.byte	0x5
 2337 024b EA01     		.2byte	0x1ea
 2338 024d 7C020000 		.4byte	0x27c
 2339 0251 07       		.uleb128 0x7
 2340 0252 9F070000 		.4byte	.LASF45
 2341 0256 00       		.byte	0
 2342 0257 08       		.uleb128 0x8
 2343 0258 33030000 		.4byte	.LASF46
 2344 025c 01006E00 		.4byte	0x6e0001
 2345 0260 08       		.uleb128 0x8
 2346 0261 4A030000 		.4byte	.LASF47
 2347 0265 02006E00 		.4byte	0x6e0002
 2348 0269 08       		.uleb128 0x8
 2349 026a 46050000 		.4byte	.LASF48
 2350 026e 03006E00 		.4byte	0x6e0003
 2351 0272 08       		.uleb128 0x8
 2352 0273 0A010000 		.4byte	.LASF49
 2353 0277 04006E00 		.4byte	0x6e0004
 2354 027b 00       		.byte	0
 2355 027c 09       		.uleb128 0x9
 2356 027d 33000000 		.4byte	.LASF50
 2357 0281 05       		.byte	0x5
 2358 0282 F001     		.2byte	0x1f0
 2359 0284 44020000 		.4byte	0x244
 2360 0288 0D       		.uleb128 0xd
 2361 0289 EA000000 		.4byte	.LASF57
 2362 028d 01       		.byte	0x1
 2363 028e E002     		.2byte	0x2e0
 2364 0290 00000000 		.4byte	.LFB137
 2365 0294 2E000000 		.4byte	.LFE137-.LFB137
 2366 0298 01       		.uleb128 0x1
 2367 0299 9C       		.byte	0x9c
 2368 029a F9020000 		.4byte	0x2f9
 2369 029e 0E       		.uleb128 0xe
 2370 029f 69020000 		.4byte	.LASF51
 2371 02a3 01       		.byte	0x1
 2372 02a4 E002     		.2byte	0x2e0
 2373 02a6 F9020000 		.4byte	0x2f9
 2374 02aa 01       		.uleb128 0x1
 2375 02ab 50       		.byte	0x50
 2376 02ac 0E       		.uleb128 0xe
 2377 02ad 90020000 		.4byte	.LASF52
 2378 02b1 01       		.byte	0x1
 2379 02b2 E002     		.2byte	0x2e0
 2380 02b4 FF020000 		.4byte	0x2ff
 2381 02b8 01       		.uleb128 0x1
 2382 02b9 51       		.byte	0x51
 2383 02ba 0F       		.uleb128 0xf
 2384 02bb DF030000 		.4byte	.LASF53
 2385 02bf 01       		.byte	0x1
 2386 02c0 E202     		.2byte	0x2e2
 2387 02c2 CF000000 		.4byte	0xcf
ARM GAS  C:\Users\eduar\AppData\Local\Temp\ccwtx1iP.s 			page 71


 2388 02c6 00000000 		.4byte	.LLST0
 2389 02ca 0F       		.uleb128 0xf
 2390 02cb 4C020000 		.4byte	.LASF54
 2391 02cf 01       		.byte	0x1
 2392 02d0 E302     		.2byte	0x2e3
 2393 02d2 CF000000 		.4byte	0xcf
 2394 02d6 1F000000 		.4byte	.LLST1
 2395 02da 0F       		.uleb128 0xf
 2396 02db E1010000 		.4byte	.LASF55
 2397 02df 01       		.byte	0x1
 2398 02e0 E402     		.2byte	0x2e4
 2399 02e2 CF000000 		.4byte	0xcf
 2400 02e6 54000000 		.4byte	.LLST2
 2401 02ea 10       		.uleb128 0x10
 2402 02eb 49070000 		.4byte	.LASF56
 2403 02ef 01       		.byte	0x1
 2404 02f0 E502     		.2byte	0x2e5
 2405 02f2 CF000000 		.4byte	0xcf
 2406 02f6 01       		.uleb128 0x1
 2407 02f7 52       		.byte	0x52
 2408 02f8 00       		.byte	0
 2409 02f9 11       		.uleb128 0x11
 2410 02fa 04       		.byte	0x4
 2411 02fb CF000000 		.4byte	0xcf
 2412 02ff 11       		.uleb128 0x11
 2413 0300 04       		.byte	0x4
 2414 0301 38020000 		.4byte	0x238
 2415 0305 12       		.uleb128 0x12
 2416 0306 0B080000 		.4byte	.LASF61
 2417 030a 01       		.byte	0x1
 2418 030b 0C03     		.2byte	0x30c
 2419 030d CF000000 		.4byte	0xcf
 2420 0311 00000000 		.4byte	.LFB138
 2421 0315 1C000000 		.4byte	.LFE138-.LFB138
 2422 0319 01       		.uleb128 0x1
 2423 031a 9C       		.byte	0x9c
 2424 031b 4C030000 		.4byte	0x34c
 2425 031f 13       		.uleb128 0x13
 2426 0320 DF030000 		.4byte	.LASF53
 2427 0324 01       		.byte	0x1
 2428 0325 0C03     		.2byte	0x30c
 2429 0327 CF000000 		.4byte	0xcf
 2430 032b 73000000 		.4byte	.LLST3
 2431 032f 0E       		.uleb128 0xe
 2432 0330 90020000 		.4byte	.LASF52
 2433 0334 01       		.byte	0x1
 2434 0335 0C03     		.2byte	0x30c
 2435 0337 FF020000 		.4byte	0x2ff
 2436 033b 01       		.uleb128 0x1
 2437 033c 51       		.byte	0x51
 2438 033d 10       		.uleb128 0x10
 2439 033e 49070000 		.4byte	.LASF56
 2440 0342 01       		.byte	0x1
 2441 0343 0E03     		.2byte	0x30e
 2442 0345 CF000000 		.4byte	0xcf
 2443 0349 01       		.uleb128 0x1
 2444 034a 53       		.byte	0x53
ARM GAS  C:\Users\eduar\AppData\Local\Temp\ccwtx1iP.s 			page 72


 2445 034b 00       		.byte	0
 2446 034c 0D       		.uleb128 0xd
 2447 034d 02070000 		.4byte	.LASF58
 2448 0351 01       		.byte	0x1
 2449 0352 3903     		.2byte	0x339
 2450 0354 00000000 		.4byte	.LFB139
 2451 0358 5C000000 		.4byte	.LFE139-.LFB139
 2452 035c 01       		.uleb128 0x1
 2453 035d 9C       		.byte	0x9c
 2454 035e A1030000 		.4byte	0x3a1
 2455 0362 13       		.uleb128 0x13
 2456 0363 DF030000 		.4byte	.LASF53
 2457 0367 01       		.byte	0x1
 2458 0368 3903     		.2byte	0x339
 2459 036a CF000000 		.4byte	0xcf
 2460 036e 94000000 		.4byte	.LLST4
 2461 0372 13       		.uleb128 0x13
 2462 0373 00000000 		.4byte	.LASF59
 2463 0377 01       		.byte	0x1
 2464 0378 3A03     		.2byte	0x33a
 2465 037a F9020000 		.4byte	0x2f9
 2466 037e C0000000 		.4byte	.LLST5
 2467 0382 0E       		.uleb128 0xe
 2468 0383 D9020000 		.4byte	.LASF60
 2469 0387 01       		.byte	0x1
 2470 0388 3B03     		.2byte	0x33b
 2471 038a F9020000 		.4byte	0x2f9
 2472 038e 01       		.uleb128 0x1
 2473 038f 52       		.byte	0x52
 2474 0390 13       		.uleb128 0x13
 2475 0391 90020000 		.4byte	.LASF52
 2476 0395 01       		.byte	0x1
 2477 0396 3C03     		.2byte	0x33c
 2478 0398 FF020000 		.4byte	0x2ff
 2479 039c FA000000 		.4byte	.LLST6
 2480 03a0 00       		.byte	0
 2481 03a1 12       		.uleb128 0x12
 2482 03a2 54080000 		.4byte	.LASF62
 2483 03a6 01       		.byte	0x1
 2484 03a7 8503     		.2byte	0x385
 2485 03a9 AE000000 		.4byte	0xae
 2486 03ad 00000000 		.4byte	.LFB140
 2487 03b1 3C000000 		.4byte	.LFE140-.LFB140
 2488 03b5 01       		.uleb128 0x1
 2489 03b6 9C       		.byte	0x9c
 2490 03b7 08040000 		.4byte	0x408
 2491 03bb 13       		.uleb128 0x13
 2492 03bc 61080000 		.4byte	.LASF63
 2493 03c0 01       		.byte	0x1
 2494 03c1 8503     		.2byte	0x385
 2495 03c3 08040000 		.4byte	0x408
 2496 03c7 34010000 		.4byte	.LLST7
 2497 03cb 14       		.uleb128 0x14
 2498 03cc 6C656E00 		.ascii	"len\000"
 2499 03d0 01       		.byte	0x1
 2500 03d1 8503     		.2byte	0x385
 2501 03d3 CF000000 		.4byte	0xcf
ARM GAS  C:\Users\eduar\AppData\Local\Temp\ccwtx1iP.s 			page 73


 2502 03d7 01       		.uleb128 0x1
 2503 03d8 51       		.byte	0x51
 2504 03d9 15       		.uleb128 0x15
 2505 03da 63726300 		.ascii	"crc\000"
 2506 03de 01       		.byte	0x1
 2507 03df 8703     		.2byte	0x387
 2508 03e1 AE000000 		.4byte	0xae
 2509 03e5 60010000 		.4byte	.LLST8
 2510 03e9 15       		.uleb128 0x15
 2511 03ea 6900     		.ascii	"i\000"
 2512 03ec 01       		.byte	0x1
 2513 03ed 8803     		.2byte	0x388
 2514 03ef AE000000 		.4byte	0xae
 2515 03f3 96010000 		.4byte	.LLST9
 2516 03f7 15       		.uleb128 0x15
 2517 03f8 636E7400 		.ascii	"cnt\000"
 2518 03fc 01       		.byte	0x1
 2519 03fd 8903     		.2byte	0x389
 2520 03ff B9000000 		.4byte	0xb9
 2521 0403 C0010000 		.4byte	.LLST10
 2522 0407 00       		.byte	0
 2523 0408 11       		.uleb128 0x11
 2524 0409 04       		.byte	0x4
 2525 040a AE000000 		.4byte	0xae
 2526 040e 12       		.uleb128 0x12
 2527 040f 38040000 		.4byte	.LASF64
 2528 0413 01       		.byte	0x1
 2529 0414 A603     		.2byte	0x3a6
 2530 0416 7C020000 		.4byte	0x27c
 2531 041a 00000000 		.4byte	.LFB141
 2532 041e 54000000 		.4byte	.LFE141-.LFB141
 2533 0422 01       		.uleb128 0x1
 2534 0423 9C       		.byte	0x9c
 2535 0424 65040000 		.4byte	0x465
 2536 0428 13       		.uleb128 0x13
 2537 0429 D7060000 		.4byte	.LASF65
 2538 042d 01       		.byte	0x1
 2539 042e A603     		.2byte	0x3a6
 2540 0430 65040000 		.4byte	0x465
 2541 0434 EA010000 		.4byte	.LLST11
 2542 0438 15       		.uleb128 0x15
 2543 0439 72657400 		.ascii	"ret\000"
 2544 043d 01       		.byte	0x1
 2545 043e A803     		.2byte	0x3a8
 2546 0440 7C020000 		.4byte	0x27c
 2547 0444 56020000 		.4byte	.LLST12
 2548 0448 10       		.uleb128 0x10
 2549 0449 F8060000 		.4byte	.LASF66
 2550 044d 01       		.byte	0x1
 2551 044e A903     		.2byte	0x3a9
 2552 0450 CF000000 		.4byte	0xcf
 2553 0454 01       		.uleb128 0x1
 2554 0455 51       		.byte	0x51
 2555 0456 10       		.uleb128 0x10
 2556 0457 1F050000 		.4byte	.LASF67
 2557 045b 01       		.byte	0x1
 2558 045c AA03     		.2byte	0x3aa
ARM GAS  C:\Users\eduar\AppData\Local\Temp\ccwtx1iP.s 			page 74


 2559 045e CF000000 		.4byte	0xcf
 2560 0462 01       		.uleb128 0x1
 2561 0463 53       		.byte	0x53
 2562 0464 00       		.byte	0
 2563 0465 11       		.uleb128 0x11
 2564 0466 04       		.byte	0x4
 2565 0467 BA010000 		.4byte	0x1ba
 2566 046b 12       		.uleb128 0x12
 2567 046c 9D020000 		.4byte	.LASF68
 2568 0470 01       		.byte	0x1
 2569 0471 BE04     		.2byte	0x4be
 2570 0473 CF000000 		.4byte	0xcf
 2571 0477 00000000 		.4byte	.LFB145
 2572 047b 94000000 		.4byte	.LFE145-.LFB145
 2573 047f 01       		.uleb128 0x1
 2574 0480 9C       		.byte	0x9c
 2575 0481 F4040000 		.4byte	0x4f4
 2576 0485 13       		.uleb128 0x13
 2577 0486 F8060000 		.4byte	.LASF66
 2578 048a 01       		.byte	0x1
 2579 048b BE04     		.2byte	0x4be
 2580 048d F9020000 		.4byte	0x2f9
 2581 0491 79020000 		.4byte	.LLST13
 2582 0495 0E       		.uleb128 0xe
 2583 0496 1F050000 		.4byte	.LASF67
 2584 049a 01       		.byte	0x1
 2585 049b BF04     		.2byte	0x4bf
 2586 049d F9020000 		.4byte	0x2f9
 2587 04a1 01       		.uleb128 0x1
 2588 04a2 51       		.byte	0x51
 2589 04a3 13       		.uleb128 0x13
 2590 04a4 21070000 		.4byte	.LASF69
 2591 04a8 01       		.byte	0x1
 2592 04a9 C004     		.2byte	0x4c0
 2593 04ab F9020000 		.4byte	0x2f9
 2594 04af E5020000 		.4byte	.LLST14
 2595 04b3 13       		.uleb128 0x13
 2596 04b4 4C000000 		.4byte	.LASF70
 2597 04b8 01       		.byte	0x1
 2598 04b9 C104     		.2byte	0x4c1
 2599 04bb CF000000 		.4byte	0xcf
 2600 04bf 11030000 		.4byte	.LLST15
 2601 04c3 13       		.uleb128 0x13
 2602 04c4 AA000000 		.4byte	.LASF71
 2603 04c8 01       		.byte	0x1
 2604 04c9 C204     		.2byte	0x4c2
 2605 04cb CF000000 		.4byte	0xcf
 2606 04cf 7E030000 		.4byte	.LLST16
 2607 04d3 16       		.uleb128 0x16
 2608 04d4 6C656E00 		.ascii	"len\000"
 2609 04d8 01       		.byte	0x1
 2610 04d9 C304     		.2byte	0x4c3
 2611 04db CF000000 		.4byte	0xcf
 2612 04df 9E030000 		.4byte	.LLST17
 2613 04e3 0F       		.uleb128 0xf
 2614 04e4 1C070000 		.4byte	.LASF72
 2615 04e8 01       		.byte	0x1
ARM GAS  C:\Users\eduar\AppData\Local\Temp\ccwtx1iP.s 			page 75


 2616 04e9 C504     		.2byte	0x4c5
 2617 04eb CF000000 		.4byte	0xcf
 2618 04ef BE030000 		.4byte	.LLST18
 2619 04f3 00       		.byte	0
 2620 04f4 12       		.uleb128 0x12
 2621 04f5 E1000000 		.4byte	.LASF73
 2622 04f9 01       		.byte	0x1
 2623 04fa C903     		.2byte	0x3c9
 2624 04fc 7C020000 		.4byte	0x27c
 2625 0500 00000000 		.4byte	.LFB142
 2626 0504 50000000 		.4byte	.LFE142-.LFB142
 2627 0508 01       		.uleb128 0x1
 2628 0509 9C       		.byte	0x9c
 2629 050a B9050000 		.4byte	0x5b9
 2630 050e 13       		.uleb128 0x13
 2631 050f 9B050000 		.4byte	.LASF74
 2632 0513 01       		.byte	0x1
 2633 0514 C903     		.2byte	0x3c9
 2634 0516 CF000000 		.4byte	0xcf
 2635 051a DD030000 		.4byte	.LLST19
 2636 051e 13       		.uleb128 0x13
 2637 051f 61080000 		.4byte	.LASF63
 2638 0523 01       		.byte	0x1
 2639 0524 CA03     		.2byte	0x3ca
 2640 0526 F9020000 		.4byte	0x2f9
 2641 052a 17040000 		.4byte	.LLST20
 2642 052e 13       		.uleb128 0x13
 2643 052f 90020000 		.4byte	.LASF52
 2644 0533 01       		.byte	0x1
 2645 0534 CB03     		.2byte	0x3cb
 2646 0536 FF020000 		.4byte	0x2ff
 2647 053a 51040000 		.4byte	.LLST21
 2648 053e 15       		.uleb128 0x15
 2649 053f 72657400 		.ascii	"ret\000"
 2650 0543 01       		.byte	0x1
 2651 0544 CD03     		.2byte	0x3cd
 2652 0546 7C020000 		.4byte	0x27c
 2653 054a 8B040000 		.4byte	.LLST22
 2654 054e 17       		.uleb128 0x17
 2655 054f 00000000 		.4byte	.Ldebug_ranges0+0
 2656 0553 93050000 		.4byte	0x593
 2657 0557 0F       		.uleb128 0xf
 2658 0558 95030000 		.4byte	.LASF75
 2659 055c 01       		.byte	0x1
 2660 055d DB03     		.2byte	0x3db
 2661 055f CF000000 		.4byte	0xcf
 2662 0563 AE040000 		.4byte	.LLST23
 2663 0567 15       		.uleb128 0x15
 2664 0568 726300   		.ascii	"rc\000"
 2665 056b 01       		.byte	0x1
 2666 056c DC03     		.2byte	0x3dc
 2667 056e 63010000 		.4byte	0x163
 2668 0572 CC040000 		.4byte	.LLST24
 2669 0576 18       		.uleb128 0x18
 2670 0577 22000000 		.4byte	.LVL71
 2671 057b 3D100000 		.4byte	0x103d
 2672 057f 89050000 		.4byte	0x589
ARM GAS  C:\Users\eduar\AppData\Local\Temp\ccwtx1iP.s 			page 76


 2673 0583 19       		.uleb128 0x19
 2674 0584 01       		.uleb128 0x1
 2675 0585 50       		.byte	0x50
 2676 0586 01       		.uleb128 0x1
 2677 0587 31       		.byte	0x31
 2678 0588 00       		.byte	0
 2679 0589 1A       		.uleb128 0x1a
 2680 058a 26000000 		.4byte	.LVL72
 2681 058e 49100000 		.4byte	0x1049
 2682 0592 00       		.byte	0
 2683 0593 18       		.uleb128 0x18
 2684 0594 0A000000 		.4byte	.LVL67
 2685 0598 55100000 		.4byte	0x1055
 2686 059c AF050000 		.4byte	0x5af
 2687 05a0 19       		.uleb128 0x19
 2688 05a1 01       		.uleb128 0x1
 2689 05a2 50       		.byte	0x50
 2690 05a3 03       		.uleb128 0x3
 2691 05a4 F3       		.byte	0xf3
 2692 05a5 01       		.uleb128 0x1
 2693 05a6 50       		.byte	0x50
 2694 05a7 19       		.uleb128 0x19
 2695 05a8 01       		.uleb128 0x1
 2696 05a9 51       		.byte	0x51
 2697 05aa 03       		.uleb128 0x3
 2698 05ab F3       		.byte	0xf3
 2699 05ac 01       		.uleb128 0x1
 2700 05ad 51       		.byte	0x51
 2701 05ae 00       		.byte	0
 2702 05af 1A       		.uleb128 0x1a
 2703 05b0 14000000 		.4byte	.LVL69
 2704 05b4 61100000 		.4byte	0x1061
 2705 05b8 00       		.byte	0
 2706 05b9 12       		.uleb128 0x12
 2707 05ba 19040000 		.4byte	.LASF76
 2708 05be 01       		.byte	0x1
 2709 05bf 0505     		.2byte	0x505
 2710 05c1 7C020000 		.4byte	0x27c
 2711 05c5 00000000 		.4byte	.LFB146
 2712 05c9 78000000 		.4byte	.LFE146-.LFB146
 2713 05cd 01       		.uleb128 0x1
 2714 05ce 9C       		.byte	0x9c
 2715 05cf ED060000 		.4byte	0x6ed
 2716 05d3 13       		.uleb128 0x13
 2717 05d4 90020000 		.4byte	.LASF52
 2718 05d8 01       		.byte	0x1
 2719 05d9 0505     		.2byte	0x505
 2720 05db FF020000 		.4byte	0x2ff
 2721 05df EA040000 		.4byte	.LLST25
 2722 05e3 15       		.uleb128 0x15
 2723 05e4 6900     		.ascii	"i\000"
 2724 05e6 01       		.byte	0x1
 2725 05e7 0705     		.2byte	0x507
 2726 05e9 CF000000 		.4byte	0xcf
 2727 05ed 16050000 		.4byte	.LLST26
 2728 05f1 10       		.uleb128 0x10
 2729 05f2 BB070000 		.4byte	.LASF77
ARM GAS  C:\Users\eduar\AppData\Local\Temp\ccwtx1iP.s 			page 77


 2730 05f6 01       		.byte	0x1
 2731 05f7 0805     		.2byte	0x508
 2732 05f9 CF000000 		.4byte	0xcf
 2733 05fd 02       		.uleb128 0x2
 2734 05fe 91       		.byte	0x91
 2735 05ff 64       		.sleb128 -28
 2736 0600 10       		.uleb128 0x10
 2737 0601 31060000 		.4byte	.LASF78
 2738 0605 01       		.byte	0x1
 2739 0606 0905     		.2byte	0x509
 2740 0608 ED060000 		.4byte	0x6ed
 2741 060c 03       		.uleb128 0x3
 2742 060d 91       		.byte	0x91
 2743 060e E47B     		.sleb128 -540
 2744 0610 10       		.uleb128 0x10
 2745 0611 F7040000 		.4byte	.LASF79
 2746 0615 01       		.byte	0x1
 2747 0616 0A05     		.2byte	0x50a
 2748 0618 CF000000 		.4byte	0xcf
 2749 061c 03       		.uleb128 0x3
 2750 061d 91       		.byte	0x91
 2751 061e E07B     		.sleb128 -544
 2752 0620 0F       		.uleb128 0xf
 2753 0621 56070000 		.4byte	.LASF80
 2754 0625 01       		.byte	0x1
 2755 0626 0B05     		.2byte	0x50b
 2756 0628 CF000000 		.4byte	0xcf
 2757 062c 35050000 		.4byte	.LLST27
 2758 0630 0F       		.uleb128 0xf
 2759 0631 DF030000 		.4byte	.LASF53
 2760 0635 01       		.byte	0x1
 2761 0636 0D05     		.2byte	0x50d
 2762 0638 CF000000 		.4byte	0xcf
 2763 063c 58050000 		.4byte	.LLST28
 2764 0640 15       		.uleb128 0x15
 2765 0641 72657400 		.ascii	"ret\000"
 2766 0645 01       		.byte	0x1
 2767 0646 0E05     		.2byte	0x50e
 2768 0648 7C020000 		.4byte	0x27c
 2769 064c 6B050000 		.4byte	.LLST29
 2770 0650 18       		.uleb128 0x18
 2771 0651 22000000 		.4byte	.LVL83
 2772 0655 6D100000 		.4byte	0x106d
 2773 0659 72060000 		.4byte	0x672
 2774 065d 19       		.uleb128 0x19
 2775 065e 01       		.uleb128 0x1
 2776 065f 50       		.byte	0x50
 2777 0660 03       		.uleb128 0x3
 2778 0661 91       		.byte	0x91
 2779 0662 E47B     		.sleb128 -540
 2780 0664 19       		.uleb128 0x19
 2781 0665 01       		.uleb128 0x1
 2782 0666 51       		.byte	0x51
 2783 0667 02       		.uleb128 0x2
 2784 0668 77       		.byte	0x77
 2785 0669 00       		.sleb128 0
 2786 066a 19       		.uleb128 0x19
ARM GAS  C:\Users\eduar\AppData\Local\Temp\ccwtx1iP.s 			page 78


 2787 066b 01       		.uleb128 0x1
 2788 066c 52       		.byte	0x52
 2789 066d 03       		.uleb128 0x3
 2790 066e 0A       		.byte	0xa
 2791 066f 0002     		.2byte	0x200
 2792 0671 00       		.byte	0
 2793 0672 18       		.uleb128 0x18
 2794 0673 30000000 		.4byte	.LVL85
 2795 0677 A1030000 		.4byte	0x3a1
 2796 067b 8E060000 		.4byte	0x68e
 2797 067f 19       		.uleb128 0x19
 2798 0680 01       		.uleb128 0x1
 2799 0681 50       		.byte	0x50
 2800 0682 03       		.uleb128 0x3
 2801 0683 91       		.byte	0x91
 2802 0684 E47D     		.sleb128 -284
 2803 0686 19       		.uleb128 0x19
 2804 0687 01       		.uleb128 0x1
 2805 0688 51       		.byte	0x51
 2806 0689 03       		.uleb128 0x3
 2807 068a 0A       		.byte	0xa
 2808 068b 0001     		.2byte	0x100
 2809 068d 00       		.byte	0
 2810 068e 18       		.uleb128 0x18
 2811 068f 3C000000 		.4byte	.LVL86
 2812 0693 F4040000 		.4byte	0x4f4
 2813 0697 AF060000 		.4byte	0x6af
 2814 069b 19       		.uleb128 0x19
 2815 069c 01       		.uleb128 0x1
 2816 069d 50       		.byte	0x50
 2817 069e 02       		.uleb128 0x2
 2818 069f 77       		.byte	0x77
 2819 06a0 00       		.sleb128 0
 2820 06a1 19       		.uleb128 0x19
 2821 06a2 01       		.uleb128 0x1
 2822 06a3 51       		.byte	0x51
 2823 06a4 03       		.uleb128 0x3
 2824 06a5 91       		.byte	0x91
 2825 06a6 E47B     		.sleb128 -540
 2826 06a8 19       		.uleb128 0x19
 2827 06a9 01       		.uleb128 0x1
 2828 06aa 52       		.byte	0x52
 2829 06ab 02       		.uleb128 0x2
 2830 06ac 74       		.byte	0x74
 2831 06ad 00       		.sleb128 0
 2832 06ae 00       		.byte	0
 2833 06af 18       		.uleb128 0x18
 2834 06b0 4E000000 		.4byte	.LVL89
 2835 06b4 F4040000 		.4byte	0x4f4
 2836 06b8 CA060000 		.4byte	0x6ca
 2837 06bc 19       		.uleb128 0x19
 2838 06bd 01       		.uleb128 0x1
 2839 06be 51       		.byte	0x51
 2840 06bf 03       		.uleb128 0x3
 2841 06c0 91       		.byte	0x91
 2842 06c1 E47B     		.sleb128 -540
 2843 06c3 19       		.uleb128 0x19
ARM GAS  C:\Users\eduar\AppData\Local\Temp\ccwtx1iP.s 			page 79


 2844 06c4 01       		.uleb128 0x1
 2845 06c5 52       		.byte	0x52
 2846 06c6 02       		.uleb128 0x2
 2847 06c7 74       		.byte	0x74
 2848 06c8 00       		.sleb128 0
 2849 06c9 00       		.byte	0
 2850 06ca 1B       		.uleb128 0x1b
 2851 06cb 5C000000 		.4byte	.LVL92
 2852 06cf 4C030000 		.4byte	0x34c
 2853 06d3 19       		.uleb128 0x19
 2854 06d4 01       		.uleb128 0x1
 2855 06d5 50       		.byte	0x50
 2856 06d6 02       		.uleb128 0x2
 2857 06d7 75       		.byte	0x75
 2858 06d8 00       		.sleb128 0
 2859 06d9 19       		.uleb128 0x19
 2860 06da 01       		.uleb128 0x1
 2861 06db 51       		.byte	0x51
 2862 06dc 02       		.uleb128 0x2
 2863 06dd 7D       		.byte	0x7d
 2864 06de 00       		.sleb128 0
 2865 06df 19       		.uleb128 0x19
 2866 06e0 01       		.uleb128 0x1
 2867 06e1 52       		.byte	0x52
 2868 06e2 02       		.uleb128 0x2
 2869 06e3 91       		.byte	0x91
 2870 06e4 64       		.sleb128 -28
 2871 06e5 19       		.uleb128 0x19
 2872 06e6 01       		.uleb128 0x1
 2873 06e7 53       		.byte	0x53
 2874 06e8 02       		.uleb128 0x2
 2875 06e9 74       		.byte	0x74
 2876 06ea 00       		.sleb128 0
 2877 06eb 00       		.byte	0
 2878 06ec 00       		.byte	0
 2879 06ed 1C       		.uleb128 0x1c
 2880 06ee CF000000 		.4byte	0xcf
 2881 06f2 FD060000 		.4byte	0x6fd
 2882 06f6 1D       		.uleb128 0x1d
 2883 06f7 9E000000 		.4byte	0x9e
 2884 06fb 7F       		.byte	0x7f
 2885 06fc 00       		.byte	0
 2886 06fd 12       		.uleb128 0x12
 2887 06fe 76020000 		.4byte	.LASF81
 2888 0702 01       		.byte	0x1
 2889 0703 6A04     		.2byte	0x46a
 2890 0705 7C020000 		.4byte	0x27c
 2891 0709 00000000 		.4byte	.LFB144
 2892 070d 88000000 		.4byte	.LFE144-.LFB144
 2893 0711 01       		.uleb128 0x1
 2894 0712 9C       		.byte	0x9c
 2895 0713 59080000 		.4byte	0x859
 2896 0717 13       		.uleb128 0x13
 2897 0718 F8060000 		.4byte	.LASF66
 2898 071c 01       		.byte	0x1
 2899 071d 6A04     		.2byte	0x46a
 2900 071f CF000000 		.4byte	0xcf
ARM GAS  C:\Users\eduar\AppData\Local\Temp\ccwtx1iP.s 			page 80


 2901 0723 AF050000 		.4byte	.LLST30
 2902 0727 13       		.uleb128 0x13
 2903 0728 5D000000 		.4byte	.LASF82
 2904 072c 01       		.byte	0x1
 2905 072d 6B04     		.2byte	0x46b
 2906 072f CF000000 		.4byte	0xcf
 2907 0733 DB050000 		.4byte	.LLST31
 2908 0737 13       		.uleb128 0x13
 2909 0738 40060000 		.4byte	.LASF83
 2910 073c 01       		.byte	0x1
 2911 073d 6C04     		.2byte	0x46c
 2912 073f CF000000 		.4byte	0xcf
 2913 0743 07060000 		.4byte	.LLST32
 2914 0747 13       		.uleb128 0x13
 2915 0748 43020000 		.4byte	.LASF84
 2916 074c 01       		.byte	0x1
 2917 074d 6D04     		.2byte	0x46d
 2918 074f CF000000 		.4byte	0xcf
 2919 0753 33060000 		.4byte	.LLST33
 2920 0757 13       		.uleb128 0x13
 2921 0758 90020000 		.4byte	.LASF52
 2922 075c 01       		.byte	0x1
 2923 075d 6E04     		.2byte	0x46e
 2924 075f FF020000 		.4byte	0x2ff
 2925 0763 5F060000 		.4byte	.LLST34
 2926 0767 15       		.uleb128 0x15
 2927 0768 72657400 		.ascii	"ret\000"
 2928 076c 01       		.byte	0x1
 2929 076d 7004     		.2byte	0x470
 2930 076f 7C020000 		.4byte	0x27c
 2931 0773 7F060000 		.4byte	.LLST35
 2932 0777 10       		.uleb128 0x10
 2933 0778 31060000 		.4byte	.LASF78
 2934 077c 01       		.byte	0x1
 2935 077d 7104     		.2byte	0x471
 2936 077f ED060000 		.4byte	0x6ed
 2937 0783 03       		.uleb128 0x3
 2938 0784 91       		.byte	0x91
 2939 0785 E07B     		.sleb128 -544
 2940 0787 0F       		.uleb128 0xf
 2941 0788 53060000 		.4byte	.LASF85
 2942 078c 01       		.byte	0x1
 2943 078d 7404     		.2byte	0x474
 2944 078f CF000000 		.4byte	0xcf
 2945 0793 BF060000 		.4byte	.LLST36
 2946 0797 18       		.uleb128 0x18
 2947 0798 28000000 		.4byte	.LVL100
 2948 079c A1030000 		.4byte	0x3a1
 2949 07a0 B3070000 		.4byte	0x7b3
 2950 07a4 19       		.uleb128 0x19
 2951 07a5 01       		.uleb128 0x1
 2952 07a6 50       		.byte	0x50
 2953 07a7 03       		.uleb128 0x3
 2954 07a8 75       		.byte	0x75
 2955 07a9 8002     		.sleb128 256
 2956 07ab 19       		.uleb128 0x19
 2957 07ac 01       		.uleb128 0x1
ARM GAS  C:\Users\eduar\AppData\Local\Temp\ccwtx1iP.s 			page 81


 2958 07ad 51       		.byte	0x51
 2959 07ae 03       		.uleb128 0x3
 2960 07af 0A       		.byte	0xa
 2961 07b0 0001     		.2byte	0x100
 2962 07b2 00       		.byte	0
 2963 07b3 18       		.uleb128 0x18
 2964 07b4 38000000 		.4byte	.LVL101
 2965 07b8 6D100000 		.4byte	0x106d
 2966 07bc D6070000 		.4byte	0x7d6
 2967 07c0 19       		.uleb128 0x19
 2968 07c1 01       		.uleb128 0x1
 2969 07c2 50       		.byte	0x50
 2970 07c3 02       		.uleb128 0x2
 2971 07c4 7A       		.byte	0x7a
 2972 07c5 00       		.sleb128 0
 2973 07c6 19       		.uleb128 0x19
 2974 07c7 01       		.uleb128 0x1
 2975 07c8 51       		.byte	0x51
 2976 07c9 05       		.uleb128 0x5
 2977 07ca 75       		.byte	0x75
 2978 07cb 00       		.sleb128 0
 2979 07cc 78       		.byte	0x78
 2980 07cd 00       		.sleb128 0
 2981 07ce 22       		.byte	0x22
 2982 07cf 19       		.uleb128 0x19
 2983 07d0 01       		.uleb128 0x1
 2984 07d1 52       		.byte	0x52
 2985 07d2 02       		.uleb128 0x2
 2986 07d3 79       		.byte	0x79
 2987 07d4 00       		.sleb128 0
 2988 07d5 00       		.byte	0
 2989 07d6 18       		.uleb128 0x18
 2990 07d7 4A000000 		.4byte	.LVL104
 2991 07db A1030000 		.4byte	0x3a1
 2992 07df F2070000 		.4byte	0x7f2
 2993 07e3 19       		.uleb128 0x19
 2994 07e4 01       		.uleb128 0x1
 2995 07e5 50       		.byte	0x50
 2996 07e6 03       		.uleb128 0x3
 2997 07e7 74       		.byte	0x74
 2998 07e8 8002     		.sleb128 256
 2999 07ea 19       		.uleb128 0x19
 3000 07eb 01       		.uleb128 0x1
 3001 07ec 51       		.byte	0x51
 3002 07ed 03       		.uleb128 0x3
 3003 07ee 0A       		.byte	0xa
 3004 07ef 0001     		.2byte	0x100
 3005 07f1 00       		.byte	0
 3006 07f2 18       		.uleb128 0x18
 3007 07f3 5A000000 		.4byte	.LVL105
 3008 07f7 6D100000 		.4byte	0x106d
 3009 07fb 13080000 		.4byte	0x813
 3010 07ff 19       		.uleb128 0x19
 3011 0800 01       		.uleb128 0x1
 3012 0801 50       		.byte	0x50
 3013 0802 02       		.uleb128 0x2
 3014 0803 7D       		.byte	0x7d
ARM GAS  C:\Users\eduar\AppData\Local\Temp\ccwtx1iP.s 			page 82


 3015 0804 00       		.sleb128 0
 3016 0805 19       		.uleb128 0x19
 3017 0806 01       		.uleb128 0x1
 3018 0807 51       		.byte	0x51
 3019 0808 02       		.uleb128 0x2
 3020 0809 74       		.byte	0x74
 3021 080a 00       		.sleb128 0
 3022 080b 19       		.uleb128 0x19
 3023 080c 01       		.uleb128 0x1
 3024 080d 52       		.byte	0x52
 3025 080e 03       		.uleb128 0x3
 3026 080f 0A       		.byte	0xa
 3027 0810 0002     		.2byte	0x200
 3028 0812 00       		.byte	0
 3029 0813 18       		.uleb128 0x18
 3030 0814 64000000 		.4byte	.LVL106
 3031 0818 F4040000 		.4byte	0x4f4
 3032 081c 33080000 		.4byte	0x833
 3033 0820 19       		.uleb128 0x19
 3034 0821 01       		.uleb128 0x1
 3035 0822 50       		.byte	0x50
 3036 0823 02       		.uleb128 0x2
 3037 0824 75       		.byte	0x75
 3038 0825 00       		.sleb128 0
 3039 0826 19       		.uleb128 0x19
 3040 0827 01       		.uleb128 0x1
 3041 0828 51       		.byte	0x51
 3042 0829 02       		.uleb128 0x2
 3043 082a 7D       		.byte	0x7d
 3044 082b 00       		.sleb128 0
 3045 082c 19       		.uleb128 0x19
 3046 082d 01       		.uleb128 0x1
 3047 082e 52       		.byte	0x52
 3048 082f 02       		.uleb128 0x2
 3049 0830 76       		.byte	0x76
 3050 0831 00       		.sleb128 0
 3051 0832 00       		.byte	0
 3052 0833 1B       		.uleb128 0x1b
 3053 0834 74000000 		.4byte	.LVL109
 3054 0838 6D100000 		.4byte	0x106d
 3055 083c 19       		.uleb128 0x19
 3056 083d 01       		.uleb128 0x1
 3057 083e 50       		.byte	0x50
 3058 083f 02       		.uleb128 0x2
 3059 0840 7A       		.byte	0x7a
 3060 0841 00       		.sleb128 0
 3061 0842 19       		.uleb128 0x19
 3062 0843 01       		.uleb128 0x1
 3063 0844 51       		.byte	0x51
 3064 0845 0B       		.uleb128 0xb
 3065 0846 78       		.byte	0x78
 3066 0847 00       		.sleb128 0
 3067 0848 32       		.byte	0x32
 3068 0849 24       		.byte	0x24
 3069 084a 91       		.byte	0x91
 3070 084b 00       		.sleb128 0
 3071 084c 22       		.byte	0x22
ARM GAS  C:\Users\eduar\AppData\Local\Temp\ccwtx1iP.s 			page 83


 3072 084d 0A       		.byte	0xa
 3073 084e 2002     		.2byte	0x220
 3074 0850 1C       		.byte	0x1c
 3075 0851 19       		.uleb128 0x19
 3076 0852 01       		.uleb128 0x1
 3077 0853 52       		.byte	0x52
 3078 0854 02       		.uleb128 0x2
 3079 0855 79       		.byte	0x79
 3080 0856 00       		.sleb128 0
 3081 0857 00       		.byte	0
 3082 0858 00       		.byte	0
 3083 0859 12       		.uleb128 0x12
 3084 085a 2A030000 		.4byte	.LASF86
 3085 085e 01       		.byte	0x1
 3086 085f 0704     		.2byte	0x407
 3087 0861 7C020000 		.4byte	0x27c
 3088 0865 00000000 		.4byte	.LFB143
 3089 0869 7C000000 		.4byte	.LFE143-.LFB143
 3090 086d 01       		.uleb128 0x1
 3091 086e 9C       		.byte	0x9c
 3092 086f 3B090000 		.4byte	0x93b
 3093 0873 13       		.uleb128 0x13
 3094 0874 9B050000 		.4byte	.LASF74
 3095 0878 01       		.byte	0x1
 3096 0879 0704     		.2byte	0x407
 3097 087b CF000000 		.4byte	0xcf
 3098 087f E8060000 		.4byte	.LLST37
 3099 0883 13       		.uleb128 0x13
 3100 0884 FD010000 		.4byte	.LASF87
 3101 0888 01       		.byte	0x1
 3102 0889 0804     		.2byte	0x408
 3103 088b CF000000 		.4byte	0xcf
 3104 088f 09070000 		.4byte	.LLST38
 3105 0893 13       		.uleb128 0x13
 3106 0894 90020000 		.4byte	.LASF52
 3107 0898 01       		.byte	0x1
 3108 0899 0904     		.2byte	0x409
 3109 089b FF020000 		.4byte	0x2ff
 3110 089f 2A070000 		.4byte	.LLST39
 3111 08a3 0F       		.uleb128 0xf
 3112 08a4 75080000 		.4byte	.LASF88
 3113 08a8 01       		.byte	0x1
 3114 08a9 0B04     		.2byte	0x40b
 3115 08ab CF000000 		.4byte	0xcf
 3116 08af 56070000 		.4byte	.LLST40
 3117 08b3 15       		.uleb128 0x15
 3118 08b4 72657400 		.ascii	"ret\000"
 3119 08b8 01       		.byte	0x1
 3120 08b9 0C04     		.2byte	0x40c
 3121 08bb 7C020000 		.4byte	0x27c
 3122 08bf 7F070000 		.4byte	.LLST41
 3123 08c3 15       		.uleb128 0x15
 3124 08c4 6900     		.ascii	"i\000"
 3125 08c6 01       		.byte	0x1
 3126 08c7 0D04     		.2byte	0x40d
 3127 08c9 CF000000 		.4byte	0xcf
 3128 08cd B8070000 		.4byte	.LLST42
ARM GAS  C:\Users\eduar\AppData\Local\Temp\ccwtx1iP.s 			page 84


 3129 08d1 17       		.uleb128 0x17
 3130 08d2 18000000 		.4byte	.Ldebug_ranges0+0x18
 3131 08d6 16090000 		.4byte	0x916
 3132 08da 0F       		.uleb128 0xf
 3133 08db 95030000 		.4byte	.LASF75
 3134 08df 01       		.byte	0x1
 3135 08e0 2504     		.2byte	0x425
 3136 08e2 CF000000 		.4byte	0xcf
 3137 08e6 EF070000 		.4byte	.LLST43
 3138 08ea 15       		.uleb128 0x15
 3139 08eb 726300   		.ascii	"rc\000"
 3140 08ee 01       		.byte	0x1
 3141 08ef 2604     		.2byte	0x426
 3142 08f1 63010000 		.4byte	0x163
 3143 08f5 0D080000 		.4byte	.LLST44
 3144 08f9 18       		.uleb128 0x18
 3145 08fa 38000000 		.4byte	.LVL119
 3146 08fe 3D100000 		.4byte	0x103d
 3147 0902 0C090000 		.4byte	0x90c
 3148 0906 19       		.uleb128 0x19
 3149 0907 01       		.uleb128 0x1
 3150 0908 50       		.byte	0x50
 3151 0909 01       		.uleb128 0x1
 3152 090a 31       		.byte	0x31
 3153 090b 00       		.byte	0
 3154 090c 1A       		.uleb128 0x1a
 3155 090d 3C000000 		.4byte	.LVL120
 3156 0911 49100000 		.4byte	0x1049
 3157 0915 00       		.byte	0
 3158 0916 18       		.uleb128 0x18
 3159 0917 20000000 		.4byte	.LVL116
 3160 091b 76100000 		.4byte	0x1076
 3161 091f 2A090000 		.4byte	0x92a
 3162 0923 19       		.uleb128 0x19
 3163 0924 01       		.uleb128 0x1
 3164 0925 50       		.byte	0x50
 3165 0926 02       		.uleb128 0x2
 3166 0927 75       		.byte	0x75
 3167 0928 00       		.sleb128 0
 3168 0929 00       		.byte	0
 3169 092a 1B       		.uleb128 0x1b
 3170 092b 2A000000 		.4byte	.LVL117
 3171 092f 82100000 		.4byte	0x1082
 3172 0933 19       		.uleb128 0x19
 3173 0934 01       		.uleb128 0x1
 3174 0935 50       		.byte	0x50
 3175 0936 02       		.uleb128 0x2
 3176 0937 75       		.byte	0x75
 3177 0938 00       		.sleb128 0
 3178 0939 00       		.byte	0
 3179 093a 00       		.byte	0
 3180 093b 1E       		.uleb128 0x1e
 3181 093c D7050000 		.4byte	.LASF89
 3182 0940 01       		.byte	0x1
 3183 0941 5A       		.byte	0x5a
 3184 0942 7C020000 		.4byte	0x27c
 3185 0946 00000000 		.4byte	.LFB132
ARM GAS  C:\Users\eduar\AppData\Local\Temp\ccwtx1iP.s 			page 85


 3186 094a 9C000000 		.4byte	.LFE132-.LFB132
 3187 094e 01       		.uleb128 0x1
 3188 094f 9C       		.byte	0x9c
 3189 0950 DA090000 		.4byte	0x9da
 3190 0954 1F       		.uleb128 0x1f
 3191 0955 D7060000 		.4byte	.LASF65
 3192 0959 01       		.byte	0x1
 3193 095a 5A       		.byte	0x5a
 3194 095b 65040000 		.4byte	0x465
 3195 095f 2B080000 		.4byte	.LLST45
 3196 0963 1F       		.uleb128 0x1f
 3197 0964 90020000 		.4byte	.LASF52
 3198 0968 01       		.byte	0x1
 3199 0969 5A       		.byte	0x5a
 3200 096a FF020000 		.4byte	0x2ff
 3201 096e 70080000 		.4byte	.LLST46
 3202 0972 20       		.uleb128 0x20
 3203 0973 72657400 		.ascii	"ret\000"
 3204 0977 01       		.byte	0x1
 3205 0978 5C       		.byte	0x5c
 3206 0979 7C020000 		.4byte	0x27c
 3207 097d A7080000 		.4byte	.LLST47
 3208 0981 18       		.uleb128 0x18
 3209 0982 24000000 		.4byte	.LVL132
 3210 0986 0E040000 		.4byte	0x40e
 3211 098a 95090000 		.4byte	0x995
 3212 098e 19       		.uleb128 0x19
 3213 098f 01       		.uleb128 0x1
 3214 0990 50       		.byte	0x50
 3215 0991 02       		.uleb128 0x2
 3216 0992 74       		.byte	0x74
 3217 0993 00       		.sleb128 0
 3218 0994 00       		.byte	0
 3219 0995 18       		.uleb128 0x18
 3220 0996 66000000 		.4byte	.LVL135
 3221 099a 88020000 		.4byte	0x288
 3222 099e AF090000 		.4byte	0x9af
 3223 09a2 19       		.uleb128 0x19
 3224 09a3 01       		.uleb128 0x1
 3225 09a4 50       		.byte	0x50
 3226 09a5 02       		.uleb128 0x2
 3227 09a6 74       		.byte	0x74
 3228 09a7 00       		.sleb128 0
 3229 09a8 19       		.uleb128 0x19
 3230 09a9 01       		.uleb128 0x1
 3231 09aa 51       		.byte	0x51
 3232 09ab 02       		.uleb128 0x2
 3233 09ac 76       		.byte	0x76
 3234 09ad 00       		.sleb128 0
 3235 09ae 00       		.byte	0
 3236 09af 18       		.uleb128 0x18
 3237 09b0 76000000 		.4byte	.LVL136
 3238 09b4 B9050000 		.4byte	0x5b9
 3239 09b8 C3090000 		.4byte	0x9c3
 3240 09bc 19       		.uleb128 0x19
 3241 09bd 01       		.uleb128 0x1
 3242 09be 50       		.byte	0x50
ARM GAS  C:\Users\eduar\AppData\Local\Temp\ccwtx1iP.s 			page 86


 3243 09bf 02       		.uleb128 0x2
 3244 09c0 76       		.byte	0x76
 3245 09c1 00       		.sleb128 0
 3246 09c2 00       		.byte	0
 3247 09c3 1B       		.uleb128 0x1b
 3248 09c4 80000000 		.4byte	.LVL139
 3249 09c8 88020000 		.4byte	0x288
 3250 09cc 19       		.uleb128 0x19
 3251 09cd 01       		.uleb128 0x1
 3252 09ce 50       		.byte	0x50
 3253 09cf 02       		.uleb128 0x2
 3254 09d0 74       		.byte	0x74
 3255 09d1 00       		.sleb128 0
 3256 09d2 19       		.uleb128 0x19
 3257 09d3 01       		.uleb128 0x1
 3258 09d4 51       		.byte	0x51
 3259 09d5 02       		.uleb128 0x2
 3260 09d6 76       		.byte	0x76
 3261 09d7 00       		.sleb128 0
 3262 09d8 00       		.byte	0
 3263 09d9 00       		.byte	0
 3264 09da 1E       		.uleb128 0x1e
 3265 09db 7E010000 		.4byte	.LASF90
 3266 09df 01       		.byte	0x1
 3267 09e0 A4       		.byte	0xa4
 3268 09e1 7C020000 		.4byte	0x27c
 3269 09e5 00000000 		.4byte	.LFB133
 3270 09e9 F8010000 		.4byte	.LFE133-.LFB133
 3271 09ed 01       		.uleb128 0x1
 3272 09ee 9C       		.byte	0x9c
 3273 09ef F90B0000 		.4byte	0xbf9
 3274 09f3 1F       		.uleb128 0x1f
 3275 09f4 AA000000 		.4byte	.LASF71
 3276 09f8 01       		.byte	0x1
 3277 09f9 A4       		.byte	0xa4
 3278 09fa CF000000 		.4byte	0xcf
 3279 09fe 11090000 		.4byte	.LLST48
 3280 0a02 1F       		.uleb128 0x1f
 3281 0a03 F6020000 		.4byte	.LASF91
 3282 0a07 01       		.byte	0x1
 3283 0a08 A5       		.byte	0xa5
 3284 0a09 A5000000 		.4byte	0xa5
 3285 0a0d 5F090000 		.4byte	.LLST49
 3286 0a11 1F       		.uleb128 0x1f
 3287 0a12 98020000 		.4byte	.LASF92
 3288 0a16 01       		.byte	0x1
 3289 0a17 A6       		.byte	0xa6
 3290 0a18 CF000000 		.4byte	0xcf
 3291 0a1c A1090000 		.4byte	.LLST50
 3292 0a20 1F       		.uleb128 0x1f
 3293 0a21 90020000 		.4byte	.LASF52
 3294 0a25 01       		.byte	0x1
 3295 0a26 A7       		.byte	0xa7
 3296 0a27 FF020000 		.4byte	0x2ff
 3297 0a2b F1090000 		.4byte	.LLST51
 3298 0a2f 20       		.uleb128 0x20
 3299 0a30 72657400 		.ascii	"ret\000"
ARM GAS  C:\Users\eduar\AppData\Local\Temp\ccwtx1iP.s 			page 87


 3300 0a34 01       		.byte	0x1
 3301 0a35 A9       		.byte	0xa9
 3302 0a36 7C020000 		.4byte	0x27c
 3303 0a3a 410A0000 		.4byte	.LLST52
 3304 0a3e 20       		.uleb128 0x20
 3305 0a3f 6900     		.ascii	"i\000"
 3306 0a41 01       		.byte	0x1
 3307 0a42 AA       		.byte	0xaa
 3308 0a43 CF000000 		.4byte	0xcf
 3309 0a47 CD0A0000 		.4byte	.LLST53
 3310 0a4b 21       		.uleb128 0x21
 3311 0a4c DE060000 		.4byte	.LASF93
 3312 0a50 01       		.byte	0x1
 3313 0a51 AB       		.byte	0xab
 3314 0a52 CF000000 		.4byte	0xcf
 3315 0a56 260B0000 		.4byte	.LLST54
 3316 0a5a 21       		.uleb128 0x21
 3317 0a5b 18030000 		.4byte	.LASF94
 3318 0a5f 01       		.byte	0x1
 3319 0a60 AC       		.byte	0xac
 3320 0a61 CF000000 		.4byte	0xcf
 3321 0a65 5A0B0000 		.4byte	.LLST55
 3322 0a69 21       		.uleb128 0x21
 3323 0a6a 61070000 		.4byte	.LASF95
 3324 0a6e 01       		.byte	0x1
 3325 0a6f AD       		.byte	0xad
 3326 0a70 CF000000 		.4byte	0xcf
 3327 0a74 7A0B0000 		.4byte	.LLST56
 3328 0a78 21       		.uleb128 0x21
 3329 0a79 01030000 		.4byte	.LASF96
 3330 0a7d 01       		.byte	0x1
 3331 0a7e AE       		.byte	0xae
 3332 0a7f CF000000 		.4byte	0xcf
 3333 0a83 C90B0000 		.4byte	.LLST57
 3334 0a87 21       		.uleb128 0x21
 3335 0a88 90010000 		.4byte	.LASF97
 3336 0a8c 01       		.byte	0x1
 3337 0a8d AF       		.byte	0xaf
 3338 0a8e CF000000 		.4byte	0xcf
 3339 0a92 5C0C0000 		.4byte	.LLST58
 3340 0a96 21       		.uleb128 0x21
 3341 0a97 42080000 		.4byte	.LASF98
 3342 0a9b 01       		.byte	0x1
 3343 0a9c B0       		.byte	0xb0
 3344 0a9d CF000000 		.4byte	0xcf
 3345 0aa1 7B0C0000 		.4byte	.LLST59
 3346 0aa5 21       		.uleb128 0x21
 3347 0aa6 C1050000 		.4byte	.LASF99
 3348 0aaa 01       		.byte	0x1
 3349 0aab B1       		.byte	0xb1
 3350 0aac CF000000 		.4byte	0xcf
 3351 0ab0 A60C0000 		.4byte	.LLST60
 3352 0ab4 21       		.uleb128 0x21
 3353 0ab5 85080000 		.4byte	.LASF100
 3354 0ab9 01       		.byte	0x1
 3355 0aba B2       		.byte	0xb2
 3356 0abb CF000000 		.4byte	0xcf
ARM GAS  C:\Users\eduar\AppData\Local\Temp\ccwtx1iP.s 			page 88


 3357 0abf D10C0000 		.4byte	.LLST61
 3358 0ac3 22       		.uleb128 0x22
 3359 0ac4 30000000 		.4byte	.Ldebug_ranges0+0x30
 3360 0ac8 21       		.uleb128 0x21
 3361 0ac9 BB070000 		.4byte	.LASF77
 3362 0acd 01       		.byte	0x1
 3363 0ace B7       		.byte	0xb7
 3364 0acf CF000000 		.4byte	0xcf
 3365 0ad3 260D0000 		.4byte	.LLST62
 3366 0ad7 21       		.uleb128 0x21
 3367 0ad8 85070000 		.4byte	.LASF101
 3368 0adc 01       		.byte	0x1
 3369 0add B8       		.byte	0xb8
 3370 0ade CF000000 		.4byte	0xcf
 3371 0ae2 BC0D0000 		.4byte	.LLST63
 3372 0ae6 21       		.uleb128 0x21
 3373 0ae7 DF030000 		.4byte	.LASF53
 3374 0aeb 01       		.byte	0x1
 3375 0aec BA       		.byte	0xba
 3376 0aed CF000000 		.4byte	0xcf
 3377 0af1 CF0D0000 		.4byte	.LLST64
 3378 0af5 21       		.uleb128 0x21
 3379 0af6 D2010000 		.4byte	.LASF102
 3380 0afa 01       		.byte	0x1
 3381 0afb BB       		.byte	0xbb
 3382 0afc CF000000 		.4byte	0xcf
 3383 0b00 070E0000 		.4byte	.LLST65
 3384 0b04 21       		.uleb128 0x21
 3385 0b05 69080000 		.4byte	.LASF103
 3386 0b09 01       		.byte	0x1
 3387 0b0a C0       		.byte	0xc0
 3388 0b0b CF000000 		.4byte	0xcf
 3389 0b0f 270E0000 		.4byte	.LLST66
 3390 0b13 17       		.uleb128 0x17
 3391 0b14 50000000 		.4byte	.Ldebug_ranges0+0x50
 3392 0b18 2C0B0000 		.4byte	0xb2c
 3393 0b1c 21       		.uleb128 0x21
 3394 0b1d E9010000 		.4byte	.LASF104
 3395 0b21 01       		.byte	0x1
 3396 0b22 DD       		.byte	0xdd
 3397 0b23 CF000000 		.4byte	0xcf
 3398 0b27 450E0000 		.4byte	.LLST67
 3399 0b2b 00       		.byte	0
 3400 0b2c 17       		.uleb128 0x17
 3401 0b2d 68000000 		.4byte	.Ldebug_ranges0+0x68
 3402 0b31 9A0B0000 		.4byte	0xb9a
 3403 0b35 0F       		.uleb128 0xf
 3404 0b36 F8060000 		.4byte	.LASF66
 3405 0b3a 01       		.byte	0x1
 3406 0b3b 3601     		.2byte	0x136
 3407 0b3d CF000000 		.4byte	0xcf
 3408 0b41 A40E0000 		.4byte	.LLST68
 3409 0b45 0F       		.uleb128 0xf
 3410 0b46 1F050000 		.4byte	.LASF67
 3411 0b4a 01       		.byte	0x1
 3412 0b4b 3701     		.2byte	0x137
 3413 0b4d CF000000 		.4byte	0xcf
ARM GAS  C:\Users\eduar\AppData\Local\Temp\ccwtx1iP.s 			page 89


 3414 0b51 CF0E0000 		.4byte	.LLST69
 3415 0b55 22       		.uleb128 0x22
 3416 0b56 80000000 		.4byte	.Ldebug_ranges0+0x80
 3417 0b5a 0F       		.uleb128 0xf
 3418 0b5b 86020000 		.4byte	.LASF105
 3419 0b5f 01       		.byte	0x1
 3420 0b60 3C01     		.2byte	0x13c
 3421 0b62 CF000000 		.4byte	0xcf
 3422 0b66 170F0000 		.4byte	.LLST70
 3423 0b6a 0F       		.uleb128 0xf
 3424 0b6b 01080000 		.4byte	.LASF106
 3425 0b6f 01       		.byte	0x1
 3426 0b70 3D01     		.2byte	0x13d
 3427 0b72 CF000000 		.4byte	0xcf
 3428 0b76 350F0000 		.4byte	.LLST71
 3429 0b7a 18       		.uleb128 0x18
 3430 0b7b C2010000 		.4byte	.LVL216
 3431 0b7f FD060000 		.4byte	0x6fd
 3432 0b83 8F0B0000 		.4byte	0xb8f
 3433 0b87 19       		.uleb128 0x19
 3434 0b88 02       		.uleb128 0x2
 3435 0b89 7D       		.byte	0x7d
 3436 0b8a 00       		.sleb128 0
 3437 0b8b 02       		.uleb128 0x2
 3438 0b8c 76       		.byte	0x76
 3439 0b8d 00       		.sleb128 0
 3440 0b8e 00       		.byte	0
 3441 0b8f 1A       		.uleb128 0x1a
 3442 0b90 D2010000 		.4byte	.LVL218
 3443 0b94 6D100000 		.4byte	0x106d
 3444 0b98 00       		.byte	0
 3445 0b99 00       		.byte	0
 3446 0b9a 18       		.uleb128 0x18
 3447 0b9b 08010000 		.4byte	.LVL181
 3448 0b9f FD060000 		.4byte	0x6fd
 3449 0ba3 C70B0000 		.4byte	0xbc7
 3450 0ba7 19       		.uleb128 0x19
 3451 0ba8 01       		.uleb128 0x1
 3452 0ba9 51       		.byte	0x51
 3453 0baa 02       		.uleb128 0x2
 3454 0bab 78       		.byte	0x78
 3455 0bac 00       		.sleb128 0
 3456 0bad 19       		.uleb128 0x19
 3457 0bae 01       		.uleb128 0x1
 3458 0baf 52       		.byte	0x52
 3459 0bb0 08       		.uleb128 0x8
 3460 0bb1 7A       		.byte	0x7a
 3461 0bb2 00       		.sleb128 0
 3462 0bb3 08       		.byte	0x8
 3463 0bb4 FF       		.byte	0xff
 3464 0bb5 1A       		.byte	0x1a
 3465 0bb6 23       		.byte	0x23
 3466 0bb7 8002     		.uleb128 0x100
 3467 0bb9 19       		.uleb128 0x19
 3468 0bba 01       		.uleb128 0x1
 3469 0bbb 53       		.byte	0x53
 3470 0bbc 02       		.uleb128 0x2
ARM GAS  C:\Users\eduar\AppData\Local\Temp\ccwtx1iP.s 			page 90


 3471 0bbd 74       		.byte	0x74
 3472 0bbe 00       		.sleb128 0
 3473 0bbf 19       		.uleb128 0x19
 3474 0bc0 02       		.uleb128 0x2
 3475 0bc1 7D       		.byte	0x7d
 3476 0bc2 00       		.sleb128 0
 3477 0bc3 02       		.uleb128 0x2
 3478 0bc4 76       		.byte	0x76
 3479 0bc5 00       		.sleb128 0
 3480 0bc6 00       		.byte	0
 3481 0bc7 18       		.uleb128 0x18
 3482 0bc8 1E010000 		.4byte	.LVL187
 3483 0bcc 6D100000 		.4byte	0x106d
 3484 0bd0 E10B0000 		.4byte	0xbe1
 3485 0bd4 19       		.uleb128 0x19
 3486 0bd5 01       		.uleb128 0x1
 3487 0bd6 50       		.byte	0x50
 3488 0bd7 02       		.uleb128 0x2
 3489 0bd8 78       		.byte	0x78
 3490 0bd9 00       		.sleb128 0
 3491 0bda 19       		.uleb128 0x19
 3492 0bdb 01       		.uleb128 0x1
 3493 0bdc 52       		.byte	0x52
 3494 0bdd 02       		.uleb128 0x2
 3495 0bde 74       		.byte	0x74
 3496 0bdf 00       		.sleb128 0
 3497 0be0 00       		.byte	0
 3498 0be1 1B       		.uleb128 0x1b
 3499 0be2 5E010000 		.4byte	.LVL202
 3500 0be6 05030000 		.4byte	0x305
 3501 0bea 19       		.uleb128 0x19
 3502 0beb 01       		.uleb128 0x1
 3503 0bec 50       		.byte	0x50
 3504 0bed 02       		.uleb128 0x2
 3505 0bee 75       		.byte	0x75
 3506 0bef 00       		.sleb128 0
 3507 0bf0 19       		.uleb128 0x19
 3508 0bf1 01       		.uleb128 0x1
 3509 0bf2 51       		.byte	0x51
 3510 0bf3 02       		.uleb128 0x2
 3511 0bf4 76       		.byte	0x76
 3512 0bf5 00       		.sleb128 0
 3513 0bf6 00       		.byte	0
 3514 0bf7 00       		.byte	0
 3515 0bf8 00       		.byte	0
 3516 0bf9 23       		.uleb128 0x23
 3517 0bfa CC030000 		.4byte	.LASF107
 3518 0bfe 01       		.byte	0x1
 3519 0bff 9601     		.2byte	0x196
 3520 0c01 7C020000 		.4byte	0x27c
 3521 0c05 00000000 		.4byte	.LFB134
 3522 0c09 78010000 		.4byte	.LFE134-.LFB134
 3523 0c0d 01       		.uleb128 0x1
 3524 0c0e 9C       		.byte	0x9c
 3525 0c0f 8E0E0000 		.4byte	0xe8e
 3526 0c13 13       		.uleb128 0x13
 3527 0c14 AA000000 		.4byte	.LASF71
ARM GAS  C:\Users\eduar\AppData\Local\Temp\ccwtx1iP.s 			page 91


 3528 0c18 01       		.byte	0x1
 3529 0c19 9601     		.2byte	0x196
 3530 0c1b CF000000 		.4byte	0xcf
 3531 0c1f 480F0000 		.4byte	.LLST72
 3532 0c23 13       		.uleb128 0x13
 3533 0c24 F6020000 		.4byte	.LASF91
 3534 0c28 01       		.byte	0x1
 3535 0c29 9701     		.2byte	0x197
 3536 0c2b A5000000 		.4byte	0xa5
 3537 0c2f A00F0000 		.4byte	.LLST73
 3538 0c33 13       		.uleb128 0x13
 3539 0c34 98020000 		.4byte	.LASF92
 3540 0c38 01       		.byte	0x1
 3541 0c39 9801     		.2byte	0x198
 3542 0c3b CF000000 		.4byte	0xcf
 3543 0c3f DA0F0000 		.4byte	.LLST74
 3544 0c43 13       		.uleb128 0x13
 3545 0c44 90020000 		.4byte	.LASF52
 3546 0c48 01       		.byte	0x1
 3547 0c49 9901     		.2byte	0x199
 3548 0c4b FF020000 		.4byte	0x2ff
 3549 0c4f 0E100000 		.4byte	.LLST75
 3550 0c53 15       		.uleb128 0x15
 3551 0c54 72657400 		.ascii	"ret\000"
 3552 0c58 01       		.byte	0x1
 3553 0c59 9B01     		.2byte	0x19b
 3554 0c5b 7C020000 		.4byte	0x27c
 3555 0c5f 3A100000 		.4byte	.LLST76
 3556 0c63 15       		.uleb128 0x15
 3557 0c64 6900     		.ascii	"i\000"
 3558 0c66 01       		.byte	0x1
 3559 0c67 9C01     		.2byte	0x19c
 3560 0c69 CF000000 		.4byte	0xcf
 3561 0c6d 8E100000 		.4byte	.LLST77
 3562 0c71 0F       		.uleb128 0xf
 3563 0c72 FE040000 		.4byte	.LASF108
 3564 0c76 01       		.byte	0x1
 3565 0c77 9D01     		.2byte	0x19d
 3566 0c79 CF000000 		.4byte	0xcf
 3567 0c7d A1100000 		.4byte	.LLST78
 3568 0c81 0F       		.uleb128 0xf
 3569 0c82 C7020000 		.4byte	.LASF109
 3570 0c86 01       		.byte	0x1
 3571 0c87 9E01     		.2byte	0x19e
 3572 0c89 CF000000 		.4byte	0xcf
 3573 0c8d C0100000 		.4byte	.LLST79
 3574 0c91 10       		.uleb128 0x10
 3575 0c92 31060000 		.4byte	.LASF78
 3576 0c96 01       		.byte	0x1
 3577 0c97 9F01     		.2byte	0x19f
 3578 0c99 ED060000 		.4byte	0x6ed
 3579 0c9d 03       		.uleb128 0x3
 3580 0c9e 91       		.byte	0x91
 3581 0c9f D87B     		.sleb128 -552
 3582 0ca1 10       		.uleb128 0x10
 3583 0ca2 F8060000 		.4byte	.LASF66
 3584 0ca6 01       		.byte	0x1
ARM GAS  C:\Users\eduar\AppData\Local\Temp\ccwtx1iP.s 			page 92


 3585 0ca7 A001     		.2byte	0x1a0
 3586 0ca9 CF000000 		.4byte	0xcf
 3587 0cad 03       		.uleb128 0x3
 3588 0cae 91       		.byte	0x91
 3589 0caf D47B     		.sleb128 -556
 3590 0cb1 10       		.uleb128 0x10
 3591 0cb2 1F050000 		.4byte	.LASF67
 3592 0cb6 01       		.byte	0x1
 3593 0cb7 A101     		.2byte	0x1a1
 3594 0cb9 CF000000 		.4byte	0xcf
 3595 0cbd 03       		.uleb128 0x3
 3596 0cbe 91       		.byte	0x91
 3597 0cbf D07B     		.sleb128 -560
 3598 0cc1 0F       		.uleb128 0xf
 3599 0cc2 56070000 		.4byte	.LASF80
 3600 0cc6 01       		.byte	0x1
 3601 0cc7 A201     		.2byte	0x1a2
 3602 0cc9 CF000000 		.4byte	0xcf
 3603 0ccd DE100000 		.4byte	.LLST80
 3604 0cd1 10       		.uleb128 0x10
 3605 0cd2 75080000 		.4byte	.LASF88
 3606 0cd6 01       		.byte	0x1
 3607 0cd7 A301     		.2byte	0x1a3
 3608 0cd9 CF000000 		.4byte	0xcf
 3609 0cdd 03       		.uleb128 0x3
 3610 0cde 91       		.byte	0x91
 3611 0cdf CC7B     		.sleb128 -564
 3612 0ce1 10       		.uleb128 0x10
 3613 0ce2 E4020000 		.4byte	.LASF110
 3614 0ce6 01       		.byte	0x1
 3615 0ce7 A401     		.2byte	0x1a4
 3616 0ce9 CF000000 		.4byte	0xcf
 3617 0ced 03       		.uleb128 0x3
 3618 0cee 91       		.byte	0x91
 3619 0cef C87B     		.sleb128 -568
 3620 0cf1 0F       		.uleb128 0xf
 3621 0cf2 0B000000 		.4byte	.LASF111
 3622 0cf6 01       		.byte	0x1
 3623 0cf7 A501     		.2byte	0x1a5
 3624 0cf9 A5000000 		.4byte	0xa5
 3625 0cfd 3C110000 		.4byte	.LLST81
 3626 0d01 0F       		.uleb128 0xf
 3627 0d02 85080000 		.4byte	.LASF100
 3628 0d06 01       		.byte	0x1
 3629 0d07 A601     		.2byte	0x1a6
 3630 0d09 CF000000 		.4byte	0xcf
 3631 0d0d 4F110000 		.4byte	.LLST82
 3632 0d11 22       		.uleb128 0x22
 3633 0d12 98000000 		.4byte	.Ldebug_ranges0+0x98
 3634 0d16 0F       		.uleb128 0xf
 3635 0d17 89000000 		.4byte	.LASF112
 3636 0d1b 01       		.byte	0x1
 3637 0d1c AB01     		.2byte	0x1ab
 3638 0d1e CF000000 		.4byte	0xcf
 3639 0d22 94110000 		.4byte	.LLST83
 3640 0d26 10       		.uleb128 0x10
 3641 0d27 A0010000 		.4byte	.LASF113
ARM GAS  C:\Users\eduar\AppData\Local\Temp\ccwtx1iP.s 			page 93


 3642 0d2b 01       		.byte	0x1
 3643 0d2c AC01     		.2byte	0x1ac
 3644 0d2e CF000000 		.4byte	0xcf
 3645 0d32 03       		.uleb128 0x3
 3646 0d33 91       		.byte	0x91
 3647 0d34 C47B     		.sleb128 -572
 3648 0d36 24       		.uleb128 0x24
 3649 0d37 4C000000 		.4byte	.LBB16
 3650 0d3b 04010000 		.4byte	.LBE16-.LBB16
 3651 0d3f 0F       		.uleb128 0xf
 3652 0d40 65000000 		.4byte	.LASF114
 3653 0d44 01       		.byte	0x1
 3654 0d45 B001     		.2byte	0x1b0
 3655 0d47 CF000000 		.4byte	0xcf
 3656 0d4b B4110000 		.4byte	.LLST84
 3657 0d4f 0F       		.uleb128 0xf
 3658 0d50 DF030000 		.4byte	.LASF53
 3659 0d54 01       		.byte	0x1
 3660 0d55 B201     		.2byte	0x1b2
 3661 0d57 CF000000 		.4byte	0xcf
 3662 0d5b E9110000 		.4byte	.LLST85
 3663 0d5f 25       		.uleb128 0x25
 3664 0d60 FE000000 		.4byte	.LBB17
 3665 0d64 14000000 		.4byte	.LBE17-.LBB17
 3666 0d68 860D0000 		.4byte	0xd86
 3667 0d6c 0F       		.uleb128 0xf
 3668 0d6d 2D020000 		.4byte	.LASF115
 3669 0d71 01       		.byte	0x1
 3670 0d72 1202     		.2byte	0x212
 3671 0d74 CF000000 		.4byte	0xcf
 3672 0d78 07120000 		.4byte	.LLST86
 3673 0d7c 1A       		.uleb128 0x1a
 3674 0d7d 12010000 		.4byte	.LVL260
 3675 0d81 6D100000 		.4byte	0x106d
 3676 0d85 00       		.byte	0
 3677 0d86 18       		.uleb128 0x18
 3678 0d87 5C000000 		.4byte	.LVL237
 3679 0d8b 4C030000 		.4byte	0x34c
 3680 0d8f AE0D0000 		.4byte	0xdae
 3681 0d93 19       		.uleb128 0x19
 3682 0d94 01       		.uleb128 0x1
 3683 0d95 50       		.byte	0x50
 3684 0d96 02       		.uleb128 0x2
 3685 0d97 74       		.byte	0x74
 3686 0d98 00       		.sleb128 0
 3687 0d99 19       		.uleb128 0x19
 3688 0d9a 01       		.uleb128 0x1
 3689 0d9b 51       		.byte	0x51
 3690 0d9c 03       		.uleb128 0x3
 3691 0d9d 91       		.byte	0x91
 3692 0d9e CC7B     		.sleb128 -564
 3693 0da0 19       		.uleb128 0x19
 3694 0da1 01       		.uleb128 0x1
 3695 0da2 52       		.byte	0x52
 3696 0da3 03       		.uleb128 0x3
 3697 0da4 91       		.byte	0x91
 3698 0da5 C87B     		.sleb128 -568
ARM GAS  C:\Users\eduar\AppData\Local\Temp\ccwtx1iP.s 			page 94


 3699 0da7 19       		.uleb128 0x19
 3700 0da8 01       		.uleb128 0x1
 3701 0da9 53       		.byte	0x53
 3702 0daa 02       		.uleb128 0x2
 3703 0dab 75       		.byte	0x75
 3704 0dac 00       		.sleb128 0
 3705 0dad 00       		.byte	0
 3706 0dae 18       		.uleb128 0x18
 3707 0daf 68000000 		.4byte	.LVL238
 3708 0db3 8E100000 		.4byte	0x108e
 3709 0db7 CF0D0000 		.4byte	0xdcf
 3710 0dbb 19       		.uleb128 0x19
 3711 0dbc 01       		.uleb128 0x1
 3712 0dbd 50       		.byte	0x50
 3713 0dbe 03       		.uleb128 0x3
 3714 0dbf 91       		.byte	0x91
 3715 0dc0 D87B     		.sleb128 -552
 3716 0dc2 19       		.uleb128 0x19
 3717 0dc3 01       		.uleb128 0x1
 3718 0dc4 51       		.byte	0x51
 3719 0dc5 01       		.uleb128 0x1
 3720 0dc6 30       		.byte	0x30
 3721 0dc7 19       		.uleb128 0x19
 3722 0dc8 01       		.uleb128 0x1
 3723 0dc9 52       		.byte	0x52
 3724 0dca 03       		.uleb128 0x3
 3725 0dcb 0A       		.byte	0xa
 3726 0dcc 0002     		.2byte	0x200
 3727 0dce 00       		.byte	0
 3728 0dcf 18       		.uleb128 0x18
 3729 0dd0 9A000000 		.4byte	.LVL244
 3730 0dd4 6D100000 		.4byte	0x106d
 3731 0dd8 E40D0000 		.4byte	0xde4
 3732 0ddc 19       		.uleb128 0x19
 3733 0ddd 01       		.uleb128 0x1
 3734 0dde 50       		.byte	0x50
 3735 0ddf 03       		.uleb128 0x3
 3736 0de0 91       		.byte	0x91
 3737 0de1 E47B     		.sleb128 -540
 3738 0de3 00       		.byte	0
 3739 0de4 18       		.uleb128 0x18
 3740 0de5 AA000000 		.4byte	.LVL245
 3741 0de9 6D100000 		.4byte	0x106d
 3742 0ded 000E0000 		.4byte	0xe00
 3743 0df1 19       		.uleb128 0x19
 3744 0df2 01       		.uleb128 0x1
 3745 0df3 50       		.byte	0x50
 3746 0df4 03       		.uleb128 0x3
 3747 0df5 91       		.byte	0x91
 3748 0df6 D87D     		.sleb128 -296
 3749 0df8 19       		.uleb128 0x19
 3750 0df9 01       		.uleb128 0x1
 3751 0dfa 52       		.byte	0x52
 3752 0dfb 03       		.uleb128 0x3
 3753 0dfc 0A       		.byte	0xa
 3754 0dfd 0001     		.2byte	0x100
 3755 0dff 00       		.byte	0
ARM GAS  C:\Users\eduar\AppData\Local\Temp\ccwtx1iP.s 			page 95


 3756 0e00 18       		.uleb128 0x18
 3757 0e01 CE000000 		.4byte	.LVL249
 3758 0e05 05030000 		.4byte	0x305
 3759 0e09 1A0E0000 		.4byte	0xe1a
 3760 0e0d 19       		.uleb128 0x19
 3761 0e0e 01       		.uleb128 0x1
 3762 0e0f 50       		.byte	0x50
 3763 0e10 02       		.uleb128 0x2
 3764 0e11 74       		.byte	0x74
 3765 0e12 00       		.sleb128 0
 3766 0e13 19       		.uleb128 0x19
 3767 0e14 01       		.uleb128 0x1
 3768 0e15 51       		.byte	0x51
 3769 0e16 02       		.uleb128 0x2
 3770 0e17 75       		.byte	0x75
 3771 0e18 00       		.sleb128 0
 3772 0e19 00       		.byte	0
 3773 0e1a 18       		.uleb128 0x18
 3774 0e1b F6000000 		.4byte	.LVL252
 3775 0e1f 6B040000 		.4byte	0x46b
 3776 0e23 3D0E0000 		.4byte	0xe3d
 3777 0e27 19       		.uleb128 0x19
 3778 0e28 01       		.uleb128 0x1
 3779 0e29 50       		.byte	0x50
 3780 0e2a 03       		.uleb128 0x3
 3781 0e2b 91       		.byte	0x91
 3782 0e2c D47B     		.sleb128 -556
 3783 0e2e 19       		.uleb128 0x19
 3784 0e2f 01       		.uleb128 0x1
 3785 0e30 51       		.byte	0x51
 3786 0e31 03       		.uleb128 0x3
 3787 0e32 91       		.byte	0x91
 3788 0e33 D07B     		.sleb128 -560
 3789 0e35 19       		.uleb128 0x19
 3790 0e36 01       		.uleb128 0x1
 3791 0e37 52       		.byte	0x52
 3792 0e38 03       		.uleb128 0x3
 3793 0e39 91       		.byte	0x91
 3794 0e3a C47B     		.sleb128 -572
 3795 0e3c 00       		.byte	0
 3796 0e3d 18       		.uleb128 0x18
 3797 0e3e 20010000 		.4byte	.LVL261
 3798 0e42 A1030000 		.4byte	0x3a1
 3799 0e46 590E0000 		.4byte	0xe59
 3800 0e4a 19       		.uleb128 0x19
 3801 0e4b 01       		.uleb128 0x1
 3802 0e4c 50       		.byte	0x50
 3803 0e4d 03       		.uleb128 0x3
 3804 0e4e 91       		.byte	0x91
 3805 0e4f D87D     		.sleb128 -296
 3806 0e51 19       		.uleb128 0x19
 3807 0e52 01       		.uleb128 0x1
 3808 0e53 51       		.byte	0x51
 3809 0e54 03       		.uleb128 0x3
 3810 0e55 0A       		.byte	0xa
 3811 0e56 0001     		.2byte	0x100
 3812 0e58 00       		.byte	0
ARM GAS  C:\Users\eduar\AppData\Local\Temp\ccwtx1iP.s 			page 96


 3813 0e59 18       		.uleb128 0x18
 3814 0e5a 32010000 		.4byte	.LVL263
 3815 0e5e F4040000 		.4byte	0x4f4
 3816 0e62 740E0000 		.4byte	0xe74
 3817 0e66 19       		.uleb128 0x19
 3818 0e67 01       		.uleb128 0x1
 3819 0e68 51       		.byte	0x51
 3820 0e69 03       		.uleb128 0x3
 3821 0e6a 91       		.byte	0x91
 3822 0e6b D87B     		.sleb128 -552
 3823 0e6d 19       		.uleb128 0x19
 3824 0e6e 01       		.uleb128 0x1
 3825 0e6f 52       		.byte	0x52
 3826 0e70 02       		.uleb128 0x2
 3827 0e71 75       		.byte	0x75
 3828 0e72 00       		.sleb128 0
 3829 0e73 00       		.byte	0
 3830 0e74 1B       		.uleb128 0x1b
 3831 0e75 4A010000 		.4byte	.LVL266
 3832 0e79 F4040000 		.4byte	0x4f4
 3833 0e7d 19       		.uleb128 0x19
 3834 0e7e 01       		.uleb128 0x1
 3835 0e7f 51       		.byte	0x51
 3836 0e80 03       		.uleb128 0x3
 3837 0e81 91       		.byte	0x91
 3838 0e82 D87B     		.sleb128 -552
 3839 0e84 19       		.uleb128 0x19
 3840 0e85 01       		.uleb128 0x1
 3841 0e86 52       		.byte	0x52
 3842 0e87 02       		.uleb128 0x2
 3843 0e88 75       		.byte	0x75
 3844 0e89 00       		.sleb128 0
 3845 0e8a 00       		.byte	0
 3846 0e8b 00       		.byte	0
 3847 0e8c 00       		.byte	0
 3848 0e8d 00       		.byte	0
 3849 0e8e 23       		.uleb128 0x23
 3850 0e8f B9030000 		.4byte	.LASF116
 3851 0e93 01       		.byte	0x1
 3852 0e94 7002     		.2byte	0x270
 3853 0e96 7C020000 		.4byte	0x27c
 3854 0e9a 00000000 		.4byte	.LFB135
 3855 0e9e A4000000 		.4byte	.LFE135-.LFB135
 3856 0ea2 01       		.uleb128 0x1
 3857 0ea3 9C       		.byte	0x9c
 3858 0ea4 01100000 		.4byte	0x1001
 3859 0ea8 13       		.uleb128 0x13
 3860 0ea9 90020000 		.4byte	.LASF52
 3861 0ead 01       		.byte	0x1
 3862 0eae 7002     		.2byte	0x270
 3863 0eb0 FF020000 		.4byte	0x2ff
 3864 0eb4 39120000 		.4byte	.LLST87
 3865 0eb8 15       		.uleb128 0x15
 3866 0eb9 6900     		.ascii	"i\000"
 3867 0ebb 01       		.byte	0x1
 3868 0ebc 7202     		.2byte	0x272
 3869 0ebe CF000000 		.4byte	0xcf
ARM GAS  C:\Users\eduar\AppData\Local\Temp\ccwtx1iP.s 			page 97


 3870 0ec2 65120000 		.4byte	.LLST88
 3871 0ec6 0F       		.uleb128 0xf
 3872 0ec7 DF030000 		.4byte	.LASF53
 3873 0ecb 01       		.byte	0x1
 3874 0ecc 7302     		.2byte	0x273
 3875 0ece CF000000 		.4byte	0xcf
 3876 0ed2 78120000 		.4byte	.LLST89
 3877 0ed6 0F       		.uleb128 0xf
 3878 0ed7 75080000 		.4byte	.LASF88
 3879 0edb 01       		.byte	0x1
 3880 0edc 7402     		.2byte	0x274
 3881 0ede CF000000 		.4byte	0xcf
 3882 0ee2 A3120000 		.4byte	.LLST90
 3883 0ee6 10       		.uleb128 0x10
 3884 0ee7 E4020000 		.4byte	.LASF110
 3885 0eeb 01       		.byte	0x1
 3886 0eec 7502     		.2byte	0x275
 3887 0eee CF000000 		.4byte	0xcf
 3888 0ef2 02       		.uleb128 0x2
 3889 0ef3 91       		.byte	0x91
 3890 0ef4 5C       		.sleb128 -36
 3891 0ef5 15       		.uleb128 0x15
 3892 0ef6 72657400 		.ascii	"ret\000"
 3893 0efa 01       		.byte	0x1
 3894 0efb 7602     		.2byte	0x276
 3895 0efd 7C020000 		.4byte	0x27c
 3896 0f01 CC120000 		.4byte	.LLST91
 3897 0f05 10       		.uleb128 0x10
 3898 0f06 31060000 		.4byte	.LASF78
 3899 0f0a 01       		.byte	0x1
 3900 0f0b 7702     		.2byte	0x277
 3901 0f0d ED060000 		.4byte	0x6ed
 3902 0f11 03       		.uleb128 0x3
 3903 0f12 91       		.byte	0x91
 3904 0f13 DC7B     		.sleb128 -548
 3905 0f15 10       		.uleb128 0x10
 3906 0f16 73000000 		.4byte	.LASF117
 3907 0f1a 01       		.byte	0x1
 3908 0f1b 7802     		.2byte	0x278
 3909 0f1d CF000000 		.4byte	0xcf
 3910 0f21 03       		.uleb128 0x3
 3911 0f22 91       		.byte	0x91
 3912 0f23 D87B     		.sleb128 -552
 3913 0f25 0F       		.uleb128 0xf
 3914 0f26 FD000000 		.4byte	.LASF118
 3915 0f2a 01       		.byte	0x1
 3916 0f2b 7902     		.2byte	0x279
 3917 0f2d CF000000 		.4byte	0xcf
 3918 0f31 20130000 		.4byte	.LLST92
 3919 0f35 17       		.uleb128 0x17
 3920 0f36 B0000000 		.4byte	.Ldebug_ranges0+0xb0
 3921 0f3a E30F0000 		.4byte	0xfe3
 3922 0f3e 0F       		.uleb128 0xf
 3923 0f3f 89000000 		.4byte	.LASF112
 3924 0f43 01       		.byte	0x1
 3925 0f44 8202     		.2byte	0x282
 3926 0f46 CF000000 		.4byte	0xcf
ARM GAS  C:\Users\eduar\AppData\Local\Temp\ccwtx1iP.s 			page 98


 3927 0f4a 33130000 		.4byte	.LLST93
 3928 0f4e 18       		.uleb128 0x18
 3929 0f4f 36000000 		.4byte	.LVL281
 3930 0f53 4C030000 		.4byte	0x34c
 3931 0f57 740F0000 		.4byte	0xf74
 3932 0f5b 19       		.uleb128 0x19
 3933 0f5c 01       		.uleb128 0x1
 3934 0f5d 50       		.byte	0x50
 3935 0f5e 02       		.uleb128 0x2
 3936 0f5f 74       		.byte	0x74
 3937 0f60 00       		.sleb128 0
 3938 0f61 19       		.uleb128 0x19
 3939 0f62 01       		.uleb128 0x1
 3940 0f63 51       		.byte	0x51
 3941 0f64 02       		.uleb128 0x2
 3942 0f65 7D       		.byte	0x7d
 3943 0f66 00       		.sleb128 0
 3944 0f67 19       		.uleb128 0x19
 3945 0f68 01       		.uleb128 0x1
 3946 0f69 52       		.byte	0x52
 3947 0f6a 02       		.uleb128 0x2
 3948 0f6b 91       		.byte	0x91
 3949 0f6c 5C       		.sleb128 -36
 3950 0f6d 19       		.uleb128 0x19
 3951 0f6e 01       		.uleb128 0x1
 3952 0f6f 53       		.byte	0x53
 3953 0f70 02       		.uleb128 0x2
 3954 0f71 76       		.byte	0x76
 3955 0f72 00       		.sleb128 0
 3956 0f73 00       		.byte	0
 3957 0f74 18       		.uleb128 0x18
 3958 0f75 48000000 		.4byte	.LVL283
 3959 0f79 A1030000 		.4byte	0x3a1
 3960 0f7d 900F0000 		.4byte	0xf90
 3961 0f81 19       		.uleb128 0x19
 3962 0f82 01       		.uleb128 0x1
 3963 0f83 50       		.byte	0x50
 3964 0f84 03       		.uleb128 0x3
 3965 0f85 91       		.byte	0x91
 3966 0f86 DC7D     		.sleb128 -292
 3967 0f88 19       		.uleb128 0x19
 3968 0f89 01       		.uleb128 0x1
 3969 0f8a 51       		.byte	0x51
 3970 0f8b 03       		.uleb128 0x3
 3971 0f8c 0A       		.byte	0xa
 3972 0f8d 0001     		.2byte	0x100
 3973 0f8f 00       		.byte	0
 3974 0f90 18       		.uleb128 0x18
 3975 0f91 5E000000 		.4byte	.LVL285
 3976 0f95 59080000 		.4byte	0x859
 3977 0f99 B10F0000 		.4byte	0xfb1
 3978 0f9d 19       		.uleb128 0x19
 3979 0f9e 01       		.uleb128 0x1
 3980 0f9f 50       		.byte	0x50
 3981 0fa0 02       		.uleb128 0x2
 3982 0fa1 75       		.byte	0x75
 3983 0fa2 00       		.sleb128 0
ARM GAS  C:\Users\eduar\AppData\Local\Temp\ccwtx1iP.s 			page 99


 3984 0fa3 19       		.uleb128 0x19
 3985 0fa4 01       		.uleb128 0x1
 3986 0fa5 51       		.byte	0x51
 3987 0fa6 03       		.uleb128 0x3
 3988 0fa7 91       		.byte	0x91
 3989 0fa8 DC7B     		.sleb128 -548
 3990 0faa 19       		.uleb128 0x19
 3991 0fab 01       		.uleb128 0x1
 3992 0fac 52       		.byte	0x52
 3993 0fad 02       		.uleb128 0x2
 3994 0fae 76       		.byte	0x76
 3995 0faf 00       		.sleb128 0
 3996 0fb0 00       		.byte	0
 3997 0fb1 18       		.uleb128 0x18
 3998 0fb2 6C000000 		.4byte	.LVL288
 3999 0fb6 05030000 		.4byte	0x305
 4000 0fba CB0F0000 		.4byte	0xfcb
 4001 0fbe 19       		.uleb128 0x19
 4002 0fbf 01       		.uleb128 0x1
 4003 0fc0 50       		.byte	0x50
 4004 0fc1 02       		.uleb128 0x2
 4005 0fc2 74       		.byte	0x74
 4006 0fc3 00       		.sleb128 0
 4007 0fc4 19       		.uleb128 0x19
 4008 0fc5 01       		.uleb128 0x1
 4009 0fc6 51       		.byte	0x51
 4010 0fc7 02       		.uleb128 0x2
 4011 0fc8 76       		.byte	0x76
 4012 0fc9 00       		.sleb128 0
 4013 0fca 00       		.byte	0
 4014 0fcb 1B       		.uleb128 0x1b
 4015 0fcc 88000000 		.4byte	.LVL291
 4016 0fd0 F4040000 		.4byte	0x4f4
 4017 0fd4 19       		.uleb128 0x19
 4018 0fd5 01       		.uleb128 0x1
 4019 0fd6 51       		.byte	0x51
 4020 0fd7 03       		.uleb128 0x3
 4021 0fd8 91       		.byte	0x91
 4022 0fd9 DC7B     		.sleb128 -548
 4023 0fdb 19       		.uleb128 0x19
 4024 0fdc 01       		.uleb128 0x1
 4025 0fdd 52       		.byte	0x52
 4026 0fde 02       		.uleb128 0x2
 4027 0fdf 76       		.byte	0x76
 4028 0fe0 00       		.sleb128 0
 4029 0fe1 00       		.byte	0
 4030 0fe2 00       		.byte	0
 4031 0fe3 1B       		.uleb128 0x1b
 4032 0fe4 18000000 		.4byte	.LVL278
 4033 0fe8 8E100000 		.4byte	0x108e
 4034 0fec 19       		.uleb128 0x19
 4035 0fed 01       		.uleb128 0x1
 4036 0fee 50       		.byte	0x50
 4037 0fef 03       		.uleb128 0x3
 4038 0ff0 91       		.byte	0x91
 4039 0ff1 DC7B     		.sleb128 -548
 4040 0ff3 19       		.uleb128 0x19
ARM GAS  C:\Users\eduar\AppData\Local\Temp\ccwtx1iP.s 			page 100


 4041 0ff4 01       		.uleb128 0x1
 4042 0ff5 51       		.byte	0x51
 4043 0ff6 01       		.uleb128 0x1
 4044 0ff7 30       		.byte	0x30
 4045 0ff8 19       		.uleb128 0x19
 4046 0ff9 01       		.uleb128 0x1
 4047 0ffa 52       		.byte	0x52
 4048 0ffb 03       		.uleb128 0x3
 4049 0ffc 0A       		.byte	0xa
 4050 0ffd 0002     		.2byte	0x200
 4051 0fff 00       		.byte	0
 4052 1000 00       		.byte	0
 4053 1001 23       		.uleb128 0x23
 4054 1002 22010000 		.4byte	.LASF119
 4055 1006 01       		.byte	0x1
 4056 1007 C602     		.2byte	0x2c6
 4057 1009 CF000000 		.4byte	0xcf
 4058 100d 00000000 		.4byte	.LFB136
 4059 1011 06000000 		.4byte	.LFE136-.LFB136
 4060 1015 01       		.uleb128 0x1
 4061 1016 9C       		.byte	0x9c
 4062 1017 2C100000 		.4byte	0x102c
 4063 101b 13       		.uleb128 0x13
 4064 101c 90020000 		.4byte	.LASF52
 4065 1020 01       		.byte	0x1
 4066 1021 C602     		.2byte	0x2c6
 4067 1023 FF020000 		.4byte	0x2ff
 4068 1027 46130000 		.4byte	.LLST94
 4069 102b 00       		.byte	0
 4070 102c 26       		.uleb128 0x26
 4071 102d AF000000 		.4byte	.LASF132
 4072 1031 07       		.byte	0x7
 4073 1032 F907     		.2byte	0x7f9
 4074 1034 38100000 		.4byte	0x1038
 4075 1038 27       		.uleb128 0x27
 4076 1039 C4000000 		.4byte	0xc4
 4077 103d 28       		.uleb128 0x28
 4078 103e 62060000 		.4byte	.LASF120
 4079 1042 62060000 		.4byte	.LASF120
 4080 1046 06       		.byte	0x6
 4081 1047 8903     		.2byte	0x389
 4082 1049 28       		.uleb128 0x28
 4083 104a AA020000 		.4byte	.LASF121
 4084 104e AA020000 		.4byte	.LASF121
 4085 1052 04       		.byte	0x4
 4086 1053 AA01     		.2byte	0x1aa
 4087 1055 28       		.uleb128 0x28
 4088 1056 26040000 		.4byte	.LASF122
 4089 105a 26040000 		.4byte	.LASF122
 4090 105e 04       		.byte	0x4
 4091 105f A601     		.2byte	0x1a6
 4092 1061 28       		.uleb128 0x28
 4093 1062 AD050000 		.4byte	.LASF123
 4094 1066 AD050000 		.4byte	.LASF123
 4095 106a 04       		.byte	0x4
 4096 106b A701     		.2byte	0x1a7
 4097 106d 29       		.uleb128 0x29
ARM GAS  C:\Users\eduar\AppData\Local\Temp\ccwtx1iP.s 			page 101


 4098 106e 67010000 		.4byte	.LASF126
 4099 1072 67010000 		.4byte	.LASF126
 4100 1076 28       		.uleb128 0x28
 4101 1077 42010000 		.4byte	.LASF124
 4102 107b 42010000 		.4byte	.LASF124
 4103 107f 04       		.byte	0x4
 4104 1080 A401     		.2byte	0x1a4
 4105 1082 28       		.uleb128 0x28
 4106 1083 B3010000 		.4byte	.LASF125
 4107 1087 B3010000 		.4byte	.LASF125
 4108 108b 04       		.byte	0x4
 4109 108c A901     		.2byte	0x1a9
 4110 108e 29       		.uleb128 0x29
 4111 108f B4070000 		.4byte	.LASF127
 4112 1093 B4070000 		.4byte	.LASF127
 4113 1097 00       		.byte	0
 4114              		.section	.debug_abbrev,"",%progbits
 4115              	.Ldebug_abbrev0:
 4116 0000 01       		.uleb128 0x1
 4117 0001 11       		.uleb128 0x11
 4118 0002 01       		.byte	0x1
 4119 0003 25       		.uleb128 0x25
 4120 0004 0E       		.uleb128 0xe
 4121 0005 13       		.uleb128 0x13
 4122 0006 0B       		.uleb128 0xb
 4123 0007 03       		.uleb128 0x3
 4124 0008 0E       		.uleb128 0xe
 4125 0009 1B       		.uleb128 0x1b
 4126 000a 0E       		.uleb128 0xe
 4127 000b 55       		.uleb128 0x55
 4128 000c 17       		.uleb128 0x17
 4129 000d 11       		.uleb128 0x11
 4130 000e 01       		.uleb128 0x1
 4131 000f 10       		.uleb128 0x10
 4132 0010 17       		.uleb128 0x17
 4133 0011 00       		.byte	0
 4134 0012 00       		.byte	0
 4135 0013 02       		.uleb128 0x2
 4136 0014 24       		.uleb128 0x24
 4137 0015 00       		.byte	0
 4138 0016 0B       		.uleb128 0xb
 4139 0017 0B       		.uleb128 0xb
 4140 0018 3E       		.uleb128 0x3e
 4141 0019 0B       		.uleb128 0xb
 4142 001a 03       		.uleb128 0x3
 4143 001b 08       		.uleb128 0x8
 4144 001c 00       		.byte	0
 4145 001d 00       		.byte	0
 4146 001e 03       		.uleb128 0x3
 4147 001f 24       		.uleb128 0x24
 4148 0020 00       		.byte	0
 4149 0021 0B       		.uleb128 0xb
 4150 0022 0B       		.uleb128 0xb
 4151 0023 3E       		.uleb128 0x3e
 4152 0024 0B       		.uleb128 0xb
 4153 0025 03       		.uleb128 0x3
 4154 0026 0E       		.uleb128 0xe
ARM GAS  C:\Users\eduar\AppData\Local\Temp\ccwtx1iP.s 			page 102


 4155 0027 00       		.byte	0
 4156 0028 00       		.byte	0
 4157 0029 04       		.uleb128 0x4
 4158 002a 16       		.uleb128 0x16
 4159 002b 00       		.byte	0
 4160 002c 03       		.uleb128 0x3
 4161 002d 0E       		.uleb128 0xe
 4162 002e 3A       		.uleb128 0x3a
 4163 002f 0B       		.uleb128 0xb
 4164 0030 3B       		.uleb128 0x3b
 4165 0031 0B       		.uleb128 0xb
 4166 0032 49       		.uleb128 0x49
 4167 0033 13       		.uleb128 0x13
 4168 0034 00       		.byte	0
 4169 0035 00       		.byte	0
 4170 0036 05       		.uleb128 0x5
 4171 0037 0F       		.uleb128 0xf
 4172 0038 00       		.byte	0
 4173 0039 0B       		.uleb128 0xb
 4174 003a 0B       		.uleb128 0xb
 4175 003b 00       		.byte	0
 4176 003c 00       		.byte	0
 4177 003d 06       		.uleb128 0x6
 4178 003e 04       		.uleb128 0x4
 4179 003f 01       		.byte	0x1
 4180 0040 03       		.uleb128 0x3
 4181 0041 0E       		.uleb128 0xe
 4182 0042 0B       		.uleb128 0xb
 4183 0043 0B       		.uleb128 0xb
 4184 0044 49       		.uleb128 0x49
 4185 0045 13       		.uleb128 0x13
 4186 0046 3A       		.uleb128 0x3a
 4187 0047 0B       		.uleb128 0xb
 4188 0048 3B       		.uleb128 0x3b
 4189 0049 05       		.uleb128 0x5
 4190 004a 01       		.uleb128 0x1
 4191 004b 13       		.uleb128 0x13
 4192 004c 00       		.byte	0
 4193 004d 00       		.byte	0
 4194 004e 07       		.uleb128 0x7
 4195 004f 28       		.uleb128 0x28
 4196 0050 00       		.byte	0
 4197 0051 03       		.uleb128 0x3
 4198 0052 0E       		.uleb128 0xe
 4199 0053 1C       		.uleb128 0x1c
 4200 0054 0B       		.uleb128 0xb
 4201 0055 00       		.byte	0
 4202 0056 00       		.byte	0
 4203 0057 08       		.uleb128 0x8
 4204 0058 28       		.uleb128 0x28
 4205 0059 00       		.byte	0
 4206 005a 03       		.uleb128 0x3
 4207 005b 0E       		.uleb128 0xe
 4208 005c 1C       		.uleb128 0x1c
 4209 005d 06       		.uleb128 0x6
 4210 005e 00       		.byte	0
 4211 005f 00       		.byte	0
ARM GAS  C:\Users\eduar\AppData\Local\Temp\ccwtx1iP.s 			page 103


 4212 0060 09       		.uleb128 0x9
 4213 0061 16       		.uleb128 0x16
 4214 0062 00       		.byte	0
 4215 0063 03       		.uleb128 0x3
 4216 0064 0E       		.uleb128 0xe
 4217 0065 3A       		.uleb128 0x3a
 4218 0066 0B       		.uleb128 0xb
 4219 0067 3B       		.uleb128 0x3b
 4220 0068 05       		.uleb128 0x5
 4221 0069 49       		.uleb128 0x49
 4222 006a 13       		.uleb128 0x13
 4223 006b 00       		.byte	0
 4224 006c 00       		.byte	0
 4225 006d 0A       		.uleb128 0xa
 4226 006e 13       		.uleb128 0x13
 4227 006f 01       		.byte	0x1
 4228 0070 0B       		.uleb128 0xb
 4229 0071 0B       		.uleb128 0xb
 4230 0072 3A       		.uleb128 0x3a
 4231 0073 0B       		.uleb128 0xb
 4232 0074 3B       		.uleb128 0x3b
 4233 0075 05       		.uleb128 0x5
 4234 0076 01       		.uleb128 0x1
 4235 0077 13       		.uleb128 0x13
 4236 0078 00       		.byte	0
 4237 0079 00       		.byte	0
 4238 007a 0B       		.uleb128 0xb
 4239 007b 0D       		.uleb128 0xd
 4240 007c 00       		.byte	0
 4241 007d 03       		.uleb128 0x3
 4242 007e 0E       		.uleb128 0xe
 4243 007f 3A       		.uleb128 0x3a
 4244 0080 0B       		.uleb128 0xb
 4245 0081 3B       		.uleb128 0x3b
 4246 0082 05       		.uleb128 0x5
 4247 0083 49       		.uleb128 0x49
 4248 0084 13       		.uleb128 0x13
 4249 0085 38       		.uleb128 0x38
 4250 0086 0B       		.uleb128 0xb
 4251 0087 00       		.byte	0
 4252 0088 00       		.byte	0
 4253 0089 0C       		.uleb128 0xc
 4254 008a 04       		.uleb128 0x4
 4255 008b 01       		.byte	0x1
 4256 008c 0B       		.uleb128 0xb
 4257 008d 0B       		.uleb128 0xb
 4258 008e 49       		.uleb128 0x49
 4259 008f 13       		.uleb128 0x13
 4260 0090 3A       		.uleb128 0x3a
 4261 0091 0B       		.uleb128 0xb
 4262 0092 3B       		.uleb128 0x3b
 4263 0093 05       		.uleb128 0x5
 4264 0094 01       		.uleb128 0x1
 4265 0095 13       		.uleb128 0x13
 4266 0096 00       		.byte	0
 4267 0097 00       		.byte	0
 4268 0098 0D       		.uleb128 0xd
ARM GAS  C:\Users\eduar\AppData\Local\Temp\ccwtx1iP.s 			page 104


 4269 0099 2E       		.uleb128 0x2e
 4270 009a 01       		.byte	0x1
 4271 009b 03       		.uleb128 0x3
 4272 009c 0E       		.uleb128 0xe
 4273 009d 3A       		.uleb128 0x3a
 4274 009e 0B       		.uleb128 0xb
 4275 009f 3B       		.uleb128 0x3b
 4276 00a0 05       		.uleb128 0x5
 4277 00a1 27       		.uleb128 0x27
 4278 00a2 19       		.uleb128 0x19
 4279 00a3 11       		.uleb128 0x11
 4280 00a4 01       		.uleb128 0x1
 4281 00a5 12       		.uleb128 0x12
 4282 00a6 06       		.uleb128 0x6
 4283 00a7 40       		.uleb128 0x40
 4284 00a8 18       		.uleb128 0x18
 4285 00a9 9742     		.uleb128 0x2117
 4286 00ab 19       		.uleb128 0x19
 4287 00ac 01       		.uleb128 0x1
 4288 00ad 13       		.uleb128 0x13
 4289 00ae 00       		.byte	0
 4290 00af 00       		.byte	0
 4291 00b0 0E       		.uleb128 0xe
 4292 00b1 05       		.uleb128 0x5
 4293 00b2 00       		.byte	0
 4294 00b3 03       		.uleb128 0x3
 4295 00b4 0E       		.uleb128 0xe
 4296 00b5 3A       		.uleb128 0x3a
 4297 00b6 0B       		.uleb128 0xb
 4298 00b7 3B       		.uleb128 0x3b
 4299 00b8 05       		.uleb128 0x5
 4300 00b9 49       		.uleb128 0x49
 4301 00ba 13       		.uleb128 0x13
 4302 00bb 02       		.uleb128 0x2
 4303 00bc 18       		.uleb128 0x18
 4304 00bd 00       		.byte	0
 4305 00be 00       		.byte	0
 4306 00bf 0F       		.uleb128 0xf
 4307 00c0 34       		.uleb128 0x34
 4308 00c1 00       		.byte	0
 4309 00c2 03       		.uleb128 0x3
 4310 00c3 0E       		.uleb128 0xe
 4311 00c4 3A       		.uleb128 0x3a
 4312 00c5 0B       		.uleb128 0xb
 4313 00c6 3B       		.uleb128 0x3b
 4314 00c7 05       		.uleb128 0x5
 4315 00c8 49       		.uleb128 0x49
 4316 00c9 13       		.uleb128 0x13
 4317 00ca 02       		.uleb128 0x2
 4318 00cb 17       		.uleb128 0x17
 4319 00cc 00       		.byte	0
 4320 00cd 00       		.byte	0
 4321 00ce 10       		.uleb128 0x10
 4322 00cf 34       		.uleb128 0x34
 4323 00d0 00       		.byte	0
 4324 00d1 03       		.uleb128 0x3
 4325 00d2 0E       		.uleb128 0xe
ARM GAS  C:\Users\eduar\AppData\Local\Temp\ccwtx1iP.s 			page 105


 4326 00d3 3A       		.uleb128 0x3a
 4327 00d4 0B       		.uleb128 0xb
 4328 00d5 3B       		.uleb128 0x3b
 4329 00d6 05       		.uleb128 0x5
 4330 00d7 49       		.uleb128 0x49
 4331 00d8 13       		.uleb128 0x13
 4332 00d9 02       		.uleb128 0x2
 4333 00da 18       		.uleb128 0x18
 4334 00db 00       		.byte	0
 4335 00dc 00       		.byte	0
 4336 00dd 11       		.uleb128 0x11
 4337 00de 0F       		.uleb128 0xf
 4338 00df 00       		.byte	0
 4339 00e0 0B       		.uleb128 0xb
 4340 00e1 0B       		.uleb128 0xb
 4341 00e2 49       		.uleb128 0x49
 4342 00e3 13       		.uleb128 0x13
 4343 00e4 00       		.byte	0
 4344 00e5 00       		.byte	0
 4345 00e6 12       		.uleb128 0x12
 4346 00e7 2E       		.uleb128 0x2e
 4347 00e8 01       		.byte	0x1
 4348 00e9 03       		.uleb128 0x3
 4349 00ea 0E       		.uleb128 0xe
 4350 00eb 3A       		.uleb128 0x3a
 4351 00ec 0B       		.uleb128 0xb
 4352 00ed 3B       		.uleb128 0x3b
 4353 00ee 05       		.uleb128 0x5
 4354 00ef 27       		.uleb128 0x27
 4355 00f0 19       		.uleb128 0x19
 4356 00f1 49       		.uleb128 0x49
 4357 00f2 13       		.uleb128 0x13
 4358 00f3 11       		.uleb128 0x11
 4359 00f4 01       		.uleb128 0x1
 4360 00f5 12       		.uleb128 0x12
 4361 00f6 06       		.uleb128 0x6
 4362 00f7 40       		.uleb128 0x40
 4363 00f8 18       		.uleb128 0x18
 4364 00f9 9742     		.uleb128 0x2117
 4365 00fb 19       		.uleb128 0x19
 4366 00fc 01       		.uleb128 0x1
 4367 00fd 13       		.uleb128 0x13
 4368 00fe 00       		.byte	0
 4369 00ff 00       		.byte	0
 4370 0100 13       		.uleb128 0x13
 4371 0101 05       		.uleb128 0x5
 4372 0102 00       		.byte	0
 4373 0103 03       		.uleb128 0x3
 4374 0104 0E       		.uleb128 0xe
 4375 0105 3A       		.uleb128 0x3a
 4376 0106 0B       		.uleb128 0xb
 4377 0107 3B       		.uleb128 0x3b
 4378 0108 05       		.uleb128 0x5
 4379 0109 49       		.uleb128 0x49
 4380 010a 13       		.uleb128 0x13
 4381 010b 02       		.uleb128 0x2
 4382 010c 17       		.uleb128 0x17
ARM GAS  C:\Users\eduar\AppData\Local\Temp\ccwtx1iP.s 			page 106


 4383 010d 00       		.byte	0
 4384 010e 00       		.byte	0
 4385 010f 14       		.uleb128 0x14
 4386 0110 05       		.uleb128 0x5
 4387 0111 00       		.byte	0
 4388 0112 03       		.uleb128 0x3
 4389 0113 08       		.uleb128 0x8
 4390 0114 3A       		.uleb128 0x3a
 4391 0115 0B       		.uleb128 0xb
 4392 0116 3B       		.uleb128 0x3b
 4393 0117 05       		.uleb128 0x5
 4394 0118 49       		.uleb128 0x49
 4395 0119 13       		.uleb128 0x13
 4396 011a 02       		.uleb128 0x2
 4397 011b 18       		.uleb128 0x18
 4398 011c 00       		.byte	0
 4399 011d 00       		.byte	0
 4400 011e 15       		.uleb128 0x15
 4401 011f 34       		.uleb128 0x34
 4402 0120 00       		.byte	0
 4403 0121 03       		.uleb128 0x3
 4404 0122 08       		.uleb128 0x8
 4405 0123 3A       		.uleb128 0x3a
 4406 0124 0B       		.uleb128 0xb
 4407 0125 3B       		.uleb128 0x3b
 4408 0126 05       		.uleb128 0x5
 4409 0127 49       		.uleb128 0x49
 4410 0128 13       		.uleb128 0x13
 4411 0129 02       		.uleb128 0x2
 4412 012a 17       		.uleb128 0x17
 4413 012b 00       		.byte	0
 4414 012c 00       		.byte	0
 4415 012d 16       		.uleb128 0x16
 4416 012e 05       		.uleb128 0x5
 4417 012f 00       		.byte	0
 4418 0130 03       		.uleb128 0x3
 4419 0131 08       		.uleb128 0x8
 4420 0132 3A       		.uleb128 0x3a
 4421 0133 0B       		.uleb128 0xb
 4422 0134 3B       		.uleb128 0x3b
 4423 0135 05       		.uleb128 0x5
 4424 0136 49       		.uleb128 0x49
 4425 0137 13       		.uleb128 0x13
 4426 0138 02       		.uleb128 0x2
 4427 0139 17       		.uleb128 0x17
 4428 013a 00       		.byte	0
 4429 013b 00       		.byte	0
 4430 013c 17       		.uleb128 0x17
 4431 013d 0B       		.uleb128 0xb
 4432 013e 01       		.byte	0x1
 4433 013f 55       		.uleb128 0x55
 4434 0140 17       		.uleb128 0x17
 4435 0141 01       		.uleb128 0x1
 4436 0142 13       		.uleb128 0x13
 4437 0143 00       		.byte	0
 4438 0144 00       		.byte	0
 4439 0145 18       		.uleb128 0x18
ARM GAS  C:\Users\eduar\AppData\Local\Temp\ccwtx1iP.s 			page 107


 4440 0146 898201   		.uleb128 0x4109
 4441 0149 01       		.byte	0x1
 4442 014a 11       		.uleb128 0x11
 4443 014b 01       		.uleb128 0x1
 4444 014c 31       		.uleb128 0x31
 4445 014d 13       		.uleb128 0x13
 4446 014e 01       		.uleb128 0x1
 4447 014f 13       		.uleb128 0x13
 4448 0150 00       		.byte	0
 4449 0151 00       		.byte	0
 4450 0152 19       		.uleb128 0x19
 4451 0153 8A8201   		.uleb128 0x410a
 4452 0156 00       		.byte	0
 4453 0157 02       		.uleb128 0x2
 4454 0158 18       		.uleb128 0x18
 4455 0159 9142     		.uleb128 0x2111
 4456 015b 18       		.uleb128 0x18
 4457 015c 00       		.byte	0
 4458 015d 00       		.byte	0
 4459 015e 1A       		.uleb128 0x1a
 4460 015f 898201   		.uleb128 0x4109
 4461 0162 00       		.byte	0
 4462 0163 11       		.uleb128 0x11
 4463 0164 01       		.uleb128 0x1
 4464 0165 31       		.uleb128 0x31
 4465 0166 13       		.uleb128 0x13
 4466 0167 00       		.byte	0
 4467 0168 00       		.byte	0
 4468 0169 1B       		.uleb128 0x1b
 4469 016a 898201   		.uleb128 0x4109
 4470 016d 01       		.byte	0x1
 4471 016e 11       		.uleb128 0x11
 4472 016f 01       		.uleb128 0x1
 4473 0170 31       		.uleb128 0x31
 4474 0171 13       		.uleb128 0x13
 4475 0172 00       		.byte	0
 4476 0173 00       		.byte	0
 4477 0174 1C       		.uleb128 0x1c
 4478 0175 01       		.uleb128 0x1
 4479 0176 01       		.byte	0x1
 4480 0177 49       		.uleb128 0x49
 4481 0178 13       		.uleb128 0x13
 4482 0179 01       		.uleb128 0x1
 4483 017a 13       		.uleb128 0x13
 4484 017b 00       		.byte	0
 4485 017c 00       		.byte	0
 4486 017d 1D       		.uleb128 0x1d
 4487 017e 21       		.uleb128 0x21
 4488 017f 00       		.byte	0
 4489 0180 49       		.uleb128 0x49
 4490 0181 13       		.uleb128 0x13
 4491 0182 2F       		.uleb128 0x2f
 4492 0183 0B       		.uleb128 0xb
 4493 0184 00       		.byte	0
 4494 0185 00       		.byte	0
 4495 0186 1E       		.uleb128 0x1e
 4496 0187 2E       		.uleb128 0x2e
ARM GAS  C:\Users\eduar\AppData\Local\Temp\ccwtx1iP.s 			page 108


 4497 0188 01       		.byte	0x1
 4498 0189 3F       		.uleb128 0x3f
 4499 018a 19       		.uleb128 0x19
 4500 018b 03       		.uleb128 0x3
 4501 018c 0E       		.uleb128 0xe
 4502 018d 3A       		.uleb128 0x3a
 4503 018e 0B       		.uleb128 0xb
 4504 018f 3B       		.uleb128 0x3b
 4505 0190 0B       		.uleb128 0xb
 4506 0191 27       		.uleb128 0x27
 4507 0192 19       		.uleb128 0x19
 4508 0193 49       		.uleb128 0x49
 4509 0194 13       		.uleb128 0x13
 4510 0195 11       		.uleb128 0x11
 4511 0196 01       		.uleb128 0x1
 4512 0197 12       		.uleb128 0x12
 4513 0198 06       		.uleb128 0x6
 4514 0199 40       		.uleb128 0x40
 4515 019a 18       		.uleb128 0x18
 4516 019b 9742     		.uleb128 0x2117
 4517 019d 19       		.uleb128 0x19
 4518 019e 01       		.uleb128 0x1
 4519 019f 13       		.uleb128 0x13
 4520 01a0 00       		.byte	0
 4521 01a1 00       		.byte	0
 4522 01a2 1F       		.uleb128 0x1f
 4523 01a3 05       		.uleb128 0x5
 4524 01a4 00       		.byte	0
 4525 01a5 03       		.uleb128 0x3
 4526 01a6 0E       		.uleb128 0xe
 4527 01a7 3A       		.uleb128 0x3a
 4528 01a8 0B       		.uleb128 0xb
 4529 01a9 3B       		.uleb128 0x3b
 4530 01aa 0B       		.uleb128 0xb
 4531 01ab 49       		.uleb128 0x49
 4532 01ac 13       		.uleb128 0x13
 4533 01ad 02       		.uleb128 0x2
 4534 01ae 17       		.uleb128 0x17
 4535 01af 00       		.byte	0
 4536 01b0 00       		.byte	0
 4537 01b1 20       		.uleb128 0x20
 4538 01b2 34       		.uleb128 0x34
 4539 01b3 00       		.byte	0
 4540 01b4 03       		.uleb128 0x3
 4541 01b5 08       		.uleb128 0x8
 4542 01b6 3A       		.uleb128 0x3a
 4543 01b7 0B       		.uleb128 0xb
 4544 01b8 3B       		.uleb128 0x3b
 4545 01b9 0B       		.uleb128 0xb
 4546 01ba 49       		.uleb128 0x49
 4547 01bb 13       		.uleb128 0x13
 4548 01bc 02       		.uleb128 0x2
 4549 01bd 17       		.uleb128 0x17
 4550 01be 00       		.byte	0
 4551 01bf 00       		.byte	0
 4552 01c0 21       		.uleb128 0x21
 4553 01c1 34       		.uleb128 0x34
ARM GAS  C:\Users\eduar\AppData\Local\Temp\ccwtx1iP.s 			page 109


 4554 01c2 00       		.byte	0
 4555 01c3 03       		.uleb128 0x3
 4556 01c4 0E       		.uleb128 0xe
 4557 01c5 3A       		.uleb128 0x3a
 4558 01c6 0B       		.uleb128 0xb
 4559 01c7 3B       		.uleb128 0x3b
 4560 01c8 0B       		.uleb128 0xb
 4561 01c9 49       		.uleb128 0x49
 4562 01ca 13       		.uleb128 0x13
 4563 01cb 02       		.uleb128 0x2
 4564 01cc 17       		.uleb128 0x17
 4565 01cd 00       		.byte	0
 4566 01ce 00       		.byte	0
 4567 01cf 22       		.uleb128 0x22
 4568 01d0 0B       		.uleb128 0xb
 4569 01d1 01       		.byte	0x1
 4570 01d2 55       		.uleb128 0x55
 4571 01d3 17       		.uleb128 0x17
 4572 01d4 00       		.byte	0
 4573 01d5 00       		.byte	0
 4574 01d6 23       		.uleb128 0x23
 4575 01d7 2E       		.uleb128 0x2e
 4576 01d8 01       		.byte	0x1
 4577 01d9 3F       		.uleb128 0x3f
 4578 01da 19       		.uleb128 0x19
 4579 01db 03       		.uleb128 0x3
 4580 01dc 0E       		.uleb128 0xe
 4581 01dd 3A       		.uleb128 0x3a
 4582 01de 0B       		.uleb128 0xb
 4583 01df 3B       		.uleb128 0x3b
 4584 01e0 05       		.uleb128 0x5
 4585 01e1 27       		.uleb128 0x27
 4586 01e2 19       		.uleb128 0x19
 4587 01e3 49       		.uleb128 0x49
 4588 01e4 13       		.uleb128 0x13
 4589 01e5 11       		.uleb128 0x11
 4590 01e6 01       		.uleb128 0x1
 4591 01e7 12       		.uleb128 0x12
 4592 01e8 06       		.uleb128 0x6
 4593 01e9 40       		.uleb128 0x40
 4594 01ea 18       		.uleb128 0x18
 4595 01eb 9742     		.uleb128 0x2117
 4596 01ed 19       		.uleb128 0x19
 4597 01ee 01       		.uleb128 0x1
 4598 01ef 13       		.uleb128 0x13
 4599 01f0 00       		.byte	0
 4600 01f1 00       		.byte	0
 4601 01f2 24       		.uleb128 0x24
 4602 01f3 0B       		.uleb128 0xb
 4603 01f4 01       		.byte	0x1
 4604 01f5 11       		.uleb128 0x11
 4605 01f6 01       		.uleb128 0x1
 4606 01f7 12       		.uleb128 0x12
 4607 01f8 06       		.uleb128 0x6
 4608 01f9 00       		.byte	0
 4609 01fa 00       		.byte	0
 4610 01fb 25       		.uleb128 0x25
ARM GAS  C:\Users\eduar\AppData\Local\Temp\ccwtx1iP.s 			page 110


 4611 01fc 0B       		.uleb128 0xb
 4612 01fd 01       		.byte	0x1
 4613 01fe 11       		.uleb128 0x11
 4614 01ff 01       		.uleb128 0x1
 4615 0200 12       		.uleb128 0x12
 4616 0201 06       		.uleb128 0x6
 4617 0202 01       		.uleb128 0x1
 4618 0203 13       		.uleb128 0x13
 4619 0204 00       		.byte	0
 4620 0205 00       		.byte	0
 4621 0206 26       		.uleb128 0x26
 4622 0207 34       		.uleb128 0x34
 4623 0208 00       		.byte	0
 4624 0209 03       		.uleb128 0x3
 4625 020a 0E       		.uleb128 0xe
 4626 020b 3A       		.uleb128 0x3a
 4627 020c 0B       		.uleb128 0xb
 4628 020d 3B       		.uleb128 0x3b
 4629 020e 05       		.uleb128 0x5
 4630 020f 49       		.uleb128 0x49
 4631 0210 13       		.uleb128 0x13
 4632 0211 3F       		.uleb128 0x3f
 4633 0212 19       		.uleb128 0x19
 4634 0213 3C       		.uleb128 0x3c
 4635 0214 19       		.uleb128 0x19
 4636 0215 00       		.byte	0
 4637 0216 00       		.byte	0
 4638 0217 27       		.uleb128 0x27
 4639 0218 35       		.uleb128 0x35
 4640 0219 00       		.byte	0
 4641 021a 49       		.uleb128 0x49
 4642 021b 13       		.uleb128 0x13
 4643 021c 00       		.byte	0
 4644 021d 00       		.byte	0
 4645 021e 28       		.uleb128 0x28
 4646 021f 2E       		.uleb128 0x2e
 4647 0220 00       		.byte	0
 4648 0221 3F       		.uleb128 0x3f
 4649 0222 19       		.uleb128 0x19
 4650 0223 3C       		.uleb128 0x3c
 4651 0224 19       		.uleb128 0x19
 4652 0225 6E       		.uleb128 0x6e
 4653 0226 0E       		.uleb128 0xe
 4654 0227 03       		.uleb128 0x3
 4655 0228 0E       		.uleb128 0xe
 4656 0229 3A       		.uleb128 0x3a
 4657 022a 0B       		.uleb128 0xb
 4658 022b 3B       		.uleb128 0x3b
 4659 022c 05       		.uleb128 0x5
 4660 022d 00       		.byte	0
 4661 022e 00       		.byte	0
 4662 022f 29       		.uleb128 0x29
 4663 0230 2E       		.uleb128 0x2e
 4664 0231 00       		.byte	0
 4665 0232 3F       		.uleb128 0x3f
 4666 0233 19       		.uleb128 0x19
 4667 0234 3C       		.uleb128 0x3c
ARM GAS  C:\Users\eduar\AppData\Local\Temp\ccwtx1iP.s 			page 111


 4668 0235 19       		.uleb128 0x19
 4669 0236 6E       		.uleb128 0x6e
 4670 0237 0E       		.uleb128 0xe
 4671 0238 03       		.uleb128 0x3
 4672 0239 0E       		.uleb128 0xe
 4673 023a 00       		.byte	0
 4674 023b 00       		.byte	0
 4675 023c 00       		.byte	0
 4676              		.section	.debug_loc,"",%progbits
 4677              	.Ldebug_loc0:
 4678              	.LLST0:
 4679 0000 02000000 		.4byte	.LVL1
 4680 0004 0C000000 		.4byte	.LVL4
 4681 0008 0200     		.2byte	0x2
 4682 000a 30       		.byte	0x30
 4683 000b 9F       		.byte	0x9f
 4684 000c 0E000000 		.4byte	.LVL5
 4685 0010 1E000000 		.4byte	.LVL9
 4686 0014 0100     		.2byte	0x1
 4687 0016 53       		.byte	0x53
 4688 0017 00000000 		.4byte	0
 4689 001b 00000000 		.4byte	0
 4690              	.LLST1:
 4691 001f 02000000 		.4byte	.LVL1
 4692 0023 0C000000 		.4byte	.LVL4
 4693 0027 0200     		.2byte	0x2
 4694 0029 30       		.byte	0x30
 4695 002a 9F       		.byte	0x9f
 4696 002b 0C000000 		.4byte	.LVL4
 4697 002f 14000000 		.4byte	.LVL6
 4698 0033 0100     		.2byte	0x1
 4699 0035 56       		.byte	0x56
 4700 0036 14000000 		.4byte	.LVL6
 4701 003a 18000000 		.4byte	.LVL7
 4702 003e 0100     		.2byte	0x1
 4703 0040 53       		.byte	0x53
 4704 0041 18000000 		.4byte	.LVL7
 4705 0045 2C000000 		.4byte	.LVL10
 4706 0049 0100     		.2byte	0x1
 4707 004b 56       		.byte	0x56
 4708 004c 00000000 		.4byte	0
 4709 0050 00000000 		.4byte	0
 4710              	.LLST2:
 4711 0054 06000000 		.4byte	.LVL3
 4712 0058 0C000000 		.4byte	.LVL4
 4713 005c 0200     		.2byte	0x2
 4714 005e 30       		.byte	0x30
 4715 005f 9F       		.byte	0x9f
 4716 0060 0C000000 		.4byte	.LVL4
 4717 0064 2C000000 		.4byte	.LVL10
 4718 0068 0100     		.2byte	0x1
 4719 006a 54       		.byte	0x54
 4720 006b 00000000 		.4byte	0
 4721 006f 00000000 		.4byte	0
 4722              	.LLST3:
 4723 0073 00000000 		.4byte	.LVL11
 4724 0077 1A000000 		.4byte	.LVL15
ARM GAS  C:\Users\eduar\AppData\Local\Temp\ccwtx1iP.s 			page 112


 4725 007b 0100     		.2byte	0x1
 4726 007d 50       		.byte	0x50
 4727 007e 1A000000 		.4byte	.LVL15
 4728 0082 1C000000 		.4byte	.LFE138
 4729 0086 0400     		.2byte	0x4
 4730 0088 F3       		.byte	0xf3
 4731 0089 01       		.uleb128 0x1
 4732 008a 50       		.byte	0x50
 4733 008b 9F       		.byte	0x9f
 4734 008c 00000000 		.4byte	0
 4735 0090 00000000 		.4byte	0
 4736              	.LLST4:
 4737 0094 00000000 		.4byte	.LVL16
 4738 0098 08000000 		.4byte	.LVL17
 4739 009c 0100     		.2byte	0x1
 4740 009e 50       		.byte	0x50
 4741 009f 08000000 		.4byte	.LVL17
 4742 00a3 26000000 		.4byte	.LVL18
 4743 00a7 0100     		.2byte	0x1
 4744 00a9 54       		.byte	0x54
 4745 00aa 26000000 		.4byte	.LVL18
 4746 00ae 5C000000 		.4byte	.LFE139
 4747 00b2 0400     		.2byte	0x4
 4748 00b4 F3       		.byte	0xf3
 4749 00b5 01       		.uleb128 0x1
 4750 00b6 50       		.byte	0x50
 4751 00b7 9F       		.byte	0x9f
 4752 00b8 00000000 		.4byte	0
 4753 00bc 00000000 		.4byte	0
 4754              	.LLST5:
 4755 00c0 00000000 		.4byte	.LVL16
 4756 00c4 2C000000 		.4byte	.LVL19
 4757 00c8 0100     		.2byte	0x1
 4758 00ca 51       		.byte	0x51
 4759 00cb 2C000000 		.4byte	.LVL19
 4760 00cf 4E000000 		.4byte	.LVL21
 4761 00d3 0400     		.2byte	0x4
 4762 00d5 F3       		.byte	0xf3
 4763 00d6 01       		.uleb128 0x1
 4764 00d7 51       		.byte	0x51
 4765 00d8 9F       		.byte	0x9f
 4766 00d9 4E000000 		.4byte	.LVL21
 4767 00dd 52000000 		.4byte	.LVL23
 4768 00e1 0100     		.2byte	0x1
 4769 00e3 51       		.byte	0x51
 4770 00e4 52000000 		.4byte	.LVL23
 4771 00e8 5C000000 		.4byte	.LFE139
 4772 00ec 0400     		.2byte	0x4
 4773 00ee F3       		.byte	0xf3
 4774 00ef 01       		.uleb128 0x1
 4775 00f0 51       		.byte	0x51
 4776 00f1 9F       		.byte	0x9f
 4777 00f2 00000000 		.4byte	0
 4778 00f6 00000000 		.4byte	0
 4779              	.LLST6:
 4780 00fa 00000000 		.4byte	.LVL16
 4781 00fe 32000000 		.4byte	.LVL20
ARM GAS  C:\Users\eduar\AppData\Local\Temp\ccwtx1iP.s 			page 113


 4782 0102 0100     		.2byte	0x1
 4783 0104 53       		.byte	0x53
 4784 0105 32000000 		.4byte	.LVL20
 4785 0109 4E000000 		.4byte	.LVL21
 4786 010d 0400     		.2byte	0x4
 4787 010f F3       		.byte	0xf3
 4788 0110 01       		.uleb128 0x1
 4789 0111 53       		.byte	0x53
 4790 0112 9F       		.byte	0x9f
 4791 0113 4E000000 		.4byte	.LVL21
 4792 0117 50000000 		.4byte	.LVL22
 4793 011b 0100     		.2byte	0x1
 4794 011d 53       		.byte	0x53
 4795 011e 50000000 		.4byte	.LVL22
 4796 0122 5C000000 		.4byte	.LFE139
 4797 0126 0400     		.2byte	0x4
 4798 0128 F3       		.byte	0xf3
 4799 0129 01       		.uleb128 0x1
 4800 012a 53       		.byte	0x53
 4801 012b 9F       		.byte	0x9f
 4802 012c 00000000 		.4byte	0
 4803 0130 00000000 		.4byte	0
 4804              	.LLST7:
 4805 0134 00000000 		.4byte	.LVL24
 4806 0138 08000000 		.4byte	.LVL26
 4807 013c 0100     		.2byte	0x1
 4808 013e 50       		.byte	0x50
 4809 013f 08000000 		.4byte	.LVL26
 4810 0143 3A000000 		.4byte	.LVL38
 4811 0147 0100     		.2byte	0x1
 4812 0149 54       		.byte	0x54
 4813 014a 3A000000 		.4byte	.LVL38
 4814 014e 3C000000 		.4byte	.LFE140
 4815 0152 0400     		.2byte	0x4
 4816 0154 F3       		.byte	0xf3
 4817 0155 01       		.uleb128 0x1
 4818 0156 50       		.byte	0x50
 4819 0157 9F       		.byte	0x9f
 4820 0158 00000000 		.4byte	0
 4821 015c 00000000 		.4byte	0
 4822              	.LLST8:
 4823 0160 04000000 		.4byte	.LVL25
 4824 0164 0A000000 		.4byte	.LVL27
 4825 0168 0300     		.2byte	0x3
 4826 016a 09       		.byte	0x9
 4827 016b FF       		.byte	0xff
 4828 016c 9F       		.byte	0x9f
 4829 016d 0A000000 		.4byte	.LVL27
 4830 0171 1A000000 		.4byte	.LVL30
 4831 0175 0100     		.2byte	0x1
 4832 0177 50       		.byte	0x50
 4833 0178 22000000 		.4byte	.LVL31
 4834 017c 24000000 		.4byte	.LVL32
 4835 0180 0100     		.2byte	0x1
 4836 0182 50       		.byte	0x50
 4837 0183 26000000 		.4byte	.LVL33
 4838 0187 3C000000 		.4byte	.LFE140
ARM GAS  C:\Users\eduar\AppData\Local\Temp\ccwtx1iP.s 			page 114


 4839 018b 0100     		.2byte	0x1
 4840 018d 50       		.byte	0x50
 4841 018e 00000000 		.4byte	0
 4842 0192 00000000 		.4byte	0
 4843              	.LLST9:
 4844 0196 0E000000 		.4byte	.LVL28
 4845 019a 12000000 		.4byte	.LVL29
 4846 019e 0200     		.2byte	0x2
 4847 01a0 30       		.byte	0x30
 4848 01a1 9F       		.byte	0x9f
 4849 01a2 12000000 		.4byte	.LVL29
 4850 01a6 28000000 		.4byte	.LVL34
 4851 01aa 0100     		.2byte	0x1
 4852 01ac 53       		.byte	0x53
 4853 01ad 2A000000 		.4byte	.LVL35
 4854 01b1 32000000 		.4byte	.LVL37
 4855 01b5 0100     		.2byte	0x1
 4856 01b7 53       		.byte	0x53
 4857 01b8 00000000 		.4byte	0
 4858 01bc 00000000 		.4byte	0
 4859              	.LLST10:
 4860 01c0 04000000 		.4byte	.LVL25
 4861 01c4 0A000000 		.4byte	.LVL27
 4862 01c8 0200     		.2byte	0x2
 4863 01ca 30       		.byte	0x30
 4864 01cb 9F       		.byte	0x9f
 4865 01cc 0A000000 		.4byte	.LVL27
 4866 01d0 30000000 		.4byte	.LVL36
 4867 01d4 0100     		.2byte	0x1
 4868 01d6 52       		.byte	0x52
 4869 01d7 32000000 		.4byte	.LVL37
 4870 01db 3C000000 		.4byte	.LFE140
 4871 01df 0100     		.2byte	0x1
 4872 01e1 52       		.byte	0x52
 4873 01e2 00000000 		.4byte	0
 4874 01e6 00000000 		.4byte	0
 4875              	.LLST11:
 4876 01ea 00000000 		.4byte	.LVL39
 4877 01ee 3A000000 		.4byte	.LVL42
 4878 01f2 0100     		.2byte	0x1
 4879 01f4 50       		.byte	0x50
 4880 01f5 3A000000 		.4byte	.LVL42
 4881 01f9 3C000000 		.4byte	.LVL43
 4882 01fd 0400     		.2byte	0x4
 4883 01ff F3       		.byte	0xf3
 4884 0200 01       		.uleb128 0x1
 4885 0201 50       		.byte	0x50
 4886 0202 9F       		.byte	0x9f
 4887 0203 3C000000 		.4byte	.LVL43
 4888 0207 3E000000 		.4byte	.LVL44
 4889 020b 0100     		.2byte	0x1
 4890 020d 50       		.byte	0x50
 4891 020e 3E000000 		.4byte	.LVL44
 4892 0212 40000000 		.4byte	.LVL45
 4893 0216 0400     		.2byte	0x4
 4894 0218 F3       		.byte	0xf3
 4895 0219 01       		.uleb128 0x1
ARM GAS  C:\Users\eduar\AppData\Local\Temp\ccwtx1iP.s 			page 115


 4896 021a 50       		.byte	0x50
 4897 021b 9F       		.byte	0x9f
 4898 021c 40000000 		.4byte	.LVL45
 4899 0220 42000000 		.4byte	.LVL46
 4900 0224 0100     		.2byte	0x1
 4901 0226 50       		.byte	0x50
 4902 0227 42000000 		.4byte	.LVL46
 4903 022b 44000000 		.4byte	.LVL47
 4904 022f 0400     		.2byte	0x4
 4905 0231 F3       		.byte	0xf3
 4906 0232 01       		.uleb128 0x1
 4907 0233 50       		.byte	0x50
 4908 0234 9F       		.byte	0x9f
 4909 0235 44000000 		.4byte	.LVL47
 4910 0239 46000000 		.4byte	.LVL48
 4911 023d 0100     		.2byte	0x1
 4912 023f 50       		.byte	0x50
 4913 0240 46000000 		.4byte	.LVL48
 4914 0244 54000000 		.4byte	.LFE141
 4915 0248 0400     		.2byte	0x4
 4916 024a F3       		.byte	0xf3
 4917 024b 01       		.uleb128 0x1
 4918 024c 50       		.byte	0x50
 4919 024d 9F       		.byte	0x9f
 4920 024e 00000000 		.4byte	0
 4921 0252 00000000 		.4byte	0
 4922              	.LLST12:
 4923 0256 00000000 		.4byte	.LVL39
 4924 025a 46000000 		.4byte	.LVL48
 4925 025e 0600     		.2byte	0x6
 4926 0260 0C       		.byte	0xc
 4927 0261 03006E00 		.4byte	0x6e0003
 4928 0265 9F       		.byte	0x9f
 4929 0266 46000000 		.4byte	.LVL48
 4930 026a 54000000 		.4byte	.LFE141
 4931 026e 0100     		.2byte	0x1
 4932 0270 50       		.byte	0x50
 4933 0271 00000000 		.4byte	0
 4934 0275 00000000 		.4byte	0
 4935              	.LLST13:
 4936 0279 00000000 		.4byte	.LVL49
 4937 027d 50000000 		.4byte	.LVL56
 4938 0281 0100     		.2byte	0x1
 4939 0283 50       		.byte	0x50
 4940 0284 50000000 		.4byte	.LVL56
 4941 0288 52000000 		.4byte	.LVL57
 4942 028c 0400     		.2byte	0x4
 4943 028e F3       		.byte	0xf3
 4944 028f 01       		.uleb128 0x1
 4945 0290 50       		.byte	0x50
 4946 0291 9F       		.byte	0x9f
 4947 0292 52000000 		.4byte	.LVL57
 4948 0296 5A000000 		.4byte	.LVL58
 4949 029a 0100     		.2byte	0x1
 4950 029c 50       		.byte	0x50
 4951 029d 5A000000 		.4byte	.LVL58
 4952 02a1 5C000000 		.4byte	.LVL59
ARM GAS  C:\Users\eduar\AppData\Local\Temp\ccwtx1iP.s 			page 116


 4953 02a5 0400     		.2byte	0x4
 4954 02a7 F3       		.byte	0xf3
 4955 02a8 01       		.uleb128 0x1
 4956 02a9 50       		.byte	0x50
 4957 02aa 9F       		.byte	0x9f
 4958 02ab 5C000000 		.4byte	.LVL59
 4959 02af 8E000000 		.4byte	.LVL62
 4960 02b3 0100     		.2byte	0x1
 4961 02b5 50       		.byte	0x50
 4962 02b6 8E000000 		.4byte	.LVL62
 4963 02ba 90000000 		.4byte	.LVL63
 4964 02be 0400     		.2byte	0x4
 4965 02c0 F3       		.byte	0xf3
 4966 02c1 01       		.uleb128 0x1
 4967 02c2 50       		.byte	0x50
 4968 02c3 9F       		.byte	0x9f
 4969 02c4 90000000 		.4byte	.LVL63
 4970 02c8 92000000 		.4byte	.LVL64
 4971 02cc 0100     		.2byte	0x1
 4972 02ce 50       		.byte	0x50
 4973 02cf 92000000 		.4byte	.LVL64
 4974 02d3 94000000 		.4byte	.LFE145
 4975 02d7 0400     		.2byte	0x4
 4976 02d9 F3       		.byte	0xf3
 4977 02da 01       		.uleb128 0x1
 4978 02db 50       		.byte	0x50
 4979 02dc 9F       		.byte	0x9f
 4980 02dd 00000000 		.4byte	0
 4981 02e1 00000000 		.4byte	0
 4982              	.LLST14:
 4983 02e5 00000000 		.4byte	.LVL49
 4984 02e9 28000000 		.4byte	.LVL51
 4985 02ed 0100     		.2byte	0x1
 4986 02ef 52       		.byte	0x52
 4987 02f0 28000000 		.4byte	.LVL51
 4988 02f4 5C000000 		.4byte	.LVL59
 4989 02f8 0400     		.2byte	0x4
 4990 02fa F3       		.byte	0xf3
 4991 02fb 01       		.uleb128 0x1
 4992 02fc 52       		.byte	0x52
 4993 02fd 9F       		.byte	0x9f
 4994 02fe 5C000000 		.4byte	.LVL59
 4995 0302 94000000 		.4byte	.LFE145
 4996 0306 0100     		.2byte	0x1
 4997 0308 52       		.byte	0x52
 4998 0309 00000000 		.4byte	0
 4999 030d 00000000 		.4byte	0
 5000              	.LLST15:
 5001 0311 00000000 		.4byte	.LVL49
 5002 0315 36000000 		.4byte	.LVL52
 5003 0319 0100     		.2byte	0x1
 5004 031b 53       		.byte	0x53
 5005 031c 36000000 		.4byte	.LVL52
 5006 0320 38000000 		.4byte	.LVL53
 5007 0324 0300     		.2byte	0x3
 5008 0326 73       		.byte	0x73
 5009 0327 7F       		.sleb128 -1
ARM GAS  C:\Users\eduar\AppData\Local\Temp\ccwtx1iP.s 			page 117


 5010 0328 9F       		.byte	0x9f
 5011 0329 38000000 		.4byte	.LVL53
 5012 032d 42000000 		.4byte	.LVL54
 5013 0331 0400     		.2byte	0x4
 5014 0333 F3       		.byte	0xf3
 5015 0334 01       		.uleb128 0x1
 5016 0335 53       		.byte	0x53
 5017 0336 9F       		.byte	0x9f
 5018 0337 42000000 		.4byte	.LVL54
 5019 033b 44000000 		.4byte	.LVL55
 5020 033f 0100     		.2byte	0x1
 5021 0341 53       		.byte	0x53
 5022 0342 44000000 		.4byte	.LVL55
 5023 0346 5C000000 		.4byte	.LVL59
 5024 034a 0400     		.2byte	0x4
 5025 034c F3       		.byte	0xf3
 5026 034d 01       		.uleb128 0x1
 5027 034e 53       		.byte	0x53
 5028 034f 9F       		.byte	0x9f
 5029 0350 5C000000 		.4byte	.LVL59
 5030 0354 66000000 		.4byte	.LVL60
 5031 0358 0100     		.2byte	0x1
 5032 035a 53       		.byte	0x53
 5033 035b 66000000 		.4byte	.LVL60
 5034 035f 68000000 		.4byte	.LVL61
 5035 0363 0300     		.2byte	0x3
 5036 0365 73       		.byte	0x73
 5037 0366 7F       		.sleb128 -1
 5038 0367 9F       		.byte	0x9f
 5039 0368 68000000 		.4byte	.LVL61
 5040 036c 94000000 		.4byte	.LFE145
 5041 0370 0400     		.2byte	0x4
 5042 0372 F3       		.byte	0xf3
 5043 0373 01       		.uleb128 0x1
 5044 0374 53       		.byte	0x53
 5045 0375 9F       		.byte	0x9f
 5046 0376 00000000 		.4byte	0
 5047 037a 00000000 		.4byte	0
 5048              	.LLST16:
 5049 037e 00000000 		.4byte	.LVL49
 5050 0382 52000000 		.4byte	.LVL57
 5051 0386 0200     		.2byte	0x2
 5052 0388 91       		.byte	0x91
 5053 0389 00       		.sleb128 0
 5054 038a 52000000 		.4byte	.LVL57
 5055 038e 94000000 		.4byte	.LFE145
 5056 0392 0200     		.2byte	0x2
 5057 0394 91       		.byte	0x91
 5058 0395 00       		.sleb128 0
 5059 0396 00000000 		.4byte	0
 5060 039a 00000000 		.4byte	0
 5061              	.LLST17:
 5062 039e 00000000 		.4byte	.LVL49
 5063 03a2 52000000 		.4byte	.LVL57
 5064 03a6 0200     		.2byte	0x2
 5065 03a8 91       		.byte	0x91
 5066 03a9 04       		.sleb128 4
ARM GAS  C:\Users\eduar\AppData\Local\Temp\ccwtx1iP.s 			page 118


 5067 03aa 52000000 		.4byte	.LVL57
 5068 03ae 94000000 		.4byte	.LFE145
 5069 03b2 0200     		.2byte	0x2
 5070 03b4 91       		.byte	0x91
 5071 03b5 04       		.sleb128 4
 5072 03b6 00000000 		.4byte	0
 5073 03ba 00000000 		.4byte	0
 5074              	.LLST18:
 5075 03be 06000000 		.4byte	.LVL50
 5076 03c2 92000000 		.4byte	.LVL64
 5077 03c6 0200     		.2byte	0x2
 5078 03c8 30       		.byte	0x30
 5079 03c9 9F       		.byte	0x9f
 5080 03ca 92000000 		.4byte	.LVL64
 5081 03ce 94000000 		.4byte	.LFE145
 5082 03d2 0100     		.2byte	0x1
 5083 03d4 50       		.byte	0x50
 5084 03d5 00000000 		.4byte	0
 5085 03d9 00000000 		.4byte	0
 5086              	.LLST19:
 5087 03dd 00000000 		.4byte	.LVL65
 5088 03e1 09000000 		.4byte	.LVL67-1
 5089 03e5 0100     		.2byte	0x1
 5090 03e7 50       		.byte	0x50
 5091 03e8 09000000 		.4byte	.LVL67-1
 5092 03ec 10000000 		.4byte	.LVL68
 5093 03f0 0400     		.2byte	0x4
 5094 03f2 F3       		.byte	0xf3
 5095 03f3 01       		.uleb128 0x1
 5096 03f4 50       		.byte	0x50
 5097 03f5 9F       		.byte	0x9f
 5098 03f6 10000000 		.4byte	.LVL68
 5099 03fa 13000000 		.4byte	.LVL69-1
 5100 03fe 0100     		.2byte	0x1
 5101 0400 50       		.byte	0x50
 5102 0401 13000000 		.4byte	.LVL69-1
 5103 0405 50000000 		.4byte	.LFE142
 5104 0409 0400     		.2byte	0x4
 5105 040b F3       		.byte	0xf3
 5106 040c 01       		.uleb128 0x1
 5107 040d 50       		.byte	0x50
 5108 040e 9F       		.byte	0x9f
 5109 040f 00000000 		.4byte	0
 5110 0413 00000000 		.4byte	0
 5111              	.LLST20:
 5112 0417 00000000 		.4byte	.LVL65
 5113 041b 09000000 		.4byte	.LVL67-1
 5114 041f 0100     		.2byte	0x1
 5115 0421 51       		.byte	0x51
 5116 0422 09000000 		.4byte	.LVL67-1
 5117 0426 10000000 		.4byte	.LVL68
 5118 042a 0400     		.2byte	0x4
 5119 042c F3       		.byte	0xf3
 5120 042d 01       		.uleb128 0x1
 5121 042e 51       		.byte	0x51
 5122 042f 9F       		.byte	0x9f
 5123 0430 10000000 		.4byte	.LVL68
ARM GAS  C:\Users\eduar\AppData\Local\Temp\ccwtx1iP.s 			page 119


 5124 0434 13000000 		.4byte	.LVL69-1
 5125 0438 0100     		.2byte	0x1
 5126 043a 51       		.byte	0x51
 5127 043b 13000000 		.4byte	.LVL69-1
 5128 043f 50000000 		.4byte	.LFE142
 5129 0443 0400     		.2byte	0x4
 5130 0445 F3       		.byte	0xf3
 5131 0446 01       		.uleb128 0x1
 5132 0447 51       		.byte	0x51
 5133 0448 9F       		.byte	0x9f
 5134 0449 00000000 		.4byte	0
 5135 044d 00000000 		.4byte	0
 5136              	.LLST21:
 5137 0451 00000000 		.4byte	.LVL65
 5138 0455 09000000 		.4byte	.LVL67-1
 5139 0459 0100     		.2byte	0x1
 5140 045b 52       		.byte	0x52
 5141 045c 09000000 		.4byte	.LVL67-1
 5142 0460 10000000 		.4byte	.LVL68
 5143 0464 0400     		.2byte	0x4
 5144 0466 F3       		.byte	0xf3
 5145 0467 01       		.uleb128 0x1
 5146 0468 52       		.byte	0x52
 5147 0469 9F       		.byte	0x9f
 5148 046a 10000000 		.4byte	.LVL68
 5149 046e 13000000 		.4byte	.LVL69-1
 5150 0472 0100     		.2byte	0x1
 5151 0474 52       		.byte	0x52
 5152 0475 13000000 		.4byte	.LVL69-1
 5153 0479 50000000 		.4byte	.LFE142
 5154 047d 0400     		.2byte	0x4
 5155 047f F3       		.byte	0xf3
 5156 0480 01       		.uleb128 0x1
 5157 0481 52       		.byte	0x52
 5158 0482 9F       		.byte	0x9f
 5159 0483 00000000 		.4byte	0
 5160 0487 00000000 		.4byte	0
 5161              	.LLST22:
 5162 048b 02000000 		.4byte	.LVL66
 5163 048f 42000000 		.4byte	.LVL77
 5164 0493 0600     		.2byte	0x6
 5165 0495 0C       		.byte	0xc
 5166 0496 04006E00 		.4byte	0x6e0004
 5167 049a 9F       		.byte	0x9f
 5168 049b 42000000 		.4byte	.LVL77
 5169 049f 50000000 		.4byte	.LFE142
 5170 04a3 0100     		.2byte	0x1
 5171 04a5 50       		.byte	0x50
 5172 04a6 00000000 		.4byte	0
 5173 04aa 00000000 		.4byte	0
 5174              	.LLST23:
 5175 04ae 1C000000 		.4byte	.LVL70
 5176 04b2 38000000 		.4byte	.LVL75
 5177 04b6 0100     		.2byte	0x1
 5178 04b8 54       		.byte	0x54
 5179 04b9 40000000 		.4byte	.LVL76
 5180 04bd 44000000 		.4byte	.LVL78
ARM GAS  C:\Users\eduar\AppData\Local\Temp\ccwtx1iP.s 			page 120


 5181 04c1 0100     		.2byte	0x1
 5182 04c3 54       		.byte	0x54
 5183 04c4 00000000 		.4byte	0
 5184 04c8 00000000 		.4byte	0
 5185              	.LLST24:
 5186 04cc 26000000 		.4byte	.LVL72
 5187 04d0 36000000 		.4byte	.LVL74
 5188 04d4 0100     		.2byte	0x1
 5189 04d6 50       		.byte	0x50
 5190 04d7 40000000 		.4byte	.LVL76
 5191 04db 42000000 		.4byte	.LVL77
 5192 04df 0100     		.2byte	0x1
 5193 04e1 50       		.byte	0x50
 5194 04e2 00000000 		.4byte	0
 5195 04e6 00000000 		.4byte	0
 5196              	.LLST25:
 5197 04ea 00000000 		.4byte	.LVL79
 5198 04ee 14000000 		.4byte	.LVL81
 5199 04f2 0100     		.2byte	0x1
 5200 04f4 50       		.byte	0x50
 5201 04f5 14000000 		.4byte	.LVL81
 5202 04f9 72000000 		.4byte	.LVL94
 5203 04fd 0100     		.2byte	0x1
 5204 04ff 54       		.byte	0x54
 5205 0500 72000000 		.4byte	.LVL94
 5206 0504 78000000 		.4byte	.LFE146
 5207 0508 0400     		.2byte	0x4
 5208 050a F3       		.byte	0xf3
 5209 050b 01       		.uleb128 0x1
 5210 050c 50       		.byte	0x50
 5211 050d 9F       		.byte	0x9f
 5212 050e 00000000 		.4byte	0
 5213 0512 00000000 		.4byte	0
 5214              	.LLST26:
 5215 0516 0E000000 		.4byte	.LVL80
 5216 051a 14000000 		.4byte	.LVL81
 5217 051e 0200     		.2byte	0x2
 5218 0520 30       		.byte	0x30
 5219 0521 9F       		.byte	0x9f
 5220 0522 14000000 		.4byte	.LVL81
 5221 0526 72000000 		.4byte	.LVL94
 5222 052a 0100     		.2byte	0x1
 5223 052c 56       		.byte	0x56
 5224 052d 00000000 		.4byte	0
 5225 0531 00000000 		.4byte	0
 5226              	.LLST27:
 5227 0535 44000000 		.4byte	.LVL87
 5228 0539 4A000000 		.4byte	.LVL88
 5229 053d 0600     		.2byte	0x6
 5230 053f 73       		.byte	0x73
 5231 0540 00       		.sleb128 0
 5232 0541 70       		.byte	0x70
 5233 0542 00       		.sleb128 0
 5234 0543 22       		.byte	0x22
 5235 0544 9F       		.byte	0x9f
 5236 0545 4A000000 		.4byte	.LVL88
 5237 0549 4D000000 		.4byte	.LVL89-1
ARM GAS  C:\Users\eduar\AppData\Local\Temp\ccwtx1iP.s 			page 121


 5238 054d 0100     		.2byte	0x1
 5239 054f 50       		.byte	0x50
 5240 0550 00000000 		.4byte	0
 5241 0554 00000000 		.4byte	0
 5242              	.LLST28:
 5243 0558 0E000000 		.4byte	.LVL80
 5244 055c 72000000 		.4byte	.LVL94
 5245 0560 0100     		.2byte	0x1
 5246 0562 55       		.byte	0x55
 5247 0563 00000000 		.4byte	0
 5248 0567 00000000 		.4byte	0
 5249              	.LLST29:
 5250 056b 0E000000 		.4byte	.LVL80
 5251 056f 14000000 		.4byte	.LVL81
 5252 0573 0600     		.2byte	0x6
 5253 0575 0C       		.byte	0xc
 5254 0576 01006E00 		.4byte	0x6e0001
 5255 057a 9F       		.byte	0x9f
 5256 057b 14000000 		.4byte	.LVL81
 5257 057f 16000000 		.4byte	.LVL82
 5258 0583 0100     		.2byte	0x1
 5259 0585 57       		.byte	0x57
 5260 0586 50000000 		.4byte	.LVL90
 5261 058a 58000000 		.4byte	.LVL91
 5262 058e 0100     		.2byte	0x1
 5263 0590 50       		.byte	0x50
 5264 0591 58000000 		.4byte	.LVL91
 5265 0595 72000000 		.4byte	.LVL94
 5266 0599 0100     		.2byte	0x1
 5267 059b 57       		.byte	0x57
 5268 059c 72000000 		.4byte	.LVL94
 5269 05a0 78000000 		.4byte	.LFE146
 5270 05a4 0100     		.2byte	0x1
 5271 05a6 50       		.byte	0x50
 5272 05a7 00000000 		.4byte	0
 5273 05ab 00000000 		.4byte	0
 5274              	.LLST30:
 5275 05af 00000000 		.4byte	.LVL95
 5276 05b3 24000000 		.4byte	.LVL99
 5277 05b7 0100     		.2byte	0x1
 5278 05b9 50       		.byte	0x50
 5279 05ba 24000000 		.4byte	.LVL99
 5280 05be 82000000 		.4byte	.LVL112
 5281 05c2 0100     		.2byte	0x1
 5282 05c4 55       		.byte	0x55
 5283 05c5 82000000 		.4byte	.LVL112
 5284 05c9 88000000 		.4byte	.LFE144
 5285 05cd 0400     		.2byte	0x4
 5286 05cf F3       		.byte	0xf3
 5287 05d0 01       		.uleb128 0x1
 5288 05d1 50       		.byte	0x50
 5289 05d2 9F       		.byte	0x9f
 5290 05d3 00000000 		.4byte	0
 5291 05d7 00000000 		.4byte	0
 5292              	.LLST31:
 5293 05db 00000000 		.4byte	.LVL95
 5294 05df 22000000 		.4byte	.LVL98
ARM GAS  C:\Users\eduar\AppData\Local\Temp\ccwtx1iP.s 			page 122


 5295 05e3 0100     		.2byte	0x1
 5296 05e5 51       		.byte	0x51
 5297 05e6 22000000 		.4byte	.LVL98
 5298 05ea 82000000 		.4byte	.LVL112
 5299 05ee 0100     		.2byte	0x1
 5300 05f0 5A       		.byte	0x5a
 5301 05f1 82000000 		.4byte	.LVL112
 5302 05f5 88000000 		.4byte	.LFE144
 5303 05f9 0400     		.2byte	0x4
 5304 05fb F3       		.byte	0xf3
 5305 05fc 01       		.uleb128 0x1
 5306 05fd 51       		.byte	0x51
 5307 05fe 9F       		.byte	0x9f
 5308 05ff 00000000 		.4byte	0
 5309 0603 00000000 		.4byte	0
 5310              	.LLST32:
 5311 0607 00000000 		.4byte	.LVL95
 5312 060b 27000000 		.4byte	.LVL100-1
 5313 060f 0100     		.2byte	0x1
 5314 0611 52       		.byte	0x52
 5315 0612 27000000 		.4byte	.LVL100-1
 5316 0616 82000000 		.4byte	.LVL112
 5317 061a 0100     		.2byte	0x1
 5318 061c 58       		.byte	0x58
 5319 061d 82000000 		.4byte	.LVL112
 5320 0621 88000000 		.4byte	.LFE144
 5321 0625 0400     		.2byte	0x4
 5322 0627 F3       		.byte	0xf3
 5323 0628 01       		.uleb128 0x1
 5324 0629 52       		.byte	0x52
 5325 062a 9F       		.byte	0x9f
 5326 062b 00000000 		.4byte	0
 5327 062f 00000000 		.4byte	0
 5328              	.LLST33:
 5329 0633 00000000 		.4byte	.LVL95
 5330 0637 18000000 		.4byte	.LVL96
 5331 063b 0100     		.2byte	0x1
 5332 063d 53       		.byte	0x53
 5333 063e 18000000 		.4byte	.LVL96
 5334 0642 82000000 		.4byte	.LVL112
 5335 0646 0100     		.2byte	0x1
 5336 0648 59       		.byte	0x59
 5337 0649 82000000 		.4byte	.LVL112
 5338 064d 88000000 		.4byte	.LFE144
 5339 0651 0400     		.2byte	0x4
 5340 0653 F3       		.byte	0xf3
 5341 0654 01       		.uleb128 0x1
 5342 0655 53       		.byte	0x53
 5343 0656 9F       		.byte	0x9f
 5344 0657 00000000 		.4byte	0
 5345 065b 00000000 		.4byte	0
 5346              	.LLST34:
 5347 065f 00000000 		.4byte	.LVL95
 5348 0663 82000000 		.4byte	.LVL112
 5349 0667 0200     		.2byte	0x2
 5350 0669 91       		.byte	0x91
 5351 066a 00       		.sleb128 0
ARM GAS  C:\Users\eduar\AppData\Local\Temp\ccwtx1iP.s 			page 123


 5352 066b 82000000 		.4byte	.LVL112
 5353 066f 88000000 		.4byte	.LFE144
 5354 0673 0200     		.2byte	0x2
 5355 0675 7D       		.byte	0x7d
 5356 0676 00       		.sleb128 0
 5357 0677 00000000 		.4byte	0
 5358 067b 00000000 		.4byte	0
 5359              	.LLST35:
 5360 067f 38000000 		.4byte	.LVL101
 5361 0683 3C000000 		.4byte	.LVL103
 5362 0687 0200     		.2byte	0x2
 5363 0689 30       		.byte	0x30
 5364 068a 9F       		.byte	0x9f
 5365 068b 64000000 		.4byte	.LVL106
 5366 068f 70000000 		.4byte	.LVL108
 5367 0693 0100     		.2byte	0x1
 5368 0695 50       		.byte	0x50
 5369 0696 70000000 		.4byte	.LVL108
 5370 069a 76000000 		.4byte	.LVL110
 5371 069e 0100     		.2byte	0x1
 5372 06a0 54       		.byte	0x54
 5373 06a1 78000000 		.4byte	.LVL111
 5374 06a5 82000000 		.4byte	.LVL112
 5375 06a9 0100     		.2byte	0x1
 5376 06ab 54       		.byte	0x54
 5377 06ac 82000000 		.4byte	.LVL112
 5378 06b0 88000000 		.4byte	.LFE144
 5379 06b4 0100     		.2byte	0x1
 5380 06b6 50       		.byte	0x50
 5381 06b7 00000000 		.4byte	0
 5382 06bb 00000000 		.4byte	0
 5383              	.LLST36:
 5384 06bf 1A000000 		.4byte	.LVL97
 5385 06c3 3A000000 		.4byte	.LVL102
 5386 06c7 0100     		.2byte	0x1
 5387 06c9 54       		.byte	0x54
 5388 06ca 3C000000 		.4byte	.LVL103
 5389 06ce 66000000 		.4byte	.LVL107
 5390 06d2 0100     		.2byte	0x1
 5391 06d4 54       		.byte	0x54
 5392 06d5 76000000 		.4byte	.LVL110
 5393 06d9 78000000 		.4byte	.LVL111
 5394 06dd 0100     		.2byte	0x1
 5395 06df 54       		.byte	0x54
 5396 06e0 00000000 		.4byte	0
 5397 06e4 00000000 		.4byte	0
 5398              	.LLST37:
 5399 06e8 00000000 		.4byte	.LVL113
 5400 06ec 16000000 		.4byte	.LVL115
 5401 06f0 0100     		.2byte	0x1
 5402 06f2 50       		.byte	0x50
 5403 06f3 16000000 		.4byte	.LVL115
 5404 06f7 7C000000 		.4byte	.LFE143
 5405 06fb 0400     		.2byte	0x4
 5406 06fd F3       		.byte	0xf3
 5407 06fe 01       		.uleb128 0x1
 5408 06ff 50       		.byte	0x50
ARM GAS  C:\Users\eduar\AppData\Local\Temp\ccwtx1iP.s 			page 124


 5409 0700 9F       		.byte	0x9f
 5410 0701 00000000 		.4byte	0
 5411 0705 00000000 		.4byte	0
 5412              	.LLST38:
 5413 0709 00000000 		.4byte	.LVL113
 5414 070d 16000000 		.4byte	.LVL115
 5415 0711 0100     		.2byte	0x1
 5416 0713 51       		.byte	0x51
 5417 0714 16000000 		.4byte	.LVL115
 5418 0718 7C000000 		.4byte	.LFE143
 5419 071c 0400     		.2byte	0x4
 5420 071e F3       		.byte	0xf3
 5421 071f 01       		.uleb128 0x1
 5422 0720 51       		.byte	0x51
 5423 0721 9F       		.byte	0x9f
 5424 0722 00000000 		.4byte	0
 5425 0726 00000000 		.4byte	0
 5426              	.LLST39:
 5427 072a 00000000 		.4byte	.LVL113
 5428 072e 16000000 		.4byte	.LVL115
 5429 0732 0100     		.2byte	0x1
 5430 0734 52       		.byte	0x52
 5431 0735 16000000 		.4byte	.LVL115
 5432 0739 6E000000 		.4byte	.LVL129
 5433 073d 0100     		.2byte	0x1
 5434 073f 56       		.byte	0x56
 5435 0740 6E000000 		.4byte	.LVL129
 5436 0744 7C000000 		.4byte	.LFE143
 5437 0748 0400     		.2byte	0x4
 5438 074a F3       		.byte	0xf3
 5439 074b 01       		.uleb128 0x1
 5440 074c 52       		.byte	0x52
 5441 074d 9F       		.byte	0x9f
 5442 074e 00000000 		.4byte	0
 5443 0752 00000000 		.4byte	0
 5444              	.LLST40:
 5445 0756 08000000 		.4byte	.LVL114
 5446 075a 16000000 		.4byte	.LVL115
 5447 075e 0100     		.2byte	0x1
 5448 0760 50       		.byte	0x50
 5449 0761 16000000 		.4byte	.LVL115
 5450 0765 60000000 		.4byte	.LVL126
 5451 0769 0100     		.2byte	0x1
 5452 076b 55       		.byte	0x55
 5453 076c 64000000 		.4byte	.LVL127
 5454 0770 6E000000 		.4byte	.LVL129
 5455 0774 0100     		.2byte	0x1
 5456 0776 55       		.byte	0x55
 5457 0777 00000000 		.4byte	0
 5458 077b 00000000 		.4byte	0
 5459              	.LLST41:
 5460 077f 08000000 		.4byte	.LVL114
 5461 0783 16000000 		.4byte	.LVL115
 5462 0787 0600     		.2byte	0x6
 5463 0789 0C       		.byte	0xc
 5464 078a 04006E00 		.4byte	0x6e0004
 5465 078e 9F       		.byte	0x9f
ARM GAS  C:\Users\eduar\AppData\Local\Temp\ccwtx1iP.s 			page 125


 5466 078f 16000000 		.4byte	.LVL115
 5467 0793 50000000 		.4byte	.LVL123
 5468 0797 0100     		.2byte	0x1
 5469 0799 58       		.byte	0x58
 5470 079a 52000000 		.4byte	.LVL124
 5471 079e 6E000000 		.4byte	.LVL129
 5472 07a2 0100     		.2byte	0x1
 5473 07a4 58       		.byte	0x58
 5474 07a5 6E000000 		.4byte	.LVL129
 5475 07a9 7C000000 		.4byte	.LFE143
 5476 07ad 0100     		.2byte	0x1
 5477 07af 50       		.byte	0x50
 5478 07b0 00000000 		.4byte	0
 5479 07b4 00000000 		.4byte	0
 5480              	.LLST42:
 5481 07b8 08000000 		.4byte	.LVL114
 5482 07bc 16000000 		.4byte	.LVL115
 5483 07c0 0200     		.2byte	0x2
 5484 07c2 31       		.byte	0x31
 5485 07c3 9F       		.byte	0x9f
 5486 07c4 16000000 		.4byte	.LVL115
 5487 07c8 64000000 		.4byte	.LVL127
 5488 07cc 0100     		.2byte	0x1
 5489 07ce 57       		.byte	0x57
 5490 07cf 64000000 		.4byte	.LVL127
 5491 07d3 66000000 		.4byte	.LVL128
 5492 07d7 0300     		.2byte	0x3
 5493 07d9 77       		.byte	0x77
 5494 07da 7F       		.sleb128 -1
 5495 07db 9F       		.byte	0x9f
 5496 07dc 66000000 		.4byte	.LVL128
 5497 07e0 6E000000 		.4byte	.LVL129
 5498 07e4 0100     		.2byte	0x1
 5499 07e6 57       		.byte	0x57
 5500 07e7 00000000 		.4byte	0
 5501 07eb 00000000 		.4byte	0
 5502              	.LLST43:
 5503 07ef 32000000 		.4byte	.LVL118
 5504 07f3 4C000000 		.4byte	.LVL122
 5505 07f7 0100     		.2byte	0x1
 5506 07f9 54       		.byte	0x54
 5507 07fa 52000000 		.4byte	.LVL124
 5508 07fe 56000000 		.4byte	.LVL125
 5509 0802 0100     		.2byte	0x1
 5510 0804 54       		.byte	0x54
 5511 0805 00000000 		.4byte	0
 5512 0809 00000000 		.4byte	0
 5513              	.LLST44:
 5514 080d 3C000000 		.4byte	.LVL120
 5515 0811 4C000000 		.4byte	.LVL122
 5516 0815 0100     		.2byte	0x1
 5517 0817 50       		.byte	0x50
 5518 0818 52000000 		.4byte	.LVL124
 5519 081c 56000000 		.4byte	.LVL125
 5520 0820 0100     		.2byte	0x1
 5521 0822 50       		.byte	0x50
 5522 0823 00000000 		.4byte	0
ARM GAS  C:\Users\eduar\AppData\Local\Temp\ccwtx1iP.s 			page 126


 5523 0827 00000000 		.4byte	0
 5524              	.LLST45:
 5525 082b 00000000 		.4byte	.LVL130
 5526 082f 23000000 		.4byte	.LVL132-1
 5527 0833 0100     		.2byte	0x1
 5528 0835 50       		.byte	0x50
 5529 0836 23000000 		.4byte	.LVL132-1
 5530 083a 5A000000 		.4byte	.LVL133
 5531 083e 0100     		.2byte	0x1
 5532 0840 54       		.byte	0x54
 5533 0841 5A000000 		.4byte	.LVL133
 5534 0845 82000000 		.4byte	.LVL140
 5535 0849 0400     		.2byte	0x4
 5536 084b F3       		.byte	0xf3
 5537 084c 01       		.uleb128 0x1
 5538 084d 50       		.byte	0x50
 5539 084e 9F       		.byte	0x9f
 5540 084f 82000000 		.4byte	.LVL140
 5541 0853 94000000 		.4byte	.LVL141
 5542 0857 0100     		.2byte	0x1
 5543 0859 50       		.byte	0x50
 5544 085a 94000000 		.4byte	.LVL141
 5545 085e 9C000000 		.4byte	.LFE132
 5546 0862 0400     		.2byte	0x4
 5547 0864 F3       		.byte	0xf3
 5548 0865 01       		.uleb128 0x1
 5549 0866 50       		.byte	0x50
 5550 0867 9F       		.byte	0x9f
 5551 0868 00000000 		.4byte	0
 5552 086c 00000000 		.4byte	0
 5553              	.LLST46:
 5554 0870 00000000 		.4byte	.LVL130
 5555 0874 23000000 		.4byte	.LVL132-1
 5556 0878 0100     		.2byte	0x1
 5557 087a 51       		.byte	0x51
 5558 087b 23000000 		.4byte	.LVL132-1
 5559 087f 82000000 		.4byte	.LVL140
 5560 0883 0100     		.2byte	0x1
 5561 0885 56       		.byte	0x56
 5562 0886 82000000 		.4byte	.LVL140
 5563 088a 94000000 		.4byte	.LVL141
 5564 088e 0100     		.2byte	0x1
 5565 0890 51       		.byte	0x51
 5566 0891 94000000 		.4byte	.LVL141
 5567 0895 9C000000 		.4byte	.LFE132
 5568 0899 0400     		.2byte	0x4
 5569 089b F3       		.byte	0xf3
 5570 089c 01       		.uleb128 0x1
 5571 089d 51       		.byte	0x51
 5572 089e 9F       		.byte	0x9f
 5573 089f 00000000 		.4byte	0
 5574 08a3 00000000 		.4byte	0
 5575              	.LLST47:
 5576 08a7 02000000 		.4byte	.LVL131
 5577 08ab 24000000 		.4byte	.LVL132
 5578 08af 0600     		.2byte	0x6
 5579 08b1 0C       		.byte	0xc
ARM GAS  C:\Users\eduar\AppData\Local\Temp\ccwtx1iP.s 			page 127


 5580 08b2 01006E00 		.4byte	0x6e0001
 5581 08b6 9F       		.byte	0x9f
 5582 08b7 24000000 		.4byte	.LVL132
 5583 08bb 62000000 		.4byte	.LVL134
 5584 08bf 0100     		.2byte	0x1
 5585 08c1 50       		.byte	0x50
 5586 08c2 62000000 		.4byte	.LVL134
 5587 08c6 78000000 		.4byte	.LVL137
 5588 08ca 0100     		.2byte	0x1
 5589 08cc 55       		.byte	0x55
 5590 08cd 78000000 		.4byte	.LVL137
 5591 08d1 7C000000 		.4byte	.LVL138
 5592 08d5 0100     		.2byte	0x1
 5593 08d7 50       		.byte	0x50
 5594 08d8 7C000000 		.4byte	.LVL138
 5595 08dc 82000000 		.4byte	.LVL140
 5596 08e0 0100     		.2byte	0x1
 5597 08e2 55       		.byte	0x55
 5598 08e3 82000000 		.4byte	.LVL140
 5599 08e7 94000000 		.4byte	.LVL141
 5600 08eb 0600     		.2byte	0x6
 5601 08ed 0C       		.byte	0xc
 5602 08ee 01006E00 		.4byte	0x6e0001
 5603 08f2 9F       		.byte	0x9f
 5604 08f3 94000000 		.4byte	.LVL141
 5605 08f7 98000000 		.4byte	.LVL142
 5606 08fb 0100     		.2byte	0x1
 5607 08fd 55       		.byte	0x55
 5608 08fe 98000000 		.4byte	.LVL142
 5609 0902 9C000000 		.4byte	.LFE132
 5610 0906 0100     		.2byte	0x1
 5611 0908 50       		.byte	0x50
 5612 0909 00000000 		.4byte	0
 5613 090d 00000000 		.4byte	0
 5614              	.LLST48:
 5615 0911 00000000 		.4byte	.LVL143
 5616 0915 2A000000 		.4byte	.LVL149
 5617 0919 0100     		.2byte	0x1
 5618 091b 50       		.byte	0x50
 5619 091c 2A000000 		.4byte	.LVL149
 5620 0920 BC000000 		.4byte	.LVL167
 5621 0924 0100     		.2byte	0x1
 5622 0926 58       		.byte	0x58
 5623 0927 BC000000 		.4byte	.LVL167
 5624 092b BE000000 		.4byte	.LVL168
 5625 092f 0100     		.2byte	0x1
 5626 0931 5A       		.byte	0x5a
 5627 0932 BE000000 		.4byte	.LVL168
 5628 0936 DA010000 		.4byte	.LVL220
 5629 093a 0200     		.2byte	0x2
 5630 093c 91       		.byte	0x91
 5631 093d 50       		.sleb128 -48
 5632 093e DA010000 		.4byte	.LVL220
 5633 0942 EA010000 		.4byte	.LVL223
 5634 0946 0100     		.2byte	0x1
 5635 0948 50       		.byte	0x50
 5636 0949 EA010000 		.4byte	.LVL223
ARM GAS  C:\Users\eduar\AppData\Local\Temp\ccwtx1iP.s 			page 128


 5637 094d F8010000 		.4byte	.LFE133
 5638 0951 0400     		.2byte	0x4
 5639 0953 F3       		.byte	0xf3
 5640 0954 01       		.uleb128 0x1
 5641 0955 50       		.byte	0x50
 5642 0956 9F       		.byte	0x9f
 5643 0957 00000000 		.4byte	0
 5644 095b 00000000 		.4byte	0
 5645              	.LLST49:
 5646 095f 00000000 		.4byte	.LVL143
 5647 0963 BE000000 		.4byte	.LVL168
 5648 0967 0100     		.2byte	0x1
 5649 0969 51       		.byte	0x51
 5650 096a BE000000 		.4byte	.LVL168
 5651 096e DA010000 		.4byte	.LVL220
 5652 0972 0200     		.2byte	0x2
 5653 0974 91       		.byte	0x91
 5654 0975 44       		.sleb128 -60
 5655 0976 DA010000 		.4byte	.LVL220
 5656 097a EA010000 		.4byte	.LVL223
 5657 097e 0100     		.2byte	0x1
 5658 0980 51       		.byte	0x51
 5659 0981 EA010000 		.4byte	.LVL223
 5660 0985 F2010000 		.4byte	.LVL224
 5661 0989 0200     		.2byte	0x2
 5662 098b 91       		.byte	0x91
 5663 098c 44       		.sleb128 -60
 5664 098d F2010000 		.4byte	.LVL224
 5665 0991 F8010000 		.4byte	.LFE133
 5666 0995 0200     		.2byte	0x2
 5667 0997 7D       		.byte	0x7d
 5668 0998 44       		.sleb128 -60
 5669 0999 00000000 		.4byte	0
 5670 099d 00000000 		.4byte	0
 5671              	.LLST50:
 5672 09a1 00000000 		.4byte	.LVL143
 5673 09a5 18000000 		.4byte	.LVL147
 5674 09a9 0100     		.2byte	0x1
 5675 09ab 52       		.byte	0x52
 5676 09ac 18000000 		.4byte	.LVL147
 5677 09b0 BE000000 		.4byte	.LVL168
 5678 09b4 0100     		.2byte	0x1
 5679 09b6 59       		.byte	0x59
 5680 09b7 BE000000 		.4byte	.LVL168
 5681 09bb DA010000 		.4byte	.LVL220
 5682 09bf 0400     		.2byte	0x4
 5683 09c1 F3       		.byte	0xf3
 5684 09c2 01       		.uleb128 0x1
 5685 09c3 52       		.byte	0x52
 5686 09c4 9F       		.byte	0x9f
 5687 09c5 DA010000 		.4byte	.LVL220
 5688 09c9 E0010000 		.4byte	.LVL222
 5689 09cd 0100     		.2byte	0x1
 5690 09cf 52       		.byte	0x52
 5691 09d0 E0010000 		.4byte	.LVL222
 5692 09d4 EA010000 		.4byte	.LVL223
 5693 09d8 0100     		.2byte	0x1
ARM GAS  C:\Users\eduar\AppData\Local\Temp\ccwtx1iP.s 			page 129


 5694 09da 59       		.byte	0x59
 5695 09db EA010000 		.4byte	.LVL223
 5696 09df F8010000 		.4byte	.LFE133
 5697 09e3 0400     		.2byte	0x4
 5698 09e5 F3       		.byte	0xf3
 5699 09e6 01       		.uleb128 0x1
 5700 09e7 52       		.byte	0x52
 5701 09e8 9F       		.byte	0x9f
 5702 09e9 00000000 		.4byte	0
 5703 09ed 00000000 		.4byte	0
 5704              	.LLST51:
 5705 09f1 00000000 		.4byte	.LVL143
 5706 09f5 16000000 		.4byte	.LVL146
 5707 09f9 0100     		.2byte	0x1
 5708 09fb 53       		.byte	0x53
 5709 09fc 16000000 		.4byte	.LVL146
 5710 0a00 DA010000 		.4byte	.LVL220
 5711 0a04 0100     		.2byte	0x1
 5712 0a06 56       		.byte	0x56
 5713 0a07 DA010000 		.4byte	.LVL220
 5714 0a0b DC010000 		.4byte	.LVL221
 5715 0a0f 0100     		.2byte	0x1
 5716 0a11 53       		.byte	0x53
 5717 0a12 DC010000 		.4byte	.LVL221
 5718 0a16 E0010000 		.4byte	.LVL222
 5719 0a1a 0400     		.2byte	0x4
 5720 0a1c F3       		.byte	0xf3
 5721 0a1d 01       		.uleb128 0x1
 5722 0a1e 53       		.byte	0x53
 5723 0a1f 9F       		.byte	0x9f
 5724 0a20 E0010000 		.4byte	.LVL222
 5725 0a24 EA010000 		.4byte	.LVL223
 5726 0a28 0100     		.2byte	0x1
 5727 0a2a 56       		.byte	0x56
 5728 0a2b EA010000 		.4byte	.LVL223
 5729 0a2f F8010000 		.4byte	.LFE133
 5730 0a33 0400     		.2byte	0x4
 5731 0a35 F3       		.byte	0xf3
 5732 0a36 01       		.uleb128 0x1
 5733 0a37 53       		.byte	0x53
 5734 0a38 9F       		.byte	0x9f
 5735 0a39 00000000 		.4byte	0
 5736 0a3d 00000000 		.4byte	0
 5737              	.LLST52:
 5738 0a41 06000000 		.4byte	.LVL144
 5739 0a45 BE000000 		.4byte	.LVL168
 5740 0a49 0600     		.2byte	0x6
 5741 0a4b 0C       		.byte	0xc
 5742 0a4c 01006E00 		.4byte	0x6e0001
 5743 0a50 9F       		.byte	0x9f
 5744 0a51 BE000000 		.4byte	.LVL168
 5745 0a55 C0000000 		.4byte	.LVL169
 5746 0a59 0100     		.2byte	0x1
 5747 0a5b 53       		.byte	0x53
 5748 0a5c 08010000 		.4byte	.LVL181
 5749 0a60 14010000 		.4byte	.LVL184
 5750 0a64 0100     		.2byte	0x1
ARM GAS  C:\Users\eduar\AppData\Local\Temp\ccwtx1iP.s 			page 130


 5751 0a66 50       		.byte	0x50
 5752 0a67 1E010000 		.4byte	.LVL187
 5753 0a6b 20010000 		.4byte	.LVL188
 5754 0a6f 0200     		.2byte	0x2
 5755 0a71 30       		.byte	0x30
 5756 0a72 9F       		.byte	0x9f
 5757 0a73 20010000 		.4byte	.LVL188
 5758 0a77 3C010000 		.4byte	.LVL195
 5759 0a7b 0100     		.2byte	0x1
 5760 0a7d 53       		.byte	0x53
 5761 0a7e 3C010000 		.4byte	.LVL195
 5762 0a82 C2010000 		.4byte	.LVL216
 5763 0a86 0100     		.2byte	0x1
 5764 0a88 5A       		.byte	0x5a
 5765 0a89 C2010000 		.4byte	.LVL216
 5766 0a8d C8010000 		.4byte	.LVL217
 5767 0a91 0100     		.2byte	0x1
 5768 0a93 50       		.byte	0x50
 5769 0a94 C8010000 		.4byte	.LVL217
 5770 0a98 DA010000 		.4byte	.LVL220
 5771 0a9c 0100     		.2byte	0x1
 5772 0a9e 5A       		.byte	0x5a
 5773 0a9f DA010000 		.4byte	.LVL220
 5774 0aa3 EA010000 		.4byte	.LVL223
 5775 0aa7 0600     		.2byte	0x6
 5776 0aa9 0C       		.byte	0xc
 5777 0aaa 01006E00 		.4byte	0x6e0001
 5778 0aae 9F       		.byte	0x9f
 5779 0aaf EA010000 		.4byte	.LVL223
 5780 0ab3 F2010000 		.4byte	.LVL224
 5781 0ab7 0100     		.2byte	0x1
 5782 0ab9 5A       		.byte	0x5a
 5783 0aba F2010000 		.4byte	.LVL224
 5784 0abe F8010000 		.4byte	.LFE133
 5785 0ac2 0100     		.2byte	0x1
 5786 0ac4 50       		.byte	0x50
 5787 0ac5 00000000 		.4byte	0
 5788 0ac9 00000000 		.4byte	0
 5789              	.LLST53:
 5790 0acd 54000000 		.4byte	.LVL153
 5791 0ad1 58000000 		.4byte	.LVL154
 5792 0ad5 0200     		.2byte	0x2
 5793 0ad7 30       		.byte	0x30
 5794 0ad8 9F       		.byte	0x9f
 5795 0ad9 58000000 		.4byte	.LVL154
 5796 0add 7C000000 		.4byte	.LVL156
 5797 0ae1 0100     		.2byte	0x1
 5798 0ae3 55       		.byte	0x55
 5799 0ae4 B0000000 		.4byte	.LVL166
 5800 0ae8 BE000000 		.4byte	.LVL168
 5801 0aec 0200     		.2byte	0x2
 5802 0aee 30       		.byte	0x30
 5803 0aef 9F       		.byte	0x9f
 5804 0af0 BE000000 		.4byte	.LVL168
 5805 0af4 CE000000 		.4byte	.LVL172
 5806 0af8 0100     		.2byte	0x1
 5807 0afa 57       		.byte	0x57
ARM GAS  C:\Users\eduar\AppData\Local\Temp\ccwtx1iP.s 			page 131


 5808 0afb CE000000 		.4byte	.LVL172
 5809 0aff 2A010000 		.4byte	.LVL192
 5810 0b03 0300     		.2byte	0x3
 5811 0b05 77       		.byte	0x77
 5812 0b06 7F       		.sleb128 -1
 5813 0b07 9F       		.byte	0x9f
 5814 0b08 2A010000 		.4byte	.LVL192
 5815 0b0c 34010000 		.4byte	.LVL194
 5816 0b10 0100     		.2byte	0x1
 5817 0b12 57       		.byte	0x57
 5818 0b13 4C010000 		.4byte	.LVL199
 5819 0b17 DA010000 		.4byte	.LVL220
 5820 0b1b 0100     		.2byte	0x1
 5821 0b1d 55       		.byte	0x55
 5822 0b1e 00000000 		.4byte	0
 5823 0b22 00000000 		.4byte	0
 5824              	.LLST54:
 5825 0b26 D6000000 		.4byte	.LVL173
 5826 0b2a D8000000 		.4byte	.LVL174
 5827 0b2e 0100     		.2byte	0x1
 5828 0b30 54       		.byte	0x54
 5829 0b31 DA000000 		.4byte	.LVL175
 5830 0b35 2A010000 		.4byte	.LVL192
 5831 0b39 0100     		.2byte	0x1
 5832 0b3b 54       		.byte	0x54
 5833 0b3c B0010000 		.4byte	.LVL212
 5834 0b40 C1010000 		.4byte	.LVL216-1
 5835 0b44 0100     		.2byte	0x1
 5836 0b46 53       		.byte	0x53
 5837 0b47 C8010000 		.4byte	.LVL217
 5838 0b4b D1010000 		.4byte	.LVL218-1
 5839 0b4f 0100     		.2byte	0x1
 5840 0b51 53       		.byte	0x53
 5841 0b52 00000000 		.4byte	0
 5842 0b56 00000000 		.4byte	0
 5843              	.LLST55:
 5844 0b5a 54000000 		.4byte	.LVL153
 5845 0b5e 58000000 		.4byte	.LVL154
 5846 0b62 0100     		.2byte	0x1
 5847 0b64 53       		.byte	0x53
 5848 0b65 58000000 		.4byte	.LVL154
 5849 0b69 DA010000 		.4byte	.LVL220
 5850 0b6d 0300     		.2byte	0x3
 5851 0b6f 91       		.byte	0x91
 5852 0b70 BC7F     		.sleb128 -68
 5853 0b72 00000000 		.4byte	0
 5854 0b76 00000000 		.4byte	0
 5855              	.LLST56:
 5856 0b7a CC000000 		.4byte	.LVL171
 5857 0b7e 04010000 		.4byte	.LVL180
 5858 0b82 0100     		.2byte	0x1
 5859 0b84 51       		.byte	0x51
 5860 0b85 04010000 		.4byte	.LVL180
 5861 0b89 07010000 		.4byte	.LVL181-1
 5862 0b8d 0100     		.2byte	0x1
 5863 0b8f 52       		.byte	0x52
 5864 0b90 07010000 		.4byte	.LVL181-1
ARM GAS  C:\Users\eduar\AppData\Local\Temp\ccwtx1iP.s 			page 132


 5865 0b94 0E010000 		.4byte	.LVL182
 5866 0b98 0900     		.2byte	0x9
 5867 0b9a 7A       		.byte	0x7a
 5868 0b9b 00       		.sleb128 0
 5869 0b9c 08       		.byte	0x8
 5870 0b9d FF       		.byte	0xff
 5871 0b9e 1A       		.byte	0x1a
 5872 0b9f 23       		.byte	0x23
 5873 0ba0 8002     		.uleb128 0x100
 5874 0ba2 9F       		.byte	0x9f
 5875 0ba3 14010000 		.4byte	.LVL184
 5876 0ba7 18010000 		.4byte	.LVL185
 5877 0bab 0100     		.2byte	0x1
 5878 0bad 51       		.byte	0x51
 5879 0bae 18010000 		.4byte	.LVL185
 5880 0bb2 22010000 		.4byte	.LVL189
 5881 0bb6 0900     		.2byte	0x9
 5882 0bb8 7A       		.byte	0x7a
 5883 0bb9 00       		.sleb128 0
 5884 0bba 08       		.byte	0x8
 5885 0bbb FF       		.byte	0xff
 5886 0bbc 1A       		.byte	0x1a
 5887 0bbd 23       		.byte	0x23
 5888 0bbe 8002     		.uleb128 0x100
 5889 0bc0 9F       		.byte	0x9f
 5890 0bc1 00000000 		.4byte	0
 5891 0bc5 00000000 		.4byte	0
 5892              	.LLST57:
 5893 0bc9 C4000000 		.4byte	.LVL170
 5894 0bcd F2000000 		.4byte	.LVL177
 5895 0bd1 0100     		.2byte	0x1
 5896 0bd3 50       		.byte	0x50
 5897 0bd4 F2000000 		.4byte	.LVL177
 5898 0bd8 F4000000 		.4byte	.LVL178
 5899 0bdc 0F00     		.2byte	0xf
 5900 0bde 75       		.byte	0x75
 5901 0bdf 00       		.sleb128 0
 5902 0be0 39       		.byte	0x39
 5903 0be1 24       		.byte	0x24
 5904 0be2 73       		.byte	0x73
 5905 0be3 00       		.sleb128 0
 5906 0be4 39       		.byte	0x39
 5907 0be5 24       		.byte	0x24
 5908 0be6 1C       		.byte	0x1c
 5909 0be7 91       		.byte	0x91
 5910 0be8 BC7F     		.sleb128 -68
 5911 0bea 06       		.byte	0x6
 5912 0beb 22       		.byte	0x22
 5913 0bec 9F       		.byte	0x9f
 5914 0bed F4000000 		.4byte	.LVL178
 5915 0bf1 F8000000 		.4byte	.LVL179
 5916 0bf5 1000     		.2byte	0x10
 5917 0bf7 75       		.byte	0x75
 5918 0bf8 00       		.sleb128 0
 5919 0bf9 39       		.byte	0x39
 5920 0bfa 24       		.byte	0x24
 5921 0bfb 76       		.byte	0x76
ARM GAS  C:\Users\eduar\AppData\Local\Temp\ccwtx1iP.s 			page 133


 5922 0bfc 04       		.sleb128 4
 5923 0bfd 06       		.byte	0x6
 5924 0bfe 39       		.byte	0x39
 5925 0bff 24       		.byte	0x24
 5926 0c00 1C       		.byte	0x1c
 5927 0c01 91       		.byte	0x91
 5928 0c02 BC7F     		.sleb128 -68
 5929 0c04 06       		.byte	0x6
 5930 0c05 22       		.byte	0x22
 5931 0c06 9F       		.byte	0x9f
 5932 0c07 F8000000 		.4byte	.LVL179
 5933 0c0b 07010000 		.4byte	.LVL181-1
 5934 0c0f 0100     		.2byte	0x1
 5935 0c11 50       		.byte	0x50
 5936 0c12 14010000 		.4byte	.LVL184
 5937 0c16 1A010000 		.4byte	.LVL186
 5938 0c1a 0100     		.2byte	0x1
 5939 0c1c 50       		.byte	0x50
 5940 0c1d 5E010000 		.4byte	.LVL202
 5941 0c21 98010000 		.4byte	.LVL206
 5942 0c25 0100     		.2byte	0x1
 5943 0c27 50       		.byte	0x50
 5944 0c28 98010000 		.4byte	.LVL206
 5945 0c2c 9A010000 		.4byte	.LVL207
 5946 0c30 0100     		.2byte	0x1
 5947 0c32 5E       		.byte	0x5e
 5948 0c33 9A010000 		.4byte	.LVL207
 5949 0c37 9C010000 		.4byte	.LVL208
 5950 0c3b 0100     		.2byte	0x1
 5951 0c3d 50       		.byte	0x50
 5952 0c3e 9C010000 		.4byte	.LVL208
 5953 0c42 C1010000 		.4byte	.LVL216-1
 5954 0c46 0100     		.2byte	0x1
 5955 0c48 5E       		.byte	0x5e
 5956 0c49 C8010000 		.4byte	.LVL217
 5957 0c4d D1010000 		.4byte	.LVL218-1
 5958 0c51 0100     		.2byte	0x1
 5959 0c53 5E       		.byte	0x5e
 5960 0c54 00000000 		.4byte	0
 5961 0c58 00000000 		.4byte	0
 5962              	.LLST58:
 5963 0c5c 86000000 		.4byte	.LVL158
 5964 0c60 BE000000 		.4byte	.LVL168
 5965 0c64 0100     		.2byte	0x1
 5966 0c66 50       		.byte	0x50
 5967 0c67 BE000000 		.4byte	.LVL168
 5968 0c6b DA010000 		.4byte	.LVL220
 5969 0c6f 0200     		.2byte	0x2
 5970 0c71 91       		.byte	0x91
 5971 0c72 48       		.sleb128 -56
 5972 0c73 00000000 		.4byte	0
 5973 0c77 00000000 		.4byte	0
 5974              	.LLST59:
 5975 0c7b 06000000 		.4byte	.LVL144
 5976 0c7f 7C000000 		.4byte	.LVL156
 5977 0c83 0200     		.2byte	0x2
 5978 0c85 30       		.byte	0x30
ARM GAS  C:\Users\eduar\AppData\Local\Temp\ccwtx1iP.s 			page 134


 5979 0c86 9F       		.byte	0x9f
 5980 0c87 7C000000 		.4byte	.LVL156
 5981 0c8b 42010000 		.4byte	.LVL196
 5982 0c8f 0100     		.2byte	0x1
 5983 0c91 55       		.byte	0x55
 5984 0c92 DA010000 		.4byte	.LVL220
 5985 0c96 EA010000 		.4byte	.LVL223
 5986 0c9a 0200     		.2byte	0x2
 5987 0c9c 30       		.byte	0x30
 5988 0c9d 9F       		.byte	0x9f
 5989 0c9e 00000000 		.4byte	0
 5990 0ca2 00000000 		.4byte	0
 5991              	.LLST60:
 5992 0ca6 06000000 		.4byte	.LVL144
 5993 0caa 7C000000 		.4byte	.LVL156
 5994 0cae 0200     		.2byte	0x2
 5995 0cb0 30       		.byte	0x30
 5996 0cb1 9F       		.byte	0x9f
 5997 0cb2 7C000000 		.4byte	.LVL156
 5998 0cb6 BE000000 		.4byte	.LVL168
 5999 0cba 0100     		.2byte	0x1
 6000 0cbc 55       		.byte	0x55
 6001 0cbd DA010000 		.4byte	.LVL220
 6002 0cc1 EA010000 		.4byte	.LVL223
 6003 0cc5 0200     		.2byte	0x2
 6004 0cc7 30       		.byte	0x30
 6005 0cc8 9F       		.byte	0x9f
 6006 0cc9 00000000 		.4byte	0
 6007 0ccd 00000000 		.4byte	0
 6008              	.LLST61:
 6009 0cd1 08000000 		.4byte	.LVL145
 6010 0cd5 BE000000 		.4byte	.LVL168
 6011 0cd9 0100     		.2byte	0x1
 6012 0cdb 51       		.byte	0x51
 6013 0cdc BE000000 		.4byte	.LVL168
 6014 0ce0 12010000 		.4byte	.LVL183
 6015 0ce4 0100     		.2byte	0x1
 6016 0ce6 58       		.byte	0x58
 6017 0ce7 14010000 		.4byte	.LVL184
 6018 0ceb 34010000 		.4byte	.LVL194
 6019 0cef 0100     		.2byte	0x1
 6020 0cf1 58       		.byte	0x58
 6021 0cf2 B2010000 		.4byte	.LVL213
 6022 0cf6 BE010000 		.4byte	.LVL215
 6023 0cfa 0100     		.2byte	0x1
 6024 0cfc 50       		.byte	0x50
 6025 0cfd BE010000 		.4byte	.LVL215
 6026 0d01 C1010000 		.4byte	.LVL216-1
 6027 0d05 0100     		.2byte	0x1
 6028 0d07 51       		.byte	0x51
 6029 0d08 C8010000 		.4byte	.LVL217
 6030 0d0c D1010000 		.4byte	.LVL218-1
 6031 0d10 0100     		.2byte	0x1
 6032 0d12 50       		.byte	0x50
 6033 0d13 DA010000 		.4byte	.LVL220
 6034 0d17 EA010000 		.4byte	.LVL223
 6035 0d1b 0100     		.2byte	0x1
ARM GAS  C:\Users\eduar\AppData\Local\Temp\ccwtx1iP.s 			page 135


 6036 0d1d 51       		.byte	0x51
 6037 0d1e 00000000 		.4byte	0
 6038 0d22 00000000 		.4byte	0
 6039              	.LLST62:
 6040 0d26 28000000 		.4byte	.LVL148
 6041 0d2a 2A000000 		.4byte	.LVL149
 6042 0d2e 0100     		.2byte	0x1
 6043 0d30 50       		.byte	0x50
 6044 0d31 2A000000 		.4byte	.LVL149
 6045 0d35 BC000000 		.4byte	.LVL167
 6046 0d39 0100     		.2byte	0x1
 6047 0d3b 58       		.byte	0x58
 6048 0d3c BC000000 		.4byte	.LVL167
 6049 0d40 0E010000 		.4byte	.LVL182
 6050 0d44 0100     		.2byte	0x1
 6051 0d46 5A       		.byte	0x5a
 6052 0d47 14010000 		.4byte	.LVL184
 6053 0d4b 30010000 		.4byte	.LVL193
 6054 0d4f 0100     		.2byte	0x1
 6055 0d51 5A       		.byte	0x5a
 6056 0d52 9C010000 		.4byte	.LVL208
 6057 0d56 AE010000 		.4byte	.LVL211
 6058 0d5a 1600     		.2byte	0x16
 6059 0d5c 78       		.byte	0x78
 6060 0d5d 00       		.sleb128 0
 6061 0d5e 12       		.byte	0x12
 6062 0d5f 40       		.byte	0x40
 6063 0d60 4B       		.byte	0x4b
 6064 0d61 24       		.byte	0x24
 6065 0d62 22       		.byte	0x22
 6066 0d63 73       		.byte	0x73
 6067 0d64 00       		.sleb128 0
 6068 0d65 16       		.byte	0x16
 6069 0d66 14       		.byte	0x14
 6070 0d67 40       		.byte	0x40
 6071 0d68 4B       		.byte	0x4b
 6072 0d69 24       		.byte	0x24
 6073 0d6a 22       		.byte	0x22
 6074 0d6b 2B       		.byte	0x2b
 6075 0d6c 28       		.byte	0x28
 6076 0d6d 0100     		.2byte	0x1
 6077 0d6f 16       		.byte	0x16
 6078 0d70 13       		.byte	0x13
 6079 0d71 9F       		.byte	0x9f
 6080 0d72 AE010000 		.4byte	.LVL211
 6081 0d76 B8010000 		.4byte	.LVL214
 6082 0d7a 1700     		.2byte	0x17
 6083 0d7c 78       		.byte	0x78
 6084 0d7d 00       		.sleb128 0
 6085 0d7e 12       		.byte	0x12
 6086 0d7f 40       		.byte	0x40
 6087 0d80 4B       		.byte	0x4b
 6088 0d81 24       		.byte	0x24
 6089 0d82 22       		.byte	0x22
 6090 0d83 7E       		.byte	0x7e
 6091 0d84 04       		.sleb128 4
 6092 0d85 06       		.byte	0x6
ARM GAS  C:\Users\eduar\AppData\Local\Temp\ccwtx1iP.s 			page 136


 6093 0d86 16       		.byte	0x16
 6094 0d87 14       		.byte	0x14
 6095 0d88 40       		.byte	0x40
 6096 0d89 4B       		.byte	0x4b
 6097 0d8a 24       		.byte	0x24
 6098 0d8b 22       		.byte	0x22
 6099 0d8c 2B       		.byte	0x2b
 6100 0d8d 28       		.byte	0x28
 6101 0d8e 0100     		.2byte	0x1
 6102 0d90 16       		.byte	0x16
 6103 0d91 13       		.byte	0x13
 6104 0d92 9F       		.byte	0x9f
 6105 0d93 C8010000 		.4byte	.LVL217
 6106 0d97 D1010000 		.4byte	.LVL218-1
 6107 0d9b 1700     		.2byte	0x17
 6108 0d9d 78       		.byte	0x78
 6109 0d9e 00       		.sleb128 0
 6110 0d9f 12       		.byte	0x12
 6111 0da0 40       		.byte	0x40
 6112 0da1 4B       		.byte	0x4b
 6113 0da2 24       		.byte	0x24
 6114 0da3 22       		.byte	0x22
 6115 0da4 7E       		.byte	0x7e
 6116 0da5 04       		.sleb128 4
 6117 0da6 06       		.byte	0x6
 6118 0da7 16       		.byte	0x16
 6119 0da8 14       		.byte	0x14
 6120 0da9 40       		.byte	0x40
 6121 0daa 4B       		.byte	0x4b
 6122 0dab 24       		.byte	0x24
 6123 0dac 22       		.byte	0x22
 6124 0dad 2B       		.byte	0x2b
 6125 0dae 28       		.byte	0x28
 6126 0daf 0100     		.2byte	0x1
 6127 0db1 16       		.byte	0x16
 6128 0db2 13       		.byte	0x13
 6129 0db3 9F       		.byte	0x9f
 6130 0db4 00000000 		.4byte	0
 6131 0db8 00000000 		.4byte	0
 6132              	.LLST63:
 6133 0dbc 28000000 		.4byte	.LVL148
 6134 0dc0 50010000 		.4byte	.LVL200
 6135 0dc4 0100     		.2byte	0x1
 6136 0dc6 59       		.byte	0x59
 6137 0dc7 00000000 		.4byte	0
 6138 0dcb 00000000 		.4byte	0
 6139              	.LLST64:
 6140 0dcf 2E000000 		.4byte	.LVL150
 6141 0dd3 36000000 		.4byte	.LVL151
 6142 0dd7 0100     		.2byte	0x1
 6143 0dd9 53       		.byte	0x53
 6144 0dda 36000000 		.4byte	.LVL151
 6145 0dde 80000000 		.4byte	.LVL157
 6146 0de2 0200     		.2byte	0x2
 6147 0de4 70       		.byte	0x70
 6148 0de5 00       		.sleb128 0
 6149 0de6 80000000 		.4byte	.LVL157
ARM GAS  C:\Users\eduar\AppData\Local\Temp\ccwtx1iP.s 			page 137


 6150 0dea BE000000 		.4byte	.LVL168
 6151 0dee 0300     		.2byte	0x3
 6152 0df0 76       		.byte	0x76
 6153 0df1 08       		.sleb128 8
 6154 0df2 06       		.byte	0x6
 6155 0df3 BE000000 		.4byte	.LVL168
 6156 0df7 DA010000 		.4byte	.LVL220
 6157 0dfb 0200     		.2byte	0x2
 6158 0dfd 91       		.byte	0x91
 6159 0dfe 54       		.sleb128 -44
 6160 0dff 00000000 		.4byte	0
 6161 0e03 00000000 		.4byte	0
 6162              	.LLST65:
 6163 0e07 2E000000 		.4byte	.LVL150
 6164 0e0b B0000000 		.4byte	.LVL166
 6165 0e0f 0200     		.2byte	0x2
 6166 0e11 30       		.byte	0x30
 6167 0e12 9F       		.byte	0x9f
 6168 0e13 B0000000 		.4byte	.LVL166
 6169 0e17 DA010000 		.4byte	.LVL220
 6170 0e1b 0200     		.2byte	0x2
 6171 0e1d 91       		.byte	0x91
 6172 0e1e 40       		.sleb128 -64
 6173 0e1f 00000000 		.4byte	0
 6174 0e23 00000000 		.4byte	0
 6175              	.LLST66:
 6176 0e27 3E000000 		.4byte	.LVL152
 6177 0e2b 48010000 		.4byte	.LVL197
 6178 0e2f 0100     		.2byte	0x1
 6179 0e31 5B       		.byte	0x5b
 6180 0e32 48010000 		.4byte	.LVL197
 6181 0e36 4C010000 		.4byte	.LVL199
 6182 0e3a 0100     		.2byte	0x1
 6183 0e3c 55       		.byte	0x55
 6184 0e3d 00000000 		.4byte	0
 6185 0e41 00000000 		.4byte	0
 6186              	.LLST67:
 6187 0e45 92000000 		.4byte	.LVL159
 6188 0e49 9C000000 		.4byte	.LVL160
 6189 0e4d 0100     		.2byte	0x1
 6190 0e4f 53       		.byte	0x53
 6191 0e50 9C000000 		.4byte	.LVL160
 6192 0e54 A0000000 		.4byte	.LVL161
 6193 0e58 0800     		.2byte	0x8
 6194 0e5a 75       		.byte	0x75
 6195 0e5b 00       		.sleb128 0
 6196 0e5c 7B       		.byte	0x7b
 6197 0e5d 00       		.sleb128 0
 6198 0e5e 22       		.byte	0x22
 6199 0e5f 31       		.byte	0x31
 6200 0e60 1C       		.byte	0x1c
 6201 0e61 9F       		.byte	0x9f
 6202 0e62 A6000000 		.4byte	.LVL162
 6203 0e66 A8000000 		.4byte	.LVL163
 6204 0e6a 0100     		.2byte	0x1
 6205 0e6c 53       		.byte	0x53
 6206 0e6d A8000000 		.4byte	.LVL163
ARM GAS  C:\Users\eduar\AppData\Local\Temp\ccwtx1iP.s 			page 138


 6207 0e71 AC000000 		.4byte	.LVL164
 6208 0e75 0800     		.2byte	0x8
 6209 0e77 75       		.byte	0x75
 6210 0e78 00       		.sleb128 0
 6211 0e79 7B       		.byte	0x7b
 6212 0e7a 00       		.sleb128 0
 6213 0e7b 22       		.byte	0x22
 6214 0e7c 31       		.byte	0x31
 6215 0e7d 1C       		.byte	0x1c
 6216 0e7e 9F       		.byte	0x9f
 6217 0e7f AC000000 		.4byte	.LVL164
 6218 0e83 AE000000 		.4byte	.LVL165
 6219 0e87 0100     		.2byte	0x1
 6220 0e89 53       		.byte	0x53
 6221 0e8a AE000000 		.4byte	.LVL165
 6222 0e8e B0000000 		.4byte	.LVL166
 6223 0e92 0800     		.2byte	0x8
 6224 0e94 75       		.byte	0x75
 6225 0e95 00       		.sleb128 0
 6226 0e96 7B       		.byte	0x7b
 6227 0e97 00       		.sleb128 0
 6228 0e98 22       		.byte	0x22
 6229 0e99 31       		.byte	0x31
 6230 0e9a 1C       		.byte	0x1c
 6231 0e9b 9F       		.byte	0x9f
 6232 0e9c 00000000 		.4byte	0
 6233 0ea0 00000000 		.4byte	0
 6234              	.LLST68:
 6235 0ea4 66010000 		.4byte	.LVL203
 6236 0ea8 AE010000 		.4byte	.LVL211
 6237 0eac 0100     		.2byte	0x1
 6238 0eae 53       		.byte	0x53
 6239 0eaf AE010000 		.4byte	.LVL211
 6240 0eb3 B8010000 		.4byte	.LVL214
 6241 0eb7 0200     		.2byte	0x2
 6242 0eb9 7E       		.byte	0x7e
 6243 0eba 04       		.sleb128 4
 6244 0ebb C8010000 		.4byte	.LVL217
 6245 0ebf D1010000 		.4byte	.LVL218-1
 6246 0ec3 0200     		.2byte	0x2
 6247 0ec5 7E       		.byte	0x7e
 6248 0ec6 04       		.sleb128 4
 6249 0ec7 00000000 		.4byte	0
 6250 0ecb 00000000 		.4byte	0
 6251              	.LLST69:
 6252 0ecf 6A010000 		.4byte	.LVL204
 6253 0ed3 A6010000 		.4byte	.LVL210
 6254 0ed7 0100     		.2byte	0x1
 6255 0ed9 51       		.byte	0x51
 6256 0eda A6010000 		.4byte	.LVL210
 6257 0ede AE010000 		.4byte	.LVL211
 6258 0ee2 0700     		.2byte	0x7
 6259 0ee4 7E       		.byte	0x7e
 6260 0ee5 08       		.sleb128 8
 6261 0ee6 06       		.byte	0x6
 6262 0ee7 73       		.byte	0x73
 6263 0ee8 00       		.sleb128 0
ARM GAS  C:\Users\eduar\AppData\Local\Temp\ccwtx1iP.s 			page 139


 6264 0ee9 22       		.byte	0x22
 6265 0eea 9F       		.byte	0x9f
 6266 0eeb AE010000 		.4byte	.LVL211
 6267 0eef B8010000 		.4byte	.LVL214
 6268 0ef3 0800     		.2byte	0x8
 6269 0ef5 7E       		.byte	0x7e
 6270 0ef6 08       		.sleb128 8
 6271 0ef7 06       		.byte	0x6
 6272 0ef8 7E       		.byte	0x7e
 6273 0ef9 04       		.sleb128 4
 6274 0efa 06       		.byte	0x6
 6275 0efb 22       		.byte	0x22
 6276 0efc 9F       		.byte	0x9f
 6277 0efd C8010000 		.4byte	.LVL217
 6278 0f01 D1010000 		.4byte	.LVL218-1
 6279 0f05 0800     		.2byte	0x8
 6280 0f07 7E       		.byte	0x7e
 6281 0f08 08       		.sleb128 8
 6282 0f09 06       		.byte	0x6
 6283 0f0a 7E       		.byte	0x7e
 6284 0f0b 04       		.sleb128 4
 6285 0f0c 06       		.byte	0x6
 6286 0f0d 22       		.byte	0x22
 6287 0f0e 9F       		.byte	0x9f
 6288 0f0f 00000000 		.4byte	0
 6289 0f13 00000000 		.4byte	0
 6290              	.LLST70:
 6291 0f17 90010000 		.4byte	.LVL205
 6292 0f1b C1010000 		.4byte	.LVL216-1
 6293 0f1f 0100     		.2byte	0x1
 6294 0f21 5C       		.byte	0x5c
 6295 0f22 C8010000 		.4byte	.LVL217
 6296 0f26 D1010000 		.4byte	.LVL218-1
 6297 0f2a 0100     		.2byte	0x1
 6298 0f2c 5C       		.byte	0x5c
 6299 0f2d 00000000 		.4byte	0
 6300 0f31 00000000 		.4byte	0
 6301              	.LLST71:
 6302 0f35 9C010000 		.4byte	.LVL208
 6303 0f39 B2010000 		.4byte	.LVL213
 6304 0f3d 0100     		.2byte	0x1
 6305 0f3f 50       		.byte	0x50
 6306 0f40 00000000 		.4byte	0
 6307 0f44 00000000 		.4byte	0
 6308              	.LLST72:
 6309 0f48 00000000 		.4byte	.LVL225
 6310 0f4c 4A000000 		.4byte	.LVL233
 6311 0f50 0100     		.2byte	0x1
 6312 0f52 50       		.byte	0x50
 6313 0f53 4A000000 		.4byte	.LVL233
 6314 0f57 5E010000 		.4byte	.LVL268
 6315 0f5b 0100     		.2byte	0x1
 6316 0f5d 59       		.byte	0x59
 6317 0f5e 5E010000 		.4byte	.LVL268
 6318 0f62 60010000 		.4byte	.LVL269
 6319 0f66 0100     		.2byte	0x1
 6320 0f68 50       		.byte	0x50
ARM GAS  C:\Users\eduar\AppData\Local\Temp\ccwtx1iP.s 			page 140


 6321 0f69 60010000 		.4byte	.LVL269
 6322 0f6d 62010000 		.4byte	.LVL270
 6323 0f71 0400     		.2byte	0x4
 6324 0f73 F3       		.byte	0xf3
 6325 0f74 01       		.uleb128 0x1
 6326 0f75 50       		.byte	0x50
 6327 0f76 9F       		.byte	0x9f
 6328 0f77 62010000 		.4byte	.LVL270
 6329 0f7b 64010000 		.4byte	.LVL271
 6330 0f7f 0100     		.2byte	0x1
 6331 0f81 50       		.byte	0x50
 6332 0f82 64010000 		.4byte	.LVL271
 6333 0f86 66010000 		.4byte	.LVL272
 6334 0f8a 0100     		.2byte	0x1
 6335 0f8c 59       		.byte	0x59
 6336 0f8d 66010000 		.4byte	.LVL272
 6337 0f91 68010000 		.4byte	.LVL273
 6338 0f95 0100     		.2byte	0x1
 6339 0f97 50       		.byte	0x50
 6340 0f98 00000000 		.4byte	0
 6341 0f9c 00000000 		.4byte	0
 6342              	.LLST73:
 6343 0fa0 00000000 		.4byte	.LVL225
 6344 0fa4 4C000000 		.4byte	.LVL234
 6345 0fa8 0100     		.2byte	0x1
 6346 0faa 51       		.byte	0x51
 6347 0fab 4C000000 		.4byte	.LVL234
 6348 0faf 5E010000 		.4byte	.LVL268
 6349 0fb3 0400     		.2byte	0x4
 6350 0fb5 F3       		.byte	0xf3
 6351 0fb6 01       		.uleb128 0x1
 6352 0fb7 51       		.byte	0x51
 6353 0fb8 9F       		.byte	0x9f
 6354 0fb9 5E010000 		.4byte	.LVL268
 6355 0fbd 68010000 		.4byte	.LVL273
 6356 0fc1 0100     		.2byte	0x1
 6357 0fc3 51       		.byte	0x51
 6358 0fc4 68010000 		.4byte	.LVL273
 6359 0fc8 78010000 		.4byte	.LFE134
 6360 0fcc 0400     		.2byte	0x4
 6361 0fce F3       		.byte	0xf3
 6362 0fcf 01       		.uleb128 0x1
 6363 0fd0 51       		.byte	0x51
 6364 0fd1 9F       		.byte	0x9f
 6365 0fd2 00000000 		.4byte	0
 6366 0fd6 00000000 		.4byte	0
 6367              	.LLST74:
 6368 0fda 00000000 		.4byte	.LVL225
 6369 0fde 24000000 		.4byte	.LVL229
 6370 0fe2 0100     		.2byte	0x1
 6371 0fe4 52       		.byte	0x52
 6372 0fe5 24000000 		.4byte	.LVL229
 6373 0fe9 5E010000 		.4byte	.LVL268
 6374 0fed 0100     		.2byte	0x1
 6375 0fef 5B       		.byte	0x5b
 6376 0ff0 5E010000 		.4byte	.LVL268
 6377 0ff4 62010000 		.4byte	.LVL270
ARM GAS  C:\Users\eduar\AppData\Local\Temp\ccwtx1iP.s 			page 141


 6378 0ff8 0100     		.2byte	0x1
 6379 0ffa 52       		.byte	0x52
 6380 0ffb 62010000 		.4byte	.LVL270
 6381 0fff 68010000 		.4byte	.LVL273
 6382 1003 0100     		.2byte	0x1
 6383 1005 5B       		.byte	0x5b
 6384 1006 00000000 		.4byte	0
 6385 100a 00000000 		.4byte	0
 6386              	.LLST75:
 6387 100e 00000000 		.4byte	.LVL225
 6388 1012 0C000000 		.4byte	.LVL227
 6389 1016 0100     		.2byte	0x1
 6390 1018 53       		.byte	0x53
 6391 1019 0C000000 		.4byte	.LVL227
 6392 101d 70010000 		.4byte	.LVL274
 6393 1021 0100     		.2byte	0x1
 6394 1023 55       		.byte	0x55
 6395 1024 70010000 		.4byte	.LVL274
 6396 1028 78010000 		.4byte	.LFE134
 6397 102c 0400     		.2byte	0x4
 6398 102e F3       		.byte	0xf3
 6399 102f 01       		.uleb128 0x1
 6400 1030 53       		.byte	0x53
 6401 1031 9F       		.byte	0x9f
 6402 1032 00000000 		.4byte	0
 6403 1036 00000000 		.4byte	0
 6404              	.LLST76:
 6405 103a 0A000000 		.4byte	.LVL226
 6406 103e 4C000000 		.4byte	.LVL234
 6407 1042 0600     		.2byte	0x6
 6408 1044 0C       		.byte	0xc
 6409 1045 01006E00 		.4byte	0x6e0001
 6410 1049 9F       		.byte	0x9f
 6411 104a 4C000000 		.4byte	.LVL234
 6412 104e 58000000 		.4byte	.LVL236
 6413 1052 0100     		.2byte	0x1
 6414 1054 50       		.byte	0x50
 6415 1055 32010000 		.4byte	.LVL263
 6416 1059 40010000 		.4byte	.LVL264
 6417 105d 0100     		.2byte	0x1
 6418 105f 50       		.byte	0x50
 6419 1060 4A010000 		.4byte	.LVL266
 6420 1064 5E010000 		.4byte	.LVL268
 6421 1068 0100     		.2byte	0x1
 6422 106a 50       		.byte	0x50
 6423 106b 5E010000 		.4byte	.LVL268
 6424 106f 68010000 		.4byte	.LVL273
 6425 1073 0600     		.2byte	0x6
 6426 1075 0C       		.byte	0xc
 6427 1076 01006E00 		.4byte	0x6e0001
 6428 107a 9F       		.byte	0x9f
 6429 107b 68010000 		.4byte	.LVL273
 6430 107f 78010000 		.4byte	.LFE134
 6431 1083 0100     		.2byte	0x1
 6432 1085 50       		.byte	0x50
 6433 1086 00000000 		.4byte	0
 6434 108a 00000000 		.4byte	0
ARM GAS  C:\Users\eduar\AppData\Local\Temp\ccwtx1iP.s 			page 142


 6435              	.LLST77:
 6436 108e BE000000 		.4byte	.LVL246
 6437 1092 54010000 		.4byte	.LVL267
 6438 1096 0100     		.2byte	0x1
 6439 1098 54       		.byte	0x54
 6440 1099 00000000 		.4byte	0
 6441 109d 00000000 		.4byte	0
 6442              	.LLST78:
 6443 10a1 46000000 		.4byte	.LVL232
 6444 10a5 4C000000 		.4byte	.LVL234
 6445 10a9 0200     		.2byte	0x2
 6446 10ab 30       		.byte	0x30
 6447 10ac 9F       		.byte	0x9f
 6448 10ad 4C000000 		.4byte	.LVL234
 6449 10b1 5E010000 		.4byte	.LVL268
 6450 10b5 0100     		.2byte	0x1
 6451 10b7 5A       		.byte	0x5a
 6452 10b8 00000000 		.4byte	0
 6453 10bc 00000000 		.4byte	0
 6454              	.LLST79:
 6455 10c0 E2000000 		.4byte	.LVL251
 6456 10c4 F5000000 		.4byte	.LVL252-1
 6457 10c8 0100     		.2byte	0x1
 6458 10ca 53       		.byte	0x53
 6459 10cb FA000000 		.4byte	.LVL254
 6460 10cf FC000000 		.4byte	.LVL255
 6461 10d3 0100     		.2byte	0x1
 6462 10d5 53       		.byte	0x53
 6463 10d6 00000000 		.4byte	0
 6464 10da 00000000 		.4byte	0
 6465              	.LLST80:
 6466 10de C4000000 		.4byte	.LVL247
 6467 10e2 C6000000 		.4byte	.LVL248
 6468 10e6 0100     		.2byte	0x1
 6469 10e8 56       		.byte	0x56
 6470 10e9 D0000000 		.4byte	.LVL250
 6471 10ed 04010000 		.4byte	.LVL257
 6472 10f1 0100     		.2byte	0x1
 6473 10f3 56       		.byte	0x56
 6474 10f4 04010000 		.4byte	.LVL257
 6475 10f8 0A010000 		.4byte	.LVL258
 6476 10fc 0300     		.2byte	0x3
 6477 10fe 71       		.byte	0x71
 6478 10ff 0C       		.sleb128 12
 6479 1100 9F       		.byte	0x9f
 6480 1101 0A010000 		.4byte	.LVL258
 6481 1105 11010000 		.4byte	.LVL260-1
 6482 1109 0100     		.2byte	0x1
 6483 110b 51       		.byte	0x51
 6484 110c 32010000 		.4byte	.LVL263
 6485 1110 40010000 		.4byte	.LVL264
 6486 1114 0300     		.2byte	0x3
 6487 1116 91       		.byte	0x91
 6488 1117 CC7B     		.sleb128 -564
 6489 1119 40010000 		.4byte	.LVL264
 6490 111d 46010000 		.4byte	.LVL265
 6491 1121 0600     		.2byte	0x6
ARM GAS  C:\Users\eduar\AppData\Local\Temp\ccwtx1iP.s 			page 143


 6492 1123 73       		.byte	0x73
 6493 1124 00       		.sleb128 0
 6494 1125 70       		.byte	0x70
 6495 1126 00       		.sleb128 0
 6496 1127 22       		.byte	0x22
 6497 1128 9F       		.byte	0x9f
 6498 1129 46010000 		.4byte	.LVL265
 6499 112d 49010000 		.4byte	.LVL266-1
 6500 1131 0100     		.2byte	0x1
 6501 1133 50       		.byte	0x50
 6502 1134 00000000 		.4byte	0
 6503 1138 00000000 		.4byte	0
 6504              	.LLST81:
 6505 113c 76000000 		.4byte	.LVL240
 6506 1140 99000000 		.4byte	.LVL244-1
 6507 1144 0100     		.2byte	0x1
 6508 1146 51       		.byte	0x51
 6509 1147 00000000 		.4byte	0
 6510 114b 00000000 		.4byte	0
 6511              	.LLST82:
 6512 114f 16000000 		.4byte	.LVL228
 6513 1153 4C000000 		.4byte	.LVL234
 6514 1157 0100     		.2byte	0x1
 6515 1159 51       		.byte	0x51
 6516 115a 4C000000 		.4byte	.LVL234
 6517 115e 5E010000 		.4byte	.LVL268
 6518 1162 0300     		.2byte	0x3
 6519 1164 91       		.byte	0x91
 6520 1165 B47B     		.sleb128 -588
 6521 1167 5E010000 		.4byte	.LVL268
 6522 116b 68010000 		.4byte	.LVL273
 6523 116f 0100     		.2byte	0x1
 6524 1171 51       		.byte	0x51
 6525 1172 68010000 		.4byte	.LVL273
 6526 1176 70010000 		.4byte	.LVL274
 6527 117a 0300     		.2byte	0x3
 6528 117c 91       		.byte	0x91
 6529 117d B47B     		.sleb128 -588
 6530 117f 70010000 		.4byte	.LVL274
 6531 1183 78010000 		.4byte	.LFE134
 6532 1187 0300     		.2byte	0x3
 6533 1189 7D       		.byte	0x7d
 6534 118a B47B     		.sleb128 -588
 6535 118c 00000000 		.4byte	0
 6536 1190 00000000 		.4byte	0
 6537              	.LLST83:
 6538 1194 42000000 		.4byte	.LVL230
 6539 1198 44000000 		.4byte	.LVL231
 6540 119c 0100     		.2byte	0x1
 6541 119e 53       		.byte	0x53
 6542 119f 44000000 		.4byte	.LVL231
 6543 11a3 5E010000 		.4byte	.LVL268
 6544 11a7 0300     		.2byte	0x3
 6545 11a9 91       		.byte	0x91
 6546 11aa B87B     		.sleb128 -584
 6547 11ac 00000000 		.4byte	0
 6548 11b0 00000000 		.4byte	0
ARM GAS  C:\Users\eduar\AppData\Local\Temp\ccwtx1iP.s 			page 144


 6549              	.LLST84:
 6550 11b4 4C000000 		.4byte	.LVL234
 6551 11b8 BE000000 		.4byte	.LVL246
 6552 11bc 0200     		.2byte	0x2
 6553 11be 30       		.byte	0x30
 6554 11bf 9F       		.byte	0x9f
 6555 11c0 BE000000 		.4byte	.LVL246
 6556 11c4 F8000000 		.4byte	.LVL253
 6557 11c8 0100     		.2byte	0x1
 6558 11ca 57       		.byte	0x57
 6559 11cb F8000000 		.4byte	.LVL253
 6560 11cf FA000000 		.4byte	.LVL254
 6561 11d3 0100     		.2byte	0x1
 6562 11d5 50       		.byte	0x50
 6563 11d6 FA000000 		.4byte	.LVL254
 6564 11da 54010000 		.4byte	.LVL267
 6565 11de 0100     		.2byte	0x1
 6566 11e0 57       		.byte	0x57
 6567 11e1 00000000 		.4byte	0
 6568 11e5 00000000 		.4byte	0
 6569              	.LLST85:
 6570 11e9 50000000 		.4byte	.LVL235
 6571 11ed 6C000000 		.4byte	.LVL239
 6572 11f1 0100     		.2byte	0x1
 6573 11f3 54       		.byte	0x54
 6574 11f4 6C000000 		.4byte	.LVL239
 6575 11f8 54010000 		.4byte	.LVL267
 6576 11fc 0100     		.2byte	0x1
 6577 11fe 58       		.byte	0x58
 6578 11ff 00000000 		.4byte	0
 6579 1203 00000000 		.4byte	0
 6580              	.LLST86:
 6581 1207 00010000 		.4byte	.LVL256
 6582 120b 0E010000 		.4byte	.LVL259
 6583 120f 0A00     		.2byte	0xa
 6584 1211 91       		.byte	0x91
 6585 1212 00       		.sleb128 0
 6586 1213 70       		.byte	0x70
 6587 1214 00       		.sleb128 0
 6588 1215 22       		.byte	0x22
 6589 1216 0A       		.byte	0xa
 6590 1217 2802     		.2byte	0x228
 6591 1219 1C       		.byte	0x1c
 6592 121a 9F       		.byte	0x9f
 6593 121b 0E010000 		.4byte	.LVL259
 6594 121f 11010000 		.4byte	.LVL260-1
 6595 1223 0C00     		.2byte	0xc
 6596 1225 91       		.byte	0x91
 6597 1226 00       		.sleb128 0
 6598 1227 91       		.byte	0x91
 6599 1228 D47B     		.sleb128 -556
 6600 122a 06       		.byte	0x6
 6601 122b 22       		.byte	0x22
 6602 122c 0A       		.byte	0xa
 6603 122d 2802     		.2byte	0x228
 6604 122f 1C       		.byte	0x1c
 6605 1230 9F       		.byte	0x9f
ARM GAS  C:\Users\eduar\AppData\Local\Temp\ccwtx1iP.s 			page 145


 6606 1231 00000000 		.4byte	0
 6607 1235 00000000 		.4byte	0
 6608              	.LLST87:
 6609 1239 00000000 		.4byte	.LVL275
 6610 123d 14000000 		.4byte	.LVL277
 6611 1241 0100     		.2byte	0x1
 6612 1243 50       		.byte	0x50
 6613 1244 14000000 		.4byte	.LVL277
 6614 1248 A0000000 		.4byte	.LVL294
 6615 124c 0100     		.2byte	0x1
 6616 124e 56       		.byte	0x56
 6617 124f A0000000 		.4byte	.LVL294
 6618 1253 A4000000 		.4byte	.LFE135
 6619 1257 0400     		.2byte	0x4
 6620 1259 F3       		.byte	0xf3
 6621 125a 01       		.uleb128 0x1
 6622 125b 50       		.byte	0x50
 6623 125c 9F       		.byte	0x9f
 6624 125d 00000000 		.4byte	0
 6625 1261 00000000 		.4byte	0
 6626              	.LLST88:
 6627 1265 52000000 		.4byte	.LVL284
 6628 1269 92000000 		.4byte	.LVL292
 6629 126d 0100     		.2byte	0x1
 6630 126f 57       		.byte	0x57
 6631 1270 00000000 		.4byte	0
 6632 1274 00000000 		.4byte	0
 6633              	.LLST89:
 6634 1278 1E000000 		.4byte	.LVL279
 6635 127c 60000000 		.4byte	.LVL286
 6636 1280 0100     		.2byte	0x1
 6637 1282 54       		.byte	0x54
 6638 1283 60000000 		.4byte	.LVL286
 6639 1287 62000000 		.4byte	.LVL287
 6640 128b 0300     		.2byte	0x3
 6641 128d 74       		.byte	0x74
 6642 128e 7F       		.sleb128 -1
 6643 128f 9F       		.byte	0x9f
 6644 1290 62000000 		.4byte	.LVL287
 6645 1294 A0000000 		.4byte	.LVL294
 6646 1298 0100     		.2byte	0x1
 6647 129a 54       		.byte	0x54
 6648 129b 00000000 		.4byte	0
 6649 129f 00000000 		.4byte	0
 6650              	.LLST90:
 6651 12a3 0C000000 		.4byte	.LVL276
 6652 12a7 6E000000 		.4byte	.LVL289
 6653 12ab 0100     		.2byte	0x1
 6654 12ad 55       		.byte	0x55
 6655 12ae 6E000000 		.4byte	.LVL289
 6656 12b2 70000000 		.4byte	.LVL290
 6657 12b6 0100     		.2byte	0x1
 6658 12b8 50       		.byte	0x50
 6659 12b9 70000000 		.4byte	.LVL290
 6660 12bd A0000000 		.4byte	.LVL294
 6661 12c1 0100     		.2byte	0x1
 6662 12c3 55       		.byte	0x55
ARM GAS  C:\Users\eduar\AppData\Local\Temp\ccwtx1iP.s 			page 146


 6663 12c4 00000000 		.4byte	0
 6664 12c8 00000000 		.4byte	0
 6665              	.LLST91:
 6666 12cc 0C000000 		.4byte	.LVL276
 6667 12d0 52000000 		.4byte	.LVL284
 6668 12d4 0600     		.2byte	0x6
 6669 12d6 0C       		.byte	0xc
 6670 12d7 04006E00 		.4byte	0x6e0004
 6671 12db 9F       		.byte	0x9f
 6672 12dc 52000000 		.4byte	.LVL284
 6673 12e0 88000000 		.4byte	.LVL291
 6674 12e4 0100     		.2byte	0x1
 6675 12e6 58       		.byte	0x58
 6676 12e7 88000000 		.4byte	.LVL291
 6677 12eb 92000000 		.4byte	.LVL292
 6678 12ef 0100     		.2byte	0x1
 6679 12f1 50       		.byte	0x50
 6680 12f2 92000000 		.4byte	.LVL292
 6681 12f6 96000000 		.4byte	.LVL293
 6682 12fa 0600     		.2byte	0x6
 6683 12fc 0C       		.byte	0xc
 6684 12fd 04006E00 		.4byte	0x6e0004
 6685 1301 9F       		.byte	0x9f
 6686 1302 96000000 		.4byte	.LVL293
 6687 1306 A0000000 		.4byte	.LVL294
 6688 130a 0100     		.2byte	0x1
 6689 130c 58       		.byte	0x58
 6690 130d A0000000 		.4byte	.LVL294
 6691 1311 A4000000 		.4byte	.LFE135
 6692 1315 0100     		.2byte	0x1
 6693 1317 50       		.byte	0x50
 6694 1318 00000000 		.4byte	0
 6695 131c 00000000 		.4byte	0
 6696              	.LLST92:
 6697 1320 3A000000 		.4byte	.LVL282
 6698 1324 92000000 		.4byte	.LVL292
 6699 1328 0100     		.2byte	0x1
 6700 132a 5A       		.byte	0x5a
 6701 132b 00000000 		.4byte	0
 6702 132f 00000000 		.4byte	0
 6703              	.LLST93:
 6704 1333 2A000000 		.4byte	.LVL280
 6705 1337 92000000 		.4byte	.LVL292
 6706 133b 0100     		.2byte	0x1
 6707 133d 59       		.byte	0x59
 6708 133e 00000000 		.4byte	0
 6709 1342 00000000 		.4byte	0
 6710              	.LLST94:
 6711 1346 00000000 		.4byte	.LVL295
 6712 134a 04000000 		.4byte	.LVL296
 6713 134e 0100     		.2byte	0x1
 6714 1350 50       		.byte	0x50
 6715 1351 04000000 		.4byte	.LVL296
 6716 1355 06000000 		.4byte	.LFE136
 6717 1359 0400     		.2byte	0x4
 6718 135b F3       		.byte	0xf3
 6719 135c 01       		.uleb128 0x1
ARM GAS  C:\Users\eduar\AppData\Local\Temp\ccwtx1iP.s 			page 147


 6720 135d 50       		.byte	0x50
 6721 135e 9F       		.byte	0x9f
 6722 135f 00000000 		.4byte	0
 6723 1363 00000000 		.4byte	0
 6724              		.section	.debug_aranges,"",%progbits
 6725 0000 8C000000 		.4byte	0x8c
 6726 0004 0200     		.2byte	0x2
 6727 0006 00000000 		.4byte	.Ldebug_info0
 6728 000a 04       		.byte	0x4
 6729 000b 00       		.byte	0
 6730 000c 0000     		.2byte	0
 6731 000e 0000     		.2byte	0
 6732 0010 00000000 		.4byte	.LFB137
 6733 0014 2E000000 		.4byte	.LFE137-.LFB137
 6734 0018 00000000 		.4byte	.LFB138
 6735 001c 1C000000 		.4byte	.LFE138-.LFB138
 6736 0020 00000000 		.4byte	.LFB139
 6737 0024 5C000000 		.4byte	.LFE139-.LFB139
 6738 0028 00000000 		.4byte	.LFB140
 6739 002c 3C000000 		.4byte	.LFE140-.LFB140
 6740 0030 00000000 		.4byte	.LFB141
 6741 0034 54000000 		.4byte	.LFE141-.LFB141
 6742 0038 00000000 		.4byte	.LFB145
 6743 003c 94000000 		.4byte	.LFE145-.LFB145
 6744 0040 00000000 		.4byte	.LFB142
 6745 0044 50000000 		.4byte	.LFE142-.LFB142
 6746 0048 00000000 		.4byte	.LFB146
 6747 004c 78000000 		.4byte	.LFE146-.LFB146
 6748 0050 00000000 		.4byte	.LFB144
 6749 0054 88000000 		.4byte	.LFE144-.LFB144
 6750 0058 00000000 		.4byte	.LFB143
 6751 005c 7C000000 		.4byte	.LFE143-.LFB143
 6752 0060 00000000 		.4byte	.LFB132
 6753 0064 9C000000 		.4byte	.LFE132-.LFB132
 6754 0068 00000000 		.4byte	.LFB133
 6755 006c F8010000 		.4byte	.LFE133-.LFB133
 6756 0070 00000000 		.4byte	.LFB134
 6757 0074 78010000 		.4byte	.LFE134-.LFB134
 6758 0078 00000000 		.4byte	.LFB135
 6759 007c A4000000 		.4byte	.LFE135-.LFB135
 6760 0080 00000000 		.4byte	.LFB136
 6761 0084 06000000 		.4byte	.LFE136-.LFB136
 6762 0088 00000000 		.4byte	0
 6763 008c 00000000 		.4byte	0
 6764              		.section	.debug_ranges,"",%progbits
 6765              	.Ldebug_ranges0:
 6766 0000 1C000000 		.4byte	.LBB2
 6767 0004 34000000 		.4byte	.LBE2
 6768 0008 40000000 		.4byte	.LBB3
 6769 000c 42000000 		.4byte	.LBE3
 6770 0010 00000000 		.4byte	0
 6771 0014 00000000 		.4byte	0
 6772 0018 32000000 		.4byte	.LBB4
 6773 001c 4C000000 		.4byte	.LBE4
 6774 0020 52000000 		.4byte	.LBB5
 6775 0024 56000000 		.4byte	.LBE5
 6776 0028 00000000 		.4byte	0
ARM GAS  C:\Users\eduar\AppData\Local\Temp\ccwtx1iP.s 			page 148


 6777 002c 00000000 		.4byte	0
 6778 0030 28000000 		.4byte	.LBB6
 6779 0034 7A000000 		.4byte	.LBE6
 6780 0038 7C000000 		.4byte	.LBB13
 6781 003c B4000000 		.4byte	.LBE13
 6782 0040 BC000000 		.4byte	.LBB14
 6783 0044 DA010000 		.4byte	.LBE14
 6784 0048 00000000 		.4byte	0
 6785 004c 00000000 		.4byte	0
 6786 0050 8C000000 		.4byte	.LBB7
 6787 0054 A0000000 		.4byte	.LBE7
 6788 0058 A6000000 		.4byte	.LBB8
 6789 005c B0000000 		.4byte	.LBE8
 6790 0060 00000000 		.4byte	0
 6791 0064 00000000 		.4byte	0
 6792 0068 64010000 		.4byte	.LBB9
 6793 006c C6010000 		.4byte	.LBE9
 6794 0070 C8010000 		.4byte	.LBB12
 6795 0074 D2010000 		.4byte	.LBE12
 6796 0078 00000000 		.4byte	0
 6797 007c 00000000 		.4byte	0
 6798 0080 82010000 		.4byte	.LBB10
 6799 0084 C6010000 		.4byte	.LBE10
 6800 0088 C8010000 		.4byte	.LBB11
 6801 008c D2010000 		.4byte	.LBE11
 6802 0090 00000000 		.4byte	0
 6803 0094 00000000 		.4byte	0
 6804 0098 30000000 		.4byte	.LBB15
 6805 009c 48000000 		.4byte	.LBE15
 6806 00a0 4A000000 		.4byte	.LBB18
 6807 00a4 5E010000 		.4byte	.LBE18
 6808 00a8 00000000 		.4byte	0
 6809 00ac 00000000 		.4byte	0
 6810 00b0 22000000 		.4byte	.LBB19
 6811 00b4 4A000000 		.4byte	.LBE19
 6812 00b8 52000000 		.4byte	.LBB20
 6813 00bc 92000000 		.4byte	.LBE20
 6814 00c0 00000000 		.4byte	0
 6815 00c4 00000000 		.4byte	0
 6816 00c8 00000000 		.4byte	.LFB137
 6817 00cc 2E000000 		.4byte	.LFE137
 6818 00d0 00000000 		.4byte	.LFB138
 6819 00d4 1C000000 		.4byte	.LFE138
 6820 00d8 00000000 		.4byte	.LFB139
 6821 00dc 5C000000 		.4byte	.LFE139
 6822 00e0 00000000 		.4byte	.LFB140
 6823 00e4 3C000000 		.4byte	.LFE140
 6824 00e8 00000000 		.4byte	.LFB141
 6825 00ec 54000000 		.4byte	.LFE141
 6826 00f0 00000000 		.4byte	.LFB145
 6827 00f4 94000000 		.4byte	.LFE145
 6828 00f8 00000000 		.4byte	.LFB142
 6829 00fc 50000000 		.4byte	.LFE142
 6830 0100 00000000 		.4byte	.LFB146
 6831 0104 78000000 		.4byte	.LFE146
 6832 0108 00000000 		.4byte	.LFB144
 6833 010c 88000000 		.4byte	.LFE144
ARM GAS  C:\Users\eduar\AppData\Local\Temp\ccwtx1iP.s 			page 149


 6834 0110 00000000 		.4byte	.LFB143
 6835 0114 7C000000 		.4byte	.LFE143
 6836 0118 00000000 		.4byte	.LFB132
 6837 011c 9C000000 		.4byte	.LFE132
 6838 0120 00000000 		.4byte	.LFB133
 6839 0124 F8010000 		.4byte	.LFE133
 6840 0128 00000000 		.4byte	.LFB134
 6841 012c 78010000 		.4byte	.LFE134
 6842 0130 00000000 		.4byte	.LFB135
 6843 0134 A4000000 		.4byte	.LFE135
 6844 0138 00000000 		.4byte	.LFB136
 6845 013c 06000000 		.4byte	.LFE136
 6846 0140 00000000 		.4byte	0
 6847 0144 00000000 		.4byte	0
 6848              		.section	.debug_line,"",%progbits
 6849              	.Ldebug_line0:
 6850 0000 88060000 		.section	.debug_str,"MS",%progbits,1
 6850      02002102 
 6850      00000201 
 6850      FB0E0D00 
 6850      01010101 
 6851              	.LASF59:
 6852 0000 726F7754 		.ascii	"rowToWrPtr\000"
 6852      6F577250 
 6852      747200
 6853              	.LASF111:
 6854 000b 746D7044 		.ascii	"tmpData\000"
 6854      61746100 
 6855              	.LASF25:
 6856 0013 43595F46 		.ascii	"CY_FLASH_DRV_INVALID_FLASH_ADDR\000"
 6856      4C415348 
 6856      5F445256 
 6856      5F494E56 
 6856      414C4944 
 6857              	.LASF50:
 6858 0033 63795F65 		.ascii	"cy_en_em_eeprom_status_t\000"
 6858      6E5F656D 
 6858      5F656570 
 6858      726F6D5F 
 6858      73746174 
 6859              	.LASF70:
 6860 004c 726F774E 		.ascii	"rowNum\000"
 6860      756D00
 6861              	.LASF6:
 6862 0053 5F5F7569 		.ascii	"__uint8_t\000"
 6862      6E74385F 
 6862      7400
 6863              	.LASF82:
 6864 005d 64737441 		.ascii	"dstAddr\000"
 6864      64647200 
 6865              	.LASF114:
 6866 0065 736B6970 		.ascii	"skipOperation\000"
 6866      4F706572 
 6866      6174696F 
 6866      6E00
 6867              	.LASF117:
 6868 0073 656D4565 		.ascii	"emEepromStoredRowAddr\000"
ARM GAS  C:\Users\eduar\AppData\Local\Temp\ccwtx1iP.s 			page 150


 6868      70726F6D 
 6868      53746F72 
 6868      6564526F 
 6868      77416464 
 6869              	.LASF112:
 6870 0089 6E756D57 		.ascii	"numWrites\000"
 6870      72697465 
 6870      7300
 6871              	.LASF13:
 6872 0093 6C6F6E67 		.ascii	"long long unsigned int\000"
 6872      206C6F6E 
 6872      6720756E 
 6872      7369676E 
 6872      65642069 
 6873              	.LASF71:
 6874 00aa 61646472 		.ascii	"addr\000"
 6874      00
 6875              	.LASF132:
 6876 00af 49544D5F 		.ascii	"ITM_RxBuffer\000"
 6876      52784275 
 6876      66666572 
 6876      00
 6877              	.LASF35:
 6878 00bc 65657072 		.ascii	"eepromSize\000"
 6878      6F6D5369 
 6878      7A6500
 6879              	.LASF1:
 6880 00c7 6C6F6E67 		.ascii	"long long int\000"
 6880      206C6F6E 
 6880      6720696E 
 6880      7400
 6881              	.LASF3:
 6882 00d5 7369676E 		.ascii	"signed char\000"
 6882      65642063 
 6882      68617200 
 6883              	.LASF73:
 6884 00e1 57726974 		.ascii	"WriteRow\000"
 6884      65526F77 
 6884      00
 6885              	.LASF57:
 6886 00ea 46696E64 		.ascii	"FindLastWrittenRow\000"
 6886      4C617374 
 6886      57726974 
 6886      74656E52 
 6886      6F7700
 6887              	.LASF118:
 6888 00fd 73746F72 		.ascii	"storedSeqNum\000"
 6888      65645365 
 6888      714E756D 
 6888      00
 6889              	.LASF49:
 6890 010a 43595F45 		.ascii	"CY_EM_EEPROM_WRITE_FAIL\000"
 6890      4D5F4545 
 6890      50524F4D 
 6890      5F575249 
 6890      54455F46 
 6891              	.LASF119:
ARM GAS  C:\Users\eduar\AppData\Local\Temp\ccwtx1iP.s 			page 151


 6892 0122 43795F45 		.ascii	"Cy_Em_EEPROM_NumWrites\000"
 6892      6D5F4545 
 6892      50524F4D 
 6892      5F4E756D 
 6892      57726974 
 6893              	.LASF10:
 6894 0139 6C6F6E67 		.ascii	"long int\000"
 6894      20696E74 
 6894      00
 6895              	.LASF124:
 6896 0142 43795F46 		.ascii	"Cy_Flash_EraseRow\000"
 6896      6C617368 
 6896      5F457261 
 6896      7365526F 
 6896      7700
 6897              	.LASF39:
 6898 0154 75736572 		.ascii	"userFlashStartAddr\000"
 6898      466C6173 
 6898      68537461 
 6898      72744164 
 6898      647200
 6899              	.LASF126:
 6900 0167 6D656D63 		.ascii	"memcpy\000"
 6900      707900
 6901              	.LASF17:
 6902 016e 75696E74 		.ascii	"uint16_t\000"
 6902      31365F74 
 6902      00
 6903              	.LASF21:
 6904 0177 646F7562 		.ascii	"double\000"
 6904      6C6500
 6905              	.LASF90:
 6906 017e 43795F45 		.ascii	"Cy_Em_EEPROM_Read\000"
 6906      6D5F4545 
 6906      50524F4D 
 6906      5F526561 
 6906      6400
 6907              	.LASF97:
 6908 0190 61637445 		.ascii	"actEepromRowNum\000"
 6908      6570726F 
 6908      6D526F77 
 6908      4E756D00 
 6909              	.LASF113:
 6910 01a0 65654865 		.ascii	"eeHeaderDataOffset\000"
 6910      61646572 
 6910      44617461 
 6910      4F666673 
 6910      657400
 6911              	.LASF125:
 6912 01b3 43795F46 		.ascii	"Cy_Flash_StartErase\000"
 6912      6C617368 
 6912      5F537461 
 6912      72744572 
 6912      61736500 
 6913              	.LASF11:
 6914 01c7 5F5F7569 		.ascii	"__uint32_t\000"
 6914      6E743332 
ARM GAS  C:\Users\eduar\AppData\Local\Temp\ccwtx1iP.s 			page 152


 6914      5F7400
 6915              	.LASF102:
 6916 01d2 75706461 		.ascii	"updateAddrFlag\000"
 6916      74654164 
 6916      6472466C 
 6916      616700
 6917              	.LASF55:
 6918 01e1 6E756D52 		.ascii	"numRows\000"
 6918      6F777300 
 6919              	.LASF104:
 6920 01e9 64617461 		.ascii	"dataEndEepromRowNum\000"
 6920      456E6445 
 6920      6570726F 
 6920      6D526F77 
 6920      4E756D00 
 6921              	.LASF87:
 6922 01fd 72616D42 		.ascii	"ramBuffAddr\000"
 6922      75666641 
 6922      64647200 
 6923              	.LASF37:
 6924 0209 72656475 		.ascii	"redundantCopy\000"
 6924      6E64616E 
 6924      74436F70 
 6924      7900
 6925              	.LASF23:
 6926 0217 43595F46 		.ascii	"CY_FLASH_DRV_INV_PROT\000"
 6926      4C415348 
 6926      5F445256 
 6926      5F494E56 
 6926      5F50524F 
 6927              	.LASF115:
 6928 022d 64617461 		.ascii	"dataAddr\000"
 6928      41646472 
 6928      00
 6929              	.LASF0:
 6930 0236 756E7369 		.ascii	"unsigned int\000"
 6930      676E6564 
 6930      20696E74 
 6930      00
 6931              	.LASF84:
 6932 0243 6E756D42 		.ascii	"numBytes\000"
 6932      79746573 
 6932      00
 6933              	.LASF54:
 6934 024c 70726576 		.ascii	"prevSeqNum\000"
 6934      5365714E 
 6934      756D00
 6935              	.LASF12:
 6936 0257 6C6F6E67 		.ascii	"long unsigned int\000"
 6936      20756E73 
 6936      69676E65 
 6936      6420696E 
 6936      7400
 6937              	.LASF51:
 6938 0269 6C617374 		.ascii	"lastWrRowPtr\000"
 6938      5772526F 
 6938      77507472 
ARM GAS  C:\Users\eduar\AppData\Local\Temp\ccwtx1iP.s 			page 153


 6938      00
 6939              	.LASF81:
 6940 0276 43686563 		.ascii	"CheckCrcAndCopy\000"
 6940      6B437263 
 6940      416E6443 
 6940      6F707900 
 6941              	.LASF105:
 6942 0286 7372634F 		.ascii	"srcOffset\000"
 6942      66667365 
 6942      7400
 6943              	.LASF52:
 6944 0290 636F6E74 		.ascii	"context\000"
 6944      65787400 
 6945              	.LASF92:
 6946 0298 73697A65 		.ascii	"size\000"
 6946      00
 6947              	.LASF68:
 6948 029d 47657441 		.ascii	"GetAddresses\000"
 6948      64647265 
 6948      73736573 
 6948      00
 6949              	.LASF121:
 6950 02aa 43795F46 		.ascii	"Cy_Flash_IsOperationComplete\000"
 6950      6C617368 
 6950      5F49734F 
 6950      70657261 
 6950      74696F6E 
 6951              	.LASF109:
 6952 02c7 61637445 		.ascii	"actEmEepromRowNum\000"
 6952      6D456570 
 6952      726F6D52 
 6952      6F774E75 
 6952      6D00
 6953              	.LASF60:
 6954 02d9 726F7754 		.ascii	"rowToRdPtr\000"
 6954      6F526450 
 6954      747200
 6955              	.LASF110:
 6956 02e4 656D4565 		.ascii	"emEepromRowRdAddr\000"
 6956      70726F6D 
 6956      526F7752 
 6956      64416464 
 6956      7200
 6957              	.LASF91:
 6958 02f6 65657072 		.ascii	"eepromData\000"
 6958      6F6D4461 
 6958      746100
 6959              	.LASF96:
 6960 0301 73746172 		.ascii	"startRowAddr\000"
 6960      74526F77 
 6960      41646472 
 6960      00
 6961              	.LASF9:
 6962 030e 5F5F696E 		.ascii	"__int32_t\000"
 6962      7433325F 
 6962      7400
 6963              	.LASF94:
ARM GAS  C:\Users\eduar\AppData\Local\Temp\ccwtx1iP.s 			page 154


 6964 0318 63757245 		.ascii	"curEepromBaseAddr\000"
 6964      6570726F 
 6964      6D426173 
 6964      65416464 
 6964      7200
 6965              	.LASF86:
 6966 032a 45726173 		.ascii	"EraseRow\000"
 6966      65526F77 
 6966      00
 6967              	.LASF46:
 6968 0333 43595F45 		.ascii	"CY_EM_EEPROM_BAD_PARAM\000"
 6968      4D5F4545 
 6968      50524F4D 
 6968      5F424144 
 6968      5F504152 
 6969              	.LASF47:
 6970 034a 43595F45 		.ascii	"CY_EM_EEPROM_BAD_CHECKSUM\000"
 6970      4D5F4545 
 6970      50524F4D 
 6970      5F424144 
 6970      5F434845 
 6971              	.LASF42:
 6972 0364 6E756D62 		.ascii	"numberOfRows\000"
 6972      65724F66 
 6972      526F7773 
 6972      00
 6973              	.LASF14:
 6974 0371 73697A65 		.ascii	"sizetype\000"
 6974      74797065 
 6974      00
 6975              	.LASF24:
 6976 037a 43595F46 		.ascii	"CY_FLASH_DRV_INVALID_FM_PL\000"
 6976      4C415348 
 6976      5F445256 
 6976      5F494E56 
 6976      414C4944 
 6977              	.LASF75:
 6978 0395 636F756E 		.ascii	"countMs\000"
 6978      744D7300 
 6979              	.LASF29:
 6980 039d 43595F46 		.ascii	"CY_FLASH_DRV_PL_ROW_COMP_FA\000"
 6980      4C415348 
 6980      5F445256 
 6980      5F504C5F 
 6980      524F575F 
 6981              	.LASF116:
 6982 03b9 43795F45 		.ascii	"Cy_Em_EEPROM_Erase\000"
 6982      6D5F4545 
 6982      50524F4D 
 6982      5F457261 
 6982      736500
 6983              	.LASF107:
 6984 03cc 43795F45 		.ascii	"Cy_Em_EEPROM_Write\000"
 6984      6D5F4545 
 6984      50524F4D 
 6984      5F577269 
 6984      746500
ARM GAS  C:\Users\eduar\AppData\Local\Temp\ccwtx1iP.s 			page 155


 6985              	.LASF53:
 6986 03df 7365714E 		.ascii	"seqNum\000"
 6986      756D00
 6987              	.LASF44:
 6988 03e6 63795F73 		.ascii	"cy_stc_eeprom_context_t\000"
 6988      74635F65 
 6988      6570726F 
 6988      6D5F636F 
 6988      6E746578 
 6989              	.LASF26:
 6990 03fe 43595F46 		.ascii	"CY_FLASH_DRV_ROW_PROTECTED\000"
 6990      4C415348 
 6990      5F445256 
 6990      5F524F57 
 6990      5F50524F 
 6991              	.LASF76:
 6992 0419 46696C6C 		.ascii	"FillChecksum\000"
 6992      43686563 
 6992      6B73756D 
 6992      00
 6993              	.LASF122:
 6994 0426 43795F46 		.ascii	"Cy_Flash_WriteRow\000"
 6994      6C617368 
 6994      5F577269 
 6994      7465526F 
 6994      7700
 6995              	.LASF64:
 6996 0438 43686563 		.ascii	"CheckRanges\000"
 6996      6B52616E 
 6996      67657300 
 6997              	.LASF128:
 6998 0444 474E5520 		.ascii	"GNU C11 5.4.1 20160609 (release) [ARM/embedded-5-br"
 6998      43313120 
 6998      352E342E 
 6998      31203230 
 6998      31363036 
 6999 0477 616E6368 		.ascii	"anch revision 237715] -mcpu=cortex-m4 -mfloat-abi=s"
 6999      20726576 
 6999      6973696F 
 6999      6E203233 
 6999      37373135 
 7000 04aa 6F667466 		.ascii	"oftfp -mfpu=fpv4-sp-d16 -mthumb -g -Og -ffunction-s"
 7000      70202D6D 
 7000      6670753D 
 7000      66707634 
 7000      2D73702D 
 7001 04dd 65637469 		.ascii	"ections -ffat-lto-objects\000"
 7001      6F6E7320 
 7001      2D666661 
 7001      742D6C74 
 7001      6F2D6F62 
 7002              	.LASF79:
 7003 04f7 77724164 		.ascii	"wrAddr\000"
 7003      647200
 7004              	.LASF108:
 7005 04fe 7772436E 		.ascii	"wrCnt\000"
 7005      7400
ARM GAS  C:\Users\eduar\AppData\Local\Temp\ccwtx1iP.s 			page 156


 7006              	.LASF30:
 7007 0504 43595F46 		.ascii	"CY_FLASH_DRV_ERR_UNC\000"
 7007      4C415348 
 7007      5F445256 
 7007      5F455252 
 7007      5F554E43 
 7008              	.LASF20:
 7009 0519 666C6F61 		.ascii	"float\000"
 7009      7400
 7010              	.LASF67:
 7011 051f 656E6441 		.ascii	"endAddr\000"
 7011      64647200 
 7012              	.LASF32:
 7013 0527 43595F46 		.ascii	"CY_FLASH_DRV_OPERATION_STARTED\000"
 7013      4C415348 
 7013      5F445256 
 7013      5F4F5045 
 7013      52415449 
 7014              	.LASF48:
 7015 0546 43595F45 		.ascii	"CY_EM_EEPROM_BAD_DATA\000"
 7015      4D5F4545 
 7015      50524F4D 
 7015      5F424144 
 7015      5F444154 
 7016              	.LASF41:
 7017 055c 776C456E 		.ascii	"wlEndAddr\000"
 7017      64416464 
 7017      7200
 7018              	.LASF18:
 7019 0566 696E7433 		.ascii	"int32_t\000"
 7019      325F7400 
 7020              	.LASF4:
 7021 056e 756E7369 		.ascii	"unsigned char\000"
 7021      676E6564 
 7021      20636861 
 7021      7200
 7022              	.LASF31:
 7023 057c 43595F46 		.ascii	"CY_FLASH_DRV_PROGRESS_NO_ERROR\000"
 7023      4C415348 
 7023      5F445256 
 7023      5F50524F 
 7023      47524553 
 7024              	.LASF74:
 7025 059b 726F7741 		.ascii	"rowAddr\000"
 7025      64647200 
 7026              	.LASF5:
 7027 05a3 73686F72 		.ascii	"short int\000"
 7027      7420696E 
 7027      7400
 7028              	.LASF123:
 7029 05ad 43795F46 		.ascii	"Cy_Flash_StartWrite\000"
 7029      6C617368 
 7029      5F537461 
 7029      72745772 
 7029      69746500 
 7030              	.LASF99:
 7031 05c1 64617461 		.ascii	"dataStartEepromRowNum\000"
ARM GAS  C:\Users\eduar\AppData\Local\Temp\ccwtx1iP.s 			page 157


 7031      53746172 
 7031      74456570 
 7031      726F6D52 
 7031      6F774E75 
 7032              	.LASF89:
 7033 05d7 43795F45 		.ascii	"Cy_Em_EEPROM_Init\000"
 7033      6D5F4545 
 7033      50524F4D 
 7033      5F496E69 
 7033      7400
 7034              	.LASF130:
 7035 05e9 433A5C55 		.ascii	"C:\\Users\\eduar\\Documents\\PSoC Creator\\projeto_"
 7035      73657273 
 7035      5C656475 
 7035      61725C44 
 7035      6F63756D 
 7036 0617 49435C64 		.ascii	"IC\\deteccaoDeFalhas.cydsn\000"
 7036      65746563 
 7036      63616F44 
 7036      6546616C 
 7036      6861732E 
 7037              	.LASF78:
 7038 0631 77726974 		.ascii	"writeRamBuffer\000"
 7038      6552616D 
 7038      42756666 
 7038      657200
 7039              	.LASF83:
 7040 0640 726F774F 		.ascii	"rowOffset\000"
 7040      66667365 
 7040      7400
 7041              	.LASF19:
 7042 064a 75696E74 		.ascii	"uint32_t\000"
 7042      33325F74 
 7042      00
 7043              	.LASF85:
 7044 0653 72635374 		.ascii	"rcStartRowAddr\000"
 7044      61727452 
 7044      6F774164 
 7044      647200
 7045              	.LASF120:
 7046 0662 43795F53 		.ascii	"Cy_SysLib_Delay\000"
 7046      79734C69 
 7046      625F4465 
 7046      6C617900 
 7047              	.LASF28:
 7048 0672 43595F46 		.ascii	"CY_FLASH_DRV_INVALID_INPUT_PARAMETERS\000"
 7048      4C415348 
 7048      5F445256 
 7048      5F494E56 
 7048      414C4944 
 7049              	.LASF27:
 7050 0698 43595F46 		.ascii	"CY_FLASH_DRV_IPC_BUSY\000"
 7050      4C415348 
 7050      5F445256 
 7050      5F495043 
 7050      5F425553 
 7051              	.LASF2:
ARM GAS  C:\Users\eduar\AppData\Local\Temp\ccwtx1iP.s 			page 158


 7052 06ae 6C6F6E67 		.ascii	"long double\000"
 7052      20646F75 
 7052      626C6500 
 7053              	.LASF15:
 7054 06ba 63686172 		.ascii	"char\000"
 7054      00
 7055              	.LASF34:
 7056 06bf 63795F65 		.ascii	"cy_en_flashdrv_status_t\000"
 7056      6E5F666C 
 7056      61736864 
 7056      72765F73 
 7056      74617475 
 7057              	.LASF65:
 7058 06d7 636F6E66 		.ascii	"config\000"
 7058      696700
 7059              	.LASF93:
 7060 06de 6E756D42 		.ascii	"numBytesToRead\000"
 7060      79746573 
 7060      546F5265 
 7060      616400
 7061              	.LASF7:
 7062 06ed 5F5F7569 		.ascii	"__uint16_t\000"
 7062      6E743136 
 7062      5F7400
 7063              	.LASF66:
 7064 06f8 73746172 		.ascii	"startAddr\000"
 7064      74416464 
 7064      7200
 7065              	.LASF58:
 7066 0702 4765744E 		.ascii	"GetNextRowToWrite\000"
 7066      65787452 
 7066      6F77546F 
 7066      57726974 
 7066      6500
 7067              	.LASF16:
 7068 0714 75696E74 		.ascii	"uint8_t\000"
 7068      385F7400 
 7069              	.LASF72:
 7070 071c 736B6970 		.ascii	"skip\000"
 7070      00
 7071              	.LASF69:
 7072 0721 6F666673 		.ascii	"offset\000"
 7072      657400
 7073              	.LASF8:
 7074 0728 73686F72 		.ascii	"short unsigned int\000"
 7074      7420756E 
 7074      7369676E 
 7074      65642069 
 7074      6E7400
 7075              	.LASF43:
 7076 073b 6C617374 		.ascii	"lastWrRowAddr\000"
 7076      5772526F 
 7076      77416464 
 7076      7200
 7077              	.LASF56:
 7078 0749 656D4565 		.ascii	"emEepromAddr\000"
 7078      70726F6D 
ARM GAS  C:\Users\eduar\AppData\Local\Temp\ccwtx1iP.s 			page 159


 7078      41646472 
 7078      00
 7079              	.LASF80:
 7080 0756 746D7052 		.ascii	"tmpRowAddr\000"
 7080      6F774164 
 7080      647200
 7081              	.LASF95:
 7082 0761 63757252 		.ascii	"curRowOffset\000"
 7082      6F774F66 
 7082      66736574 
 7082      00
 7083              	.LASF40:
 7084 076e 63795F73 		.ascii	"cy_stc_eeprom_config_t\000"
 7084      74635F65 
 7084      6570726F 
 7084      6D5F636F 
 7084      6E666967 
 7085              	.LASF101:
 7086 0785 72645369 		.ascii	"rdSize\000"
 7086      7A6500
 7087              	.LASF36:
 7088 078c 77656172 		.ascii	"wearLevelingFactor\000"
 7088      4C657665 
 7088      6C696E67 
 7088      46616374 
 7088      6F7200
 7089              	.LASF45:
 7090 079f 43595F45 		.ascii	"CY_EM_EEPROM_SUCCESS\000"
 7090      4D5F4545 
 7090      50524F4D 
 7090      5F535543 
 7090      43455353 
 7091              	.LASF127:
 7092 07b4 6D656D73 		.ascii	"memset\000"
 7092      657400
 7093              	.LASF77:
 7094 07bb 72644164 		.ascii	"rdAddr\000"
 7094      647200
 7095              	.LASF129:
 7096 07c2 47656E65 		.ascii	"Generated_Source\\PSoC6\\pdl\\middleware\\em_eeprom"
 7096      72617465 
 7096      645F536F 
 7096      75726365 
 7096      5C50536F 
 7097 07f1 5C63795F 		.ascii	"\\cy_em_eeprom.c\000"
 7097      656D5F65 
 7097      6570726F 
 7097      6D2E6300 
 7098              	.LASF106:
 7099 0801 6473744F 		.ascii	"dstOffset\000"
 7099      66667365 
 7099      7400
 7100              	.LASF61:
 7101 080b 47657452 		.ascii	"GetRowAddrBySeqNum\000"
 7101      6F774164 
 7101      64724279 
 7101      5365714E 
ARM GAS  C:\Users\eduar\AppData\Local\Temp\ccwtx1iP.s 			page 160


 7101      756D00
 7102              	.LASF131:
 7103 081e 63795F65 		.ascii	"cy_en_flashdrv_status\000"
 7103      6E5F666C 
 7103      61736864 
 7103      72765F73 
 7103      74617475 
 7104              	.LASF38:
 7105 0834 626C6F63 		.ascii	"blockingWrite\000"
 7105      6B696E67 
 7105      57726974 
 7105      6500
 7106              	.LASF98:
 7107 0842 63757252 		.ascii	"curRdEepromRowNum\000"
 7107      64456570 
 7107      726F6D52 
 7107      6F774E75 
 7107      6D00
 7108              	.LASF62:
 7109 0854 43616C63 		.ascii	"CalcChecksum\000"
 7109      43686563 
 7109      6B73756D 
 7109      00
 7110              	.LASF63:
 7111 0861 726F7744 		.ascii	"rowData\000"
 7111      61746100 
 7112              	.LASF103:
 7113 0869 6E756D52 		.ascii	"numRowReads\000"
 7113      6F775265 
 7113      61647300 
 7114              	.LASF88:
 7115 0875 656D4565 		.ascii	"emEepromRowAddr\000"
 7115      70726F6D 
 7115      526F7741 
 7115      64647200 
 7116              	.LASF100:
 7117 0885 65654461 		.ascii	"eeData\000"
 7117      746100
 7118              	.LASF33:
 7119 088c 43595F46 		.ascii	"CY_FLASH_DRV_OPCODE_BUSY\000"
 7119      4C415348 
 7119      5F445256 
 7119      5F4F5043 
 7119      4F44455F 
 7120              	.LASF22:
 7121 08a5 43595F46 		.ascii	"CY_FLASH_DRV_SUCCESS\000"
 7121      4C415348 
 7121      5F445256 
 7121      5F535543 
 7121      43455353 
 7122              		.ident	"GCC: (GNU Tools for ARM Embedded Processors) 5.4.1 20160609 (release) [ARM/embedded-5-bran
