ARM GAS  C:\Users\eduar\AppData\Local\Temp\ccwtx1iP.s 			page 1


   1              		.syntax unified
   2              		.cpu cortex-m4
   3              		.eabi_attribute 27, 1
   4              		.fpu fpv4-sp-d16
   5              		.eabi_attribute 20, 1
   6              		.eabi_attribute 21, 1
   7              		.eabi_attribute 23, 3
   8              		.eabi_attribute 24, 1
   9              		.eabi_attribute 25, 1
  10              		.eabi_attribute 26, 1
  11              		.eabi_attribute 30, 1
  12              		.eabi_attribute 34, 1
  13              		.eabi_attribute 18, 4
  14              		.thumb
  15              		.syntax unified
  16              		.file	"cy_em_eeprom.c"
  17              		.text
  18              	.Ltext0:
  19              		.cfi_sections	.debug_frame
  20              		.section	.text.FindLastWrittenRow,"ax",%progbits
  21              		.align	2
  22              		.thumb
  23              		.thumb_func
  24              		.type	FindLastWrittenRow, %function
  25              	FindLastWrittenRow:
  26              	.LFB137:
  27              		.file 1 "Generated_Source\\PSoC6\\pdl\\middleware\\em_eeprom\\cy_em_eeprom.c"
   1:Generated_Source\PSoC6\pdl\middleware\em_eeprom/cy_em_eeprom.c **** /***************************************************************************//**
   2:Generated_Source\PSoC6\pdl\middleware\em_eeprom/cy_em_eeprom.c **** * \file cy_em_eeprom.c
   3:Generated_Source\PSoC6\pdl\middleware\em_eeprom/cy_em_eeprom.c **** * \version 1.10
   4:Generated_Source\PSoC6\pdl\middleware\em_eeprom/cy_em_eeprom.c **** *
   5:Generated_Source\PSoC6\pdl\middleware\em_eeprom/cy_em_eeprom.c **** * \brief
   6:Generated_Source\PSoC6\pdl\middleware\em_eeprom/cy_em_eeprom.c **** *  This file provides source code of the API for the Emulated EEPROM library.
   7:Generated_Source\PSoC6\pdl\middleware\em_eeprom/cy_em_eeprom.c **** *  The Emulated EEPROM API allows creating of an emulated EEPROM in flash that
   8:Generated_Source\PSoC6\pdl\middleware\em_eeprom/cy_em_eeprom.c **** *  has the ability to do wear leveling and restore corrupted data from a
   9:Generated_Source\PSoC6\pdl\middleware\em_eeprom/cy_em_eeprom.c **** *  redundant copy.
  10:Generated_Source\PSoC6\pdl\middleware\em_eeprom/cy_em_eeprom.c **** *
  11:Generated_Source\PSoC6\pdl\middleware\em_eeprom/cy_em_eeprom.c **** ********************************************************************************
  12:Generated_Source\PSoC6\pdl\middleware\em_eeprom/cy_em_eeprom.c **** * \copyright
  13:Generated_Source\PSoC6\pdl\middleware\em_eeprom/cy_em_eeprom.c **** * Copyright 2017-2018, Cypress Semiconductor Corporation.  All rights reserved.
  14:Generated_Source\PSoC6\pdl\middleware\em_eeprom/cy_em_eeprom.c **** * You may use this file only in accordance with the license, terms, conditions,
  15:Generated_Source\PSoC6\pdl\middleware\em_eeprom/cy_em_eeprom.c **** * disclaimers, and limitations in the end user license agreement accompanying
  16:Generated_Source\PSoC6\pdl\middleware\em_eeprom/cy_em_eeprom.c **** * the software package with which this file was provided.
  17:Generated_Source\PSoC6\pdl\middleware\em_eeprom/cy_em_eeprom.c **** *******************************************************************************/
  18:Generated_Source\PSoC6\pdl\middleware\em_eeprom/cy_em_eeprom.c **** 
  19:Generated_Source\PSoC6\pdl\middleware\em_eeprom/cy_em_eeprom.c **** 
  20:Generated_Source\PSoC6\pdl\middleware\em_eeprom/cy_em_eeprom.c **** #include <string.h>
  21:Generated_Source\PSoC6\pdl\middleware\em_eeprom/cy_em_eeprom.c **** 
  22:Generated_Source\PSoC6\pdl\middleware\em_eeprom/cy_em_eeprom.c **** #include "cy_em_eeprom.h"
  23:Generated_Source\PSoC6\pdl\middleware\em_eeprom/cy_em_eeprom.c **** 
  24:Generated_Source\PSoC6\pdl\middleware\em_eeprom/cy_em_eeprom.c **** 
  25:Generated_Source\PSoC6\pdl\middleware\em_eeprom/cy_em_eeprom.c **** #if defined(__cplusplus)
  26:Generated_Source\PSoC6\pdl\middleware\em_eeprom/cy_em_eeprom.c **** extern "C" {
  27:Generated_Source\PSoC6\pdl\middleware\em_eeprom/cy_em_eeprom.c **** #endif
  28:Generated_Source\PSoC6\pdl\middleware\em_eeprom/cy_em_eeprom.c **** 
  29:Generated_Source\PSoC6\pdl\middleware\em_eeprom/cy_em_eeprom.c **** 
  30:Generated_Source\PSoC6\pdl\middleware\em_eeprom/cy_em_eeprom.c **** /***************************************
ARM GAS  C:\Users\eduar\AppData\Local\Temp\ccwtx1iP.s 			page 2


  31:Generated_Source\PSoC6\pdl\middleware\em_eeprom/cy_em_eeprom.c **** * Private Function Prototypes
  32:Generated_Source\PSoC6\pdl\middleware\em_eeprom/cy_em_eeprom.c **** ***************************************/
  33:Generated_Source\PSoC6\pdl\middleware\em_eeprom/cy_em_eeprom.c **** static void FindLastWrittenRow(uint32_t * lastWrRowPtr, cy_stc_eeprom_context_t * context);
  34:Generated_Source\PSoC6\pdl\middleware\em_eeprom/cy_em_eeprom.c **** static uint32_t GetRowAddrBySeqNum(uint32_t seqNum, cy_stc_eeprom_context_t * context);
  35:Generated_Source\PSoC6\pdl\middleware\em_eeprom/cy_em_eeprom.c **** static uint8_t CalcChecksum(uint8_t rowData[], uint32_t len);
  36:Generated_Source\PSoC6\pdl\middleware\em_eeprom/cy_em_eeprom.c **** static void GetNextRowToWrite(uint32_t seqNum,
  37:Generated_Source\PSoC6\pdl\middleware\em_eeprom/cy_em_eeprom.c ****                             uint32_t * rowToWrPtr,
  38:Generated_Source\PSoC6\pdl\middleware\em_eeprom/cy_em_eeprom.c ****                             uint32_t * rowToRdPtr,
  39:Generated_Source\PSoC6\pdl\middleware\em_eeprom/cy_em_eeprom.c ****                             cy_stc_eeprom_context_t * context);
  40:Generated_Source\PSoC6\pdl\middleware\em_eeprom/cy_em_eeprom.c **** static cy_en_em_eeprom_status_t CheckRanges(cy_stc_eeprom_config_t* config);
  41:Generated_Source\PSoC6\pdl\middleware\em_eeprom/cy_em_eeprom.c **** static cy_en_em_eeprom_status_t WriteRow(uint32_t rowAddr, uint32_t *rowData, cy_stc_eeprom_context
  42:Generated_Source\PSoC6\pdl\middleware\em_eeprom/cy_em_eeprom.c **** static cy_en_em_eeprom_status_t EraseRow(uint32_t rowAddr, uint32_t ramBuffAddr, cy_stc_eeprom_cont
  43:Generated_Source\PSoC6\pdl\middleware\em_eeprom/cy_em_eeprom.c **** static cy_en_em_eeprom_status_t CheckCrcAndCopy(uint32_t startAddr,
  44:Generated_Source\PSoC6\pdl\middleware\em_eeprom/cy_em_eeprom.c ****                                                 uint32_t dstAddr,
  45:Generated_Source\PSoC6\pdl\middleware\em_eeprom/cy_em_eeprom.c ****                                                 uint32_t rowOffset,
  46:Generated_Source\PSoC6\pdl\middleware\em_eeprom/cy_em_eeprom.c ****                                                 uint32_t numBytes,
  47:Generated_Source\PSoC6\pdl\middleware\em_eeprom/cy_em_eeprom.c ****                                                 cy_stc_eeprom_context_t * context);
  48:Generated_Source\PSoC6\pdl\middleware\em_eeprom/cy_em_eeprom.c **** static uint32_t GetAddresses(uint32_t *startAddr, uint32_t *endAddr, uint32_t *offset, uint32_t row
  49:Generated_Source\PSoC6\pdl\middleware\em_eeprom/cy_em_eeprom.c **** static cy_en_em_eeprom_status_t FillChecksum(cy_stc_eeprom_context_t * context);
  50:Generated_Source\PSoC6\pdl\middleware\em_eeprom/cy_em_eeprom.c **** 
  51:Generated_Source\PSoC6\pdl\middleware\em_eeprom/cy_em_eeprom.c **** /**
  52:Generated_Source\PSoC6\pdl\middleware\em_eeprom/cy_em_eeprom.c **** * \addtogroup group_em_eeprom_functions
  53:Generated_Source\PSoC6\pdl\middleware\em_eeprom/cy_em_eeprom.c **** * \{
  54:Generated_Source\PSoC6\pdl\middleware\em_eeprom/cy_em_eeprom.c **** */
  55:Generated_Source\PSoC6\pdl\middleware\em_eeprom/cy_em_eeprom.c **** 
  56:Generated_Source\PSoC6\pdl\middleware\em_eeprom/cy_em_eeprom.c **** /*******************************************************************************
  57:Generated_Source\PSoC6\pdl\middleware\em_eeprom/cy_em_eeprom.c **** * Function Name: Cy_Em_EEPROM_Init
  58:Generated_Source\PSoC6\pdl\middleware\em_eeprom/cy_em_eeprom.c **** ****************************************************************************//**
  59:Generated_Source\PSoC6\pdl\middleware\em_eeprom/cy_em_eeprom.c **** *
  60:Generated_Source\PSoC6\pdl\middleware\em_eeprom/cy_em_eeprom.c **** * Initializes the Emulated EEPROM library by filling the context structure. 
  61:Generated_Source\PSoC6\pdl\middleware\em_eeprom/cy_em_eeprom.c **** *
  62:Generated_Source\PSoC6\pdl\middleware\em_eeprom/cy_em_eeprom.c **** * \param config
  63:Generated_Source\PSoC6\pdl\middleware\em_eeprom/cy_em_eeprom.c **** * The pointer to a configuration structure. See \ref cy_stc_eeprom_config_t.
  64:Generated_Source\PSoC6\pdl\middleware\em_eeprom/cy_em_eeprom.c **** *
  65:Generated_Source\PSoC6\pdl\middleware\em_eeprom/cy_em_eeprom.c **** * \param context
  66:Generated_Source\PSoC6\pdl\middleware\em_eeprom/cy_em_eeprom.c **** * The pointer to the EEPROM context structure to be filled by the function.
  67:Generated_Source\PSoC6\pdl\middleware\em_eeprom/cy_em_eeprom.c **** * \ref cy_stc_eeprom_context_t.
  68:Generated_Source\PSoC6\pdl\middleware\em_eeprom/cy_em_eeprom.c **** *
  69:Generated_Source\PSoC6\pdl\middleware\em_eeprom/cy_em_eeprom.c **** * \return
  70:Generated_Source\PSoC6\pdl\middleware\em_eeprom/cy_em_eeprom.c **** * error / status code. See \ref cy_en_em_eeprom_status_t.
  71:Generated_Source\PSoC6\pdl\middleware\em_eeprom/cy_em_eeprom.c **** *
  72:Generated_Source\PSoC6\pdl\middleware\em_eeprom/cy_em_eeprom.c **** * \note
  73:Generated_Source\PSoC6\pdl\middleware\em_eeprom/cy_em_eeprom.c **** * The context structure should not be modified by the user after it is filled
  74:Generated_Source\PSoC6\pdl\middleware\em_eeprom/cy_em_eeprom.c **** * with this function. Modification of context structure may cause the 
  75:Generated_Source\PSoC6\pdl\middleware\em_eeprom/cy_em_eeprom.c **** * unexpected behavior of the Cy_Em_EEPROM API functions which rely on it.
  76:Generated_Source\PSoC6\pdl\middleware\em_eeprom/cy_em_eeprom.c **** *
  77:Generated_Source\PSoC6\pdl\middleware\em_eeprom/cy_em_eeprom.c **** * \note
  78:Generated_Source\PSoC6\pdl\middleware\em_eeprom/cy_em_eeprom.c **** * This function uses a buffer of the flash row size to perform read
  79:Generated_Source\PSoC6\pdl\middleware\em_eeprom/cy_em_eeprom.c **** * operation. For the size of the row refer to the specific PSoC device
  80:Generated_Source\PSoC6\pdl\middleware\em_eeprom/cy_em_eeprom.c **** * datasheet.
  81:Generated_Source\PSoC6\pdl\middleware\em_eeprom/cy_em_eeprom.c **** *
  82:Generated_Source\PSoC6\pdl\middleware\em_eeprom/cy_em_eeprom.c **** * \sideeffect 
  83:Generated_Source\PSoC6\pdl\middleware\em_eeprom/cy_em_eeprom.c **** * If the "Redundant Copy" option is used, the function performs a number of 
  84:Generated_Source\PSoC6\pdl\middleware\em_eeprom/cy_em_eeprom.c **** * write operations to the EEPROM to initialize flash rows checksums. Therefore,
  85:Generated_Source\PSoC6\pdl\middleware\em_eeprom/cy_em_eeprom.c **** * Cy_Em_EEPROM_NumWrites(), when it is called right after Cy_Em_EEPROM_Init(), 
  86:Generated_Source\PSoC6\pdl\middleware\em_eeprom/cy_em_eeprom.c **** * will return a non-zero value that identifies the number of writes performed 
  87:Generated_Source\PSoC6\pdl\middleware\em_eeprom/cy_em_eeprom.c **** * by Cy_Em_EEPROM_Init().
ARM GAS  C:\Users\eduar\AppData\Local\Temp\ccwtx1iP.s 			page 3


  88:Generated_Source\PSoC6\pdl\middleware\em_eeprom/cy_em_eeprom.c **** *
  89:Generated_Source\PSoC6\pdl\middleware\em_eeprom/cy_em_eeprom.c **** *******************************************************************************/
  90:Generated_Source\PSoC6\pdl\middleware\em_eeprom/cy_em_eeprom.c **** cy_en_em_eeprom_status_t Cy_Em_EEPROM_Init(cy_stc_eeprom_config_t* config, cy_stc_eeprom_context_t 
  91:Generated_Source\PSoC6\pdl\middleware\em_eeprom/cy_em_eeprom.c **** {
  92:Generated_Source\PSoC6\pdl\middleware\em_eeprom/cy_em_eeprom.c ****     cy_en_em_eeprom_status_t ret = CY_EM_EEPROM_BAD_PARAM;
  93:Generated_Source\PSoC6\pdl\middleware\em_eeprom/cy_em_eeprom.c **** 
  94:Generated_Source\PSoC6\pdl\middleware\em_eeprom/cy_em_eeprom.c ****     if((NULL != context) && (NULL != config) && (NULL != ((uint32_t *)config->userFlashStartAddr)) 
  95:Generated_Source\PSoC6\pdl\middleware\em_eeprom/cy_em_eeprom.c ****         (config->wearLevelingFactor <= CY_EM_EEPROM_MAX_WEAR_LEVELING_FACTOR) && (config->eepromSiz
  96:Generated_Source\PSoC6\pdl\middleware\em_eeprom/cy_em_eeprom.c ****     {
  97:Generated_Source\PSoC6\pdl\middleware\em_eeprom/cy_em_eeprom.c ****         ret = CheckRanges(config);
  98:Generated_Source\PSoC6\pdl\middleware\em_eeprom/cy_em_eeprom.c **** 
  99:Generated_Source\PSoC6\pdl\middleware\em_eeprom/cy_em_eeprom.c ****         if(CY_EM_EEPROM_SUCCESS == ret)
 100:Generated_Source\PSoC6\pdl\middleware\em_eeprom/cy_em_eeprom.c ****         {
 101:Generated_Source\PSoC6\pdl\middleware\em_eeprom/cy_em_eeprom.c ****             /* Copy the user config structure fields into context */
 102:Generated_Source\PSoC6\pdl\middleware\em_eeprom/cy_em_eeprom.c ****             context->eepromSize = config->eepromSize;
 103:Generated_Source\PSoC6\pdl\middleware\em_eeprom/cy_em_eeprom.c ****             context->wearLevelingFactor = config->wearLevelingFactor;
 104:Generated_Source\PSoC6\pdl\middleware\em_eeprom/cy_em_eeprom.c ****             context->redundantCopy = config->redundantCopy;
 105:Generated_Source\PSoC6\pdl\middleware\em_eeprom/cy_em_eeprom.c ****             context->blockingWrite = config->blockingWrite;
 106:Generated_Source\PSoC6\pdl\middleware\em_eeprom/cy_em_eeprom.c ****             context->userFlashStartAddr = config->userFlashStartAddr;
 107:Generated_Source\PSoC6\pdl\middleware\em_eeprom/cy_em_eeprom.c ****             /* Store frequently used data for internal use */
 108:Generated_Source\PSoC6\pdl\middleware\em_eeprom/cy_em_eeprom.c ****             context->numberOfRows = CY_EM_EEPROM_GET_NUM_ROWS_IN_EEPROM(config->eepromSize);
 109:Generated_Source\PSoC6\pdl\middleware\em_eeprom/cy_em_eeprom.c ****             context->wlEndAddr = ((CY_EM_EEPROM_GET_EEPROM_SIZE(context->numberOfRows) * config->we
 110:Generated_Source\PSoC6\pdl\middleware\em_eeprom/cy_em_eeprom.c ****                     config->userFlashStartAddr);
 111:Generated_Source\PSoC6\pdl\middleware\em_eeprom/cy_em_eeprom.c ****             /* Find last written EEPROM row and store it for quick access */
 112:Generated_Source\PSoC6\pdl\middleware\em_eeprom/cy_em_eeprom.c ****             FindLastWrittenRow(&context->lastWrRowAddr, context);
 113:Generated_Source\PSoC6\pdl\middleware\em_eeprom/cy_em_eeprom.c **** 
 114:Generated_Source\PSoC6\pdl\middleware\em_eeprom/cy_em_eeprom.c ****             if((0u == CY_EM_EEPROM_GET_SEQ_NUM(context->lastWrRowAddr)) && (0u != context->redundan
 115:Generated_Source\PSoC6\pdl\middleware\em_eeprom/cy_em_eeprom.c ****             {
 116:Generated_Source\PSoC6\pdl\middleware\em_eeprom/cy_em_eeprom.c ****                 /* Call the function only after device reprogramming in case
 117:Generated_Source\PSoC6\pdl\middleware\em_eeprom/cy_em_eeprom.c ****                 * if redundant copy is enabled.
 118:Generated_Source\PSoC6\pdl\middleware\em_eeprom/cy_em_eeprom.c ****                 */
 119:Generated_Source\PSoC6\pdl\middleware\em_eeprom/cy_em_eeprom.c ****                 ret = FillChecksum(context);
 120:Generated_Source\PSoC6\pdl\middleware\em_eeprom/cy_em_eeprom.c ****                 
 121:Generated_Source\PSoC6\pdl\middleware\em_eeprom/cy_em_eeprom.c ****                 /* Update the last written EEPROM row for Cy_Em_EEPROM_NumWrites() */
 122:Generated_Source\PSoC6\pdl\middleware\em_eeprom/cy_em_eeprom.c ****                 FindLastWrittenRow(&context->lastWrRowAddr, context);
 123:Generated_Source\PSoC6\pdl\middleware\em_eeprom/cy_em_eeprom.c ****             }
 124:Generated_Source\PSoC6\pdl\middleware\em_eeprom/cy_em_eeprom.c ****         }
 125:Generated_Source\PSoC6\pdl\middleware\em_eeprom/cy_em_eeprom.c ****     }
 126:Generated_Source\PSoC6\pdl\middleware\em_eeprom/cy_em_eeprom.c **** 
 127:Generated_Source\PSoC6\pdl\middleware\em_eeprom/cy_em_eeprom.c ****     return(ret);
 128:Generated_Source\PSoC6\pdl\middleware\em_eeprom/cy_em_eeprom.c **** }
 129:Generated_Source\PSoC6\pdl\middleware\em_eeprom/cy_em_eeprom.c **** 
 130:Generated_Source\PSoC6\pdl\middleware\em_eeprom/cy_em_eeprom.c **** 
 131:Generated_Source\PSoC6\pdl\middleware\em_eeprom/cy_em_eeprom.c **** /*******************************************************************************
 132:Generated_Source\PSoC6\pdl\middleware\em_eeprom/cy_em_eeprom.c **** * Function Name: Cy_Em_EEPROM_Read
 133:Generated_Source\PSoC6\pdl\middleware\em_eeprom/cy_em_eeprom.c **** ****************************************************************************//**
 134:Generated_Source\PSoC6\pdl\middleware\em_eeprom/cy_em_eeprom.c **** *
 135:Generated_Source\PSoC6\pdl\middleware\em_eeprom/cy_em_eeprom.c **** * This function takes the logical EEPROM address, converts it to the actual
 136:Generated_Source\PSoC6\pdl\middleware\em_eeprom/cy_em_eeprom.c **** * physical address where the data is stored and returns the data to the user.
 137:Generated_Source\PSoC6\pdl\middleware\em_eeprom/cy_em_eeprom.c **** *
 138:Generated_Source\PSoC6\pdl\middleware\em_eeprom/cy_em_eeprom.c **** * \param addr
 139:Generated_Source\PSoC6\pdl\middleware\em_eeprom/cy_em_eeprom.c **** * The logical start address in EEPROM to start reading data from.
 140:Generated_Source\PSoC6\pdl\middleware\em_eeprom/cy_em_eeprom.c **** *
 141:Generated_Source\PSoC6\pdl\middleware\em_eeprom/cy_em_eeprom.c **** * \param eepromData
 142:Generated_Source\PSoC6\pdl\middleware\em_eeprom/cy_em_eeprom.c **** * The pointer to a user array to write data to.
 143:Generated_Source\PSoC6\pdl\middleware\em_eeprom/cy_em_eeprom.c **** *
 144:Generated_Source\PSoC6\pdl\middleware\em_eeprom/cy_em_eeprom.c **** * \param size
ARM GAS  C:\Users\eduar\AppData\Local\Temp\ccwtx1iP.s 			page 4


 145:Generated_Source\PSoC6\pdl\middleware\em_eeprom/cy_em_eeprom.c **** * The amount of data to read.
 146:Generated_Source\PSoC6\pdl\middleware\em_eeprom/cy_em_eeprom.c **** *
 147:Generated_Source\PSoC6\pdl\middleware\em_eeprom/cy_em_eeprom.c **** * \param context
 148:Generated_Source\PSoC6\pdl\middleware\em_eeprom/cy_em_eeprom.c **** * The pointer to the EEPROM context structure \ref cy_stc_eeprom_context_t.
 149:Generated_Source\PSoC6\pdl\middleware\em_eeprom/cy_em_eeprom.c **** *
 150:Generated_Source\PSoC6\pdl\middleware\em_eeprom/cy_em_eeprom.c **** * \return
 151:Generated_Source\PSoC6\pdl\middleware\em_eeprom/cy_em_eeprom.c **** * This function returns \ref cy_en_em_eeprom_status_t.
 152:Generated_Source\PSoC6\pdl\middleware\em_eeprom/cy_em_eeprom.c **** *
 153:Generated_Source\PSoC6\pdl\middleware\em_eeprom/cy_em_eeprom.c **** * \note
 154:Generated_Source\PSoC6\pdl\middleware\em_eeprom/cy_em_eeprom.c **** * This function uses a buffer of the flash row size to perform read
 155:Generated_Source\PSoC6\pdl\middleware\em_eeprom/cy_em_eeprom.c **** * operation. For the size of the row refer to the specific PSoC device
 156:Generated_Source\PSoC6\pdl\middleware\em_eeprom/cy_em_eeprom.c **** * datasheet.
 157:Generated_Source\PSoC6\pdl\middleware\em_eeprom/cy_em_eeprom.c **** *
 158:Generated_Source\PSoC6\pdl\middleware\em_eeprom/cy_em_eeprom.c **** * \note
 159:Generated_Source\PSoC6\pdl\middleware\em_eeprom/cy_em_eeprom.c **** * In case if redundant copy option is enabled the function may perform writes
 160:Generated_Source\PSoC6\pdl\middleware\em_eeprom/cy_em_eeprom.c **** * to EEPROM. This is done in case if the data in the EEPPROM is corrupted and
 161:Generated_Source\PSoC6\pdl\middleware\em_eeprom/cy_em_eeprom.c **** * the data in redundant copy is valid based on CRC-8 data integrity check.
 162:Generated_Source\PSoC6\pdl\middleware\em_eeprom/cy_em_eeprom.c **** *
 163:Generated_Source\PSoC6\pdl\middleware\em_eeprom/cy_em_eeprom.c **** *******************************************************************************/
 164:Generated_Source\PSoC6\pdl\middleware\em_eeprom/cy_em_eeprom.c **** cy_en_em_eeprom_status_t Cy_Em_EEPROM_Read(uint32_t addr, 
 165:Generated_Source\PSoC6\pdl\middleware\em_eeprom/cy_em_eeprom.c ****                                         void * eepromData, 
 166:Generated_Source\PSoC6\pdl\middleware\em_eeprom/cy_em_eeprom.c ****                                         uint32_t size,
 167:Generated_Source\PSoC6\pdl\middleware\em_eeprom/cy_em_eeprom.c ****                                         cy_stc_eeprom_context_t * context)
 168:Generated_Source\PSoC6\pdl\middleware\em_eeprom/cy_em_eeprom.c **** {
 169:Generated_Source\PSoC6\pdl\middleware\em_eeprom/cy_em_eeprom.c ****     cy_en_em_eeprom_status_t ret = CY_EM_EEPROM_BAD_PARAM;
 170:Generated_Source\PSoC6\pdl\middleware\em_eeprom/cy_em_eeprom.c ****     uint32_t i;
 171:Generated_Source\PSoC6\pdl\middleware\em_eeprom/cy_em_eeprom.c ****     uint32_t numBytesToRead;
 172:Generated_Source\PSoC6\pdl\middleware\em_eeprom/cy_em_eeprom.c ****     uint32_t curEepromBaseAddr;
 173:Generated_Source\PSoC6\pdl\middleware\em_eeprom/cy_em_eeprom.c ****     uint32_t curRowOffset;
 174:Generated_Source\PSoC6\pdl\middleware\em_eeprom/cy_em_eeprom.c ****     uint32_t startRowAddr;
 175:Generated_Source\PSoC6\pdl\middleware\em_eeprom/cy_em_eeprom.c ****     uint32_t actEepromRowNum;
 176:Generated_Source\PSoC6\pdl\middleware\em_eeprom/cy_em_eeprom.c ****     uint32_t curRdEepromRowNum = 0u;
 177:Generated_Source\PSoC6\pdl\middleware\em_eeprom/cy_em_eeprom.c ****     uint32_t dataStartEepromRowNum = 0u;
 178:Generated_Source\PSoC6\pdl\middleware\em_eeprom/cy_em_eeprom.c ****     uint32_t eeData = (uint32_t) eepromData; /* To avoid the pointer arithmetic with void */
 179:Generated_Source\PSoC6\pdl\middleware\em_eeprom/cy_em_eeprom.c **** 
 180:Generated_Source\PSoC6\pdl\middleware\em_eeprom/cy_em_eeprom.c ****     /* Validate input parameters */
 181:Generated_Source\PSoC6\pdl\middleware\em_eeprom/cy_em_eeprom.c ****     if((0u != size) && ((addr + size) <= (context->eepromSize)) && (NULL != eepromData))
 182:Generated_Source\PSoC6\pdl\middleware\em_eeprom/cy_em_eeprom.c ****     {
 183:Generated_Source\PSoC6\pdl\middleware\em_eeprom/cy_em_eeprom.c ****         uint32_t rdAddr = addr;
 184:Generated_Source\PSoC6\pdl\middleware\em_eeprom/cy_em_eeprom.c ****         uint32_t rdSize = size;
 185:Generated_Source\PSoC6\pdl\middleware\em_eeprom/cy_em_eeprom.c ****         /* Get the sequence number of the last written row */
 186:Generated_Source\PSoC6\pdl\middleware\em_eeprom/cy_em_eeprom.c ****         uint32_t seqNum = CY_EM_EEPROM_GET_SEQ_NUM(context->lastWrRowAddr);
 187:Generated_Source\PSoC6\pdl\middleware\em_eeprom/cy_em_eeprom.c ****         uint32_t updateAddrFlag = 0u;
 188:Generated_Source\PSoC6\pdl\middleware\em_eeprom/cy_em_eeprom.c **** 
 189:Generated_Source\PSoC6\pdl\middleware\em_eeprom/cy_em_eeprom.c ****         /* Calculate the number of the row read operations. Currently this only concerns
 190:Generated_Source\PSoC6\pdl\middleware\em_eeprom/cy_em_eeprom.c ****         * the reads from the EEPROM data locations.
 191:Generated_Source\PSoC6\pdl\middleware\em_eeprom/cy_em_eeprom.c ****         */
 192:Generated_Source\PSoC6\pdl\middleware\em_eeprom/cy_em_eeprom.c ****         uint32_t numRowReads = ((((rdAddr + rdSize) - 1u) / CY_EM_EEPROM_EEPROM_DATA_LEN) -
 193:Generated_Source\PSoC6\pdl\middleware\em_eeprom/cy_em_eeprom.c ****                               (rdAddr / CY_EM_EEPROM_EEPROM_DATA_LEN)) + 1u;
 194:Generated_Source\PSoC6\pdl\middleware\em_eeprom/cy_em_eeprom.c **** 
 195:Generated_Source\PSoC6\pdl\middleware\em_eeprom/cy_em_eeprom.c ****         /* Get the address of the first row of the currently active EEPROM sector. If
 196:Generated_Source\PSoC6\pdl\middleware\em_eeprom/cy_em_eeprom.c ****         * no wear leveling is used - the EEPROM has only one sector, so use the base
 197:Generated_Source\PSoC6\pdl\middleware\em_eeprom/cy_em_eeprom.c ****         * addr stored in "context->userFlashStartAddr".
 198:Generated_Source\PSoC6\pdl\middleware\em_eeprom/cy_em_eeprom.c ****         */
 199:Generated_Source\PSoC6\pdl\middleware\em_eeprom/cy_em_eeprom.c ****         curEepromBaseAddr = (((context->lastWrRowAddr - context->userFlashStartAddr) /
 200:Generated_Source\PSoC6\pdl\middleware\em_eeprom/cy_em_eeprom.c ****                               (CY_EM_EEPROM_FLASH_SIZEOF_ROW * context->numberOfRows)) *
 201:Generated_Source\PSoC6\pdl\middleware\em_eeprom/cy_em_eeprom.c ****                               (CY_EM_EEPROM_FLASH_SIZEOF_ROW * context->numberOfRows)) +
ARM GAS  C:\Users\eduar\AppData\Local\Temp\ccwtx1iP.s 			page 5


 202:Generated_Source\PSoC6\pdl\middleware\em_eeprom/cy_em_eeprom.c ****                                context->userFlashStartAddr;
 203:Generated_Source\PSoC6\pdl\middleware\em_eeprom/cy_em_eeprom.c **** 
 204:Generated_Source\PSoC6\pdl\middleware\em_eeprom/cy_em_eeprom.c ****         /* Find the number of the row that contains the start address of the data */
 205:Generated_Source\PSoC6\pdl\middleware\em_eeprom/cy_em_eeprom.c ****         for(i = 0u; i < context->numberOfRows; i++)
 206:Generated_Source\PSoC6\pdl\middleware\em_eeprom/cy_em_eeprom.c ****         {
 207:Generated_Source\PSoC6\pdl\middleware\em_eeprom/cy_em_eeprom.c ****             if(0u != CY_EM_EEPROM_IS_ADDR_IN_ROW_RANGE(rdAddr, i))
 208:Generated_Source\PSoC6\pdl\middleware\em_eeprom/cy_em_eeprom.c ****             {
 209:Generated_Source\PSoC6\pdl\middleware\em_eeprom/cy_em_eeprom.c ****                 dataStartEepromRowNum = i;
 210:Generated_Source\PSoC6\pdl\middleware\em_eeprom/cy_em_eeprom.c ****                 curRdEepromRowNum = dataStartEepromRowNum;
 211:Generated_Source\PSoC6\pdl\middleware\em_eeprom/cy_em_eeprom.c ****                 break;
 212:Generated_Source\PSoC6\pdl\middleware\em_eeprom/cy_em_eeprom.c ****             }
 213:Generated_Source\PSoC6\pdl\middleware\em_eeprom/cy_em_eeprom.c ****         }
 214:Generated_Source\PSoC6\pdl\middleware\em_eeprom/cy_em_eeprom.c **** 
 215:Generated_Source\PSoC6\pdl\middleware\em_eeprom/cy_em_eeprom.c ****         /* Find the row number of the last written row */
 216:Generated_Source\PSoC6\pdl\middleware\em_eeprom/cy_em_eeprom.c ****         actEepromRowNum = (context->lastWrRowAddr - curEepromBaseAddr) / CY_EM_EEPROM_FLASH_SIZEOF_
 217:Generated_Source\PSoC6\pdl\middleware\em_eeprom/cy_em_eeprom.c **** 
 218:Generated_Source\PSoC6\pdl\middleware\em_eeprom/cy_em_eeprom.c ****         /* Check if wear leveling is used */
 219:Generated_Source\PSoC6\pdl\middleware\em_eeprom/cy_em_eeprom.c ****         if(context->wearLevelingFactor > 1u)
 220:Generated_Source\PSoC6\pdl\middleware\em_eeprom/cy_em_eeprom.c ****         {
 221:Generated_Source\PSoC6\pdl\middleware\em_eeprom/cy_em_eeprom.c ****             uint32_t dataEndEepromRowNum = dataStartEepromRowNum + (numRowReads - 1u);
 222:Generated_Source\PSoC6\pdl\middleware\em_eeprom/cy_em_eeprom.c **** 
 223:Generated_Source\PSoC6\pdl\middleware\em_eeprom/cy_em_eeprom.c ****             /* Check if the future validation of the read address is required. */
 224:Generated_Source\PSoC6\pdl\middleware\em_eeprom/cy_em_eeprom.c ****             updateAddrFlag = (dataStartEepromRowNum > actEepromRowNum) ? 1u :
 225:Generated_Source\PSoC6\pdl\middleware\em_eeprom/cy_em_eeprom.c ****                               ((dataEndEepromRowNum > actEepromRowNum) ? 1u : 0u);
 226:Generated_Source\PSoC6\pdl\middleware\em_eeprom/cy_em_eeprom.c ****         }
 227:Generated_Source\PSoC6\pdl\middleware\em_eeprom/cy_em_eeprom.c **** 
 228:Generated_Source\PSoC6\pdl\middleware\em_eeprom/cy_em_eeprom.c ****         /* Copy data from the EEPROM data locations to the user buffer */
 229:Generated_Source\PSoC6\pdl\middleware\em_eeprom/cy_em_eeprom.c ****         for(i = 0u; i < numRowReads; i++)
 230:Generated_Source\PSoC6\pdl\middleware\em_eeprom/cy_em_eeprom.c ****         {
 231:Generated_Source\PSoC6\pdl\middleware\em_eeprom/cy_em_eeprom.c ****             startRowAddr = curEepromBaseAddr + (curRdEepromRowNum * CY_EM_EEPROM_FLASH_SIZEOF_ROW);
 232:Generated_Source\PSoC6\pdl\middleware\em_eeprom/cy_em_eeprom.c ****             curRowOffset = CY_EM_EEPROM_EEPROM_DATA_LEN + (rdAddr % CY_EM_EEPROM_EEPROM_DATA_LEN);
 233:Generated_Source\PSoC6\pdl\middleware\em_eeprom/cy_em_eeprom.c **** 
 234:Generated_Source\PSoC6\pdl\middleware\em_eeprom/cy_em_eeprom.c ****             /* Check if there are more reads pending and update the number of the
 235:Generated_Source\PSoC6\pdl\middleware\em_eeprom/cy_em_eeprom.c ****             * remaining bytes to read respectively.
 236:Generated_Source\PSoC6\pdl\middleware\em_eeprom/cy_em_eeprom.c ****             */
 237:Generated_Source\PSoC6\pdl\middleware\em_eeprom/cy_em_eeprom.c ****             if((i + 1u) < numRowReads)
 238:Generated_Source\PSoC6\pdl\middleware\em_eeprom/cy_em_eeprom.c ****             {
 239:Generated_Source\PSoC6\pdl\middleware\em_eeprom/cy_em_eeprom.c ****                 numBytesToRead = CY_EM_EEPROM_EEPROM_DATA_LEN - (rdAddr % CY_EM_EEPROM_EEPROM_DATA_
 240:Generated_Source\PSoC6\pdl\middleware\em_eeprom/cy_em_eeprom.c ****             }
 241:Generated_Source\PSoC6\pdl\middleware\em_eeprom/cy_em_eeprom.c ****             else
 242:Generated_Source\PSoC6\pdl\middleware\em_eeprom/cy_em_eeprom.c ****             {
 243:Generated_Source\PSoC6\pdl\middleware\em_eeprom/cy_em_eeprom.c ****                 numBytesToRead = rdSize;
 244:Generated_Source\PSoC6\pdl\middleware\em_eeprom/cy_em_eeprom.c ****             }
 245:Generated_Source\PSoC6\pdl\middleware\em_eeprom/cy_em_eeprom.c **** 
 246:Generated_Source\PSoC6\pdl\middleware\em_eeprom/cy_em_eeprom.c ****             /* Check if the read address needs to be updated to point to the correct
 247:Generated_Source\PSoC6\pdl\middleware\em_eeprom/cy_em_eeprom.c ****             * EEPROM sector.
 248:Generated_Source\PSoC6\pdl\middleware\em_eeprom/cy_em_eeprom.c ****             */
 249:Generated_Source\PSoC6\pdl\middleware\em_eeprom/cy_em_eeprom.c ****             if((0u != updateAddrFlag) && (curRdEepromRowNum > actEepromRowNum))
 250:Generated_Source\PSoC6\pdl\middleware\em_eeprom/cy_em_eeprom.c ****             {
 251:Generated_Source\PSoC6\pdl\middleware\em_eeprom/cy_em_eeprom.c ****                 startRowAddr -= context->numberOfRows * CY_EM_EEPROM_FLASH_SIZEOF_ROW;
 252:Generated_Source\PSoC6\pdl\middleware\em_eeprom/cy_em_eeprom.c **** 
 253:Generated_Source\PSoC6\pdl\middleware\em_eeprom/cy_em_eeprom.c ****                 if(startRowAddr < context->userFlashStartAddr)
 254:Generated_Source\PSoC6\pdl\middleware\em_eeprom/cy_em_eeprom.c ****                 {
 255:Generated_Source\PSoC6\pdl\middleware\em_eeprom/cy_em_eeprom.c ****                     startRowAddr = context->wlEndAddr -
 256:Generated_Source\PSoC6\pdl\middleware\em_eeprom/cy_em_eeprom.c ****                         ((context->numberOfRows - curRdEepromRowNum) * CY_EM_EEPROM_FLASH_SIZEOF_RO
 257:Generated_Source\PSoC6\pdl\middleware\em_eeprom/cy_em_eeprom.c ****                 }
 258:Generated_Source\PSoC6\pdl\middleware\em_eeprom/cy_em_eeprom.c ****             }
ARM GAS  C:\Users\eduar\AppData\Local\Temp\ccwtx1iP.s 			page 6


 259:Generated_Source\PSoC6\pdl\middleware\em_eeprom/cy_em_eeprom.c **** 
 260:Generated_Source\PSoC6\pdl\middleware\em_eeprom/cy_em_eeprom.c ****             if(0u != context->redundantCopy)
 261:Generated_Source\PSoC6\pdl\middleware\em_eeprom/cy_em_eeprom.c ****             {
 262:Generated_Source\PSoC6\pdl\middleware\em_eeprom/cy_em_eeprom.c ****                 /* Check a checksum of the EEPROM row and if it is bad, check a checksum in
 263:Generated_Source\PSoC6\pdl\middleware\em_eeprom/cy_em_eeprom.c ****                 * the corresponding row in redundant copy, otherwise return failure.
 264:Generated_Source\PSoC6\pdl\middleware\em_eeprom/cy_em_eeprom.c ****                 */
 265:Generated_Source\PSoC6\pdl\middleware\em_eeprom/cy_em_eeprom.c ****                 ret = CheckCrcAndCopy(startRowAddr, eeData, curRowOffset, numBytesToRead, context);
 266:Generated_Source\PSoC6\pdl\middleware\em_eeprom/cy_em_eeprom.c **** 
 267:Generated_Source\PSoC6\pdl\middleware\em_eeprom/cy_em_eeprom.c ****                 if(CY_EM_EEPROM_SUCCESS != ret)
 268:Generated_Source\PSoC6\pdl\middleware\em_eeprom/cy_em_eeprom.c ****                 {
 269:Generated_Source\PSoC6\pdl\middleware\em_eeprom/cy_em_eeprom.c ****                     break;
 270:Generated_Source\PSoC6\pdl\middleware\em_eeprom/cy_em_eeprom.c ****                 }
 271:Generated_Source\PSoC6\pdl\middleware\em_eeprom/cy_em_eeprom.c ****             }
 272:Generated_Source\PSoC6\pdl\middleware\em_eeprom/cy_em_eeprom.c ****             else
 273:Generated_Source\PSoC6\pdl\middleware\em_eeprom/cy_em_eeprom.c ****             {
 274:Generated_Source\PSoC6\pdl\middleware\em_eeprom/cy_em_eeprom.c ****                 /* Copy the data to the user buffer */
 275:Generated_Source\PSoC6\pdl\middleware\em_eeprom/cy_em_eeprom.c ****                 (void)memcpy((void *)(eeData),
 276:Generated_Source\PSoC6\pdl\middleware\em_eeprom/cy_em_eeprom.c ****                              (void *)(startRowAddr + curRowOffset),
 277:Generated_Source\PSoC6\pdl\middleware\em_eeprom/cy_em_eeprom.c ****                              numBytesToRead);
 278:Generated_Source\PSoC6\pdl\middleware\em_eeprom/cy_em_eeprom.c **** 
 279:Generated_Source\PSoC6\pdl\middleware\em_eeprom/cy_em_eeprom.c ****                 /* Indicate success to be able to execute next code block */
 280:Generated_Source\PSoC6\pdl\middleware\em_eeprom/cy_em_eeprom.c ****                 ret = CY_EM_EEPROM_SUCCESS;
 281:Generated_Source\PSoC6\pdl\middleware\em_eeprom/cy_em_eeprom.c ****             }
 282:Generated_Source\PSoC6\pdl\middleware\em_eeprom/cy_em_eeprom.c **** 
 283:Generated_Source\PSoC6\pdl\middleware\em_eeprom/cy_em_eeprom.c ****             /* Update variables anticipated in the read operation */
 284:Generated_Source\PSoC6\pdl\middleware\em_eeprom/cy_em_eeprom.c ****             rdAddr += numBytesToRead;
 285:Generated_Source\PSoC6\pdl\middleware\em_eeprom/cy_em_eeprom.c ****             rdSize -= numBytesToRead;
 286:Generated_Source\PSoC6\pdl\middleware\em_eeprom/cy_em_eeprom.c ****             eeData += numBytesToRead;
 287:Generated_Source\PSoC6\pdl\middleware\em_eeprom/cy_em_eeprom.c ****             curRdEepromRowNum++;
 288:Generated_Source\PSoC6\pdl\middleware\em_eeprom/cy_em_eeprom.c ****         }
 289:Generated_Source\PSoC6\pdl\middleware\em_eeprom/cy_em_eeprom.c **** 
 290:Generated_Source\PSoC6\pdl\middleware\em_eeprom/cy_em_eeprom.c ****         /* This code block will copy the latest data from the EEPROM headers into the
 291:Generated_Source\PSoC6\pdl\middleware\em_eeprom/cy_em_eeprom.c ****         * user buffer. The data previously copied into the user buffer may be updated
 292:Generated_Source\PSoC6\pdl\middleware\em_eeprom/cy_em_eeprom.c ****         * as the EEPROM headers contain more recent data. 
 293:Generated_Source\PSoC6\pdl\middleware\em_eeprom/cy_em_eeprom.c ****         * The code block is executed when two following conditions are true:
 294:Generated_Source\PSoC6\pdl\middleware\em_eeprom/cy_em_eeprom.c ****         *  1) The reads from "historic" data locations were successful;
 295:Generated_Source\PSoC6\pdl\middleware\em_eeprom/cy_em_eeprom.c ****         *  2) The user performed at least one write operation to Em_EEPROM (0u !=
 296:Generated_Source\PSoC6\pdl\middleware\em_eeprom/cy_em_eeprom.c ****         *     seqNum).        
 297:Generated_Source\PSoC6\pdl\middleware\em_eeprom/cy_em_eeprom.c ****         */
 298:Generated_Source\PSoC6\pdl\middleware\em_eeprom/cy_em_eeprom.c ****         if((CY_EM_EEPROM_SUCCESS == ret) && (0u != seqNum))
 299:Generated_Source\PSoC6\pdl\middleware\em_eeprom/cy_em_eeprom.c ****         {
 300:Generated_Source\PSoC6\pdl\middleware\em_eeprom/cy_em_eeprom.c ****             numRowReads = (context->numberOfRows <= seqNum) ? (context->numberOfRows) : (seqNum);
 301:Generated_Source\PSoC6\pdl\middleware\em_eeprom/cy_em_eeprom.c ****             numRowReads--;
 302:Generated_Source\PSoC6\pdl\middleware\em_eeprom/cy_em_eeprom.c **** 
 303:Generated_Source\PSoC6\pdl\middleware\em_eeprom/cy_em_eeprom.c ****             for(i = (seqNum - numRowReads); i <= seqNum; i++)
 304:Generated_Source\PSoC6\pdl\middleware\em_eeprom/cy_em_eeprom.c ****             {
 305:Generated_Source\PSoC6\pdl\middleware\em_eeprom/cy_em_eeprom.c ****                 startRowAddr = GetRowAddrBySeqNum(i, context);
 306:Generated_Source\PSoC6\pdl\middleware\em_eeprom/cy_em_eeprom.c **** 
 307:Generated_Source\PSoC6\pdl\middleware\em_eeprom/cy_em_eeprom.c ****                 if (0u != startRowAddr)
 308:Generated_Source\PSoC6\pdl\middleware\em_eeprom/cy_em_eeprom.c ****                 {
 309:Generated_Source\PSoC6\pdl\middleware\em_eeprom/cy_em_eeprom.c ****                     /* The following variables are introduced to increase code readability. */
 310:Generated_Source\PSoC6\pdl\middleware\em_eeprom/cy_em_eeprom.c ****                     uint32_t startAddr  = *(uint32_t *)(startRowAddr + CY_EM_EEPROM_HEADER_ADDR_OFF
 311:Generated_Source\PSoC6\pdl\middleware\em_eeprom/cy_em_eeprom.c ****                     uint32_t endAddr    = startAddr + (*(uint32_t *)(startRowAddr + CY_EM_EEPROM_HE
 312:Generated_Source\PSoC6\pdl\middleware\em_eeprom/cy_em_eeprom.c **** 
 313:Generated_Source\PSoC6\pdl\middleware\em_eeprom/cy_em_eeprom.c ****                     /* Check if the current row EEPROM header contains the data requested for read 
 314:Generated_Source\PSoC6\pdl\middleware\em_eeprom/cy_em_eeprom.c ****                     if(0u != CY_EM_EEPROM_IS_ADDRESES_CROSSING(startAddr, endAddr, addr, addr + siz
 315:Generated_Source\PSoC6\pdl\middleware\em_eeprom/cy_em_eeprom.c ****                     {
ARM GAS  C:\Users\eduar\AppData\Local\Temp\ccwtx1iP.s 			page 7


 316:Generated_Source\PSoC6\pdl\middleware\em_eeprom/cy_em_eeprom.c ****                         uint32_t srcOffset = (startAddr > addr) ? (0u) : (addr - startAddr);
 317:Generated_Source\PSoC6\pdl\middleware\em_eeprom/cy_em_eeprom.c ****                         uint32_t dstOffset = (startAddr > addr) ? (startAddr - addr): (0u);
 318:Generated_Source\PSoC6\pdl\middleware\em_eeprom/cy_em_eeprom.c ****                         rdAddr = (startAddr > addr) ? (startAddr) : (addr);
 319:Generated_Source\PSoC6\pdl\middleware\em_eeprom/cy_em_eeprom.c **** 
 320:Generated_Source\PSoC6\pdl\middleware\em_eeprom/cy_em_eeprom.c ****                         srcOffset += CY_EM_EEPROM_HEADER_DATA_OFFSET;
 321:Generated_Source\PSoC6\pdl\middleware\em_eeprom/cy_em_eeprom.c **** 
 322:Generated_Source\PSoC6\pdl\middleware\em_eeprom/cy_em_eeprom.c ****                         /* Calculate the number of bytes to be read from the current row's EEPROM h
 323:Generated_Source\PSoC6\pdl\middleware\em_eeprom/cy_em_eeprom.c ****                         numBytesToRead = ((endAddr < (addr + size)) ? endAddr : (addr + size)) - rd
 324:Generated_Source\PSoC6\pdl\middleware\em_eeprom/cy_em_eeprom.c **** 
 325:Generated_Source\PSoC6\pdl\middleware\em_eeprom/cy_em_eeprom.c ****                         /* Calculate the offset in the user buffer from which the data will be upda
 326:Generated_Source\PSoC6\pdl\middleware\em_eeprom/cy_em_eeprom.c ****                         eeData = ((uint32_t)eepromData) + dstOffset;
 327:Generated_Source\PSoC6\pdl\middleware\em_eeprom/cy_em_eeprom.c **** 
 328:Generated_Source\PSoC6\pdl\middleware\em_eeprom/cy_em_eeprom.c ****                         /* Check a checksum of the EEPROM row and if it is bad, check a checksum in
 329:Generated_Source\PSoC6\pdl\middleware\em_eeprom/cy_em_eeprom.c ****                         * corresponding row in redundant copy, otherwise return failure. Copy the d
 330:Generated_Source\PSoC6\pdl\middleware\em_eeprom/cy_em_eeprom.c ****                         * from the recent EEPROM headers to the user buffer. This will overwrite th
 331:Generated_Source\PSoC6\pdl\middleware\em_eeprom/cy_em_eeprom.c ****                         * data copied form EEPROM data locations as the data in EEPROM headers is n
 332:Generated_Source\PSoC6\pdl\middleware\em_eeprom/cy_em_eeprom.c ****                         */
 333:Generated_Source\PSoC6\pdl\middleware\em_eeprom/cy_em_eeprom.c ****                         if(0u != context->redundantCopy)
 334:Generated_Source\PSoC6\pdl\middleware\em_eeprom/cy_em_eeprom.c ****                         {
 335:Generated_Source\PSoC6\pdl\middleware\em_eeprom/cy_em_eeprom.c ****                             ret = CheckCrcAndCopy(startRowAddr, eeData, srcOffset, numBytesToRead, 
 336:Generated_Source\PSoC6\pdl\middleware\em_eeprom/cy_em_eeprom.c **** 
 337:Generated_Source\PSoC6\pdl\middleware\em_eeprom/cy_em_eeprom.c ****                             if(CY_EM_EEPROM_SUCCESS != ret)
 338:Generated_Source\PSoC6\pdl\middleware\em_eeprom/cy_em_eeprom.c ****                             {
 339:Generated_Source\PSoC6\pdl\middleware\em_eeprom/cy_em_eeprom.c ****                                 break;
 340:Generated_Source\PSoC6\pdl\middleware\em_eeprom/cy_em_eeprom.c ****                             }
 341:Generated_Source\PSoC6\pdl\middleware\em_eeprom/cy_em_eeprom.c ****                         }
 342:Generated_Source\PSoC6\pdl\middleware\em_eeprom/cy_em_eeprom.c ****                         else
 343:Generated_Source\PSoC6\pdl\middleware\em_eeprom/cy_em_eeprom.c ****                         {
 344:Generated_Source\PSoC6\pdl\middleware\em_eeprom/cy_em_eeprom.c ****                             (void)memcpy((void *)(eeData), (void *)(startRowAddr + srcOffset), numB
 345:Generated_Source\PSoC6\pdl\middleware\em_eeprom/cy_em_eeprom.c ****                         }
 346:Generated_Source\PSoC6\pdl\middleware\em_eeprom/cy_em_eeprom.c ****                     }
 347:Generated_Source\PSoC6\pdl\middleware\em_eeprom/cy_em_eeprom.c ****                 }
 348:Generated_Source\PSoC6\pdl\middleware\em_eeprom/cy_em_eeprom.c ****             }
 349:Generated_Source\PSoC6\pdl\middleware\em_eeprom/cy_em_eeprom.c ****         }
 350:Generated_Source\PSoC6\pdl\middleware\em_eeprom/cy_em_eeprom.c ****     }
 351:Generated_Source\PSoC6\pdl\middleware\em_eeprom/cy_em_eeprom.c **** 
 352:Generated_Source\PSoC6\pdl\middleware\em_eeprom/cy_em_eeprom.c ****     return(ret);
 353:Generated_Source\PSoC6\pdl\middleware\em_eeprom/cy_em_eeprom.c **** }
 354:Generated_Source\PSoC6\pdl\middleware\em_eeprom/cy_em_eeprom.c **** 
 355:Generated_Source\PSoC6\pdl\middleware\em_eeprom/cy_em_eeprom.c **** 
 356:Generated_Source\PSoC6\pdl\middleware\em_eeprom/cy_em_eeprom.c **** /*******************************************************************************
 357:Generated_Source\PSoC6\pdl\middleware\em_eeprom/cy_em_eeprom.c **** * Function Name: Cy_Em_EEPROM_Write
 358:Generated_Source\PSoC6\pdl\middleware\em_eeprom/cy_em_eeprom.c **** ****************************************************************************//**
 359:Generated_Source\PSoC6\pdl\middleware\em_eeprom/cy_em_eeprom.c **** *
 360:Generated_Source\PSoC6\pdl\middleware\em_eeprom/cy_em_eeprom.c **** * This function takes the logical EEPROM address and converts it to the actual
 361:Generated_Source\PSoC6\pdl\middleware\em_eeprom/cy_em_eeprom.c **** * physical address and writes data there. If wear leveling is implemented, the
 362:Generated_Source\PSoC6\pdl\middleware\em_eeprom/cy_em_eeprom.c **** * writing process will use the wear leveling techniques. This is a blocking
 363:Generated_Source\PSoC6\pdl\middleware\em_eeprom/cy_em_eeprom.c **** * function and it does not return until the write operation is completed. The
 364:Generated_Source\PSoC6\pdl\middleware\em_eeprom/cy_em_eeprom.c **** * user firmware should not enter Hibernate mode until write is completed. The
 365:Generated_Source\PSoC6\pdl\middleware\em_eeprom/cy_em_eeprom.c **** * write operation is allowed in Sleep and Deep-Sleep modes. During the flash
 366:Generated_Source\PSoC6\pdl\middleware\em_eeprom/cy_em_eeprom.c **** * operation, the device should not be reset, including the XRES pin, a software
 367:Generated_Source\PSoC6\pdl\middleware\em_eeprom/cy_em_eeprom.c **** * reset, and watchdog reset sources. Also, low-voltage detect circuits should
 368:Generated_Source\PSoC6\pdl\middleware\em_eeprom/cy_em_eeprom.c **** * be configured to generate an interrupt instead of a reset. Otherwise, portions
 369:Generated_Source\PSoC6\pdl\middleware\em_eeprom/cy_em_eeprom.c **** * of flash may undergo unexpected changes.
 370:Generated_Source\PSoC6\pdl\middleware\em_eeprom/cy_em_eeprom.c **** *
 371:Generated_Source\PSoC6\pdl\middleware\em_eeprom/cy_em_eeprom.c **** * \param addr
 372:Generated_Source\PSoC6\pdl\middleware\em_eeprom/cy_em_eeprom.c **** * The logical start address in EEPROM to start writing data from.
ARM GAS  C:\Users\eduar\AppData\Local\Temp\ccwtx1iP.s 			page 8


 373:Generated_Source\PSoC6\pdl\middleware\em_eeprom/cy_em_eeprom.c **** *
 374:Generated_Source\PSoC6\pdl\middleware\em_eeprom/cy_em_eeprom.c **** * \param eepromData
 375:Generated_Source\PSoC6\pdl\middleware\em_eeprom/cy_em_eeprom.c **** * Data to write to EEPROM.
 376:Generated_Source\PSoC6\pdl\middleware\em_eeprom/cy_em_eeprom.c **** *
 377:Generated_Source\PSoC6\pdl\middleware\em_eeprom/cy_em_eeprom.c **** * \param size
 378:Generated_Source\PSoC6\pdl\middleware\em_eeprom/cy_em_eeprom.c **** * The amount of data to write to EEPROM.
 379:Generated_Source\PSoC6\pdl\middleware\em_eeprom/cy_em_eeprom.c **** *
 380:Generated_Source\PSoC6\pdl\middleware\em_eeprom/cy_em_eeprom.c **** * \param context
 381:Generated_Source\PSoC6\pdl\middleware\em_eeprom/cy_em_eeprom.c **** * The pointer to the EEPROM context structure \ref cy_stc_eeprom_context_t.
 382:Generated_Source\PSoC6\pdl\middleware\em_eeprom/cy_em_eeprom.c **** *
 383:Generated_Source\PSoC6\pdl\middleware\em_eeprom/cy_em_eeprom.c **** * \return
 384:Generated_Source\PSoC6\pdl\middleware\em_eeprom/cy_em_eeprom.c **** * This function returns \ref cy_en_em_eeprom_status_t.
 385:Generated_Source\PSoC6\pdl\middleware\em_eeprom/cy_em_eeprom.c **** *
 386:Generated_Source\PSoC6\pdl\middleware\em_eeprom/cy_em_eeprom.c **** * \note
 387:Generated_Source\PSoC6\pdl\middleware\em_eeprom/cy_em_eeprom.c **** * This function uses a buffer of the flash row size to perform write
 388:Generated_Source\PSoC6\pdl\middleware\em_eeprom/cy_em_eeprom.c **** * operation. For the size of the row refer to the specific PSoC device
 389:Generated_Source\PSoC6\pdl\middleware\em_eeprom/cy_em_eeprom.c **** * datasheet.
 390:Generated_Source\PSoC6\pdl\middleware\em_eeprom/cy_em_eeprom.c **** *
 391:Generated_Source\PSoC6\pdl\middleware\em_eeprom/cy_em_eeprom.c **** * \sideeffect
 392:Generated_Source\PSoC6\pdl\middleware\em_eeprom/cy_em_eeprom.c **** * In case when blocking write option is used, if this function is called by
 393:Generated_Source\PSoC6\pdl\middleware\em_eeprom/cy_em_eeprom.c **** * the CM4 the user code on CM0P and the user code on CM4 are blocked until erase
 394:Generated_Source\PSoC6\pdl\middleware\em_eeprom/cy_em_eeprom.c **** * flash row operation is finished. If this function is called by the CM0P the
 395:Generated_Source\PSoC6\pdl\middleware\em_eeprom/cy_em_eeprom.c **** * user code on CM4 is not blocked and the user code on CM0P is blocked until
 396:Generated_Source\PSoC6\pdl\middleware\em_eeprom/cy_em_eeprom.c **** * erase flash row operation is finished. Plan your task allocation accordingly.
 397:Generated_Source\PSoC6\pdl\middleware\em_eeprom/cy_em_eeprom.c **** *
 398:Generated_Source\PSoC6\pdl\middleware\em_eeprom/cy_em_eeprom.c **** * \sideeffect
 399:Generated_Source\PSoC6\pdl\middleware\em_eeprom/cy_em_eeprom.c **** * In case if non-blocking write option is used and when user flash is used as
 400:Generated_Source\PSoC6\pdl\middleware\em_eeprom/cy_em_eeprom.c **** * an EEPROM storage care should be taken to prevent the read while write (RWW)
 401:Generated_Source\PSoC6\pdl\middleware\em_eeprom/cy_em_eeprom.c **** * exception. To prevent the RWW exception the user flash macro that includes
 402:Generated_Source\PSoC6\pdl\middleware\em_eeprom/cy_em_eeprom.c **** * the EEPROM storage should not be read while the EEPROM write is not completed.
 403:Generated_Source\PSoC6\pdl\middleware\em_eeprom/cy_em_eeprom.c **** * The read also means the user code execution from the respective flash macro.
 404:Generated_Source\PSoC6\pdl\middleware\em_eeprom/cy_em_eeprom.c **** *
 405:Generated_Source\PSoC6\pdl\middleware\em_eeprom/cy_em_eeprom.c **** *******************************************************************************/
 406:Generated_Source\PSoC6\pdl\middleware\em_eeprom/cy_em_eeprom.c **** cy_en_em_eeprom_status_t Cy_Em_EEPROM_Write(uint32_t addr,
 407:Generated_Source\PSoC6\pdl\middleware\em_eeprom/cy_em_eeprom.c ****                                             void * eepromData,
 408:Generated_Source\PSoC6\pdl\middleware\em_eeprom/cy_em_eeprom.c ****                                             uint32_t size,
 409:Generated_Source\PSoC6\pdl\middleware\em_eeprom/cy_em_eeprom.c ****                                             cy_stc_eeprom_context_t * context)
 410:Generated_Source\PSoC6\pdl\middleware\em_eeprom/cy_em_eeprom.c **** {
 411:Generated_Source\PSoC6\pdl\middleware\em_eeprom/cy_em_eeprom.c ****     cy_en_em_eeprom_status_t ret = CY_EM_EEPROM_BAD_PARAM;
 412:Generated_Source\PSoC6\pdl\middleware\em_eeprom/cy_em_eeprom.c ****     uint32_t i;
 413:Generated_Source\PSoC6\pdl\middleware\em_eeprom/cy_em_eeprom.c ****     uint32_t wrCnt;
 414:Generated_Source\PSoC6\pdl\middleware\em_eeprom/cy_em_eeprom.c ****     uint32_t actEmEepromRowNum;
 415:Generated_Source\PSoC6\pdl\middleware\em_eeprom/cy_em_eeprom.c ****     uint32_t writeRamBuffer[CY_EM_EEPROM_FLASH_SIZEOF_ROW / CY_EM_EEPROM_U32_DIV];
 416:Generated_Source\PSoC6\pdl\middleware\em_eeprom/cy_em_eeprom.c ****     uint32_t startAddr = 0u;
 417:Generated_Source\PSoC6\pdl\middleware\em_eeprom/cy_em_eeprom.c ****     uint32_t endAddr = 0u;
 418:Generated_Source\PSoC6\pdl\middleware\em_eeprom/cy_em_eeprom.c ****     uint32_t tmpRowAddr;
 419:Generated_Source\PSoC6\pdl\middleware\em_eeprom/cy_em_eeprom.c ****     uint32_t emEepromRowAddr = context->lastWrRowAddr;
 420:Generated_Source\PSoC6\pdl\middleware\em_eeprom/cy_em_eeprom.c ****     uint32_t emEepromRowRdAddr;
 421:Generated_Source\PSoC6\pdl\middleware\em_eeprom/cy_em_eeprom.c ****     void * tmpData;
 422:Generated_Source\PSoC6\pdl\middleware\em_eeprom/cy_em_eeprom.c ****     uint32_t eeData = (uint32_t) eepromData; /* To avoid the pointer arithmetic with void */
 423:Generated_Source\PSoC6\pdl\middleware\em_eeprom/cy_em_eeprom.c **** 
 424:Generated_Source\PSoC6\pdl\middleware\em_eeprom/cy_em_eeprom.c ****     /* Check if the EEPROM data does not exceed the EEPROM capacity */
 425:Generated_Source\PSoC6\pdl\middleware\em_eeprom/cy_em_eeprom.c ****     if((0u != size) && ((addr + size) <= (context->eepromSize)) && (NULL != eepromData))
 426:Generated_Source\PSoC6\pdl\middleware\em_eeprom/cy_em_eeprom.c ****     {
 427:Generated_Source\PSoC6\pdl\middleware\em_eeprom/cy_em_eeprom.c ****         uint32_t numWrites = ((size - 1u) / CY_EM_EEPROM_HEADER_DATA_LEN) + 1u;
 428:Generated_Source\PSoC6\pdl\middleware\em_eeprom/cy_em_eeprom.c ****         uint32_t eeHeaderDataOffset = 0u;
 429:Generated_Source\PSoC6\pdl\middleware\em_eeprom/cy_em_eeprom.c **** 
ARM GAS  C:\Users\eduar\AppData\Local\Temp\ccwtx1iP.s 			page 9


 430:Generated_Source\PSoC6\pdl\middleware\em_eeprom/cy_em_eeprom.c ****         for(wrCnt = 0u; wrCnt < numWrites; wrCnt++)
 431:Generated_Source\PSoC6\pdl\middleware\em_eeprom/cy_em_eeprom.c ****         {
 432:Generated_Source\PSoC6\pdl\middleware\em_eeprom/cy_em_eeprom.c ****             uint32_t skipOperation = 0u;
 433:Generated_Source\PSoC6\pdl\middleware\em_eeprom/cy_em_eeprom.c ****             /* Get the sequence number of the last written row */
 434:Generated_Source\PSoC6\pdl\middleware\em_eeprom/cy_em_eeprom.c ****             uint32_t seqNum = CY_EM_EEPROM_GET_SEQ_NUM(emEepromRowAddr);
 435:Generated_Source\PSoC6\pdl\middleware\em_eeprom/cy_em_eeprom.c **** 
 436:Generated_Source\PSoC6\pdl\middleware\em_eeprom/cy_em_eeprom.c ****             /* Get the address of the row to be written. The "emEepromRowAddr" may be
 437:Generated_Source\PSoC6\pdl\middleware\em_eeprom/cy_em_eeprom.c ****             * updated with the proper address (if wear leveling is used). The
 438:Generated_Source\PSoC6\pdl\middleware\em_eeprom/cy_em_eeprom.c ****             * "emEepromRowRdAddr" will point to the row address from which the historic
 439:Generated_Source\PSoC6\pdl\middleware\em_eeprom/cy_em_eeprom.c ****             * data will be read into the RAM buffer.
 440:Generated_Source\PSoC6\pdl\middleware\em_eeprom/cy_em_eeprom.c ****             */
 441:Generated_Source\PSoC6\pdl\middleware\em_eeprom/cy_em_eeprom.c ****             GetNextRowToWrite(seqNum, &emEepromRowAddr, &emEepromRowRdAddr, context);
 442:Generated_Source\PSoC6\pdl\middleware\em_eeprom/cy_em_eeprom.c **** 
 443:Generated_Source\PSoC6\pdl\middleware\em_eeprom/cy_em_eeprom.c ****             /* Clear the RAM buffer so to not put junk into flash */
 444:Generated_Source\PSoC6\pdl\middleware\em_eeprom/cy_em_eeprom.c ****             (void)memset(writeRamBuffer, 0, CY_EM_EEPROM_FLASH_SIZEOF_ROW);
 445:Generated_Source\PSoC6\pdl\middleware\em_eeprom/cy_em_eeprom.c **** 
 446:Generated_Source\PSoC6\pdl\middleware\em_eeprom/cy_em_eeprom.c ****             /* Fill the EM_EEPROM header info for the row in the RAM buffer */
 447:Generated_Source\PSoC6\pdl\middleware\em_eeprom/cy_em_eeprom.c ****             seqNum++;
 448:Generated_Source\PSoC6\pdl\middleware\em_eeprom/cy_em_eeprom.c ****             writeRamBuffer[CY_EM_EEPROM_HEADER_SEQ_NUM_OFFSET_U32] = seqNum;
 449:Generated_Source\PSoC6\pdl\middleware\em_eeprom/cy_em_eeprom.c ****             writeRamBuffer[CY_EM_EEPROM_HEADER_ADDR_OFFSET_U32] = addr;
 450:Generated_Source\PSoC6\pdl\middleware\em_eeprom/cy_em_eeprom.c ****             tmpData = (void *) eeData;
 451:Generated_Source\PSoC6\pdl\middleware\em_eeprom/cy_em_eeprom.c **** 
 452:Generated_Source\PSoC6\pdl\middleware\em_eeprom/cy_em_eeprom.c ****             /* Check if this is the last row to write */
 453:Generated_Source\PSoC6\pdl\middleware\em_eeprom/cy_em_eeprom.c ****             if(wrCnt == (numWrites - 1u))
 454:Generated_Source\PSoC6\pdl\middleware\em_eeprom/cy_em_eeprom.c ****             {
 455:Generated_Source\PSoC6\pdl\middleware\em_eeprom/cy_em_eeprom.c ****                 /* Fill in the remaining size value to the EEPROM header. */
 456:Generated_Source\PSoC6\pdl\middleware\em_eeprom/cy_em_eeprom.c ****                 writeRamBuffer[CY_EM_EEPROM_HEADER_LEN_OFFSET_U32] = size;
 457:Generated_Source\PSoC6\pdl\middleware\em_eeprom/cy_em_eeprom.c ****             }
 458:Generated_Source\PSoC6\pdl\middleware\em_eeprom/cy_em_eeprom.c ****             else
 459:Generated_Source\PSoC6\pdl\middleware\em_eeprom/cy_em_eeprom.c ****             {
 460:Generated_Source\PSoC6\pdl\middleware\em_eeprom/cy_em_eeprom.c ****                 /* This is not the last row to write in the current EEPROM write operation.
 461:Generated_Source\PSoC6\pdl\middleware\em_eeprom/cy_em_eeprom.c ****                 * Write the maximum possible data size to the EEPROM header. Update the
 462:Generated_Source\PSoC6\pdl\middleware\em_eeprom/cy_em_eeprom.c ****                 * size, eeData and addr respectively.
 463:Generated_Source\PSoC6\pdl\middleware\em_eeprom/cy_em_eeprom.c ****                 */
 464:Generated_Source\PSoC6\pdl\middleware\em_eeprom/cy_em_eeprom.c ****                 writeRamBuffer[CY_EM_EEPROM_HEADER_LEN_OFFSET_U32] = CY_EM_EEPROM_HEADER_DATA_LEN;
 465:Generated_Source\PSoC6\pdl\middleware\em_eeprom/cy_em_eeprom.c ****                 size -= CY_EM_EEPROM_HEADER_DATA_LEN;
 466:Generated_Source\PSoC6\pdl\middleware\em_eeprom/cy_em_eeprom.c ****                 addr += CY_EM_EEPROM_HEADER_DATA_LEN;
 467:Generated_Source\PSoC6\pdl\middleware\em_eeprom/cy_em_eeprom.c ****                 eeData += CY_EM_EEPROM_HEADER_DATA_LEN;
 468:Generated_Source\PSoC6\pdl\middleware\em_eeprom/cy_em_eeprom.c ****             }
 469:Generated_Source\PSoC6\pdl\middleware\em_eeprom/cy_em_eeprom.c **** 
 470:Generated_Source\PSoC6\pdl\middleware\em_eeprom/cy_em_eeprom.c ****             /* Write the data to the EEPROM header */
 471:Generated_Source\PSoC6\pdl\middleware\em_eeprom/cy_em_eeprom.c ****             (void)memcpy((void *)&writeRamBuffer[CY_EM_EEPROM_HEADER_DATA_OFFSET_U32],
 472:Generated_Source\PSoC6\pdl\middleware\em_eeprom/cy_em_eeprom.c ****                          tmpData,
 473:Generated_Source\PSoC6\pdl\middleware\em_eeprom/cy_em_eeprom.c ****                          writeRamBuffer[CY_EM_EEPROM_HEADER_LEN_OFFSET_U32]);
 474:Generated_Source\PSoC6\pdl\middleware\em_eeprom/cy_em_eeprom.c **** 
 475:Generated_Source\PSoC6\pdl\middleware\em_eeprom/cy_em_eeprom.c ****             if(emEepromRowRdAddr != 0UL)
 476:Generated_Source\PSoC6\pdl\middleware\em_eeprom/cy_em_eeprom.c ****             {
 477:Generated_Source\PSoC6\pdl\middleware\em_eeprom/cy_em_eeprom.c ****                 /* Copy the EEPROM historic data for this row from flash to RAM */
 478:Generated_Source\PSoC6\pdl\middleware\em_eeprom/cy_em_eeprom.c ****                 (void)memcpy((void *)&writeRamBuffer[CY_EM_EEPROM_EEPROM_DATA_OFFSET_U32],
 479:Generated_Source\PSoC6\pdl\middleware\em_eeprom/cy_em_eeprom.c ****                              (void *)(emEepromRowRdAddr + CY_EM_EEPROM_EEPROM_DATA_LEN),
 480:Generated_Source\PSoC6\pdl\middleware\em_eeprom/cy_em_eeprom.c ****                              CY_EM_EEPROM_EEPROM_DATA_LEN);
 481:Generated_Source\PSoC6\pdl\middleware\em_eeprom/cy_em_eeprom.c ****             }
 482:Generated_Source\PSoC6\pdl\middleware\em_eeprom/cy_em_eeprom.c **** 
 483:Generated_Source\PSoC6\pdl\middleware\em_eeprom/cy_em_eeprom.c ****             /* Check if there is data for this location in other EEPROM headers:
 484:Generated_Source\PSoC6\pdl\middleware\em_eeprom/cy_em_eeprom.c ****             * find out the row with the lowest possible sequence number which
 485:Generated_Source\PSoC6\pdl\middleware\em_eeprom/cy_em_eeprom.c ****             * may contain the data for the current row.
 486:Generated_Source\PSoC6\pdl\middleware\em_eeprom/cy_em_eeprom.c ****             */
ARM GAS  C:\Users\eduar\AppData\Local\Temp\ccwtx1iP.s 			page 10


 487:Generated_Source\PSoC6\pdl\middleware\em_eeprom/cy_em_eeprom.c ****             i = (seqNum > context->numberOfRows) ? ((seqNum - (context->numberOfRows)) + 1u) : 1u;
 488:Generated_Source\PSoC6\pdl\middleware\em_eeprom/cy_em_eeprom.c **** 
 489:Generated_Source\PSoC6\pdl\middleware\em_eeprom/cy_em_eeprom.c ****             for(; i <= seqNum; i++)
 490:Generated_Source\PSoC6\pdl\middleware\em_eeprom/cy_em_eeprom.c ****             {
 491:Generated_Source\PSoC6\pdl\middleware\em_eeprom/cy_em_eeprom.c ****                 if(i == seqNum)
 492:Generated_Source\PSoC6\pdl\middleware\em_eeprom/cy_em_eeprom.c ****                 {
 493:Generated_Source\PSoC6\pdl\middleware\em_eeprom/cy_em_eeprom.c ****                     /* The code reached the row that is about to be written. Analyze the recently
 494:Generated_Source\PSoC6\pdl\middleware\em_eeprom/cy_em_eeprom.c ****                     * created EEPROM header (stored in the RAM buffer currently): if it contains
 495:Generated_Source\PSoC6\pdl\middleware\em_eeprom/cy_em_eeprom.c ****                     * the data for EEPROM data locations in the row that is about to be written.
 496:Generated_Source\PSoC6\pdl\middleware\em_eeprom/cy_em_eeprom.c ****                     */
 497:Generated_Source\PSoC6\pdl\middleware\em_eeprom/cy_em_eeprom.c ****                     tmpRowAddr = (uint32_t) writeRamBuffer;
 498:Generated_Source\PSoC6\pdl\middleware\em_eeprom/cy_em_eeprom.c ****                 }
 499:Generated_Source\PSoC6\pdl\middleware\em_eeprom/cy_em_eeprom.c ****                 else
 500:Generated_Source\PSoC6\pdl\middleware\em_eeprom/cy_em_eeprom.c ****                 {
 501:Generated_Source\PSoC6\pdl\middleware\em_eeprom/cy_em_eeprom.c ****                     /* Retrieve the address of the previously written row by its sequence number.
 502:Generated_Source\PSoC6\pdl\middleware\em_eeprom/cy_em_eeprom.c ****                     * The pointer will be used to get data from the respective EEPROM header.
 503:Generated_Source\PSoC6\pdl\middleware\em_eeprom/cy_em_eeprom.c ****                     */
 504:Generated_Source\PSoC6\pdl\middleware\em_eeprom/cy_em_eeprom.c ****                     tmpRowAddr = GetRowAddrBySeqNum(i, context);
 505:Generated_Source\PSoC6\pdl\middleware\em_eeprom/cy_em_eeprom.c ****                 }
 506:Generated_Source\PSoC6\pdl\middleware\em_eeprom/cy_em_eeprom.c **** 
 507:Generated_Source\PSoC6\pdl\middleware\em_eeprom/cy_em_eeprom.c ****                 actEmEepromRowNum = CY_EM_EEPROM_GET_ACT_ROW_NUM_FROM_ADDR(emEepromRowAddr,
 508:Generated_Source\PSoC6\pdl\middleware\em_eeprom/cy_em_eeprom.c ****                                                                            context->numberOfRows,
 509:Generated_Source\PSoC6\pdl\middleware\em_eeprom/cy_em_eeprom.c ****                                                                            context->userFlashStartA
 510:Generated_Source\PSoC6\pdl\middleware\em_eeprom/cy_em_eeprom.c ****                 if(0UL != tmpRowAddr)
 511:Generated_Source\PSoC6\pdl\middleware\em_eeprom/cy_em_eeprom.c ****                 {
 512:Generated_Source\PSoC6\pdl\middleware\em_eeprom/cy_em_eeprom.c ****                     /* Calculate the required addressed for the later EEPROM historic data update *
 513:Generated_Source\PSoC6\pdl\middleware\em_eeprom/cy_em_eeprom.c ****                     skipOperation = GetAddresses(
 514:Generated_Source\PSoC6\pdl\middleware\em_eeprom/cy_em_eeprom.c ****                                               &startAddr,
 515:Generated_Source\PSoC6\pdl\middleware\em_eeprom/cy_em_eeprom.c ****                                               &endAddr,
 516:Generated_Source\PSoC6\pdl\middleware\em_eeprom/cy_em_eeprom.c ****                                               &eeHeaderDataOffset,
 517:Generated_Source\PSoC6\pdl\middleware\em_eeprom/cy_em_eeprom.c ****                                               actEmEepromRowNum,
 518:Generated_Source\PSoC6\pdl\middleware\em_eeprom/cy_em_eeprom.c ****                                               *(uint32_t *)(tmpRowAddr + CY_EM_EEPROM_HEADER_ADDR_O
 519:Generated_Source\PSoC6\pdl\middleware\em_eeprom/cy_em_eeprom.c ****                                               *(uint32_t *)(tmpRowAddr + CY_EM_EEPROM_HEADER_LEN_OF
 520:Generated_Source\PSoC6\pdl\middleware\em_eeprom/cy_em_eeprom.c ****                 }
 521:Generated_Source\PSoC6\pdl\middleware\em_eeprom/cy_em_eeprom.c ****                 else
 522:Generated_Source\PSoC6\pdl\middleware\em_eeprom/cy_em_eeprom.c ****                 {
 523:Generated_Source\PSoC6\pdl\middleware\em_eeprom/cy_em_eeprom.c ****                     /* Skip writes to the RAM buffer */
 524:Generated_Source\PSoC6\pdl\middleware\em_eeprom/cy_em_eeprom.c ****                     skipOperation++;
 525:Generated_Source\PSoC6\pdl\middleware\em_eeprom/cy_em_eeprom.c ****                 }
 526:Generated_Source\PSoC6\pdl\middleware\em_eeprom/cy_em_eeprom.c **** 
 527:Generated_Source\PSoC6\pdl\middleware\em_eeprom/cy_em_eeprom.c ****                 /* Write data to the RAM buffer */
 528:Generated_Source\PSoC6\pdl\middleware\em_eeprom/cy_em_eeprom.c ****                 if(0u == skipOperation)
 529:Generated_Source\PSoC6\pdl\middleware\em_eeprom/cy_em_eeprom.c ****                 {
 530:Generated_Source\PSoC6\pdl\middleware\em_eeprom/cy_em_eeprom.c ****                     uint32_t dataAddr = ((uint32_t)((uint8_t *)&writeRamBuffer)) + startAddr;
 531:Generated_Source\PSoC6\pdl\middleware\em_eeprom/cy_em_eeprom.c **** 
 532:Generated_Source\PSoC6\pdl\middleware\em_eeprom/cy_em_eeprom.c ****                     /* Update the address to point to the EEPROM header data and not to
 533:Generated_Source\PSoC6\pdl\middleware\em_eeprom/cy_em_eeprom.c ****                     * the start of the row.
 534:Generated_Source\PSoC6\pdl\middleware\em_eeprom/cy_em_eeprom.c ****                     */
 535:Generated_Source\PSoC6\pdl\middleware\em_eeprom/cy_em_eeprom.c ****                     tmpRowAddr = tmpRowAddr + CY_EM_EEPROM_HEADER_DATA_OFFSET + eeHeaderDataOffset;
 536:Generated_Source\PSoC6\pdl\middleware\em_eeprom/cy_em_eeprom.c ****                     (void)memcpy((void *)(dataAddr), (void *)(tmpRowAddr), endAddr - startAddr);
 537:Generated_Source\PSoC6\pdl\middleware\em_eeprom/cy_em_eeprom.c ****                 }
 538:Generated_Source\PSoC6\pdl\middleware\em_eeprom/cy_em_eeprom.c **** 
 539:Generated_Source\PSoC6\pdl\middleware\em_eeprom/cy_em_eeprom.c ****                 /* Calculate the checksum if redundant copy is enabled */
 540:Generated_Source\PSoC6\pdl\middleware\em_eeprom/cy_em_eeprom.c ****                 if(0u != context->redundantCopy)
 541:Generated_Source\PSoC6\pdl\middleware\em_eeprom/cy_em_eeprom.c ****                 {
 542:Generated_Source\PSoC6\pdl\middleware\em_eeprom/cy_em_eeprom.c ****                     writeRamBuffer[CY_EM_EEPROM_HEADER_CHECKSUM_OFFSET_U32] = (uint32_t)
 543:Generated_Source\PSoC6\pdl\middleware\em_eeprom/cy_em_eeprom.c ****                         CalcChecksum((uint8_t *) &writeRamBuffer[CY_EM_EEPROM_EEPROM_DATA_OFFSET_U3
ARM GAS  C:\Users\eduar\AppData\Local\Temp\ccwtx1iP.s 			page 11


 544:Generated_Source\PSoC6\pdl\middleware\em_eeprom/cy_em_eeprom.c ****                                                   CY_EM_EEPROM_EEPROM_DATA_LEN);
 545:Generated_Source\PSoC6\pdl\middleware\em_eeprom/cy_em_eeprom.c ****                 }
 546:Generated_Source\PSoC6\pdl\middleware\em_eeprom/cy_em_eeprom.c ****             }
 547:Generated_Source\PSoC6\pdl\middleware\em_eeprom/cy_em_eeprom.c **** 
 548:Generated_Source\PSoC6\pdl\middleware\em_eeprom/cy_em_eeprom.c ****             /* Write the data to the specified flash row */
 549:Generated_Source\PSoC6\pdl\middleware\em_eeprom/cy_em_eeprom.c ****             ret = WriteRow(emEepromRowAddr, writeRamBuffer, context);
 550:Generated_Source\PSoC6\pdl\middleware\em_eeprom/cy_em_eeprom.c ****             tmpRowAddr = emEepromRowAddr;
 551:Generated_Source\PSoC6\pdl\middleware\em_eeprom/cy_em_eeprom.c **** 
 552:Generated_Source\PSoC6\pdl\middleware\em_eeprom/cy_em_eeprom.c ****             /* Check if redundant copy is used */
 553:Generated_Source\PSoC6\pdl\middleware\em_eeprom/cy_em_eeprom.c ****             if((0u != context->redundantCopy) && (CY_EM_EEPROM_SUCCESS == ret))
 554:Generated_Source\PSoC6\pdl\middleware\em_eeprom/cy_em_eeprom.c ****             {
 555:Generated_Source\PSoC6\pdl\middleware\em_eeprom/cy_em_eeprom.c ****                 /* Update the row address to point to the row in the redundant EEPROM's copy */
 556:Generated_Source\PSoC6\pdl\middleware\em_eeprom/cy_em_eeprom.c ****                 tmpRowAddr = (emEepromRowAddr - context->userFlashStartAddr) + context->wlEndAddr;
 557:Generated_Source\PSoC6\pdl\middleware\em_eeprom/cy_em_eeprom.c **** 
 558:Generated_Source\PSoC6\pdl\middleware\em_eeprom/cy_em_eeprom.c ****                 /* Write the data to the specified flash row */
 559:Generated_Source\PSoC6\pdl\middleware\em_eeprom/cy_em_eeprom.c ****                 ret = WriteRow(tmpRowAddr, writeRamBuffer, context);
 560:Generated_Source\PSoC6\pdl\middleware\em_eeprom/cy_em_eeprom.c ****             }
 561:Generated_Source\PSoC6\pdl\middleware\em_eeprom/cy_em_eeprom.c **** 
 562:Generated_Source\PSoC6\pdl\middleware\em_eeprom/cy_em_eeprom.c ****             if(CY_EM_EEPROM_SUCCESS == ret)
 563:Generated_Source\PSoC6\pdl\middleware\em_eeprom/cy_em_eeprom.c ****             {
 564:Generated_Source\PSoC6\pdl\middleware\em_eeprom/cy_em_eeprom.c ****                 /* Store last written row address only when EEPROM and redundant
 565:Generated_Source\PSoC6\pdl\middleware\em_eeprom/cy_em_eeprom.c ****                 * copy writes were successful.
 566:Generated_Source\PSoC6\pdl\middleware\em_eeprom/cy_em_eeprom.c ****                 */
 567:Generated_Source\PSoC6\pdl\middleware\em_eeprom/cy_em_eeprom.c ****                 context->lastWrRowAddr = emEepromRowAddr;
 568:Generated_Source\PSoC6\pdl\middleware\em_eeprom/cy_em_eeprom.c ****             }
 569:Generated_Source\PSoC6\pdl\middleware\em_eeprom/cy_em_eeprom.c ****             else
 570:Generated_Source\PSoC6\pdl\middleware\em_eeprom/cy_em_eeprom.c ****             {
 571:Generated_Source\PSoC6\pdl\middleware\em_eeprom/cy_em_eeprom.c ****                 break;
 572:Generated_Source\PSoC6\pdl\middleware\em_eeprom/cy_em_eeprom.c ****             }
 573:Generated_Source\PSoC6\pdl\middleware\em_eeprom/cy_em_eeprom.c ****         }
 574:Generated_Source\PSoC6\pdl\middleware\em_eeprom/cy_em_eeprom.c ****     }
 575:Generated_Source\PSoC6\pdl\middleware\em_eeprom/cy_em_eeprom.c ****     return(ret);
 576:Generated_Source\PSoC6\pdl\middleware\em_eeprom/cy_em_eeprom.c **** }
 577:Generated_Source\PSoC6\pdl\middleware\em_eeprom/cy_em_eeprom.c **** 
 578:Generated_Source\PSoC6\pdl\middleware\em_eeprom/cy_em_eeprom.c **** 
 579:Generated_Source\PSoC6\pdl\middleware\em_eeprom/cy_em_eeprom.c **** /*******************************************************************************
 580:Generated_Source\PSoC6\pdl\middleware\em_eeprom/cy_em_eeprom.c **** * Function Name: Cy_Em_EEPROM_Erase
 581:Generated_Source\PSoC6\pdl\middleware\em_eeprom/cy_em_eeprom.c **** ****************************************************************************//**
 582:Generated_Source\PSoC6\pdl\middleware\em_eeprom/cy_em_eeprom.c **** *
 583:Generated_Source\PSoC6\pdl\middleware\em_eeprom/cy_em_eeprom.c **** * This function erases the entire contents of the EEPROM. Erased values are all
 584:Generated_Source\PSoC6\pdl\middleware\em_eeprom/cy_em_eeprom.c **** * zeros. This is a blocking function and it does not return until the write
 585:Generated_Source\PSoC6\pdl\middleware\em_eeprom/cy_em_eeprom.c **** * operation is completed. The user firmware should not enter Hibernate mode until
 586:Generated_Source\PSoC6\pdl\middleware\em_eeprom/cy_em_eeprom.c **** * erase is completed. The erase operation is allowed in Sleep and Deep-Sleep modes.
 587:Generated_Source\PSoC6\pdl\middleware\em_eeprom/cy_em_eeprom.c **** * During the flash operation, the device should not be reset, including the
 588:Generated_Source\PSoC6\pdl\middleware\em_eeprom/cy_em_eeprom.c **** * XRES pin, a software reset, and watchdog reset sources. Also, low-voltage
 589:Generated_Source\PSoC6\pdl\middleware\em_eeprom/cy_em_eeprom.c **** * detect circuits should be configured to generate an interrupt instead of a
 590:Generated_Source\PSoC6\pdl\middleware\em_eeprom/cy_em_eeprom.c **** * reset. Otherwise, portions of flash may undergo unexpected changes.
 591:Generated_Source\PSoC6\pdl\middleware\em_eeprom/cy_em_eeprom.c **** *
 592:Generated_Source\PSoC6\pdl\middleware\em_eeprom/cy_em_eeprom.c **** * \param context
 593:Generated_Source\PSoC6\pdl\middleware\em_eeprom/cy_em_eeprom.c **** * The pointer to the EEPROM context structure \ref cy_stc_eeprom_context_t.
 594:Generated_Source\PSoC6\pdl\middleware\em_eeprom/cy_em_eeprom.c **** *
 595:Generated_Source\PSoC6\pdl\middleware\em_eeprom/cy_em_eeprom.c **** * \return
 596:Generated_Source\PSoC6\pdl\middleware\em_eeprom/cy_em_eeprom.c **** * This function returns \ref cy_en_em_eeprom_status_t.
 597:Generated_Source\PSoC6\pdl\middleware\em_eeprom/cy_em_eeprom.c **** *
 598:Generated_Source\PSoC6\pdl\middleware\em_eeprom/cy_em_eeprom.c **** * \note
 599:Generated_Source\PSoC6\pdl\middleware\em_eeprom/cy_em_eeprom.c **** * For all non PSoC 6 devices the erase operation is performed by clearing
 600:Generated_Source\PSoC6\pdl\middleware\em_eeprom/cy_em_eeprom.c **** * the EEPROM data using flash write. This affects the flash durability.
ARM GAS  C:\Users\eduar\AppData\Local\Temp\ccwtx1iP.s 			page 12


 601:Generated_Source\PSoC6\pdl\middleware\em_eeprom/cy_em_eeprom.c **** * So it is recommended to use this function in utmost case to prolongate
 602:Generated_Source\PSoC6\pdl\middleware\em_eeprom/cy_em_eeprom.c **** * flash life.
 603:Generated_Source\PSoC6\pdl\middleware\em_eeprom/cy_em_eeprom.c **** *
 604:Generated_Source\PSoC6\pdl\middleware\em_eeprom/cy_em_eeprom.c **** * \note
 605:Generated_Source\PSoC6\pdl\middleware\em_eeprom/cy_em_eeprom.c **** * This function uses a buffer of the flash row size to perform erase
 606:Generated_Source\PSoC6\pdl\middleware\em_eeprom/cy_em_eeprom.c **** * operation. For the size of the row refer to the specific PSoC device
 607:Generated_Source\PSoC6\pdl\middleware\em_eeprom/cy_em_eeprom.c **** * datasheet.
 608:Generated_Source\PSoC6\pdl\middleware\em_eeprom/cy_em_eeprom.c **** *
 609:Generated_Source\PSoC6\pdl\middleware\em_eeprom/cy_em_eeprom.c **** * \sideeffect
 610:Generated_Source\PSoC6\pdl\middleware\em_eeprom/cy_em_eeprom.c **** * In case when blocking write option is used, if this function is called by
 611:Generated_Source\PSoC6\pdl\middleware\em_eeprom/cy_em_eeprom.c **** * the CM4 the user code on CM0P and the user code on CM4 are blocked until erase
 612:Generated_Source\PSoC6\pdl\middleware\em_eeprom/cy_em_eeprom.c **** * flash row operation is finished. If this function is called by the CM0P the
 613:Generated_Source\PSoC6\pdl\middleware\em_eeprom/cy_em_eeprom.c **** * user code on CM4 is not blocked and the user code on CM0P is blocked until
 614:Generated_Source\PSoC6\pdl\middleware\em_eeprom/cy_em_eeprom.c **** * erase flash row operation is finished. Plan your task allocation accordingly.
 615:Generated_Source\PSoC6\pdl\middleware\em_eeprom/cy_em_eeprom.c **** *
 616:Generated_Source\PSoC6\pdl\middleware\em_eeprom/cy_em_eeprom.c **** * \sideeffect
 617:Generated_Source\PSoC6\pdl\middleware\em_eeprom/cy_em_eeprom.c **** * In case if non-blocking write option is used and when user flash is used as
 618:Generated_Source\PSoC6\pdl\middleware\em_eeprom/cy_em_eeprom.c **** * an EEPROM storage care should be taken to prevent the read while write (RWW)
 619:Generated_Source\PSoC6\pdl\middleware\em_eeprom/cy_em_eeprom.c **** * exception. To prevent the RWW exception the user flash macro that includes
 620:Generated_Source\PSoC6\pdl\middleware\em_eeprom/cy_em_eeprom.c **** * the EEPROM storage should not be read while the EEPROM erase is not completed.
 621:Generated_Source\PSoC6\pdl\middleware\em_eeprom/cy_em_eeprom.c **** * The read also means the user code execution from the respective flash macro.
 622:Generated_Source\PSoC6\pdl\middleware\em_eeprom/cy_em_eeprom.c **** *
 623:Generated_Source\PSoC6\pdl\middleware\em_eeprom/cy_em_eeprom.c **** *******************************************************************************/
 624:Generated_Source\PSoC6\pdl\middleware\em_eeprom/cy_em_eeprom.c **** cy_en_em_eeprom_status_t Cy_Em_EEPROM_Erase(cy_stc_eeprom_context_t * context)
 625:Generated_Source\PSoC6\pdl\middleware\em_eeprom/cy_em_eeprom.c **** {
 626:Generated_Source\PSoC6\pdl\middleware\em_eeprom/cy_em_eeprom.c ****     uint32_t i;
 627:Generated_Source\PSoC6\pdl\middleware\em_eeprom/cy_em_eeprom.c ****     uint32_t seqNum;
 628:Generated_Source\PSoC6\pdl\middleware\em_eeprom/cy_em_eeprom.c ****     uint32_t emEepromRowAddr = context->lastWrRowAddr;
 629:Generated_Source\PSoC6\pdl\middleware\em_eeprom/cy_em_eeprom.c ****     uint32_t emEepromRowRdAddr;
 630:Generated_Source\PSoC6\pdl\middleware\em_eeprom/cy_em_eeprom.c ****     cy_en_em_eeprom_status_t ret = CY_EM_EEPROM_WRITE_FAIL;
 631:Generated_Source\PSoC6\pdl\middleware\em_eeprom/cy_em_eeprom.c ****     uint32_t writeRamBuffer[CY_EM_EEPROM_FLASH_SIZEOF_ROW / CY_EM_EEPROM_U32_DIV] = {0u};
 632:Generated_Source\PSoC6\pdl\middleware\em_eeprom/cy_em_eeprom.c ****     uint32_t emEepromStoredRowAddr = context->lastWrRowAddr;
 633:Generated_Source\PSoC6\pdl\middleware\em_eeprom/cy_em_eeprom.c ****     uint32_t storedSeqNum;
 634:Generated_Source\PSoC6\pdl\middleware\em_eeprom/cy_em_eeprom.c **** 
 635:Generated_Source\PSoC6\pdl\middleware\em_eeprom/cy_em_eeprom.c ****     /* Get the sequence number of the last written row */
 636:Generated_Source\PSoC6\pdl\middleware\em_eeprom/cy_em_eeprom.c ****     seqNum = CY_EM_EEPROM_GET_SEQ_NUM(emEepromRowAddr);
 637:Generated_Source\PSoC6\pdl\middleware\em_eeprom/cy_em_eeprom.c **** 
 638:Generated_Source\PSoC6\pdl\middleware\em_eeprom/cy_em_eeprom.c ****     /* If there were no writes to EEPROM - nothing to erase */
 639:Generated_Source\PSoC6\pdl\middleware\em_eeprom/cy_em_eeprom.c ****     if(0u != seqNum)
 640:Generated_Source\PSoC6\pdl\middleware\em_eeprom/cy_em_eeprom.c ****     {
 641:Generated_Source\PSoC6\pdl\middleware\em_eeprom/cy_em_eeprom.c ****         /* Calculate the number of row erase operations required */
 642:Generated_Source\PSoC6\pdl\middleware\em_eeprom/cy_em_eeprom.c ****         uint32_t numWrites = context->numberOfRows * context->wearLevelingFactor;
 643:Generated_Source\PSoC6\pdl\middleware\em_eeprom/cy_em_eeprom.c **** 
 644:Generated_Source\PSoC6\pdl\middleware\em_eeprom/cy_em_eeprom.c ****         GetNextRowToWrite(seqNum, &emEepromStoredRowAddr, &emEepromRowRdAddr, context);
 645:Generated_Source\PSoC6\pdl\middleware\em_eeprom/cy_em_eeprom.c ****         storedSeqNum = seqNum + 1u;
 646:Generated_Source\PSoC6\pdl\middleware\em_eeprom/cy_em_eeprom.c **** 
 647:Generated_Source\PSoC6\pdl\middleware\em_eeprom/cy_em_eeprom.c ****         if(0u != context->redundantCopy)
 648:Generated_Source\PSoC6\pdl\middleware\em_eeprom/cy_em_eeprom.c ****         {
 649:Generated_Source\PSoC6\pdl\middleware\em_eeprom/cy_em_eeprom.c ****             writeRamBuffer[CY_EM_EEPROM_HEADER_CHECKSUM_OFFSET_U32] = (uint32_t)
 650:Generated_Source\PSoC6\pdl\middleware\em_eeprom/cy_em_eeprom.c ****                         CalcChecksum((uint8_t *) &writeRamBuffer[CY_EM_EEPROM_EEPROM_DATA_OFFSET_U3
 651:Generated_Source\PSoC6\pdl\middleware\em_eeprom/cy_em_eeprom.c ****                                                   CY_EM_EEPROM_EEPROM_DATA_LEN);
 652:Generated_Source\PSoC6\pdl\middleware\em_eeprom/cy_em_eeprom.c ****         }
 653:Generated_Source\PSoC6\pdl\middleware\em_eeprom/cy_em_eeprom.c **** 
 654:Generated_Source\PSoC6\pdl\middleware\em_eeprom/cy_em_eeprom.c ****         for(i = 0u; i < numWrites; i++)
 655:Generated_Source\PSoC6\pdl\middleware\em_eeprom/cy_em_eeprom.c ****         {
 656:Generated_Source\PSoC6\pdl\middleware\em_eeprom/cy_em_eeprom.c ****             /* For PSoC 6 the erase operation moves backwards. From last written row
 657:Generated_Source\PSoC6\pdl\middleware\em_eeprom/cy_em_eeprom.c ****             * identified by "seqNum" down to "seqNum" - "numWrites". If "emEepromRowAddr"
ARM GAS  C:\Users\eduar\AppData\Local\Temp\ccwtx1iP.s 			page 13


 658:Generated_Source\PSoC6\pdl\middleware\em_eeprom/cy_em_eeprom.c ****             * is zero this means that the row identified by "seqNum" was previously 
 659:Generated_Source\PSoC6\pdl\middleware\em_eeprom/cy_em_eeprom.c ****             * erased.
 660:Generated_Source\PSoC6\pdl\middleware\em_eeprom/cy_em_eeprom.c ****             */
 661:Generated_Source\PSoC6\pdl\middleware\em_eeprom/cy_em_eeprom.c ****             if(0u != emEepromRowAddr)
 662:Generated_Source\PSoC6\pdl\middleware\em_eeprom/cy_em_eeprom.c ****             {
 663:Generated_Source\PSoC6\pdl\middleware\em_eeprom/cy_em_eeprom.c ****                 ret = EraseRow(emEepromRowAddr, (uint32_t)writeRamBuffer, context);
 664:Generated_Source\PSoC6\pdl\middleware\em_eeprom/cy_em_eeprom.c ****             }
 665:Generated_Source\PSoC6\pdl\middleware\em_eeprom/cy_em_eeprom.c **** 
 666:Generated_Source\PSoC6\pdl\middleware\em_eeprom/cy_em_eeprom.c ****             seqNum--;
 667:Generated_Source\PSoC6\pdl\middleware\em_eeprom/cy_em_eeprom.c **** 
 668:Generated_Source\PSoC6\pdl\middleware\em_eeprom/cy_em_eeprom.c ****             if(0u == seqNum)
 669:Generated_Source\PSoC6\pdl\middleware\em_eeprom/cy_em_eeprom.c ****             {
 670:Generated_Source\PSoC6\pdl\middleware\em_eeprom/cy_em_eeprom.c ****                 /* Exit the loop as there is no more row is EEPROM to be erased */
 671:Generated_Source\PSoC6\pdl\middleware\em_eeprom/cy_em_eeprom.c ****                 break;
 672:Generated_Source\PSoC6\pdl\middleware\em_eeprom/cy_em_eeprom.c ****             }
 673:Generated_Source\PSoC6\pdl\middleware\em_eeprom/cy_em_eeprom.c ****             emEepromRowAddr = GetRowAddrBySeqNum(seqNum, context);
 674:Generated_Source\PSoC6\pdl\middleware\em_eeprom/cy_em_eeprom.c ****         }
 675:Generated_Source\PSoC6\pdl\middleware\em_eeprom/cy_em_eeprom.c **** 
 676:Generated_Source\PSoC6\pdl\middleware\em_eeprom/cy_em_eeprom.c ****         if(CY_EM_EEPROM_SUCCESS == ret)
 677:Generated_Source\PSoC6\pdl\middleware\em_eeprom/cy_em_eeprom.c ****         {
 678:Generated_Source\PSoC6\pdl\middleware\em_eeprom/cy_em_eeprom.c ****             writeRamBuffer[0u] = storedSeqNum;
 679:Generated_Source\PSoC6\pdl\middleware\em_eeprom/cy_em_eeprom.c **** 
 680:Generated_Source\PSoC6\pdl\middleware\em_eeprom/cy_em_eeprom.c ****             /* Write the previously stored sequence number to the flash row which would be
 681:Generated_Source\PSoC6\pdl\middleware\em_eeprom/cy_em_eeprom.c ****             * written next if the erase wouldn't happen. In this case the write to
 682:Generated_Source\PSoC6\pdl\middleware\em_eeprom/cy_em_eeprom.c ****             * redundant copy can be skipped as it does not add any value.
 683:Generated_Source\PSoC6\pdl\middleware\em_eeprom/cy_em_eeprom.c ****             */
 684:Generated_Source\PSoC6\pdl\middleware\em_eeprom/cy_em_eeprom.c ****             ret = WriteRow(emEepromStoredRowAddr, writeRamBuffer, context);
 685:Generated_Source\PSoC6\pdl\middleware\em_eeprom/cy_em_eeprom.c **** 
 686:Generated_Source\PSoC6\pdl\middleware\em_eeprom/cy_em_eeprom.c ****             if(CY_EM_EEPROM_SUCCESS == ret)
 687:Generated_Source\PSoC6\pdl\middleware\em_eeprom/cy_em_eeprom.c ****             {
 688:Generated_Source\PSoC6\pdl\middleware\em_eeprom/cy_em_eeprom.c ****                 context->lastWrRowAddr = emEepromStoredRowAddr;
 689:Generated_Source\PSoC6\pdl\middleware\em_eeprom/cy_em_eeprom.c ****             }
 690:Generated_Source\PSoC6\pdl\middleware\em_eeprom/cy_em_eeprom.c ****         }
 691:Generated_Source\PSoC6\pdl\middleware\em_eeprom/cy_em_eeprom.c **** 
 692:Generated_Source\PSoC6\pdl\middleware\em_eeprom/cy_em_eeprom.c ****     }
 693:Generated_Source\PSoC6\pdl\middleware\em_eeprom/cy_em_eeprom.c ****     return(ret);
 694:Generated_Source\PSoC6\pdl\middleware\em_eeprom/cy_em_eeprom.c **** }
 695:Generated_Source\PSoC6\pdl\middleware\em_eeprom/cy_em_eeprom.c **** 
 696:Generated_Source\PSoC6\pdl\middleware\em_eeprom/cy_em_eeprom.c **** 
 697:Generated_Source\PSoC6\pdl\middleware\em_eeprom/cy_em_eeprom.c **** /*******************************************************************************
 698:Generated_Source\PSoC6\pdl\middleware\em_eeprom/cy_em_eeprom.c **** * Function Name: Cy_Em_EEPROM_NumWrites
 699:Generated_Source\PSoC6\pdl\middleware\em_eeprom/cy_em_eeprom.c **** ****************************************************************************//**
 700:Generated_Source\PSoC6\pdl\middleware\em_eeprom/cy_em_eeprom.c **** *
 701:Generated_Source\PSoC6\pdl\middleware\em_eeprom/cy_em_eeprom.c **** * Returns the number of the EEPROM writes completed so far.
 702:Generated_Source\PSoC6\pdl\middleware\em_eeprom/cy_em_eeprom.c **** *
 703:Generated_Source\PSoC6\pdl\middleware\em_eeprom/cy_em_eeprom.c **** * \param context
 704:Generated_Source\PSoC6\pdl\middleware\em_eeprom/cy_em_eeprom.c **** * The pointer to the EEPROM context structure \ref cy_stc_eeprom_context_t.
 705:Generated_Source\PSoC6\pdl\middleware\em_eeprom/cy_em_eeprom.c **** *
 706:Generated_Source\PSoC6\pdl\middleware\em_eeprom/cy_em_eeprom.c **** * \return
 707:Generated_Source\PSoC6\pdl\middleware\em_eeprom/cy_em_eeprom.c **** * The number of writes performed to the EEPROM.
 708:Generated_Source\PSoC6\pdl\middleware\em_eeprom/cy_em_eeprom.c **** *
 709:Generated_Source\PSoC6\pdl\middleware\em_eeprom/cy_em_eeprom.c **** *******************************************************************************/
 710:Generated_Source\PSoC6\pdl\middleware\em_eeprom/cy_em_eeprom.c **** uint32_t Cy_Em_EEPROM_NumWrites(cy_stc_eeprom_context_t * context)
 711:Generated_Source\PSoC6\pdl\middleware\em_eeprom/cy_em_eeprom.c **** {
 712:Generated_Source\PSoC6\pdl\middleware\em_eeprom/cy_em_eeprom.c ****     return(CY_EM_EEPROM_GET_SEQ_NUM(context->lastWrRowAddr));
 713:Generated_Source\PSoC6\pdl\middleware\em_eeprom/cy_em_eeprom.c **** }
 714:Generated_Source\PSoC6\pdl\middleware\em_eeprom/cy_em_eeprom.c **** 
ARM GAS  C:\Users\eduar\AppData\Local\Temp\ccwtx1iP.s 			page 14


 715:Generated_Source\PSoC6\pdl\middleware\em_eeprom/cy_em_eeprom.c **** /** \} */
 716:Generated_Source\PSoC6\pdl\middleware\em_eeprom/cy_em_eeprom.c **** 
 717:Generated_Source\PSoC6\pdl\middleware\em_eeprom/cy_em_eeprom.c **** /** \cond INTERNAL */
 718:Generated_Source\PSoC6\pdl\middleware\em_eeprom/cy_em_eeprom.c **** 
 719:Generated_Source\PSoC6\pdl\middleware\em_eeprom/cy_em_eeprom.c **** 
 720:Generated_Source\PSoC6\pdl\middleware\em_eeprom/cy_em_eeprom.c **** /*******************************************************************************
 721:Generated_Source\PSoC6\pdl\middleware\em_eeprom/cy_em_eeprom.c **** * Function Name: FindLastWrittenRow
 722:Generated_Source\PSoC6\pdl\middleware\em_eeprom/cy_em_eeprom.c **** ****************************************************************************//**
 723:Generated_Source\PSoC6\pdl\middleware\em_eeprom/cy_em_eeprom.c **** *
 724:Generated_Source\PSoC6\pdl\middleware\em_eeprom/cy_em_eeprom.c **** * Performs a search of the last written row address of the EEPROM associated
 725:Generated_Source\PSoC6\pdl\middleware\em_eeprom/cy_em_eeprom.c **** * with the context structure. If there were no writes to the EEPROM the
 726:Generated_Source\PSoC6\pdl\middleware\em_eeprom/cy_em_eeprom.c **** * function returns the start address of the EEPROM. The row address is returned
 727:Generated_Source\PSoC6\pdl\middleware\em_eeprom/cy_em_eeprom.c **** * in the input parameter.
 728:Generated_Source\PSoC6\pdl\middleware\em_eeprom/cy_em_eeprom.c **** *
 729:Generated_Source\PSoC6\pdl\middleware\em_eeprom/cy_em_eeprom.c **** * \param lastWrRowPtr
 730:Generated_Source\PSoC6\pdl\middleware\em_eeprom/cy_em_eeprom.c **** * The pointer to a memory where the last written row will be returned.
 731:Generated_Source\PSoC6\pdl\middleware\em_eeprom/cy_em_eeprom.c **** *
 732:Generated_Source\PSoC6\pdl\middleware\em_eeprom/cy_em_eeprom.c **** * \param context
 733:Generated_Source\PSoC6\pdl\middleware\em_eeprom/cy_em_eeprom.c **** * The pointer to the EEPROM context structure \ref cy_stc_eeprom_context_t.
 734:Generated_Source\PSoC6\pdl\middleware\em_eeprom/cy_em_eeprom.c **** *
 735:Generated_Source\PSoC6\pdl\middleware\em_eeprom/cy_em_eeprom.c **** *******************************************************************************/
 736:Generated_Source\PSoC6\pdl\middleware\em_eeprom/cy_em_eeprom.c **** static void FindLastWrittenRow(uint32_t * lastWrRowPtr, cy_stc_eeprom_context_t * context)
 737:Generated_Source\PSoC6\pdl\middleware\em_eeprom/cy_em_eeprom.c **** {
  28              		.loc 1 737 0
  29              		.cfi_startproc
  30              		@ args = 0, pretend = 0, frame = 0
  31              		@ frame_needed = 0, uses_anonymous_args = 0
  32              		@ link register save eliminated.
  33              	.LVL0:
  34 0000 70B4     		push	{r4, r5, r6}
  35              		.cfi_def_cfa_offset 12
  36              		.cfi_offset 4, -12
  37              		.cfi_offset 5, -8
  38              		.cfi_offset 6, -4
  39              	.LVL1:
 738:Generated_Source\PSoC6\pdl\middleware\em_eeprom/cy_em_eeprom.c ****     uint32_t seqNum = 0u;
 739:Generated_Source\PSoC6\pdl\middleware\em_eeprom/cy_em_eeprom.c ****     uint32_t prevSeqNum = 0u;
 740:Generated_Source\PSoC6\pdl\middleware\em_eeprom/cy_em_eeprom.c ****     uint32_t numRows;
 741:Generated_Source\PSoC6\pdl\middleware\em_eeprom/cy_em_eeprom.c ****     uint32_t emEepromAddr = context->userFlashStartAddr;
  40              		.loc 1 741 0
  41 0002 8A69     		ldr	r2, [r1, #24]
  42              	.LVL2:
 742:Generated_Source\PSoC6\pdl\middleware\em_eeprom/cy_em_eeprom.c **** 
 743:Generated_Source\PSoC6\pdl\middleware\em_eeprom/cy_em_eeprom.c ****     *lastWrRowPtr = emEepromAddr;
  43              		.loc 1 743 0
  44 0004 0260     		str	r2, [r0]
  45              	.LVL3:
 744:Generated_Source\PSoC6\pdl\middleware\em_eeprom/cy_em_eeprom.c **** 
 745:Generated_Source\PSoC6\pdl\middleware\em_eeprom/cy_em_eeprom.c ****     for(numRows = 0u; numRows < (context->numberOfRows * context->wearLevelingFactor); numRows++)
  46              		.loc 1 745 0
  47 0006 0024     		movs	r4, #0
 739:Generated_Source\PSoC6\pdl\middleware\em_eeprom/cy_em_eeprom.c ****     uint32_t numRows;
  48              		.loc 1 739 0
  49 0008 2646     		mov	r6, r4
  50              		.loc 1 745 0
  51 000a 08E0     		b	.L2
  52              	.LVL4:
ARM GAS  C:\Users\eduar\AppData\Local\Temp\ccwtx1iP.s 			page 15


  53              	.L4:
 746:Generated_Source\PSoC6\pdl\middleware\em_eeprom/cy_em_eeprom.c ****     {
 747:Generated_Source\PSoC6\pdl\middleware\em_eeprom/cy_em_eeprom.c ****         seqNum = CY_EM_EEPROM_GET_SEQ_NUM(emEepromAddr);
  54              		.loc 1 747 0
  55 000c 1368     		ldr	r3, [r2]
  56              	.LVL5:
 748:Generated_Source\PSoC6\pdl\middleware\em_eeprom/cy_em_eeprom.c ****         if((0u != seqNum) && (seqNum > prevSeqNum))
  57              		.loc 1 748 0
  58 000e 1BB1     		cbz	r3, .L3
  59              		.loc 1 748 0 is_stmt 0 discriminator 1
  60 0010 9E42     		cmp	r6, r3
  61 0012 01D2     		bcs	.L3
  62              	.LVL6:
 749:Generated_Source\PSoC6\pdl\middleware\em_eeprom/cy_em_eeprom.c ****         {
 750:Generated_Source\PSoC6\pdl\middleware\em_eeprom/cy_em_eeprom.c ****             /* Some record in EEPROM was found. Store found sequence
 751:Generated_Source\PSoC6\pdl\middleware\em_eeprom/cy_em_eeprom.c ****             * number and row address.
 752:Generated_Source\PSoC6\pdl\middleware\em_eeprom/cy_em_eeprom.c ****             */
 753:Generated_Source\PSoC6\pdl\middleware\em_eeprom/cy_em_eeprom.c ****             prevSeqNum = seqNum;
 754:Generated_Source\PSoC6\pdl\middleware\em_eeprom/cy_em_eeprom.c ****             *lastWrRowPtr = emEepromAddr;
  63              		.loc 1 754 0 is_stmt 1
  64 0014 0260     		str	r2, [r0]
 753:Generated_Source\PSoC6\pdl\middleware\em_eeprom/cy_em_eeprom.c ****             *lastWrRowPtr = emEepromAddr;
  65              		.loc 1 753 0
  66 0016 1E46     		mov	r6, r3
  67              	.LVL7:
  68              	.L3:
 755:Generated_Source\PSoC6\pdl\middleware\em_eeprom/cy_em_eeprom.c ****         }
 756:Generated_Source\PSoC6\pdl\middleware\em_eeprom/cy_em_eeprom.c **** 
 757:Generated_Source\PSoC6\pdl\middleware\em_eeprom/cy_em_eeprom.c ****         /* Switch to the next row */
 758:Generated_Source\PSoC6\pdl\middleware\em_eeprom/cy_em_eeprom.c ****         emEepromAddr = emEepromAddr + CY_EM_EEPROM_FLASH_SIZEOF_ROW;
  69              		.loc 1 758 0 discriminator 2
  70 0018 02F50072 		add	r2, r2, #512
  71              	.LVL8:
 745:Generated_Source\PSoC6\pdl\middleware\em_eeprom/cy_em_eeprom.c ****     {
  72              		.loc 1 745 0 discriminator 2
  73 001c 0134     		adds	r4, r4, #1
  74              	.LVL9:
  75              	.L2:
 745:Generated_Source\PSoC6\pdl\middleware\em_eeprom/cy_em_eeprom.c ****     {
  76              		.loc 1 745 0 is_stmt 0 discriminator 1
  77 001e 4D68     		ldr	r5, [r1, #4]
  78 0020 0B69     		ldr	r3, [r1, #16]
  79 0022 03FB05F3 		mul	r3, r3, r5
  80 0026 9C42     		cmp	r4, r3
  81 0028 F0D3     		bcc	.L4
 759:Generated_Source\PSoC6\pdl\middleware\em_eeprom/cy_em_eeprom.c ****     }
 760:Generated_Source\PSoC6\pdl\middleware\em_eeprom/cy_em_eeprom.c **** }
  82              		.loc 1 760 0 is_stmt 1
  83 002a 70BC     		pop	{r4, r5, r6}
  84              		.cfi_restore 6
  85              		.cfi_restore 5
  86              		.cfi_restore 4
  87              		.cfi_def_cfa_offset 0
  88              	.LVL10:
  89 002c 7047     		bx	lr
  90              		.cfi_endproc
  91              	.LFE137:
ARM GAS  C:\Users\eduar\AppData\Local\Temp\ccwtx1iP.s 			page 16


  92              		.size	FindLastWrittenRow, .-FindLastWrittenRow
  93 002e 00BF     		.section	.text.GetRowAddrBySeqNum,"ax",%progbits
  94              		.align	2
  95              		.thumb
  96              		.thumb_func
  97              		.type	GetRowAddrBySeqNum, %function
  98              	GetRowAddrBySeqNum:
  99              	.LFB138:
 761:Generated_Source\PSoC6\pdl\middleware\em_eeprom/cy_em_eeprom.c **** 
 762:Generated_Source\PSoC6\pdl\middleware\em_eeprom/cy_em_eeprom.c **** 
 763:Generated_Source\PSoC6\pdl\middleware\em_eeprom/cy_em_eeprom.c **** /*******************************************************************************
 764:Generated_Source\PSoC6\pdl\middleware\em_eeprom/cy_em_eeprom.c **** * Function Name: GetRowAddrBySeqNum
 765:Generated_Source\PSoC6\pdl\middleware\em_eeprom/cy_em_eeprom.c **** ****************************************************************************//**
 766:Generated_Source\PSoC6\pdl\middleware\em_eeprom/cy_em_eeprom.c **** *
 767:Generated_Source\PSoC6\pdl\middleware\em_eeprom/cy_em_eeprom.c **** * Returns the address of the row in EEPROM using its sequence number.
 768:Generated_Source\PSoC6\pdl\middleware\em_eeprom/cy_em_eeprom.c **** *
 769:Generated_Source\PSoC6\pdl\middleware\em_eeprom/cy_em_eeprom.c **** * \param seqNum
 770:Generated_Source\PSoC6\pdl\middleware\em_eeprom/cy_em_eeprom.c **** * The sequence number of the row.
 771:Generated_Source\PSoC6\pdl\middleware\em_eeprom/cy_em_eeprom.c **** *
 772:Generated_Source\PSoC6\pdl\middleware\em_eeprom/cy_em_eeprom.c **** * \param context
 773:Generated_Source\PSoC6\pdl\middleware\em_eeprom/cy_em_eeprom.c **** * The pointer to the EEPROM context structure.
 774:Generated_Source\PSoC6\pdl\middleware\em_eeprom/cy_em_eeprom.c **** *
 775:Generated_Source\PSoC6\pdl\middleware\em_eeprom/cy_em_eeprom.c **** * \return
 776:Generated_Source\PSoC6\pdl\middleware\em_eeprom/cy_em_eeprom.c **** * The address of the row or zero if the row with the sequence number was not
 777:Generated_Source\PSoC6\pdl\middleware\em_eeprom/cy_em_eeprom.c **** * found.
 778:Generated_Source\PSoC6\pdl\middleware\em_eeprom/cy_em_eeprom.c **** *
 779:Generated_Source\PSoC6\pdl\middleware\em_eeprom/cy_em_eeprom.c **** *******************************************************************************/
 780:Generated_Source\PSoC6\pdl\middleware\em_eeprom/cy_em_eeprom.c **** static uint32_t GetRowAddrBySeqNum(uint32_t seqNum, cy_stc_eeprom_context_t * context)
 781:Generated_Source\PSoC6\pdl\middleware\em_eeprom/cy_em_eeprom.c **** {
 100              		.loc 1 781 0
 101              		.cfi_startproc
 102              		@ args = 0, pretend = 0, frame = 0
 103              		@ frame_needed = 0, uses_anonymous_args = 0
 104              		@ link register save eliminated.
 105              	.LVL11:
 782:Generated_Source\PSoC6\pdl\middleware\em_eeprom/cy_em_eeprom.c ****     uint32_t emEepromAddr = context->userFlashStartAddr;
 106              		.loc 1 782 0
 107 0000 8B69     		ldr	r3, [r1, #24]
 108              	.LVL12:
 783:Generated_Source\PSoC6\pdl\middleware\em_eeprom/cy_em_eeprom.c **** 
 784:Generated_Source\PSoC6\pdl\middleware\em_eeprom/cy_em_eeprom.c ****     while(CY_EM_EEPROM_GET_SEQ_NUM(emEepromAddr) != seqNum)
 109              		.loc 1 784 0
 110 0002 04E0     		b	.L7
 111              	.L9:
 785:Generated_Source\PSoC6\pdl\middleware\em_eeprom/cy_em_eeprom.c ****     {
 786:Generated_Source\PSoC6\pdl\middleware\em_eeprom/cy_em_eeprom.c ****         /* Switch to the next row */
 787:Generated_Source\PSoC6\pdl\middleware\em_eeprom/cy_em_eeprom.c ****         emEepromAddr = emEepromAddr + CY_EM_EEPROM_FLASH_SIZEOF_ROW;
 112              		.loc 1 787 0
 113 0004 03F50073 		add	r3, r3, #512
 114              	.LVL13:
 788:Generated_Source\PSoC6\pdl\middleware\em_eeprom/cy_em_eeprom.c **** 
 789:Generated_Source\PSoC6\pdl\middleware\em_eeprom/cy_em_eeprom.c ****         if (CY_EM_EEPROM_ADDR_IN_RANGE !=
 790:Generated_Source\PSoC6\pdl\middleware\em_eeprom/cy_em_eeprom.c ****             CY_EM_EEPROM_IS_ADDR_EXCEED_RANGE(emEepromAddr, context->wlEndAddr))
 115              		.loc 1 790 0
 116 0008 0A68     		ldr	r2, [r1]
 789:Generated_Source\PSoC6\pdl\middleware\em_eeprom/cy_em_eeprom.c ****             CY_EM_EEPROM_IS_ADDR_EXCEED_RANGE(emEepromAddr, context->wlEndAddr))
 117              		.loc 1 789 0
ARM GAS  C:\Users\eduar\AppData\Local\Temp\ccwtx1iP.s 			page 17


 118 000a 9342     		cmp	r3, r2
 119 000c 03D2     		bcs	.L10
 120              	.L7:
 784:Generated_Source\PSoC6\pdl\middleware\em_eeprom/cy_em_eeprom.c ****     {
 121              		.loc 1 784 0
 122 000e 1A68     		ldr	r2, [r3]
 123 0010 8242     		cmp	r2, r0
 124 0012 F7D1     		bne	.L9
 125 0014 00E0     		b	.L8
 126              	.L10:
 791:Generated_Source\PSoC6\pdl\middleware\em_eeprom/cy_em_eeprom.c ****         {
 792:Generated_Source\PSoC6\pdl\middleware\em_eeprom/cy_em_eeprom.c ****             emEepromAddr = 0u;
 127              		.loc 1 792 0
 128 0016 0023     		movs	r3, #0
 129              	.LVL14:
 130              	.L8:
 793:Generated_Source\PSoC6\pdl\middleware\em_eeprom/cy_em_eeprom.c ****             /* Exit the loop as we reached the end of EEPROM */
 794:Generated_Source\PSoC6\pdl\middleware\em_eeprom/cy_em_eeprom.c ****             break;
 795:Generated_Source\PSoC6\pdl\middleware\em_eeprom/cy_em_eeprom.c ****         }
 796:Generated_Source\PSoC6\pdl\middleware\em_eeprom/cy_em_eeprom.c ****     }
 797:Generated_Source\PSoC6\pdl\middleware\em_eeprom/cy_em_eeprom.c **** 
 798:Generated_Source\PSoC6\pdl\middleware\em_eeprom/cy_em_eeprom.c ****     return (emEepromAddr);
 799:Generated_Source\PSoC6\pdl\middleware\em_eeprom/cy_em_eeprom.c **** }
 131              		.loc 1 799 0
 132 0018 1846     		mov	r0, r3
 133              	.LVL15:
 134 001a 7047     		bx	lr
 135              		.cfi_endproc
 136              	.LFE138:
 137              		.size	GetRowAddrBySeqNum, .-GetRowAddrBySeqNum
 138              		.section	.text.GetNextRowToWrite,"ax",%progbits
 139              		.align	2
 140              		.thumb
 141              		.thumb_func
 142              		.type	GetNextRowToWrite, %function
 143              	GetNextRowToWrite:
 144              	.LFB139:
 800:Generated_Source\PSoC6\pdl\middleware\em_eeprom/cy_em_eeprom.c **** 
 801:Generated_Source\PSoC6\pdl\middleware\em_eeprom/cy_em_eeprom.c **** 
 802:Generated_Source\PSoC6\pdl\middleware\em_eeprom/cy_em_eeprom.c **** /*******************************************************************************
 803:Generated_Source\PSoC6\pdl\middleware\em_eeprom/cy_em_eeprom.c **** * Function Name: GetNextRowToWrite
 804:Generated_Source\PSoC6\pdl\middleware\em_eeprom/cy_em_eeprom.c **** ****************************************************************************//**
 805:Generated_Source\PSoC6\pdl\middleware\em_eeprom/cy_em_eeprom.c **** *
 806:Generated_Source\PSoC6\pdl\middleware\em_eeprom/cy_em_eeprom.c **** * Performs a range check of the row that should be written and updates the
 807:Generated_Source\PSoC6\pdl\middleware\em_eeprom/cy_em_eeprom.c **** * address to the row respectively. The similar actions are done for the read
 808:Generated_Source\PSoC6\pdl\middleware\em_eeprom/cy_em_eeprom.c **** * address.
 809:Generated_Source\PSoC6\pdl\middleware\em_eeprom/cy_em_eeprom.c **** *
 810:Generated_Source\PSoC6\pdl\middleware\em_eeprom/cy_em_eeprom.c **** * \param seqNum
 811:Generated_Source\PSoC6\pdl\middleware\em_eeprom/cy_em_eeprom.c **** * The sequence number of the last written row.
 812:Generated_Source\PSoC6\pdl\middleware\em_eeprom/cy_em_eeprom.c **** *
 813:Generated_Source\PSoC6\pdl\middleware\em_eeprom/cy_em_eeprom.c **** * \param rowToWrPtr
 814:Generated_Source\PSoC6\pdl\middleware\em_eeprom/cy_em_eeprom.c **** * The address of the last written row (input). The address of the row to be 
 815:Generated_Source\PSoC6\pdl\middleware\em_eeprom/cy_em_eeprom.c **** * written (output).
 816:Generated_Source\PSoC6\pdl\middleware\em_eeprom/cy_em_eeprom.c **** *
 817:Generated_Source\PSoC6\pdl\middleware\em_eeprom/cy_em_eeprom.c **** * \param rowToRdPtr
 818:Generated_Source\PSoC6\pdl\middleware\em_eeprom/cy_em_eeprom.c **** * The address of the row from which the data should be read into the RAM buffer
 819:Generated_Source\PSoC6\pdl\middleware\em_eeprom/cy_em_eeprom.c **** * in a later write operation. Out parameter.
ARM GAS  C:\Users\eduar\AppData\Local\Temp\ccwtx1iP.s 			page 18


 820:Generated_Source\PSoC6\pdl\middleware\em_eeprom/cy_em_eeprom.c **** *
 821:Generated_Source\PSoC6\pdl\middleware\em_eeprom/cy_em_eeprom.c **** * \param context
 822:Generated_Source\PSoC6\pdl\middleware\em_eeprom/cy_em_eeprom.c **** * The pointer to the EEPROM context structure \ref cy_stc_eeprom_context_t.
 823:Generated_Source\PSoC6\pdl\middleware\em_eeprom/cy_em_eeprom.c **** *
 824:Generated_Source\PSoC6\pdl\middleware\em_eeprom/cy_em_eeprom.c **** *******************************************************************************/
 825:Generated_Source\PSoC6\pdl\middleware\em_eeprom/cy_em_eeprom.c **** static void GetNextRowToWrite(uint32_t seqNum,
 826:Generated_Source\PSoC6\pdl\middleware\em_eeprom/cy_em_eeprom.c ****                             uint32_t * rowToWrPtr,
 827:Generated_Source\PSoC6\pdl\middleware\em_eeprom/cy_em_eeprom.c ****                             uint32_t * rowToRdPtr,
 828:Generated_Source\PSoC6\pdl\middleware\em_eeprom/cy_em_eeprom.c ****                             cy_stc_eeprom_context_t * context)
 829:Generated_Source\PSoC6\pdl\middleware\em_eeprom/cy_em_eeprom.c **** {
 145              		.loc 1 829 0
 146              		.cfi_startproc
 147              		@ args = 0, pretend = 0, frame = 0
 148              		@ frame_needed = 0, uses_anonymous_args = 0
 149              		@ link register save eliminated.
 150              	.LVL16:
 151 0000 30B4     		push	{r4, r5}
 152              		.cfi_def_cfa_offset 8
 153              		.cfi_offset 4, -8
 154              		.cfi_offset 5, -4
 830:Generated_Source\PSoC6\pdl\middleware\em_eeprom/cy_em_eeprom.c ****     /* Switch to the next row to be written if the current sequence number is
 831:Generated_Source\PSoC6\pdl\middleware\em_eeprom/cy_em_eeprom.c ****     * not zero.
 832:Generated_Source\PSoC6\pdl\middleware\em_eeprom/cy_em_eeprom.c ****     */
 833:Generated_Source\PSoC6\pdl\middleware\em_eeprom/cy_em_eeprom.c ****     if(0u != seqNum)
 155              		.loc 1 833 0
 156 0002 0446     		mov	r4, r0
 157 0004 18B1     		cbz	r0, .L12
 834:Generated_Source\PSoC6\pdl\middleware\em_eeprom/cy_em_eeprom.c ****     {
 835:Generated_Source\PSoC6\pdl\middleware\em_eeprom/cy_em_eeprom.c ****         *rowToWrPtr = (*rowToWrPtr + CY_EM_EEPROM_FLASH_SIZEOF_ROW);
 158              		.loc 1 835 0
 159 0006 0868     		ldr	r0, [r1]
 160              	.LVL17:
 161 0008 00F50070 		add	r0, r0, #512
 162 000c 0860     		str	r0, [r1]
 163              	.L12:
 836:Generated_Source\PSoC6\pdl\middleware\em_eeprom/cy_em_eeprom.c ****     }
 837:Generated_Source\PSoC6\pdl\middleware\em_eeprom/cy_em_eeprom.c **** 
 838:Generated_Source\PSoC6\pdl\middleware\em_eeprom/cy_em_eeprom.c ****     /* If the resulting row address is out of EEPROM, then switch to the base
 839:Generated_Source\PSoC6\pdl\middleware\em_eeprom/cy_em_eeprom.c ****     * EEPROM address (Row#0).
 840:Generated_Source\PSoC6\pdl\middleware\em_eeprom/cy_em_eeprom.c ****     */
 841:Generated_Source\PSoC6\pdl\middleware\em_eeprom/cy_em_eeprom.c ****     if(CY_EM_EEPROM_ADDR_IN_RANGE !=
 842:Generated_Source\PSoC6\pdl\middleware\em_eeprom/cy_em_eeprom.c ****             CY_EM_EEPROM_IS_ADDR_EXCEED_RANGE(*rowToWrPtr, context->wlEndAddr))
 164              		.loc 1 842 0
 165 000e 0D68     		ldr	r5, [r1]
 166 0010 1868     		ldr	r0, [r3]
 841:Generated_Source\PSoC6\pdl\middleware\em_eeprom/cy_em_eeprom.c ****             CY_EM_EEPROM_IS_ADDR_EXCEED_RANGE(*rowToWrPtr, context->wlEndAddr))
 167              		.loc 1 841 0
 168 0012 8542     		cmp	r5, r0
 169 0014 01D3     		bcc	.L13
 843:Generated_Source\PSoC6\pdl\middleware\em_eeprom/cy_em_eeprom.c ****     {
 844:Generated_Source\PSoC6\pdl\middleware\em_eeprom/cy_em_eeprom.c ****         *rowToWrPtr = context->userFlashStartAddr;
 170              		.loc 1 844 0
 171 0016 9869     		ldr	r0, [r3, #24]
 172 0018 0860     		str	r0, [r1]
 173              	.L13:
 845:Generated_Source\PSoC6\pdl\middleware\em_eeprom/cy_em_eeprom.c ****     }
 846:Generated_Source\PSoC6\pdl\middleware\em_eeprom/cy_em_eeprom.c **** 
ARM GAS  C:\Users\eduar\AppData\Local\Temp\ccwtx1iP.s 			page 19


 847:Generated_Source\PSoC6\pdl\middleware\em_eeprom/cy_em_eeprom.c ****     *rowToRdPtr = 0u;
 174              		.loc 1 847 0
 175 001a 0020     		movs	r0, #0
 176 001c 1060     		str	r0, [r2]
 848:Generated_Source\PSoC6\pdl\middleware\em_eeprom/cy_em_eeprom.c **** 
 849:Generated_Source\PSoC6\pdl\middleware\em_eeprom/cy_em_eeprom.c ****     /* Check if the sequence number is larger than the number of rows in the EEPROM.
 850:Generated_Source\PSoC6\pdl\middleware\em_eeprom/cy_em_eeprom.c ****     * If not, do not update the row read address because there is no historic
 851:Generated_Source\PSoC6\pdl\middleware\em_eeprom/cy_em_eeprom.c ****     * data to be read.
 852:Generated_Source\PSoC6\pdl\middleware\em_eeprom/cy_em_eeprom.c ****     */
 853:Generated_Source\PSoC6\pdl\middleware\em_eeprom/cy_em_eeprom.c ****     if(context->numberOfRows <= seqNum)
 177              		.loc 1 853 0
 178 001e 5868     		ldr	r0, [r3, #4]
 179 0020 8442     		cmp	r4, r0
 180 0022 16D3     		bcc	.L11
 854:Generated_Source\PSoC6\pdl\middleware\em_eeprom/cy_em_eeprom.c ****     {
 855:Generated_Source\PSoC6\pdl\middleware\em_eeprom/cy_em_eeprom.c ****         /* Check if wear leveling is used in EEPROM */
 856:Generated_Source\PSoC6\pdl\middleware\em_eeprom/cy_em_eeprom.c ****         if(context->wearLevelingFactor > 1u)
 181              		.loc 1 856 0
 182 0024 1C69     		ldr	r4, [r3, #16]
 183              	.LVL18:
 184 0026 012C     		cmp	r4, #1
 185 0028 11D9     		bls	.L15
 857:Generated_Source\PSoC6\pdl\middleware\em_eeprom/cy_em_eeprom.c ****         {
 858:Generated_Source\PSoC6\pdl\middleware\em_eeprom/cy_em_eeprom.c ****             /* The read row address should be taken from an EEPROM copy that became
 859:Generated_Source\PSoC6\pdl\middleware\em_eeprom/cy_em_eeprom.c ****             * inactive recently. This condition check handles that.
 860:Generated_Source\PSoC6\pdl\middleware\em_eeprom/cy_em_eeprom.c ****             */
 861:Generated_Source\PSoC6\pdl\middleware\em_eeprom/cy_em_eeprom.c ****             if((*rowToWrPtr - (context->numberOfRows * CY_EM_EEPROM_FLASH_SIZEOF_ROW)) <
 186              		.loc 1 861 0
 187 002a 0968     		ldr	r1, [r1]
 188              	.LVL19:
 189 002c A1EB4025 		sub	r5, r1, r0, lsl #9
 862:Generated_Source\PSoC6\pdl\middleware\em_eeprom/cy_em_eeprom.c ****                 context->userFlashStartAddr)
 190              		.loc 1 862 0
 191 0030 9B69     		ldr	r3, [r3, #24]
 192              	.LVL20:
 861:Generated_Source\PSoC6\pdl\middleware\em_eeprom/cy_em_eeprom.c ****                 context->userFlashStartAddr)
 193              		.loc 1 861 0
 194 0032 9D42     		cmp	r5, r3
 195 0034 09D2     		bcs	.L16
 863:Generated_Source\PSoC6\pdl\middleware\em_eeprom/cy_em_eeprom.c ****             {
 864:Generated_Source\PSoC6\pdl\middleware\em_eeprom/cy_em_eeprom.c ****                 *rowToRdPtr = context->userFlashStartAddr +
 865:Generated_Source\PSoC6\pdl\middleware\em_eeprom/cy_em_eeprom.c ****                     (context->numberOfRows * (context->wearLevelingFactor - 1u) *
 196              		.loc 1 865 0
 197 0036 084D     		ldr	r5, .L18
 198 0038 2544     		add	r5, r5, r4
 199 003a 00FB05F0 		mul	r0, r0, r5
 864:Generated_Source\PSoC6\pdl\middleware\em_eeprom/cy_em_eeprom.c ****                     (context->numberOfRows * (context->wearLevelingFactor - 1u) *
 200              		.loc 1 864 0
 201 003e 03EB4020 		add	r0, r3, r0, lsl #9
 866:Generated_Source\PSoC6\pdl\middleware\em_eeprom/cy_em_eeprom.c ****                         CY_EM_EEPROM_FLASH_SIZEOF_ROW) + (*rowToWrPtr - context->userFlashStartAddr
 202              		.loc 1 866 0
 203 0042 C91A     		subs	r1, r1, r3
 204 0044 0844     		add	r0, r0, r1
 864:Generated_Source\PSoC6\pdl\middleware\em_eeprom/cy_em_eeprom.c ****                     (context->numberOfRows * (context->wearLevelingFactor - 1u) *
 205              		.loc 1 864 0
 206 0046 1060     		str	r0, [r2]
 207 0048 03E0     		b	.L11
ARM GAS  C:\Users\eduar\AppData\Local\Temp\ccwtx1iP.s 			page 20


 208              	.L16:
 867:Generated_Source\PSoC6\pdl\middleware\em_eeprom/cy_em_eeprom.c ****             }
 868:Generated_Source\PSoC6\pdl\middleware\em_eeprom/cy_em_eeprom.c ****             else
 869:Generated_Source\PSoC6\pdl\middleware\em_eeprom/cy_em_eeprom.c ****             {
 870:Generated_Source\PSoC6\pdl\middleware\em_eeprom/cy_em_eeprom.c ****                 *rowToRdPtr = *rowToWrPtr - (context->numberOfRows * CY_EM_EEPROM_FLASH_SIZEOF_ROW)
 209              		.loc 1 870 0
 210 004a 1560     		str	r5, [r2]
 211 004c 01E0     		b	.L11
 212              	.LVL21:
 213              	.L15:
 871:Generated_Source\PSoC6\pdl\middleware\em_eeprom/cy_em_eeprom.c ****             }
 872:Generated_Source\PSoC6\pdl\middleware\em_eeprom/cy_em_eeprom.c ****         }
 873:Generated_Source\PSoC6\pdl\middleware\em_eeprom/cy_em_eeprom.c ****         else
 874:Generated_Source\PSoC6\pdl\middleware\em_eeprom/cy_em_eeprom.c ****         {
 875:Generated_Source\PSoC6\pdl\middleware\em_eeprom/cy_em_eeprom.c ****             /* If no wear leveling, always read from the same flash row that
 876:Generated_Source\PSoC6\pdl\middleware\em_eeprom/cy_em_eeprom.c ****             * should be written.
 877:Generated_Source\PSoC6\pdl\middleware\em_eeprom/cy_em_eeprom.c ****             */
 878:Generated_Source\PSoC6\pdl\middleware\em_eeprom/cy_em_eeprom.c ****             *rowToRdPtr = *rowToWrPtr;
 214              		.loc 1 878 0
 215 004e 0B68     		ldr	r3, [r1]
 216              	.LVL22:
 217 0050 1360     		str	r3, [r2]
 218              	.LVL23:
 219              	.L11:
 879:Generated_Source\PSoC6\pdl\middleware\em_eeprom/cy_em_eeprom.c ****         }
 880:Generated_Source\PSoC6\pdl\middleware\em_eeprom/cy_em_eeprom.c ****     }
 881:Generated_Source\PSoC6\pdl\middleware\em_eeprom/cy_em_eeprom.c **** }
 220              		.loc 1 881 0
 221 0052 30BC     		pop	{r4, r5}
 222              		.cfi_restore 5
 223              		.cfi_restore 4
 224              		.cfi_def_cfa_offset 0
 225 0054 7047     		bx	lr
 226              	.L19:
 227 0056 00BF     		.align	2
 228              	.L18:
 229 0058 FFFF7F00 		.word	8388607
 230              		.cfi_endproc
 231              	.LFE139:
 232              		.size	GetNextRowToWrite, .-GetNextRowToWrite
 233              		.section	.text.CalcChecksum,"ax",%progbits
 234              		.align	2
 235              		.thumb
 236              		.thumb_func
 237              		.type	CalcChecksum, %function
 238              	CalcChecksum:
 239              	.LFB140:
 882:Generated_Source\PSoC6\pdl\middleware\em_eeprom/cy_em_eeprom.c **** 
 883:Generated_Source\PSoC6\pdl\middleware\em_eeprom/cy_em_eeprom.c **** 
 884:Generated_Source\PSoC6\pdl\middleware\em_eeprom/cy_em_eeprom.c **** /*******************************************************************************
 885:Generated_Source\PSoC6\pdl\middleware\em_eeprom/cy_em_eeprom.c **** * Function Name: CalcChecksum
 886:Generated_Source\PSoC6\pdl\middleware\em_eeprom/cy_em_eeprom.c **** ****************************************************************************//**
 887:Generated_Source\PSoC6\pdl\middleware\em_eeprom/cy_em_eeprom.c **** *
 888:Generated_Source\PSoC6\pdl\middleware\em_eeprom/cy_em_eeprom.c **** * Implements CRC-8 that is used in checksum calculation for the redundant copy
 889:Generated_Source\PSoC6\pdl\middleware\em_eeprom/cy_em_eeprom.c **** * algorithm.
 890:Generated_Source\PSoC6\pdl\middleware\em_eeprom/cy_em_eeprom.c **** *
 891:Generated_Source\PSoC6\pdl\middleware\em_eeprom/cy_em_eeprom.c **** * \param rowData
ARM GAS  C:\Users\eduar\AppData\Local\Temp\ccwtx1iP.s 			page 21


 892:Generated_Source\PSoC6\pdl\middleware\em_eeprom/cy_em_eeprom.c **** * The row data to be used to calculate the checksum.
 893:Generated_Source\PSoC6\pdl\middleware\em_eeprom/cy_em_eeprom.c **** *
 894:Generated_Source\PSoC6\pdl\middleware\em_eeprom/cy_em_eeprom.c **** * \param len
 895:Generated_Source\PSoC6\pdl\middleware\em_eeprom/cy_em_eeprom.c **** * The length of rowData.
 896:Generated_Source\PSoC6\pdl\middleware\em_eeprom/cy_em_eeprom.c **** *
 897:Generated_Source\PSoC6\pdl\middleware\em_eeprom/cy_em_eeprom.c **** * \return
 898:Generated_Source\PSoC6\pdl\middleware\em_eeprom/cy_em_eeprom.c **** * The calculated value of CRC-8.
 899:Generated_Source\PSoC6\pdl\middleware\em_eeprom/cy_em_eeprom.c **** *
 900:Generated_Source\PSoC6\pdl\middleware\em_eeprom/cy_em_eeprom.c **** *******************************************************************************/
 901:Generated_Source\PSoC6\pdl\middleware\em_eeprom/cy_em_eeprom.c **** static uint8_t CalcChecksum(uint8_t rowData[], uint32_t len)
 902:Generated_Source\PSoC6\pdl\middleware\em_eeprom/cy_em_eeprom.c **** {
 240              		.loc 1 902 0
 241              		.cfi_startproc
 242              		@ args = 0, pretend = 0, frame = 0
 243              		@ frame_needed = 0, uses_anonymous_args = 0
 244              		@ link register save eliminated.
 245              	.LVL24:
 246 0000 10B4     		push	{r4}
 247              		.cfi_def_cfa_offset 4
 248              		.cfi_offset 4, -4
 249 0002 0446     		mov	r4, r0
 250              	.LVL25:
 903:Generated_Source\PSoC6\pdl\middleware\em_eeprom/cy_em_eeprom.c ****     uint8_t crc = CY_EM_EEPROM_CRC8_SEED;
 904:Generated_Source\PSoC6\pdl\middleware\em_eeprom/cy_em_eeprom.c ****     uint8_t i;
 905:Generated_Source\PSoC6\pdl\middleware\em_eeprom/cy_em_eeprom.c ****     uint16_t cnt = 0u;
 251              		.loc 1 905 0
 252 0004 0022     		movs	r2, #0
 903:Generated_Source\PSoC6\pdl\middleware\em_eeprom/cy_em_eeprom.c ****     uint8_t crc = CY_EM_EEPROM_CRC8_SEED;
 253              		.loc 1 903 0
 254 0006 FF20     		movs	r0, #255
 255              	.LVL26:
 906:Generated_Source\PSoC6\pdl\middleware\em_eeprom/cy_em_eeprom.c **** 
 907:Generated_Source\PSoC6\pdl\middleware\em_eeprom/cy_em_eeprom.c ****     while(cnt != len)
 256              		.loc 1 907 0
 257 0008 13E0     		b	.L21
 258              	.LVL27:
 259              	.L26:
 908:Generated_Source\PSoC6\pdl\middleware\em_eeprom/cy_em_eeprom.c ****     {
 909:Generated_Source\PSoC6\pdl\middleware\em_eeprom/cy_em_eeprom.c ****         crc ^= rowData[cnt];
 260              		.loc 1 909 0
 261 000a A35C     		ldrb	r3, [r4, r2]	@ zero_extendqisi2
 262 000c 5840     		eors	r0, r0, r3
 263              	.LVL28:
 910:Generated_Source\PSoC6\pdl\middleware\em_eeprom/cy_em_eeprom.c ****         for (i = 0u; i < CY_EM_EEPROM_CRC8_POLYNOM_LEN; i++)
 264              		.loc 1 910 0
 265 000e 0023     		movs	r3, #0
 266 0010 0BE0     		b	.L22
 267              	.LVL29:
 268              	.L25:
 911:Generated_Source\PSoC6\pdl\middleware\em_eeprom/cy_em_eeprom.c ****         {
 912:Generated_Source\PSoC6\pdl\middleware\em_eeprom/cy_em_eeprom.c ****             crc = CY_EM_EEPROM_CALCULATE_CRC8(crc);
 269              		.loc 1 912 0
 270 0012 10F0800F 		tst	r0, #128
 271 0016 04D0     		beq	.L23
 272              		.loc 1 912 0 is_stmt 0 discriminator 1
 273 0018 4000     		lsls	r0, r0, #1
 274              	.LVL30:
ARM GAS  C:\Users\eduar\AppData\Local\Temp\ccwtx1iP.s 			page 22


 275 001a C0B2     		uxtb	r0, r0
 276 001c 80F03100 		eor	r0, r0, #49
 277 0020 01E0     		b	.L24
 278              	.LVL31:
 279              	.L23:
 280              		.loc 1 912 0 discriminator 2
 281 0022 4000     		lsls	r0, r0, #1
 282              	.LVL32:
 283 0024 C0B2     		uxtb	r0, r0
 284              	.L24:
 285              	.LVL33:
 910:Generated_Source\PSoC6\pdl\middleware\em_eeprom/cy_em_eeprom.c ****         for (i = 0u; i < CY_EM_EEPROM_CRC8_POLYNOM_LEN; i++)
 286              		.loc 1 910 0 is_stmt 1 discriminator 4
 287 0026 0133     		adds	r3, r3, #1
 288              	.LVL34:
 289 0028 DBB2     		uxtb	r3, r3
 290              	.LVL35:
 291              	.L22:
 910:Generated_Source\PSoC6\pdl\middleware\em_eeprom/cy_em_eeprom.c ****         for (i = 0u; i < CY_EM_EEPROM_CRC8_POLYNOM_LEN; i++)
 292              		.loc 1 910 0 is_stmt 0 discriminator 2
 293 002a 072B     		cmp	r3, #7
 294 002c F1D9     		bls	.L25
 913:Generated_Source\PSoC6\pdl\middleware\em_eeprom/cy_em_eeprom.c ****         }
 914:Generated_Source\PSoC6\pdl\middleware\em_eeprom/cy_em_eeprom.c ****         cnt++;
 295              		.loc 1 914 0 is_stmt 1
 296 002e 0132     		adds	r2, r2, #1
 297              	.LVL36:
 298 0030 92B2     		uxth	r2, r2
 299              	.LVL37:
 300              	.L21:
 907:Generated_Source\PSoC6\pdl\middleware\em_eeprom/cy_em_eeprom.c ****     {
 301              		.loc 1 907 0
 302 0032 8A42     		cmp	r2, r1
 303 0034 E9D1     		bne	.L26
 915:Generated_Source\PSoC6\pdl\middleware\em_eeprom/cy_em_eeprom.c ****     }
 916:Generated_Source\PSoC6\pdl\middleware\em_eeprom/cy_em_eeprom.c **** 
 917:Generated_Source\PSoC6\pdl\middleware\em_eeprom/cy_em_eeprom.c ****     return (crc);
 918:Generated_Source\PSoC6\pdl\middleware\em_eeprom/cy_em_eeprom.c **** }
 304              		.loc 1 918 0
 305 0036 5DF8044B 		ldr	r4, [sp], #4
 306              		.cfi_restore 4
 307              		.cfi_def_cfa_offset 0
 308              	.LVL38:
 309 003a 7047     		bx	lr
 310              		.cfi_endproc
 311              	.LFE140:
 312              		.size	CalcChecksum, .-CalcChecksum
 313              		.section	.text.CheckRanges,"ax",%progbits
 314              		.align	2
 315              		.thumb
 316              		.thumb_func
 317              		.type	CheckRanges, %function
 318              	CheckRanges:
 319              	.LFB141:
 919:Generated_Source\PSoC6\pdl\middleware\em_eeprom/cy_em_eeprom.c **** 
 920:Generated_Source\PSoC6\pdl\middleware\em_eeprom/cy_em_eeprom.c **** 
 921:Generated_Source\PSoC6\pdl\middleware\em_eeprom/cy_em_eeprom.c **** /*******************************************************************************
ARM GAS  C:\Users\eduar\AppData\Local\Temp\ccwtx1iP.s 			page 23


 922:Generated_Source\PSoC6\pdl\middleware\em_eeprom/cy_em_eeprom.c **** * Function Name: CheckRanges
 923:Generated_Source\PSoC6\pdl\middleware\em_eeprom/cy_em_eeprom.c **** ****************************************************************************//**
 924:Generated_Source\PSoC6\pdl\middleware\em_eeprom/cy_em_eeprom.c **** *
 925:Generated_Source\PSoC6\pdl\middleware\em_eeprom/cy_em_eeprom.c **** * Checks if the EEPROM of the requested size can be placed in flash.
 926:Generated_Source\PSoC6\pdl\middleware\em_eeprom/cy_em_eeprom.c **** *
 927:Generated_Source\PSoC6\pdl\middleware\em_eeprom/cy_em_eeprom.c **** * \param config
 928:Generated_Source\PSoC6\pdl\middleware\em_eeprom/cy_em_eeprom.c **** * The pointer to a configuration structure. See \ref cy_stc_eeprom_config_t.
 929:Generated_Source\PSoC6\pdl\middleware\em_eeprom/cy_em_eeprom.c **** *
 930:Generated_Source\PSoC6\pdl\middleware\em_eeprom/cy_em_eeprom.c **** * \return
 931:Generated_Source\PSoC6\pdl\middleware\em_eeprom/cy_em_eeprom.c **** * error / status code. See \ref cy_en_em_eeprom_status_t.
 932:Generated_Source\PSoC6\pdl\middleware\em_eeprom/cy_em_eeprom.c **** *
 933:Generated_Source\PSoC6\pdl\middleware\em_eeprom/cy_em_eeprom.c **** *******************************************************************************/
 934:Generated_Source\PSoC6\pdl\middleware\em_eeprom/cy_em_eeprom.c **** static cy_en_em_eeprom_status_t CheckRanges(cy_stc_eeprom_config_t* config)
 935:Generated_Source\PSoC6\pdl\middleware\em_eeprom/cy_em_eeprom.c **** {
 320              		.loc 1 935 0
 321              		.cfi_startproc
 322              		@ args = 0, pretend = 0, frame = 0
 323              		@ frame_needed = 0, uses_anonymous_args = 0
 324              		@ link register save eliminated.
 325              	.LVL39:
 936:Generated_Source\PSoC6\pdl\middleware\em_eeprom/cy_em_eeprom.c ****     cy_en_em_eeprom_status_t ret = CY_EM_EEPROM_BAD_DATA;
 937:Generated_Source\PSoC6\pdl\middleware\em_eeprom/cy_em_eeprom.c ****     uint32_t startAddr = config->userFlashStartAddr;
 326              		.loc 1 937 0
 327 0000 C168     		ldr	r1, [r0, #12]
 328              	.LVL40:
 938:Generated_Source\PSoC6\pdl\middleware\em_eeprom/cy_em_eeprom.c ****     uint32_t endAddr = startAddr + CY_EM_EEPROM_GET_PHYSICAL_SIZE(config->eepromSize,
 329              		.loc 1 938 0
 330 0002 0268     		ldr	r2, [r0]
 331 0004 130A     		lsrs	r3, r2, #8
 332 0006 12F0FF02 		ands	r2, r2, #255
 333 000a 00D0     		beq	.L29
 334 000c 0122     		movs	r2, #1
 335              	.L29:
 336              		.loc 1 938 0 is_stmt 0 discriminator 4
 337 000e 1A44     		add	r2, r2, r3
 338 0010 4368     		ldr	r3, [r0, #4]
 339 0012 03FB02F3 		mul	r3, r3, r2
 340 0016 027A     		ldrb	r2, [r0, #8]	@ zero_extendqisi2
 341 0018 02FB0333 		mla	r3, r2, r3, r3
 342 001c 01EB4323 		add	r3, r1, r3, lsl #9
 343              	.LVL41:
 939:Generated_Source\PSoC6\pdl\middleware\em_eeprom/cy_em_eeprom.c ****             config->wearLevelingFactor, config->redundantCopy);
 940:Generated_Source\PSoC6\pdl\middleware\em_eeprom/cy_em_eeprom.c **** 
 941:Generated_Source\PSoC6\pdl\middleware\em_eeprom/cy_em_eeprom.c ****     /* Range check if there is enough flash for EEPROM */
 942:Generated_Source\PSoC6\pdl\middleware\em_eeprom/cy_em_eeprom.c ****     if (CY_EM_EEPROM_IS_IN_FLASH_RANGE(startAddr, endAddr))
 344              		.loc 1 942 0 is_stmt 1 discriminator 4
 345 0020 B1F1805F 		cmp	r1, #268435456
 346 0024 02D9     		bls	.L30
 347              		.loc 1 942 0 is_stmt 0 discriminator 1
 348 0026 084A     		ldr	r2, .L35
 349 0028 9342     		cmp	r3, r2
 350 002a 07D9     		bls	.L32
 351              	.L30:
 352              		.loc 1 942 0 discriminator 3
 353 002c B1F1A05F 		cmp	r1, #335544320
 354 0030 06D3     		bcc	.L33
 355              		.loc 1 942 0 discriminator 4
ARM GAS  C:\Users\eduar\AppData\Local\Temp\ccwtx1iP.s 			page 24


 356 0032 064A     		ldr	r2, .L35+4
 357 0034 9342     		cmp	r3, r2
 358 0036 05D9     		bls	.L34
 936:Generated_Source\PSoC6\pdl\middleware\em_eeprom/cy_em_eeprom.c ****     uint32_t startAddr = config->userFlashStartAddr;
 359              		.loc 1 936 0 is_stmt 1
 360 0038 0548     		ldr	r0, .L35+8
 361              	.LVL42:
 362 003a 7047     		bx	lr
 363              	.LVL43:
 364              	.L32:
 943:Generated_Source\PSoC6\pdl\middleware\em_eeprom/cy_em_eeprom.c ****     {
 944:Generated_Source\PSoC6\pdl\middleware\em_eeprom/cy_em_eeprom.c ****         ret = CY_EM_EEPROM_SUCCESS;
 365              		.loc 1 944 0
 366 003c 0020     		movs	r0, #0
 367              	.LVL44:
 368 003e 7047     		bx	lr
 369              	.LVL45:
 370              	.L33:
 936:Generated_Source\PSoC6\pdl\middleware\em_eeprom/cy_em_eeprom.c ****     uint32_t startAddr = config->userFlashStartAddr;
 371              		.loc 1 936 0
 372 0040 0348     		ldr	r0, .L35+8
 373              	.LVL46:
 374 0042 7047     		bx	lr
 375              	.LVL47:
 376              	.L34:
 377              		.loc 1 944 0
 378 0044 0020     		movs	r0, #0
 379              	.LVL48:
 945:Generated_Source\PSoC6\pdl\middleware\em_eeprom/cy_em_eeprom.c ****     }
 946:Generated_Source\PSoC6\pdl\middleware\em_eeprom/cy_em_eeprom.c ****     return (ret);
 947:Generated_Source\PSoC6\pdl\middleware\em_eeprom/cy_em_eeprom.c **** }
 380              		.loc 1 947 0
 381 0046 7047     		bx	lr
 382              	.L36:
 383              		.align	2
 384              	.L35:
 385 0048 00001010 		.word	269484032
 386 004c 00800014 		.word	335577088
 387 0050 03006E00 		.word	7208963
 388              		.cfi_endproc
 389              	.LFE141:
 390              		.size	CheckRanges, .-CheckRanges
 391              		.section	.text.GetAddresses,"ax",%progbits
 392              		.align	2
 393              		.thumb
 394              		.thumb_func
 395              		.type	GetAddresses, %function
 396              	GetAddresses:
 397              	.LFB145:
 948:Generated_Source\PSoC6\pdl\middleware\em_eeprom/cy_em_eeprom.c **** 
 949:Generated_Source\PSoC6\pdl\middleware\em_eeprom/cy_em_eeprom.c **** 
 950:Generated_Source\PSoC6\pdl\middleware\em_eeprom/cy_em_eeprom.c **** /*******************************************************************************
 951:Generated_Source\PSoC6\pdl\middleware\em_eeprom/cy_em_eeprom.c **** * Function Name: WriteRow
 952:Generated_Source\PSoC6\pdl\middleware\em_eeprom/cy_em_eeprom.c **** ****************************************************************************//**
 953:Generated_Source\PSoC6\pdl\middleware\em_eeprom/cy_em_eeprom.c **** *
 954:Generated_Source\PSoC6\pdl\middleware\em_eeprom/cy_em_eeprom.c **** * Writes one flash row starting from the specified row address.
 955:Generated_Source\PSoC6\pdl\middleware\em_eeprom/cy_em_eeprom.c **** *
ARM GAS  C:\Users\eduar\AppData\Local\Temp\ccwtx1iP.s 			page 25


 956:Generated_Source\PSoC6\pdl\middleware\em_eeprom/cy_em_eeprom.c **** * \param rowAdd
 957:Generated_Source\PSoC6\pdl\middleware\em_eeprom/cy_em_eeprom.c **** * The address of the flash row.
 958:Generated_Source\PSoC6\pdl\middleware\em_eeprom/cy_em_eeprom.c **** *
 959:Generated_Source\PSoC6\pdl\middleware\em_eeprom/cy_em_eeprom.c **** * \param rowData
 960:Generated_Source\PSoC6\pdl\middleware\em_eeprom/cy_em_eeprom.c **** * The pointer to the data to be written to the row.
 961:Generated_Source\PSoC6\pdl\middleware\em_eeprom/cy_em_eeprom.c **** *
 962:Generated_Source\PSoC6\pdl\middleware\em_eeprom/cy_em_eeprom.c **** * \param context
 963:Generated_Source\PSoC6\pdl\middleware\em_eeprom/cy_em_eeprom.c **** * The pointer to the EEPROM context structure \ref cy_stc_eeprom_context_t.
 964:Generated_Source\PSoC6\pdl\middleware\em_eeprom/cy_em_eeprom.c **** *
 965:Generated_Source\PSoC6\pdl\middleware\em_eeprom/cy_em_eeprom.c **** * \return
 966:Generated_Source\PSoC6\pdl\middleware\em_eeprom/cy_em_eeprom.c **** * error / status code. See \ref cy_en_em_eeprom_status_t.
 967:Generated_Source\PSoC6\pdl\middleware\em_eeprom/cy_em_eeprom.c **** *
 968:Generated_Source\PSoC6\pdl\middleware\em_eeprom/cy_em_eeprom.c **** *******************************************************************************/
 969:Generated_Source\PSoC6\pdl\middleware\em_eeprom/cy_em_eeprom.c **** static cy_en_em_eeprom_status_t WriteRow(uint32_t rowAddr,
 970:Generated_Source\PSoC6\pdl\middleware\em_eeprom/cy_em_eeprom.c ****                                         uint32_t *rowData,
 971:Generated_Source\PSoC6\pdl\middleware\em_eeprom/cy_em_eeprom.c ****                                         cy_stc_eeprom_context_t * context)
 972:Generated_Source\PSoC6\pdl\middleware\em_eeprom/cy_em_eeprom.c **** {
 973:Generated_Source\PSoC6\pdl\middleware\em_eeprom/cy_em_eeprom.c ****     cy_en_em_eeprom_status_t ret = CY_EM_EEPROM_WRITE_FAIL;
 974:Generated_Source\PSoC6\pdl\middleware\em_eeprom/cy_em_eeprom.c ****     if(0u != context->blockingWrite)
 975:Generated_Source\PSoC6\pdl\middleware\em_eeprom/cy_em_eeprom.c ****     {
 976:Generated_Source\PSoC6\pdl\middleware\em_eeprom/cy_em_eeprom.c ****         /* Do blocking write */
 977:Generated_Source\PSoC6\pdl\middleware\em_eeprom/cy_em_eeprom.c ****         if(CY_FLASH_DRV_SUCCESS == Cy_Flash_WriteRow(rowAddr, (const uint32_t *)rowData))
 978:Generated_Source\PSoC6\pdl\middleware\em_eeprom/cy_em_eeprom.c ****         {
 979:Generated_Source\PSoC6\pdl\middleware\em_eeprom/cy_em_eeprom.c ****             ret = CY_EM_EEPROM_SUCCESS;
 980:Generated_Source\PSoC6\pdl\middleware\em_eeprom/cy_em_eeprom.c ****         }
 981:Generated_Source\PSoC6\pdl\middleware\em_eeprom/cy_em_eeprom.c ****     }
 982:Generated_Source\PSoC6\pdl\middleware\em_eeprom/cy_em_eeprom.c ****     else
 983:Generated_Source\PSoC6\pdl\middleware\em_eeprom/cy_em_eeprom.c ****     {
 984:Generated_Source\PSoC6\pdl\middleware\em_eeprom/cy_em_eeprom.c ****         /* Initiate write */
 985:Generated_Source\PSoC6\pdl\middleware\em_eeprom/cy_em_eeprom.c ****         if(CY_FLASH_DRV_OPERATION_STARTED == Cy_Flash_StartWrite(rowAddr, (const uint32_t *)rowData
 986:Generated_Source\PSoC6\pdl\middleware\em_eeprom/cy_em_eeprom.c ****         {
 987:Generated_Source\PSoC6\pdl\middleware\em_eeprom/cy_em_eeprom.c ****             uint32_t countMs = CY_EM_EEPROM_MAX_WRITE_DURATION_MS;
 988:Generated_Source\PSoC6\pdl\middleware\em_eeprom/cy_em_eeprom.c ****             cy_en_flashdrv_status_t rc;
 989:Generated_Source\PSoC6\pdl\middleware\em_eeprom/cy_em_eeprom.c **** 
 990:Generated_Source\PSoC6\pdl\middleware\em_eeprom/cy_em_eeprom.c ****             do
 991:Generated_Source\PSoC6\pdl\middleware\em_eeprom/cy_em_eeprom.c ****             {
 992:Generated_Source\PSoC6\pdl\middleware\em_eeprom/cy_em_eeprom.c ****                 CyDelay(1u);                         /* Wait 1ms */
 993:Generated_Source\PSoC6\pdl\middleware\em_eeprom/cy_em_eeprom.c ****                 rc = Cy_Flash_IsWriteComplete();     /* Check if write completed */
 994:Generated_Source\PSoC6\pdl\middleware\em_eeprom/cy_em_eeprom.c ****                 countMs--;
 995:Generated_Source\PSoC6\pdl\middleware\em_eeprom/cy_em_eeprom.c ****             }
 996:Generated_Source\PSoC6\pdl\middleware\em_eeprom/cy_em_eeprom.c ****             while ((rc == CY_FLASH_DRV_OPCODE_BUSY) && (0u != countMs));
 997:Generated_Source\PSoC6\pdl\middleware\em_eeprom/cy_em_eeprom.c **** 
 998:Generated_Source\PSoC6\pdl\middleware\em_eeprom/cy_em_eeprom.c ****             if(CY_FLASH_DRV_SUCCESS == rc)
 999:Generated_Source\PSoC6\pdl\middleware\em_eeprom/cy_em_eeprom.c ****             {
1000:Generated_Source\PSoC6\pdl\middleware\em_eeprom/cy_em_eeprom.c ****                 ret = CY_EM_EEPROM_SUCCESS;
1001:Generated_Source\PSoC6\pdl\middleware\em_eeprom/cy_em_eeprom.c ****             }
1002:Generated_Source\PSoC6\pdl\middleware\em_eeprom/cy_em_eeprom.c ****         }
1003:Generated_Source\PSoC6\pdl\middleware\em_eeprom/cy_em_eeprom.c ****     }
1004:Generated_Source\PSoC6\pdl\middleware\em_eeprom/cy_em_eeprom.c **** 
1005:Generated_Source\PSoC6\pdl\middleware\em_eeprom/cy_em_eeprom.c ****     return (ret);
1006:Generated_Source\PSoC6\pdl\middleware\em_eeprom/cy_em_eeprom.c **** }
1007:Generated_Source\PSoC6\pdl\middleware\em_eeprom/cy_em_eeprom.c **** 
1008:Generated_Source\PSoC6\pdl\middleware\em_eeprom/cy_em_eeprom.c **** 
1009:Generated_Source\PSoC6\pdl\middleware\em_eeprom/cy_em_eeprom.c **** /*******************************************************************************
1010:Generated_Source\PSoC6\pdl\middleware\em_eeprom/cy_em_eeprom.c **** * Function Name: EraseRow
1011:Generated_Source\PSoC6\pdl\middleware\em_eeprom/cy_em_eeprom.c **** ****************************************************************************//**
1012:Generated_Source\PSoC6\pdl\middleware\em_eeprom/cy_em_eeprom.c **** *
ARM GAS  C:\Users\eduar\AppData\Local\Temp\ccwtx1iP.s 			page 26


1013:Generated_Source\PSoC6\pdl\middleware\em_eeprom/cy_em_eeprom.c **** * Erases one flash row starting from the specified row address. If the redundant
1014:Generated_Source\PSoC6\pdl\middleware\em_eeprom/cy_em_eeprom.c **** * copy option is enabled the corresponding row in the redundant copy will also
1015:Generated_Source\PSoC6\pdl\middleware\em_eeprom/cy_em_eeprom.c **** * be erased.
1016:Generated_Source\PSoC6\pdl\middleware\em_eeprom/cy_em_eeprom.c **** *
1017:Generated_Source\PSoC6\pdl\middleware\em_eeprom/cy_em_eeprom.c **** * \param rowAdd
1018:Generated_Source\PSoC6\pdl\middleware\em_eeprom/cy_em_eeprom.c **** * The address of the flash row.
1019:Generated_Source\PSoC6\pdl\middleware\em_eeprom/cy_em_eeprom.c **** *
1020:Generated_Source\PSoC6\pdl\middleware\em_eeprom/cy_em_eeprom.c **** * \param ramBuffAddr
1021:Generated_Source\PSoC6\pdl\middleware\em_eeprom/cy_em_eeprom.c **** * The address of the RAM buffer that contains zeroed data (used only for
1022:Generated_Source\PSoC6\pdl\middleware\em_eeprom/cy_em_eeprom.c **** * non-PSoC 6 devices).
1023:Generated_Source\PSoC6\pdl\middleware\em_eeprom/cy_em_eeprom.c **** *
1024:Generated_Source\PSoC6\pdl\middleware\em_eeprom/cy_em_eeprom.c **** * \param context
1025:Generated_Source\PSoC6\pdl\middleware\em_eeprom/cy_em_eeprom.c **** * The pointer to the EEPROM context structure \ref cy_stc_eeprom_context_t.
1026:Generated_Source\PSoC6\pdl\middleware\em_eeprom/cy_em_eeprom.c **** *
1027:Generated_Source\PSoC6\pdl\middleware\em_eeprom/cy_em_eeprom.c **** * \return
1028:Generated_Source\PSoC6\pdl\middleware\em_eeprom/cy_em_eeprom.c **** * error / status code. See \ref cy_en_em_eeprom_status_t.
1029:Generated_Source\PSoC6\pdl\middleware\em_eeprom/cy_em_eeprom.c **** *
1030:Generated_Source\PSoC6\pdl\middleware\em_eeprom/cy_em_eeprom.c **** *******************************************************************************/
1031:Generated_Source\PSoC6\pdl\middleware\em_eeprom/cy_em_eeprom.c **** static cy_en_em_eeprom_status_t EraseRow(uint32_t rowAddr,
1032:Generated_Source\PSoC6\pdl\middleware\em_eeprom/cy_em_eeprom.c ****                                         uint32_t ramBuffAddr,
1033:Generated_Source\PSoC6\pdl\middleware\em_eeprom/cy_em_eeprom.c ****                                         cy_stc_eeprom_context_t * context)
1034:Generated_Source\PSoC6\pdl\middleware\em_eeprom/cy_em_eeprom.c **** {
1035:Generated_Source\PSoC6\pdl\middleware\em_eeprom/cy_em_eeprom.c ****     uint32_t emEepromRowAddr = rowAddr;
1036:Generated_Source\PSoC6\pdl\middleware\em_eeprom/cy_em_eeprom.c ****     cy_en_em_eeprom_status_t ret = CY_EM_EEPROM_WRITE_FAIL;
1037:Generated_Source\PSoC6\pdl\middleware\em_eeprom/cy_em_eeprom.c ****     uint32_t i = 1u;
1038:Generated_Source\PSoC6\pdl\middleware\em_eeprom/cy_em_eeprom.c **** 
1039:Generated_Source\PSoC6\pdl\middleware\em_eeprom/cy_em_eeprom.c ****     (void)ramBuffAddr; /* To avoid compiler warning */
1040:Generated_Source\PSoC6\pdl\middleware\em_eeprom/cy_em_eeprom.c **** 
1041:Generated_Source\PSoC6\pdl\middleware\em_eeprom/cy_em_eeprom.c ****     if(0u != context->redundantCopy)
1042:Generated_Source\PSoC6\pdl\middleware\em_eeprom/cy_em_eeprom.c ****     {
1043:Generated_Source\PSoC6\pdl\middleware\em_eeprom/cy_em_eeprom.c ****         i++;
1044:Generated_Source\PSoC6\pdl\middleware\em_eeprom/cy_em_eeprom.c ****     }
1045:Generated_Source\PSoC6\pdl\middleware\em_eeprom/cy_em_eeprom.c **** 
1046:Generated_Source\PSoC6\pdl\middleware\em_eeprom/cy_em_eeprom.c ****     do
1047:Generated_Source\PSoC6\pdl\middleware\em_eeprom/cy_em_eeprom.c ****     {
1048:Generated_Source\PSoC6\pdl\middleware\em_eeprom/cy_em_eeprom.c ****         if(0u != context->blockingWrite)
1049:Generated_Source\PSoC6\pdl\middleware\em_eeprom/cy_em_eeprom.c ****         {
1050:Generated_Source\PSoC6\pdl\middleware\em_eeprom/cy_em_eeprom.c ****             /* Erase the flash row */
1051:Generated_Source\PSoC6\pdl\middleware\em_eeprom/cy_em_eeprom.c ****             if(CY_FLASH_DRV_SUCCESS == Cy_Flash_EraseRow(emEepromRowAddr))
1052:Generated_Source\PSoC6\pdl\middleware\em_eeprom/cy_em_eeprom.c ****             {
1053:Generated_Source\PSoC6\pdl\middleware\em_eeprom/cy_em_eeprom.c ****                 ret = CY_EM_EEPROM_SUCCESS;
1054:Generated_Source\PSoC6\pdl\middleware\em_eeprom/cy_em_eeprom.c ****             }
1055:Generated_Source\PSoC6\pdl\middleware\em_eeprom/cy_em_eeprom.c ****         }
1056:Generated_Source\PSoC6\pdl\middleware\em_eeprom/cy_em_eeprom.c ****         else
1057:Generated_Source\PSoC6\pdl\middleware\em_eeprom/cy_em_eeprom.c ****         {
1058:Generated_Source\PSoC6\pdl\middleware\em_eeprom/cy_em_eeprom.c ****             /* Initiate erase */
1059:Generated_Source\PSoC6\pdl\middleware\em_eeprom/cy_em_eeprom.c ****             if(CY_FLASH_DRV_OPERATION_STARTED == Cy_Flash_StartErase(emEepromRowAddr))
1060:Generated_Source\PSoC6\pdl\middleware\em_eeprom/cy_em_eeprom.c ****             {
1061:Generated_Source\PSoC6\pdl\middleware\em_eeprom/cy_em_eeprom.c ****                 uint32_t countMs = CY_EM_EEPROM_MAX_WRITE_DURATION_MS;
1062:Generated_Source\PSoC6\pdl\middleware\em_eeprom/cy_em_eeprom.c ****                 cy_en_flashdrv_status_t rc;
1063:Generated_Source\PSoC6\pdl\middleware\em_eeprom/cy_em_eeprom.c **** 
1064:Generated_Source\PSoC6\pdl\middleware\em_eeprom/cy_em_eeprom.c ****                 do
1065:Generated_Source\PSoC6\pdl\middleware\em_eeprom/cy_em_eeprom.c ****                 {
1066:Generated_Source\PSoC6\pdl\middleware\em_eeprom/cy_em_eeprom.c ****                     CyDelay(1u);                         /* Wait 1ms */
1067:Generated_Source\PSoC6\pdl\middleware\em_eeprom/cy_em_eeprom.c ****                     rc = Cy_Flash_IsWriteComplete();     /* Check if erase completed */
1068:Generated_Source\PSoC6\pdl\middleware\em_eeprom/cy_em_eeprom.c ****                     countMs--;
1069:Generated_Source\PSoC6\pdl\middleware\em_eeprom/cy_em_eeprom.c ****                 }
ARM GAS  C:\Users\eduar\AppData\Local\Temp\ccwtx1iP.s 			page 27


1070:Generated_Source\PSoC6\pdl\middleware\em_eeprom/cy_em_eeprom.c ****                 while ((rc == CY_FLASH_DRV_OPCODE_BUSY) && (0u != countMs));
1071:Generated_Source\PSoC6\pdl\middleware\em_eeprom/cy_em_eeprom.c **** 
1072:Generated_Source\PSoC6\pdl\middleware\em_eeprom/cy_em_eeprom.c ****                 if(CY_FLASH_DRV_SUCCESS == rc)
1073:Generated_Source\PSoC6\pdl\middleware\em_eeprom/cy_em_eeprom.c ****                 {
1074:Generated_Source\PSoC6\pdl\middleware\em_eeprom/cy_em_eeprom.c ****                     ret = CY_EM_EEPROM_SUCCESS;
1075:Generated_Source\PSoC6\pdl\middleware\em_eeprom/cy_em_eeprom.c ****                 }
1076:Generated_Source\PSoC6\pdl\middleware\em_eeprom/cy_em_eeprom.c ****             }
1077:Generated_Source\PSoC6\pdl\middleware\em_eeprom/cy_em_eeprom.c ****         }
1078:Generated_Source\PSoC6\pdl\middleware\em_eeprom/cy_em_eeprom.c **** 
1079:Generated_Source\PSoC6\pdl\middleware\em_eeprom/cy_em_eeprom.c ****         if(CY_EM_EEPROM_SUCCESS == ret)
1080:Generated_Source\PSoC6\pdl\middleware\em_eeprom/cy_em_eeprom.c ****         {
1081:Generated_Source\PSoC6\pdl\middleware\em_eeprom/cy_em_eeprom.c ****             /* Update the address to point to the redundant copy row */
1082:Generated_Source\PSoC6\pdl\middleware\em_eeprom/cy_em_eeprom.c ****             emEepromRowAddr = (emEepromRowAddr - context->userFlashStartAddr) + context->wlEndAddr;
1083:Generated_Source\PSoC6\pdl\middleware\em_eeprom/cy_em_eeprom.c ****         }
1084:Generated_Source\PSoC6\pdl\middleware\em_eeprom/cy_em_eeprom.c ****         else
1085:Generated_Source\PSoC6\pdl\middleware\em_eeprom/cy_em_eeprom.c ****         {
1086:Generated_Source\PSoC6\pdl\middleware\em_eeprom/cy_em_eeprom.c ****             break;
1087:Generated_Source\PSoC6\pdl\middleware\em_eeprom/cy_em_eeprom.c ****         }
1088:Generated_Source\PSoC6\pdl\middleware\em_eeprom/cy_em_eeprom.c ****         i--;
1089:Generated_Source\PSoC6\pdl\middleware\em_eeprom/cy_em_eeprom.c ****     } while (0u != i);
1090:Generated_Source\PSoC6\pdl\middleware\em_eeprom/cy_em_eeprom.c **** 
1091:Generated_Source\PSoC6\pdl\middleware\em_eeprom/cy_em_eeprom.c ****     return(ret);
1092:Generated_Source\PSoC6\pdl\middleware\em_eeprom/cy_em_eeprom.c **** }
1093:Generated_Source\PSoC6\pdl\middleware\em_eeprom/cy_em_eeprom.c **** 
1094:Generated_Source\PSoC6\pdl\middleware\em_eeprom/cy_em_eeprom.c **** 
1095:Generated_Source\PSoC6\pdl\middleware\em_eeprom/cy_em_eeprom.c **** /*******************************************************************************
1096:Generated_Source\PSoC6\pdl\middleware\em_eeprom/cy_em_eeprom.c **** * Function Name: CheckCrcAndCopy
1097:Generated_Source\PSoC6\pdl\middleware\em_eeprom/cy_em_eeprom.c **** ****************************************************************************//**
1098:Generated_Source\PSoC6\pdl\middleware\em_eeprom/cy_em_eeprom.c **** *
1099:Generated_Source\PSoC6\pdl\middleware\em_eeprom/cy_em_eeprom.c **** * Checks the checksum of the specific row in EEPROM. If the CRC matches - copies
1100:Generated_Source\PSoC6\pdl\middleware\em_eeprom/cy_em_eeprom.c **** * the data to the "datAddr" from EEPROM. f the CRC does not match checks the
1101:Generated_Source\PSoC6\pdl\middleware\em_eeprom/cy_em_eeprom.c **** * CRC of the corresponding row in the EEPROM's redundant copy. If the CRC
1102:Generated_Source\PSoC6\pdl\middleware\em_eeprom/cy_em_eeprom.c **** * matches - copies the data to the "datAddr" from EEPROM redundant copy. If the
1103:Generated_Source\PSoC6\pdl\middleware\em_eeprom/cy_em_eeprom.c **** * CRC of the redundant copy does not match - returns bad checksum.
1104:Generated_Source\PSoC6\pdl\middleware\em_eeprom/cy_em_eeprom.c **** *
1105:Generated_Source\PSoC6\pdl\middleware\em_eeprom/cy_em_eeprom.c **** * \param startAddr
1106:Generated_Source\PSoC6\pdl\middleware\em_eeprom/cy_em_eeprom.c **** * The address that points to the start of the specified row.
1107:Generated_Source\PSoC6\pdl\middleware\em_eeprom/cy_em_eeprom.c **** *
1108:Generated_Source\PSoC6\pdl\middleware\em_eeprom/cy_em_eeprom.c **** * \param datAddr
1109:Generated_Source\PSoC6\pdl\middleware\em_eeprom/cy_em_eeprom.c **** * The start address of where the row data will be copied if the CRC check
1110:Generated_Source\PSoC6\pdl\middleware\em_eeprom/cy_em_eeprom.c **** * will succeed.
1111:Generated_Source\PSoC6\pdl\middleware\em_eeprom/cy_em_eeprom.c **** *
1112:Generated_Source\PSoC6\pdl\middleware\em_eeprom/cy_em_eeprom.c **** * \param rowOffset
1113:Generated_Source\PSoC6\pdl\middleware\em_eeprom/cy_em_eeprom.c **** * The offset in the row from which the data should be copied.
1114:Generated_Source\PSoC6\pdl\middleware\em_eeprom/cy_em_eeprom.c **** *
1115:Generated_Source\PSoC6\pdl\middleware\em_eeprom/cy_em_eeprom.c **** * \param numBytes
1116:Generated_Source\PSoC6\pdl\middleware\em_eeprom/cy_em_eeprom.c **** * The number of bytes to be copied.
1117:Generated_Source\PSoC6\pdl\middleware\em_eeprom/cy_em_eeprom.c **** *
1118:Generated_Source\PSoC6\pdl\middleware\em_eeprom/cy_em_eeprom.c **** * \param context
1119:Generated_Source\PSoC6\pdl\middleware\em_eeprom/cy_em_eeprom.c **** * The pointer to the EEPROM context structure \ref cy_stc_eeprom_context_t.
1120:Generated_Source\PSoC6\pdl\middleware\em_eeprom/cy_em_eeprom.c **** *
1121:Generated_Source\PSoC6\pdl\middleware\em_eeprom/cy_em_eeprom.c **** * \return
1122:Generated_Source\PSoC6\pdl\middleware\em_eeprom/cy_em_eeprom.c **** * error / status code. See \ref cy_en_em_eeprom_status_t.
1123:Generated_Source\PSoC6\pdl\middleware\em_eeprom/cy_em_eeprom.c **** *
1124:Generated_Source\PSoC6\pdl\middleware\em_eeprom/cy_em_eeprom.c **** * \note
1125:Generated_Source\PSoC6\pdl\middleware\em_eeprom/cy_em_eeprom.c **** * This function uses a buffer of the flash row size to perform read
1126:Generated_Source\PSoC6\pdl\middleware\em_eeprom/cy_em_eeprom.c **** * operation. For the size of the row refer to the specific PSoC device
ARM GAS  C:\Users\eduar\AppData\Local\Temp\ccwtx1iP.s 			page 28


1127:Generated_Source\PSoC6\pdl\middleware\em_eeprom/cy_em_eeprom.c **** * datasheet.
1128:Generated_Source\PSoC6\pdl\middleware\em_eeprom/cy_em_eeprom.c **** *
1129:Generated_Source\PSoC6\pdl\middleware\em_eeprom/cy_em_eeprom.c **** *******************************************************************************/
1130:Generated_Source\PSoC6\pdl\middleware\em_eeprom/cy_em_eeprom.c **** static cy_en_em_eeprom_status_t CheckCrcAndCopy(uint32_t startAddr,
1131:Generated_Source\PSoC6\pdl\middleware\em_eeprom/cy_em_eeprom.c ****                                                 uint32_t dstAddr,
1132:Generated_Source\PSoC6\pdl\middleware\em_eeprom/cy_em_eeprom.c ****                                                 uint32_t rowOffset,
1133:Generated_Source\PSoC6\pdl\middleware\em_eeprom/cy_em_eeprom.c ****                                                 uint32_t numBytes,
1134:Generated_Source\PSoC6\pdl\middleware\em_eeprom/cy_em_eeprom.c ****                                                 cy_stc_eeprom_context_t * context)
1135:Generated_Source\PSoC6\pdl\middleware\em_eeprom/cy_em_eeprom.c **** {
1136:Generated_Source\PSoC6\pdl\middleware\em_eeprom/cy_em_eeprom.c ****     cy_en_em_eeprom_status_t ret;
1137:Generated_Source\PSoC6\pdl\middleware\em_eeprom/cy_em_eeprom.c ****     uint32_t writeRamBuffer[CY_EM_EEPROM_FLASH_SIZEOF_ROW / CY_EM_EEPROM_U32_DIV];
1138:Generated_Source\PSoC6\pdl\middleware\em_eeprom/cy_em_eeprom.c **** 
1139:Generated_Source\PSoC6\pdl\middleware\em_eeprom/cy_em_eeprom.c ****     /* Calculate the row address in the EEPROM's redundant copy */
1140:Generated_Source\PSoC6\pdl\middleware\em_eeprom/cy_em_eeprom.c ****     uint32_t rcStartRowAddr = (startAddr - context->userFlashStartAddr) + context->wlEndAddr;
1141:Generated_Source\PSoC6\pdl\middleware\em_eeprom/cy_em_eeprom.c **** 
1142:Generated_Source\PSoC6\pdl\middleware\em_eeprom/cy_em_eeprom.c ****     /* Check the row data CRC in the EEPROM */
1143:Generated_Source\PSoC6\pdl\middleware\em_eeprom/cy_em_eeprom.c ****     if((*(uint32_t *)(startAddr + CY_EM_EEPROM_HEADER_CHECKSUM_OFFSET)) ==
1144:Generated_Source\PSoC6\pdl\middleware\em_eeprom/cy_em_eeprom.c ****         ((uint32_t) CalcChecksum((uint8_t *)(startAddr + CY_EM_EEPROM_EEPROM_DATA_OFFSET),
1145:Generated_Source\PSoC6\pdl\middleware\em_eeprom/cy_em_eeprom.c ****             CY_EM_EEPROM_EEPROM_DATA_LEN)))
1146:Generated_Source\PSoC6\pdl\middleware\em_eeprom/cy_em_eeprom.c ****     {
1147:Generated_Source\PSoC6\pdl\middleware\em_eeprom/cy_em_eeprom.c ****         (void)memcpy((void *)(dstAddr), (void *)(startAddr + rowOffset), numBytes);
1148:Generated_Source\PSoC6\pdl\middleware\em_eeprom/cy_em_eeprom.c **** 
1149:Generated_Source\PSoC6\pdl\middleware\em_eeprom/cy_em_eeprom.c ****         ret = CY_EM_EEPROM_SUCCESS;
1150:Generated_Source\PSoC6\pdl\middleware\em_eeprom/cy_em_eeprom.c ****     }
1151:Generated_Source\PSoC6\pdl\middleware\em_eeprom/cy_em_eeprom.c ****     /* Check the row data CRC in the EEPROM's redundant copy */
1152:Generated_Source\PSoC6\pdl\middleware\em_eeprom/cy_em_eeprom.c ****     else if((*(uint32_t *)(rcStartRowAddr + CY_EM_EEPROM_HEADER_CHECKSUM_OFFSET)) ==
1153:Generated_Source\PSoC6\pdl\middleware\em_eeprom/cy_em_eeprom.c ****             ((uint32_t) CalcChecksum((uint8_t *)(rcStartRowAddr + CY_EM_EEPROM_EEPROM_DATA_OFFSET),
1154:Generated_Source\PSoC6\pdl\middleware\em_eeprom/cy_em_eeprom.c ****                 CY_EM_EEPROM_EEPROM_DATA_LEN)))
1155:Generated_Source\PSoC6\pdl\middleware\em_eeprom/cy_em_eeprom.c ****     {
1156:Generated_Source\PSoC6\pdl\middleware\em_eeprom/cy_em_eeprom.c ****         /* Copy the redundant copy row to RAM buffer to avoid read while write (RWW)
1157:Generated_Source\PSoC6\pdl\middleware\em_eeprom/cy_em_eeprom.c ****         * flash exception. The RWW occurs while trying to write and read the data from
1158:Generated_Source\PSoC6\pdl\middleware\em_eeprom/cy_em_eeprom.c ****         * same flash macro.
1159:Generated_Source\PSoC6\pdl\middleware\em_eeprom/cy_em_eeprom.c ****         */
1160:Generated_Source\PSoC6\pdl\middleware\em_eeprom/cy_em_eeprom.c ****         (void)memcpy((void *)(writeRamBuffer), (void *)(rcStartRowAddr), CY_EM_EEPROM_FLASH_SIZEOF_
1161:Generated_Source\PSoC6\pdl\middleware\em_eeprom/cy_em_eeprom.c **** 
1162:Generated_Source\PSoC6\pdl\middleware\em_eeprom/cy_em_eeprom.c ****         /* Restore bad row data from the RAM buffer */
1163:Generated_Source\PSoC6\pdl\middleware\em_eeprom/cy_em_eeprom.c ****         ret = WriteRow(startAddr, (uint32_t *)writeRamBuffer, context);
1164:Generated_Source\PSoC6\pdl\middleware\em_eeprom/cy_em_eeprom.c **** 
1165:Generated_Source\PSoC6\pdl\middleware\em_eeprom/cy_em_eeprom.c ****         if(CY_EM_EEPROM_SUCCESS == ret)
1166:Generated_Source\PSoC6\pdl\middleware\em_eeprom/cy_em_eeprom.c ****         {
1167:Generated_Source\PSoC6\pdl\middleware\em_eeprom/cy_em_eeprom.c ****             (void)memcpy((void *)(dstAddr), (void *)(writeRamBuffer + rowOffset), numBytes);
1168:Generated_Source\PSoC6\pdl\middleware\em_eeprom/cy_em_eeprom.c ****         }
1169:Generated_Source\PSoC6\pdl\middleware\em_eeprom/cy_em_eeprom.c ****     }
1170:Generated_Source\PSoC6\pdl\middleware\em_eeprom/cy_em_eeprom.c ****     else
1171:Generated_Source\PSoC6\pdl\middleware\em_eeprom/cy_em_eeprom.c ****     {
1172:Generated_Source\PSoC6\pdl\middleware\em_eeprom/cy_em_eeprom.c ****         ret = CY_EM_EEPROM_BAD_CHECKSUM;
1173:Generated_Source\PSoC6\pdl\middleware\em_eeprom/cy_em_eeprom.c ****     }
1174:Generated_Source\PSoC6\pdl\middleware\em_eeprom/cy_em_eeprom.c **** 
1175:Generated_Source\PSoC6\pdl\middleware\em_eeprom/cy_em_eeprom.c ****     return(ret);
1176:Generated_Source\PSoC6\pdl\middleware\em_eeprom/cy_em_eeprom.c **** }
1177:Generated_Source\PSoC6\pdl\middleware\em_eeprom/cy_em_eeprom.c **** 
1178:Generated_Source\PSoC6\pdl\middleware\em_eeprom/cy_em_eeprom.c **** 
1179:Generated_Source\PSoC6\pdl\middleware\em_eeprom/cy_em_eeprom.c **** /*******************************************************************************
1180:Generated_Source\PSoC6\pdl\middleware\em_eeprom/cy_em_eeprom.c **** * Function Name: GetAddresses
1181:Generated_Source\PSoC6\pdl\middleware\em_eeprom/cy_em_eeprom.c **** ****************************************************************************//**
1182:Generated_Source\PSoC6\pdl\middleware\em_eeprom/cy_em_eeprom.c **** *
1183:Generated_Source\PSoC6\pdl\middleware\em_eeprom/cy_em_eeprom.c **** * Calculates the start and end address of the row's EEPROM data to be updated.
ARM GAS  C:\Users\eduar\AppData\Local\Temp\ccwtx1iP.s 			page 29


1184:Generated_Source\PSoC6\pdl\middleware\em_eeprom/cy_em_eeprom.c **** * The start and end are not absolute addresses but a relative addresses in a
1185:Generated_Source\PSoC6\pdl\middleware\em_eeprom/cy_em_eeprom.c **** * flash row.
1186:Generated_Source\PSoC6\pdl\middleware\em_eeprom/cy_em_eeprom.c **** *
1187:Generated_Source\PSoC6\pdl\middleware\em_eeprom/cy_em_eeprom.c **** * \param startAddr
1188:Generated_Source\PSoC6\pdl\middleware\em_eeprom/cy_em_eeprom.c **** * The pointer the address where the EEPROM data start address will be returned.
1189:Generated_Source\PSoC6\pdl\middleware\em_eeprom/cy_em_eeprom.c **** *
1190:Generated_Source\PSoC6\pdl\middleware\em_eeprom/cy_em_eeprom.c **** * \param endAddr
1191:Generated_Source\PSoC6\pdl\middleware\em_eeprom/cy_em_eeprom.c **** * The pointer the address where the EEPROM data end address will be returned.
1192:Generated_Source\PSoC6\pdl\middleware\em_eeprom/cy_em_eeprom.c **** *
1193:Generated_Source\PSoC6\pdl\middleware\em_eeprom/cy_em_eeprom.c **** * \param offset
1194:Generated_Source\PSoC6\pdl\middleware\em_eeprom/cy_em_eeprom.c **** * The pointer the address where the calculated offset of the EEPROM header data
1195:Generated_Source\PSoC6\pdl\middleware\em_eeprom/cy_em_eeprom.c **** * will be returned.
1196:Generated_Source\PSoC6\pdl\middleware\em_eeprom/cy_em_eeprom.c **** *
1197:Generated_Source\PSoC6\pdl\middleware\em_eeprom/cy_em_eeprom.c **** * \param rowNum
1198:Generated_Source\PSoC6\pdl\middleware\em_eeprom/cy_em_eeprom.c **** * The row number that is about to be written.
1199:Generated_Source\PSoC6\pdl\middleware\em_eeprom/cy_em_eeprom.c **** *
1200:Generated_Source\PSoC6\pdl\middleware\em_eeprom/cy_em_eeprom.c **** * \param addr
1201:Generated_Source\PSoC6\pdl\middleware\em_eeprom/cy_em_eeprom.c **** * The address of the EEPROM header data in the currently analyzed row that may
1202:Generated_Source\PSoC6\pdl\middleware\em_eeprom/cy_em_eeprom.c **** * concern to the row about to be written.
1203:Generated_Source\PSoC6\pdl\middleware\em_eeprom/cy_em_eeprom.c **** *
1204:Generated_Source\PSoC6\pdl\middleware\em_eeprom/cy_em_eeprom.c **** * \param len
1205:Generated_Source\PSoC6\pdl\middleware\em_eeprom/cy_em_eeprom.c **** * The length of the EEPROM header data in the currently analyzed row that may
1206:Generated_Source\PSoC6\pdl\middleware\em_eeprom/cy_em_eeprom.c **** * concern to the row about to be written.
1207:Generated_Source\PSoC6\pdl\middleware\em_eeprom/cy_em_eeprom.c **** *
1208:Generated_Source\PSoC6\pdl\middleware\em_eeprom/cy_em_eeprom.c **** * \return
1209:Generated_Source\PSoC6\pdl\middleware\em_eeprom/cy_em_eeprom.c **** * Zero indicates that the currently analyzed row has the data to be written to
1210:Generated_Source\PSoC6\pdl\middleware\em_eeprom/cy_em_eeprom.c **** * the active EEPROM row data locations. Non zero value indicates that there is
1211:Generated_Source\PSoC6\pdl\middleware\em_eeprom/cy_em_eeprom.c **** * no data to be written
1212:Generated_Source\PSoC6\pdl\middleware\em_eeprom/cy_em_eeprom.c **** *
1213:Generated_Source\PSoC6\pdl\middleware\em_eeprom/cy_em_eeprom.c **** *******************************************************************************/
1214:Generated_Source\PSoC6\pdl\middleware\em_eeprom/cy_em_eeprom.c **** static uint32_t GetAddresses(uint32_t *startAddr, 
1215:Generated_Source\PSoC6\pdl\middleware\em_eeprom/cy_em_eeprom.c ****                         uint32_t *endAddr, 
1216:Generated_Source\PSoC6\pdl\middleware\em_eeprom/cy_em_eeprom.c ****                         uint32_t *offset,
1217:Generated_Source\PSoC6\pdl\middleware\em_eeprom/cy_em_eeprom.c ****                         uint32_t rowNum,
1218:Generated_Source\PSoC6\pdl\middleware\em_eeprom/cy_em_eeprom.c ****                         uint32_t addr,
1219:Generated_Source\PSoC6\pdl\middleware\em_eeprom/cy_em_eeprom.c ****                         uint32_t len)
1220:Generated_Source\PSoC6\pdl\middleware\em_eeprom/cy_em_eeprom.c **** {
 398              		.loc 1 1220 0
 399              		.cfi_startproc
 400              		@ args = 8, pretend = 0, frame = 0
 401              		@ frame_needed = 0, uses_anonymous_args = 0
 402              	.LVL49:
 403 0000 F0B5     		push	{r4, r5, r6, r7, lr}
 404              		.cfi_def_cfa_offset 20
 405              		.cfi_offset 4, -20
 406              		.cfi_offset 5, -16
 407              		.cfi_offset 6, -12
 408              		.cfi_offset 7, -8
 409              		.cfi_offset 14, -4
 410 0002 059C     		ldr	r4, [sp, #20]
 411 0004 069F     		ldr	r7, [sp, #24]
 412              	.LVL50:
1221:Generated_Source\PSoC6\pdl\middleware\em_eeprom/cy_em_eeprom.c ****     uint32_t skip = 0u;
1222:Generated_Source\PSoC6\pdl\middleware\em_eeprom/cy_em_eeprom.c **** 
1223:Generated_Source\PSoC6\pdl\middleware\em_eeprom/cy_em_eeprom.c ****     *offset =0u;
 413              		.loc 1 1223 0
 414 0006 0025     		movs	r5, #0
ARM GAS  C:\Users\eduar\AppData\Local\Temp\ccwtx1iP.s 			page 30


 415 0008 1560     		str	r5, [r2]
1224:Generated_Source\PSoC6\pdl\middleware\em_eeprom/cy_em_eeprom.c **** 
1225:Generated_Source\PSoC6\pdl\middleware\em_eeprom/cy_em_eeprom.c ****     if(0u != CY_EM_EEPROM_IS_ADDR_IN_ROW_RANGE(addr, rowNum))
 416              		.loc 1 1225 0
 417 000a 1D02     		lsls	r5, r3, #8
 418 000c A542     		cmp	r5, r4
 419 000e 06D8     		bhi	.L44
 420              		.loc 1 1225 0 is_stmt 0 discriminator 1
 421 0010 5E1C     		adds	r6, r3, #1
 422 0012 3602     		lsls	r6, r6, #8
 423 0014 013E     		subs	r6, r6, #1
 424 0016 B442     		cmp	r4, r6
 425 0018 03D9     		bls	.L45
 426              		.loc 1 1225 0
 427 001a 0026     		movs	r6, #0
 428 001c 02E0     		b	.L38
 429              	.L44:
 430 001e 0026     		movs	r6, #0
 431 0020 00E0     		b	.L38
 432              	.L45:
 433 0022 0126     		movs	r6, #1
 434              	.L38:
 435              		.loc 1 1225 0 discriminator 6
 436 0024 D6B1     		cbz	r6, .L39
1226:Generated_Source\PSoC6\pdl\middleware\em_eeprom/cy_em_eeprom.c ****     {
1227:Generated_Source\PSoC6\pdl\middleware\em_eeprom/cy_em_eeprom.c ****         *startAddr = CY_EM_EEPROM_EEPROM_DATA_LEN + (addr % CY_EM_EEPROM_EEPROM_DATA_LEN);
 437              		.loc 1 1227 0 is_stmt 1
 438 0026 E2B2     		uxtb	r2, r4
 439              	.LVL51:
 440 0028 02F58072 		add	r2, r2, #256
 441 002c 0260     		str	r2, [r0]
1228:Generated_Source\PSoC6\pdl\middleware\em_eeprom/cy_em_eeprom.c **** 
1229:Generated_Source\PSoC6\pdl\middleware\em_eeprom/cy_em_eeprom.c ****         if(0u != CY_EM_EEPROM_IS_ADDR_IN_ROW_RANGE(addr + len, rowNum))
 442              		.loc 1 1229 0
 443 002e 3C44     		add	r4, r4, r7
 444 0030 A542     		cmp	r5, r4
 445 0032 06D8     		bhi	.L46
 446              		.loc 1 1229 0 is_stmt 0 discriminator 1
 447 0034 0133     		adds	r3, r3, #1
 448              	.LVL52:
 449 0036 1B02     		lsls	r3, r3, #8
 450              	.LVL53:
 451 0038 013B     		subs	r3, r3, #1
 452 003a 9C42     		cmp	r4, r3
 453 003c 03D9     		bls	.L47
 454              		.loc 1 1229 0
 455 003e 0023     		movs	r3, #0
 456 0040 02E0     		b	.L40
 457              	.LVL54:
 458              	.L46:
 459 0042 0023     		movs	r3, #0
 460              	.LVL55:
 461 0044 00E0     		b	.L40
 462              	.L47:
 463 0046 0123     		movs	r3, #1
 464              	.L40:
 465              		.loc 1 1229 0 discriminator 6
ARM GAS  C:\Users\eduar\AppData\Local\Temp\ccwtx1iP.s 			page 31


 466 0048 1BB1     		cbz	r3, .L41
1230:Generated_Source\PSoC6\pdl\middleware\em_eeprom/cy_em_eeprom.c ****         {
1231:Generated_Source\PSoC6\pdl\middleware\em_eeprom/cy_em_eeprom.c ****             *endAddr = *startAddr + len;
 467              		.loc 1 1231 0 is_stmt 1
 468 004a 1744     		add	r7, r7, r2
 469 004c 0F60     		str	r7, [r1]
1221:Generated_Source\PSoC6\pdl\middleware\em_eeprom/cy_em_eeprom.c **** 
 470              		.loc 1 1221 0
 471 004e 0020     		movs	r0, #0
 472              	.LVL56:
 473 0050 F0BD     		pop	{r4, r5, r6, r7, pc}
 474              	.LVL57:
 475              	.L41:
1232:Generated_Source\PSoC6\pdl\middleware\em_eeprom/cy_em_eeprom.c ****         }
1233:Generated_Source\PSoC6\pdl\middleware\em_eeprom/cy_em_eeprom.c ****         else
1234:Generated_Source\PSoC6\pdl\middleware\em_eeprom/cy_em_eeprom.c ****         {
1235:Generated_Source\PSoC6\pdl\middleware\em_eeprom/cy_em_eeprom.c ****             *endAddr = CY_EM_EEPROM_FLASH_SIZEOF_ROW;
 476              		.loc 1 1235 0
 477 0052 4FF40073 		mov	r3, #512
 478 0056 0B60     		str	r3, [r1]
1221:Generated_Source\PSoC6\pdl\middleware\em_eeprom/cy_em_eeprom.c **** 
 479              		.loc 1 1221 0
 480 0058 0020     		movs	r0, #0
 481              	.LVL58:
 482 005a F0BD     		pop	{r4, r5, r6, r7, pc}
 483              	.LVL59:
 484              	.L39:
1236:Generated_Source\PSoC6\pdl\middleware\em_eeprom/cy_em_eeprom.c ****         }
1237:Generated_Source\PSoC6\pdl\middleware\em_eeprom/cy_em_eeprom.c ****     }
1238:Generated_Source\PSoC6\pdl\middleware\em_eeprom/cy_em_eeprom.c ****     else
1239:Generated_Source\PSoC6\pdl\middleware\em_eeprom/cy_em_eeprom.c ****     {
1240:Generated_Source\PSoC6\pdl\middleware\em_eeprom/cy_em_eeprom.c **** 
1241:Generated_Source\PSoC6\pdl\middleware\em_eeprom/cy_em_eeprom.c ****         if(0u != CY_EM_EEPROM_IS_ADDR_IN_ROW_RANGE(addr + len, rowNum))
 485              		.loc 1 1241 0
 486 005c 04EB070E 		add	lr, r4, r7
 487 0060 7545     		cmp	r5, lr
 488 0062 05D8     		bhi	.L43
 489              		.loc 1 1241 0 is_stmt 0 discriminator 1
 490 0064 0133     		adds	r3, r3, #1
 491              	.LVL60:
 492 0066 1B02     		lsls	r3, r3, #8
 493              	.LVL61:
 494 0068 013B     		subs	r3, r3, #1
 495 006a 9E45     		cmp	lr, r3
 496 006c 00D8     		bhi	.L43
 497              		.loc 1 1241 0
 498 006e 0126     		movs	r6, #1
 499              	.L43:
 500              		.loc 1 1241 0 discriminator 6
 501 0070 76B1     		cbz	r6, .L49
1242:Generated_Source\PSoC6\pdl\middleware\em_eeprom/cy_em_eeprom.c ****         {
1243:Generated_Source\PSoC6\pdl\middleware\em_eeprom/cy_em_eeprom.c ****             *startAddr = CY_EM_EEPROM_EEPROM_DATA_LEN;
 502              		.loc 1 1243 0 is_stmt 1
 503 0072 4FF48073 		mov	r3, #256
 504 0076 0360     		str	r3, [r0]
1244:Generated_Source\PSoC6\pdl\middleware\em_eeprom/cy_em_eeprom.c ****             *endAddr = (*startAddr + len) - (*startAddr - (addr % CY_EM_EEPROM_EEPROM_DATA_LEN));
 505              		.loc 1 1244 0
ARM GAS  C:\Users\eduar\AppData\Local\Temp\ccwtx1iP.s 			page 32


 506 0078 FB18     		adds	r3, r7, r3
 507 007a E4B2     		uxtb	r4, r4
 508 007c A4F58074 		sub	r4, r4, #256
 509 0080 1C44     		add	r4, r4, r3
 510 0082 0C60     		str	r4, [r1]
1245:Generated_Source\PSoC6\pdl\middleware\em_eeprom/cy_em_eeprom.c ****             *offset = len - (*endAddr - *startAddr);
 511              		.loc 1 1245 0
 512 0084 0368     		ldr	r3, [r0]
 513 0086 1C1B     		subs	r4, r3, r4
 514 0088 2744     		add	r7, r7, r4
 515 008a 1760     		str	r7, [r2]
1221:Generated_Source\PSoC6\pdl\middleware\em_eeprom/cy_em_eeprom.c **** 
 516              		.loc 1 1221 0
 517 008c 0020     		movs	r0, #0
 518              	.LVL62:
 519 008e F0BD     		pop	{r4, r5, r6, r7, pc}
 520              	.LVL63:
 521              	.L49:
1246:Generated_Source\PSoC6\pdl\middleware\em_eeprom/cy_em_eeprom.c ****         }
1247:Generated_Source\PSoC6\pdl\middleware\em_eeprom/cy_em_eeprom.c ****         else
1248:Generated_Source\PSoC6\pdl\middleware\em_eeprom/cy_em_eeprom.c ****         {
1249:Generated_Source\PSoC6\pdl\middleware\em_eeprom/cy_em_eeprom.c ****             skip++;
 522              		.loc 1 1249 0
 523 0090 0120     		movs	r0, #1
 524              	.LVL64:
1250:Generated_Source\PSoC6\pdl\middleware\em_eeprom/cy_em_eeprom.c ****         }
1251:Generated_Source\PSoC6\pdl\middleware\em_eeprom/cy_em_eeprom.c ****     }
1252:Generated_Source\PSoC6\pdl\middleware\em_eeprom/cy_em_eeprom.c **** 
1253:Generated_Source\PSoC6\pdl\middleware\em_eeprom/cy_em_eeprom.c ****     return (skip);
1254:Generated_Source\PSoC6\pdl\middleware\em_eeprom/cy_em_eeprom.c **** }
 525              		.loc 1 1254 0
 526 0092 F0BD     		pop	{r4, r5, r6, r7, pc}
 527              		.cfi_endproc
 528              	.LFE145:
 529              		.size	GetAddresses, .-GetAddresses
 530              		.section	.text.WriteRow,"ax",%progbits
 531              		.align	2
 532              		.thumb
 533              		.thumb_func
 534              		.type	WriteRow, %function
 535              	WriteRow:
 536              	.LFB142:
 972:Generated_Source\PSoC6\pdl\middleware\em_eeprom/cy_em_eeprom.c ****     cy_en_em_eeprom_status_t ret = CY_EM_EEPROM_WRITE_FAIL;
 537              		.loc 1 972 0
 538              		.cfi_startproc
 539              		@ args = 0, pretend = 0, frame = 0
 540              		@ frame_needed = 0, uses_anonymous_args = 0
 541              	.LVL65:
 542 0000 10B5     		push	{r4, lr}
 543              		.cfi_def_cfa_offset 8
 544              		.cfi_offset 4, -8
 545              		.cfi_offset 14, -4
 546              	.LVL66:
 974:Generated_Source\PSoC6\pdl\middleware\em_eeprom/cy_em_eeprom.c ****     {
 547              		.loc 1 974 0
 548 0002 537D     		ldrb	r3, [r2, #21]	@ zero_extendqisi2
 549 0004 23B1     		cbz	r3, .L52
ARM GAS  C:\Users\eduar\AppData\Local\Temp\ccwtx1iP.s 			page 33


 977:Generated_Source\PSoC6\pdl\middleware\em_eeprom/cy_em_eeprom.c ****         {
 550              		.loc 1 977 0
 551 0006 FFF7FEFF 		bl	Cy_Flash_WriteRow
 552              	.LVL67:
 553 000a A8B1     		cbz	r0, .L56
 973:Generated_Source\PSoC6\pdl\middleware\em_eeprom/cy_em_eeprom.c ****     if(0u != context->blockingWrite)
 554              		.loc 1 973 0
 555 000c 0D48     		ldr	r0, .L60
 556 000e 10BD     		pop	{r4, pc}
 557              	.LVL68:
 558              	.L52:
 985:Generated_Source\PSoC6\pdl\middleware\em_eeprom/cy_em_eeprom.c ****         {
 559              		.loc 1 985 0
 560 0010 FFF7FEFF 		bl	Cy_Flash_StartWrite
 561              	.LVL69:
 562 0014 0C4B     		ldr	r3, .L60+4
 563 0016 9842     		cmp	r0, r3
 564 0018 10D1     		bne	.L57
 565 001a 3224     		movs	r4, #50
 566              	.L55:
 567              	.LVL70:
 568              	.LBB2:
 992:Generated_Source\PSoC6\pdl\middleware\em_eeprom/cy_em_eeprom.c ****                 rc = Cy_Flash_IsWriteComplete();     /* Check if write completed */
 569              		.loc 1 992 0 discriminator 2
 570 001c 0120     		movs	r0, #1
 571 001e FFF7FEFF 		bl	Cy_SysLib_Delay
 572              	.LVL71:
 993:Generated_Source\PSoC6\pdl\middleware\em_eeprom/cy_em_eeprom.c ****                 countMs--;
 573              		.loc 1 993 0 discriminator 2
 574 0022 FFF7FEFF 		bl	Cy_Flash_IsOperationComplete
 575              	.LVL72:
 994:Generated_Source\PSoC6\pdl\middleware\em_eeprom/cy_em_eeprom.c ****             }
 576              		.loc 1 994 0 discriminator 2
 577 0026 013C     		subs	r4, r4, #1
 578              	.LVL73:
 996:Generated_Source\PSoC6\pdl\middleware\em_eeprom/cy_em_eeprom.c **** 
 579              		.loc 1 996 0 discriminator 2
 580 0028 084B     		ldr	r3, .L60+8
 581 002a 9842     		cmp	r0, r3
 582 002c 01D1     		bne	.L54
 996:Generated_Source\PSoC6\pdl\middleware\em_eeprom/cy_em_eeprom.c **** 
 583              		.loc 1 996 0 is_stmt 0 discriminator 1
 584 002e 002C     		cmp	r4, #0
 585 0030 F4D1     		bne	.L55
 586              	.L54:
 998:Generated_Source\PSoC6\pdl\middleware\em_eeprom/cy_em_eeprom.c ****             {
 587              		.loc 1 998 0 is_stmt 1
 588 0032 28B1     		cbz	r0, .L58
 589              	.LBE2:
 973:Generated_Source\PSoC6\pdl\middleware\em_eeprom/cy_em_eeprom.c ****     if(0u != context->blockingWrite)
 590              		.loc 1 973 0
 591 0034 0348     		ldr	r0, .L60
 592              	.LVL74:
 593 0036 10BD     		pop	{r4, pc}
 594              	.LVL75:
 595              	.L56:
 979:Generated_Source\PSoC6\pdl\middleware\em_eeprom/cy_em_eeprom.c ****         }
ARM GAS  C:\Users\eduar\AppData\Local\Temp\ccwtx1iP.s 			page 34


 596              		.loc 1 979 0
 597 0038 0020     		movs	r0, #0
 598 003a 10BD     		pop	{r4, pc}
 599              	.L57:
 973:Generated_Source\PSoC6\pdl\middleware\em_eeprom/cy_em_eeprom.c ****     if(0u != context->blockingWrite)
 600              		.loc 1 973 0
 601 003c 0148     		ldr	r0, .L60
 602 003e 10BD     		pop	{r4, pc}
 603              	.LVL76:
 604              	.L58:
 605              	.LBB3:
1000:Generated_Source\PSoC6\pdl\middleware\em_eeprom/cy_em_eeprom.c ****             }
 606              		.loc 1 1000 0
 607 0040 0020     		movs	r0, #0
 608              	.LVL77:
 609              	.LBE3:
1006:Generated_Source\PSoC6\pdl\middleware\em_eeprom/cy_em_eeprom.c **** 
 610              		.loc 1 1006 0
 611 0042 10BD     		pop	{r4, pc}
 612              	.LVL78:
 613              	.L61:
 614              		.align	2
 615              	.L60:
 616 0044 04006E00 		.word	7208964
 617 0048 01005000 		.word	5242881
 618 004c 02005000 		.word	5242882
 619              		.cfi_endproc
 620              	.LFE142:
 621              		.size	WriteRow, .-WriteRow
 622              		.section	.text.FillChecksum,"ax",%progbits
 623              		.align	2
 624              		.thumb
 625              		.thumb_func
 626              		.type	FillChecksum, %function
 627              	FillChecksum:
 628              	.LFB146:
1255:Generated_Source\PSoC6\pdl\middleware\em_eeprom/cy_em_eeprom.c **** 
1256:Generated_Source\PSoC6\pdl\middleware\em_eeprom/cy_em_eeprom.c **** 
1257:Generated_Source\PSoC6\pdl\middleware\em_eeprom/cy_em_eeprom.c **** /*******************************************************************************
1258:Generated_Source\PSoC6\pdl\middleware\em_eeprom/cy_em_eeprom.c **** * Function Name: FillChecksum
1259:Generated_Source\PSoC6\pdl\middleware\em_eeprom/cy_em_eeprom.c **** ****************************************************************************//**
1260:Generated_Source\PSoC6\pdl\middleware\em_eeprom/cy_em_eeprom.c **** *
1261:Generated_Source\PSoC6\pdl\middleware\em_eeprom/cy_em_eeprom.c **** * Performs calculation of the checksum on each row in the Em_EEPROM and fills
1262:Generated_Source\PSoC6\pdl\middleware\em_eeprom/cy_em_eeprom.c **** * the Em_EEPROM headers checksum field with the calculated checksums.
1263:Generated_Source\PSoC6\pdl\middleware\em_eeprom/cy_em_eeprom.c **** *
1264:Generated_Source\PSoC6\pdl\middleware\em_eeprom/cy_em_eeprom.c **** * \param context
1265:Generated_Source\PSoC6\pdl\middleware\em_eeprom/cy_em_eeprom.c **** * The pointer to the EEPROM context structure.
1266:Generated_Source\PSoC6\pdl\middleware\em_eeprom/cy_em_eeprom.c **** *
1267:Generated_Source\PSoC6\pdl\middleware\em_eeprom/cy_em_eeprom.c **** * \return
1268:Generated_Source\PSoC6\pdl\middleware\em_eeprom/cy_em_eeprom.c **** * error / status code. See \ref cy_en_em_eeprom_status_t.
1269:Generated_Source\PSoC6\pdl\middleware\em_eeprom/cy_em_eeprom.c **** *
1270:Generated_Source\PSoC6\pdl\middleware\em_eeprom/cy_em_eeprom.c **** * \theory 
1271:Generated_Source\PSoC6\pdl\middleware\em_eeprom/cy_em_eeprom.c **** * In case if redundant copy option is used the Em_EEPROM would return bad 
1272:Generated_Source\PSoC6\pdl\middleware\em_eeprom/cy_em_eeprom.c **** * checksum while trying to read the EEPROM rows which were not yet written by 
1273:Generated_Source\PSoC6\pdl\middleware\em_eeprom/cy_em_eeprom.c **** * the user. E.g. any read after device reprogramming without previous Write() 
1274:Generated_Source\PSoC6\pdl\middleware\em_eeprom/cy_em_eeprom.c **** * operation to the EEPROM would fail. This would happen because the Em_EEPROM 
1275:Generated_Source\PSoC6\pdl\middleware\em_eeprom/cy_em_eeprom.c **** * headers checksum field values (which is zero at the moment) would not be 
ARM GAS  C:\Users\eduar\AppData\Local\Temp\ccwtx1iP.s 			page 35


1276:Generated_Source\PSoC6\pdl\middleware\em_eeprom/cy_em_eeprom.c **** * equal to the actual data checksum. This function allows to avoid read failure
1277:Generated_Source\PSoC6\pdl\middleware\em_eeprom/cy_em_eeprom.c **** * after device reprogramming. 
1278:Generated_Source\PSoC6\pdl\middleware\em_eeprom/cy_em_eeprom.c **** *
1279:Generated_Source\PSoC6\pdl\middleware\em_eeprom/cy_em_eeprom.c **** * \note
1280:Generated_Source\PSoC6\pdl\middleware\em_eeprom/cy_em_eeprom.c **** * This function uses a buffer of the flash row size to perform read
1281:Generated_Source\PSoC6\pdl\middleware\em_eeprom/cy_em_eeprom.c **** * operation. For the size of the row refer to the specific PSoC device
1282:Generated_Source\PSoC6\pdl\middleware\em_eeprom/cy_em_eeprom.c **** * datasheet.
1283:Generated_Source\PSoC6\pdl\middleware\em_eeprom/cy_em_eeprom.c **** *
1284:Generated_Source\PSoC6\pdl\middleware\em_eeprom/cy_em_eeprom.c **** *******************************************************************************/
1285:Generated_Source\PSoC6\pdl\middleware\em_eeprom/cy_em_eeprom.c **** static cy_en_em_eeprom_status_t FillChecksum(cy_stc_eeprom_context_t * context)
1286:Generated_Source\PSoC6\pdl\middleware\em_eeprom/cy_em_eeprom.c **** {
 629              		.loc 1 1286 0
 630              		.cfi_startproc
 631              		@ args = 0, pretend = 0, frame = 520
 632              		@ frame_needed = 0, uses_anonymous_args = 0
 633              	.LVL79:
 634 0000 F0B5     		push	{r4, r5, r6, r7, lr}
 635              		.cfi_def_cfa_offset 20
 636              		.cfi_offset 4, -20
 637              		.cfi_offset 5, -16
 638              		.cfi_offset 6, -12
 639              		.cfi_offset 7, -8
 640              		.cfi_offset 14, -4
 641 0002 ADF5037D 		sub	sp, sp, #524
 642              		.cfi_def_cfa_offset 544
 643 0006 0446     		mov	r4, r0
1287:Generated_Source\PSoC6\pdl\middleware\em_eeprom/cy_em_eeprom.c ****     uint32_t i;
1288:Generated_Source\PSoC6\pdl\middleware\em_eeprom/cy_em_eeprom.c ****     uint32_t rdAddr;
1289:Generated_Source\PSoC6\pdl\middleware\em_eeprom/cy_em_eeprom.c ****     uint32_t writeRamBuffer[CY_EM_EEPROM_FLASH_SIZEOF_ROW / CY_EM_EEPROM_U32_DIV];
1290:Generated_Source\PSoC6\pdl\middleware\em_eeprom/cy_em_eeprom.c ****     uint32_t wrAddr = context->lastWrRowAddr;
 644              		.loc 1 1290 0
 645 0008 8368     		ldr	r3, [r0, #8]
 646 000a 0093     		str	r3, [sp]
1291:Generated_Source\PSoC6\pdl\middleware\em_eeprom/cy_em_eeprom.c ****     uint32_t tmpRowAddr;
1292:Generated_Source\PSoC6\pdl\middleware\em_eeprom/cy_em_eeprom.c ****     /* Get the sequence number (number of writes) */
1293:Generated_Source\PSoC6\pdl\middleware\em_eeprom/cy_em_eeprom.c ****     uint32_t seqNum = CY_EM_EEPROM_GET_SEQ_NUM(wrAddr);
 647              		.loc 1 1293 0
 648 000c 1D68     		ldr	r5, [r3]
 649              	.LVL80:
1294:Generated_Source\PSoC6\pdl\middleware\em_eeprom/cy_em_eeprom.c ****     cy_en_em_eeprom_status_t ret = CY_EM_EEPROM_BAD_PARAM;
 650              		.loc 1 1294 0
 651 000e 194F     		ldr	r7, .L66
1295:Generated_Source\PSoC6\pdl\middleware\em_eeprom/cy_em_eeprom.c **** 
1296:Generated_Source\PSoC6\pdl\middleware\em_eeprom/cy_em_eeprom.c ****     for(i = 0u; i < (context->numberOfRows * context->wearLevelingFactor); i++)
 652              		.loc 1 1296 0
 653 0010 0026     		movs	r6, #0
 654 0012 24E0     		b	.L63
 655              	.LVL81:
 656              	.L64:
1297:Generated_Source\PSoC6\pdl\middleware\em_eeprom/cy_em_eeprom.c ****     {
1298:Generated_Source\PSoC6\pdl\middleware\em_eeprom/cy_em_eeprom.c ****         /* Copy the EEPROM row from Flash to RAM */
1299:Generated_Source\PSoC6\pdl\middleware\em_eeprom/cy_em_eeprom.c ****         (void)memcpy((void *)&writeRamBuffer[0u], (void *)(wrAddr), CY_EM_EEPROM_FLASH_SIZEOF_ROW);
 657              		.loc 1 1299 0 discriminator 3
 658 0014 009F     		ldr	r7, [sp]
 659              	.LVL82:
 660 0016 4FF40072 		mov	r2, #512
 661 001a 3946     		mov	r1, r7
ARM GAS  C:\Users\eduar\AppData\Local\Temp\ccwtx1iP.s 			page 36


 662 001c 01A8     		add	r0, sp, #4
 663 001e FFF7FEFF 		bl	memcpy
 664              	.LVL83:
1300:Generated_Source\PSoC6\pdl\middleware\em_eeprom/cy_em_eeprom.c **** 
1301:Generated_Source\PSoC6\pdl\middleware\em_eeprom/cy_em_eeprom.c ****         /* Increment the sequence number */
1302:Generated_Source\PSoC6\pdl\middleware\em_eeprom/cy_em_eeprom.c ****         seqNum++;
 665              		.loc 1 1302 0 discriminator 3
 666 0022 0135     		adds	r5, r5, #1
 667              	.LVL84:
1303:Generated_Source\PSoC6\pdl\middleware\em_eeprom/cy_em_eeprom.c ****         writeRamBuffer[CY_EM_EEPROM_HEADER_SEQ_NUM_OFFSET_U32] = seqNum;
 668              		.loc 1 1303 0 discriminator 3
 669 0024 0195     		str	r5, [sp, #4]
1304:Generated_Source\PSoC6\pdl\middleware\em_eeprom/cy_em_eeprom.c **** 
1305:Generated_Source\PSoC6\pdl\middleware\em_eeprom/cy_em_eeprom.c ****         /* Calculate and fill the checksum to the Em_EEPROM header */
1306:Generated_Source\PSoC6\pdl\middleware\em_eeprom/cy_em_eeprom.c ****         writeRamBuffer[CY_EM_EEPROM_HEADER_CHECKSUM_OFFSET_U32] = (uint32_t)
1307:Generated_Source\PSoC6\pdl\middleware\em_eeprom/cy_em_eeprom.c ****                     CalcChecksum((uint8_t *) &writeRamBuffer[CY_EM_EEPROM_EEPROM_DATA_OFFSET_U32],
 670              		.loc 1 1307 0 discriminator 3
 671 0026 4FF48071 		mov	r1, #256
 672 002a 41A8     		add	r0, sp, #260
 673 002c FFF7FEFF 		bl	CalcChecksum
 674              	.LVL85:
1306:Generated_Source\PSoC6\pdl\middleware\em_eeprom/cy_em_eeprom.c ****                     CalcChecksum((uint8_t *) &writeRamBuffer[CY_EM_EEPROM_EEPROM_DATA_OFFSET_U32],
 675              		.loc 1 1306 0 discriminator 3
 676 0030 4090     		str	r0, [sp, #256]
1308:Generated_Source\PSoC6\pdl\middleware\em_eeprom/cy_em_eeprom.c ****                                               CY_EM_EEPROM_EEPROM_DATA_LEN);
1309:Generated_Source\PSoC6\pdl\middleware\em_eeprom/cy_em_eeprom.c **** 
1310:Generated_Source\PSoC6\pdl\middleware\em_eeprom/cy_em_eeprom.c ****         /* Write the data to the specified flash row */
1311:Generated_Source\PSoC6\pdl\middleware\em_eeprom/cy_em_eeprom.c ****         ret = WriteRow(wrAddr, writeRamBuffer, context);
 677              		.loc 1 1311 0 discriminator 3
 678 0032 2246     		mov	r2, r4
 679 0034 01A9     		add	r1, sp, #4
 680 0036 3846     		mov	r0, r7
 681 0038 FFF7FEFF 		bl	WriteRow
 682              	.LVL86:
1312:Generated_Source\PSoC6\pdl\middleware\em_eeprom/cy_em_eeprom.c **** 
1313:Generated_Source\PSoC6\pdl\middleware\em_eeprom/cy_em_eeprom.c ****         /* Update the row address to point to the relevant row in the redundant 
1314:Generated_Source\PSoC6\pdl\middleware\em_eeprom/cy_em_eeprom.c ****         * EEPROM's copy.
1315:Generated_Source\PSoC6\pdl\middleware\em_eeprom/cy_em_eeprom.c ****         */
1316:Generated_Source\PSoC6\pdl\middleware\em_eeprom/cy_em_eeprom.c ****         tmpRowAddr = (wrAddr - context->userFlashStartAddr) + context->wlEndAddr;
 683              		.loc 1 1316 0 discriminator 3
 684 003c A069     		ldr	r0, [r4, #24]
 685 003e 009B     		ldr	r3, [sp]
 686 0040 1B1A     		subs	r3, r3, r0
 687 0042 2068     		ldr	r0, [r4]
 688              	.LVL87:
1317:Generated_Source\PSoC6\pdl\middleware\em_eeprom/cy_em_eeprom.c **** 
1318:Generated_Source\PSoC6\pdl\middleware\em_eeprom/cy_em_eeprom.c ****         /* Write the data to the specified flash row */
1319:Generated_Source\PSoC6\pdl\middleware\em_eeprom/cy_em_eeprom.c ****         ret = WriteRow(tmpRowAddr, writeRamBuffer, context);
 689              		.loc 1 1319 0 discriminator 3
 690 0044 2246     		mov	r2, r4
 691 0046 01A9     		add	r1, sp, #4
 692 0048 1844     		add	r0, r0, r3
 693              	.LVL88:
 694 004a FFF7FEFF 		bl	WriteRow
 695              	.LVL89:
 696 004e 0746     		mov	r7, r0
 697              	.LVL90:
ARM GAS  C:\Users\eduar\AppData\Local\Temp\ccwtx1iP.s 			page 37


1320:Generated_Source\PSoC6\pdl\middleware\em_eeprom/cy_em_eeprom.c **** 
1321:Generated_Source\PSoC6\pdl\middleware\em_eeprom/cy_em_eeprom.c ****         /* Get the address of the next row to be written. 
1322:Generated_Source\PSoC6\pdl\middleware\em_eeprom/cy_em_eeprom.c ****         * "rdAddr" is not used in this function but provided to prevent NULL 
1323:Generated_Source\PSoC6\pdl\middleware\em_eeprom/cy_em_eeprom.c ****         * pointer exception in GetNextRowToWrite().
1324:Generated_Source\PSoC6\pdl\middleware\em_eeprom/cy_em_eeprom.c ****         */
1325:Generated_Source\PSoC6\pdl\middleware\em_eeprom/cy_em_eeprom.c ****         GetNextRowToWrite(seqNum, &wrAddr, &rdAddr, context);
 698              		.loc 1 1325 0 discriminator 3
 699 0050 2346     		mov	r3, r4
 700 0052 81AA     		add	r2, sp, #516
 701 0054 6946     		mov	r1, sp
 702 0056 2846     		mov	r0, r5
 703              	.LVL91:
 704 0058 FFF7FEFF 		bl	GetNextRowToWrite
 705              	.LVL92:
1296:Generated_Source\PSoC6\pdl\middleware\em_eeprom/cy_em_eeprom.c ****     {
 706              		.loc 1 1296 0 discriminator 3
 707 005c 0136     		adds	r6, r6, #1
 708              	.LVL93:
 709              	.L63:
1296:Generated_Source\PSoC6\pdl\middleware\em_eeprom/cy_em_eeprom.c ****     {
 710              		.loc 1 1296 0 is_stmt 0 discriminator 1
 711 005e 6268     		ldr	r2, [r4, #4]
 712 0060 2369     		ldr	r3, [r4, #16]
 713 0062 03FB02F3 		mul	r3, r3, r2
 714 0066 9E42     		cmp	r6, r3
 715 0068 D4D3     		bcc	.L64
1326:Generated_Source\PSoC6\pdl\middleware\em_eeprom/cy_em_eeprom.c ****     }
1327:Generated_Source\PSoC6\pdl\middleware\em_eeprom/cy_em_eeprom.c ****     
1328:Generated_Source\PSoC6\pdl\middleware\em_eeprom/cy_em_eeprom.c ****     return(ret);
1329:Generated_Source\PSoC6\pdl\middleware\em_eeprom/cy_em_eeprom.c **** }
 716              		.loc 1 1329 0 is_stmt 1
 717 006a 3846     		mov	r0, r7
 718 006c 0DF5037D 		add	sp, sp, #524
 719              		.cfi_def_cfa_offset 20
 720              		@ sp needed
 721 0070 F0BD     		pop	{r4, r5, r6, r7, pc}
 722              	.LVL94:
 723              	.L67:
 724 0072 00BF     		.align	2
 725              	.L66:
 726 0074 01006E00 		.word	7208961
 727              		.cfi_endproc
 728              	.LFE146:
 729              		.size	FillChecksum, .-FillChecksum
 730              		.section	.text.CheckCrcAndCopy,"ax",%progbits
 731              		.align	2
 732              		.thumb
 733              		.thumb_func
 734              		.type	CheckCrcAndCopy, %function
 735              	CheckCrcAndCopy:
 736              	.LFB144:
1135:Generated_Source\PSoC6\pdl\middleware\em_eeprom/cy_em_eeprom.c ****     cy_en_em_eeprom_status_t ret;
 737              		.loc 1 1135 0
 738              		.cfi_startproc
 739              		@ args = 4, pretend = 0, frame = 512
 740              		@ frame_needed = 0, uses_anonymous_args = 0
 741              	.LVL95:
ARM GAS  C:\Users\eduar\AppData\Local\Temp\ccwtx1iP.s 			page 38


 742 0000 2DE9F047 		push	{r4, r5, r6, r7, r8, r9, r10, lr}
 743              		.cfi_def_cfa_offset 32
 744              		.cfi_offset 4, -32
 745              		.cfi_offset 5, -28
 746              		.cfi_offset 6, -24
 747              		.cfi_offset 7, -20
 748              		.cfi_offset 8, -16
 749              		.cfi_offset 9, -12
 750              		.cfi_offset 10, -8
 751              		.cfi_offset 14, -4
 752 0004 ADF5007D 		sub	sp, sp, #512
 753              		.cfi_def_cfa_offset 544
 754 0008 0546     		mov	r5, r0
 755 000a 8A46     		mov	r10, r1
 756 000c 9046     		mov	r8, r2
 757 000e 9946     		mov	r9, r3
 758 0010 889E     		ldr	r6, [sp, #544]
1140:Generated_Source\PSoC6\pdl\middleware\em_eeprom/cy_em_eeprom.c **** 
 759              		.loc 1 1140 0
 760 0012 B469     		ldr	r4, [r6, #24]
 761 0014 041B     		subs	r4, r0, r4
 762 0016 3368     		ldr	r3, [r6]
 763              	.LVL96:
 764 0018 1C44     		add	r4, r4, r3
 765              	.LVL97:
1143:Generated_Source\PSoC6\pdl\middleware\em_eeprom/cy_em_eeprom.c ****         ((uint32_t) CalcChecksum((uint8_t *)(startAddr + CY_EM_EEPROM_EEPROM_DATA_OFFSET),
 766              		.loc 1 1143 0
 767 001a D0F8FC70 		ldr	r7, [r0, #252]
1144:Generated_Source\PSoC6\pdl\middleware\em_eeprom/cy_em_eeprom.c ****             CY_EM_EEPROM_EEPROM_DATA_LEN)))
 768              		.loc 1 1144 0
 769 001e 4FF48071 		mov	r1, #256
 770              	.LVL98:
 771 0022 0844     		add	r0, r0, r1
 772              	.LVL99:
 773 0024 FFF7FEFF 		bl	CalcChecksum
 774              	.LVL100:
1143:Generated_Source\PSoC6\pdl\middleware\em_eeprom/cy_em_eeprom.c ****         ((uint32_t) CalcChecksum((uint8_t *)(startAddr + CY_EM_EEPROM_EEPROM_DATA_OFFSET),
 775              		.loc 1 1143 0
 776 0028 8742     		cmp	r7, r0
 777 002a 07D1     		bne	.L69
1147:Generated_Source\PSoC6\pdl\middleware\em_eeprom/cy_em_eeprom.c **** 
 778              		.loc 1 1147 0
 779 002c 4A46     		mov	r2, r9
 780 002e 05EB0801 		add	r1, r5, r8
 781 0032 5046     		mov	r0, r10
 782 0034 FFF7FEFF 		bl	memcpy
 783              	.LVL101:
1149:Generated_Source\PSoC6\pdl\middleware\em_eeprom/cy_em_eeprom.c ****     }
 784              		.loc 1 1149 0
 785 0038 0024     		movs	r4, #0
 786              	.LVL102:
 787 003a 1DE0     		b	.L70
 788              	.LVL103:
 789              	.L69:
1152:Generated_Source\PSoC6\pdl\middleware\em_eeprom/cy_em_eeprom.c ****             ((uint32_t) CalcChecksum((uint8_t *)(rcStartRowAddr + CY_EM_EEPROM_EEPROM_DATA_OFFSET),
 790              		.loc 1 1152 0
 791 003c D4F8FC70 		ldr	r7, [r4, #252]
ARM GAS  C:\Users\eduar\AppData\Local\Temp\ccwtx1iP.s 			page 39


1153:Generated_Source\PSoC6\pdl\middleware\em_eeprom/cy_em_eeprom.c ****                 CY_EM_EEPROM_EEPROM_DATA_LEN)))
 792              		.loc 1 1153 0
 793 0040 4FF48071 		mov	r1, #256
 794 0044 6018     		adds	r0, r4, r1
 795 0046 FFF7FEFF 		bl	CalcChecksum
 796              	.LVL104:
1152:Generated_Source\PSoC6\pdl\middleware\em_eeprom/cy_em_eeprom.c ****             ((uint32_t) CalcChecksum((uint8_t *)(rcStartRowAddr + CY_EM_EEPROM_EEPROM_DATA_OFFSET),
 797              		.loc 1 1152 0
 798 004a 8742     		cmp	r7, r0
 799 004c 13D1     		bne	.L71
1160:Generated_Source\PSoC6\pdl\middleware\em_eeprom/cy_em_eeprom.c **** 
 800              		.loc 1 1160 0
 801 004e 4FF40072 		mov	r2, #512
 802 0052 2146     		mov	r1, r4
 803 0054 6846     		mov	r0, sp
 804 0056 FFF7FEFF 		bl	memcpy
 805              	.LVL105:
1163:Generated_Source\PSoC6\pdl\middleware\em_eeprom/cy_em_eeprom.c **** 
 806              		.loc 1 1163 0
 807 005a 3246     		mov	r2, r6
 808 005c 6946     		mov	r1, sp
 809 005e 2846     		mov	r0, r5
 810 0060 FFF7FEFF 		bl	WriteRow
 811              	.LVL106:
1165:Generated_Source\PSoC6\pdl\middleware\em_eeprom/cy_em_eeprom.c ****         {
 812              		.loc 1 1165 0
 813 0064 0446     		mov	r4, r0
 814              	.LVL107:
 815 0066 38B9     		cbnz	r0, .L70
1167:Generated_Source\PSoC6\pdl\middleware\em_eeprom/cy_em_eeprom.c ****         }
 816              		.loc 1 1167 0
 817 0068 4A46     		mov	r2, r9
 818 006a 0DEB8801 		add	r1, sp, r8, lsl #2
 819 006e 5046     		mov	r0, r10
 820              	.LVL108:
 821 0070 FFF7FEFF 		bl	memcpy
 822              	.LVL109:
 823 0074 00E0     		b	.L70
 824              	.LVL110:
 825              	.L71:
1172:Generated_Source\PSoC6\pdl\middleware\em_eeprom/cy_em_eeprom.c ****     }
 826              		.loc 1 1172 0
 827 0076 034C     		ldr	r4, .L73
 828              	.LVL111:
 829              	.L70:
1176:Generated_Source\PSoC6\pdl\middleware\em_eeprom/cy_em_eeprom.c **** 
 830              		.loc 1 1176 0
 831 0078 2046     		mov	r0, r4
 832 007a 0DF5007D 		add	sp, sp, #512
 833              		.cfi_def_cfa_offset 32
 834              		@ sp needed
 835 007e BDE8F087 		pop	{r4, r5, r6, r7, r8, r9, r10, pc}
 836              	.LVL112:
 837              	.L74:
 838 0082 00BF     		.align	2
 839              	.L73:
 840 0084 02006E00 		.word	7208962
ARM GAS  C:\Users\eduar\AppData\Local\Temp\ccwtx1iP.s 			page 40


 841              		.cfi_endproc
 842              	.LFE144:
 843              		.size	CheckCrcAndCopy, .-CheckCrcAndCopy
 844              		.section	.text.EraseRow,"ax",%progbits
 845              		.align	2
 846              		.thumb
 847              		.thumb_func
 848              		.type	EraseRow, %function
 849              	EraseRow:
 850              	.LFB143:
1034:Generated_Source\PSoC6\pdl\middleware\em_eeprom/cy_em_eeprom.c ****     uint32_t emEepromRowAddr = rowAddr;
 851              		.loc 1 1034 0
 852              		.cfi_startproc
 853              		@ args = 0, pretend = 0, frame = 0
 854              		@ frame_needed = 0, uses_anonymous_args = 0
 855              	.LVL113:
 856 0000 2DE9F041 		push	{r4, r5, r6, r7, r8, lr}
 857              		.cfi_def_cfa_offset 24
 858              		.cfi_offset 4, -24
 859              		.cfi_offset 5, -20
 860              		.cfi_offset 6, -16
 861              		.cfi_offset 7, -12
 862              		.cfi_offset 8, -8
 863              		.cfi_offset 14, -4
 864 0004 0546     		mov	r5, r0
 865 0006 1646     		mov	r6, r2
 866              	.LVL114:
1041:Generated_Source\PSoC6\pdl\middleware\em_eeprom/cy_em_eeprom.c ****     {
 867              		.loc 1 1041 0
 868 0008 137D     		ldrb	r3, [r2, #20]	@ zero_extendqisi2
 869 000a 0BB9     		cbnz	r3, .L83
1037:Generated_Source\PSoC6\pdl\middleware\em_eeprom/cy_em_eeprom.c **** 
 870              		.loc 1 1037 0
 871 000c 0127     		movs	r7, #1
 872 000e 00E0     		b	.L76
 873              	.L83:
1043:Generated_Source\PSoC6\pdl\middleware\em_eeprom/cy_em_eeprom.c ****     }
 874              		.loc 1 1043 0
 875 0010 0227     		movs	r7, #2
 876              	.L76:
 877 0012 DFF86480 		ldr	r8, .L87+8
 878              	.LVL115:
 879              	.L82:
1048:Generated_Source\PSoC6\pdl\middleware\em_eeprom/cy_em_eeprom.c ****         {
 880              		.loc 1 1048 0
 881 0016 737D     		ldrb	r3, [r6, #21]	@ zero_extendqisi2
 882 0018 23B1     		cbz	r3, .L77
1051:Generated_Source\PSoC6\pdl\middleware\em_eeprom/cy_em_eeprom.c ****             {
 883              		.loc 1 1051 0
 884 001a 2846     		mov	r0, r5
 885 001c FFF7FEFF 		bl	Cy_Flash_EraseRow
 886              	.LVL116:
 887 0020 A0B1     		cbz	r0, .L84
 888 0022 18E0     		b	.L78
 889              	.L77:
1059:Generated_Source\PSoC6\pdl\middleware\em_eeprom/cy_em_eeprom.c ****             {
 890              		.loc 1 1059 0
ARM GAS  C:\Users\eduar\AppData\Local\Temp\ccwtx1iP.s 			page 41


 891 0024 2846     		mov	r0, r5
 892 0026 FFF7FEFF 		bl	Cy_Flash_StartErase
 893              	.LVL117:
 894 002a 114B     		ldr	r3, .L87
 895 002c 9842     		cmp	r0, r3
 896 002e 12D1     		bne	.L78
 897 0030 3224     		movs	r4, #50
 898              	.L80:
 899              	.LVL118:
 900              	.LBB4:
1066:Generated_Source\PSoC6\pdl\middleware\em_eeprom/cy_em_eeprom.c ****                     rc = Cy_Flash_IsWriteComplete();     /* Check if erase completed */
 901              		.loc 1 1066 0 discriminator 2
 902 0032 0120     		movs	r0, #1
 903 0034 FFF7FEFF 		bl	Cy_SysLib_Delay
 904              	.LVL119:
1067:Generated_Source\PSoC6\pdl\middleware\em_eeprom/cy_em_eeprom.c ****                     countMs--;
 905              		.loc 1 1067 0 discriminator 2
 906 0038 FFF7FEFF 		bl	Cy_Flash_IsOperationComplete
 907              	.LVL120:
1068:Generated_Source\PSoC6\pdl\middleware\em_eeprom/cy_em_eeprom.c ****                 }
 908              		.loc 1 1068 0 discriminator 2
 909 003c 013C     		subs	r4, r4, #1
 910              	.LVL121:
1070:Generated_Source\PSoC6\pdl\middleware\em_eeprom/cy_em_eeprom.c **** 
 911              		.loc 1 1070 0 discriminator 2
 912 003e 0D4B     		ldr	r3, .L87+4
 913 0040 9842     		cmp	r0, r3
 914 0042 01D1     		bne	.L79
1070:Generated_Source\PSoC6\pdl\middleware\em_eeprom/cy_em_eeprom.c **** 
 915              		.loc 1 1070 0 is_stmt 0 discriminator 1
 916 0044 002C     		cmp	r4, #0
 917 0046 F4D1     		bne	.L80
 918              	.L79:
1072:Generated_Source\PSoC6\pdl\middleware\em_eeprom/cy_em_eeprom.c ****                 {
 919              		.loc 1 1072 0 is_stmt 1
 920 0048 18B1     		cbz	r0, .L85
 921 004a 04E0     		b	.L78
 922              	.LVL122:
 923              	.L84:
 924              	.LBE4:
1053:Generated_Source\PSoC6\pdl\middleware\em_eeprom/cy_em_eeprom.c ****             }
 925              		.loc 1 1053 0
 926 004c 4FF00008 		mov	r8, #0
 927              	.LVL123:
 928 0050 01E0     		b	.L78
 929              	.LVL124:
 930              	.L85:
 931              	.LBB5:
1074:Generated_Source\PSoC6\pdl\middleware\em_eeprom/cy_em_eeprom.c ****                 }
 932              		.loc 1 1074 0
 933 0052 4FF00008 		mov	r8, #0
 934              	.LVL125:
 935              	.L78:
 936              	.LBE5:
1079:Generated_Source\PSoC6\pdl\middleware\em_eeprom/cy_em_eeprom.c ****         {
 937              		.loc 1 1079 0
 938 0056 B8F1000F 		cmp	r8, #0
ARM GAS  C:\Users\eduar\AppData\Local\Temp\ccwtx1iP.s 			page 42


 939 005a 05D1     		bne	.L81
1082:Generated_Source\PSoC6\pdl\middleware\em_eeprom/cy_em_eeprom.c ****         }
 940              		.loc 1 1082 0
 941 005c B369     		ldr	r3, [r6, #24]
 942 005e ED1A     		subs	r5, r5, r3
 943              	.LVL126:
 944 0060 3368     		ldr	r3, [r6]
 945 0062 1D44     		add	r5, r5, r3
 946              	.LVL127:
1089:Generated_Source\PSoC6\pdl\middleware\em_eeprom/cy_em_eeprom.c **** 
 947              		.loc 1 1089 0
 948 0064 013F     		subs	r7, r7, #1
 949              	.LVL128:
 950 0066 D6D1     		bne	.L82
 951              	.L81:
1092:Generated_Source\PSoC6\pdl\middleware\em_eeprom/cy_em_eeprom.c **** 
 952              		.loc 1 1092 0
 953 0068 4046     		mov	r0, r8
 954 006a BDE8F081 		pop	{r4, r5, r6, r7, r8, pc}
 955              	.LVL129:
 956              	.L88:
 957 006e 00BF     		.align	2
 958              	.L87:
 959 0070 01005000 		.word	5242881
 960 0074 02005000 		.word	5242882
 961 0078 04006E00 		.word	7208964
 962              		.cfi_endproc
 963              	.LFE143:
 964              		.size	EraseRow, .-EraseRow
 965              		.section	.text.Cy_Em_EEPROM_Init,"ax",%progbits
 966              		.align	2
 967              		.global	Cy_Em_EEPROM_Init
 968              		.thumb
 969              		.thumb_func
 970              		.type	Cy_Em_EEPROM_Init, %function
 971              	Cy_Em_EEPROM_Init:
 972              	.LFB132:
  91:Generated_Source\PSoC6\pdl\middleware\em_eeprom/cy_em_eeprom.c ****     cy_en_em_eeprom_status_t ret = CY_EM_EEPROM_BAD_PARAM;
 973              		.loc 1 91 0
 974              		.cfi_startproc
 975              		@ args = 0, pretend = 0, frame = 0
 976              		@ frame_needed = 0, uses_anonymous_args = 0
 977              	.LVL130:
 978 0000 F8B5     		push	{r3, r4, r5, r6, r7, lr}
 979              		.cfi_def_cfa_offset 24
 980              		.cfi_offset 3, -24
 981              		.cfi_offset 4, -20
 982              		.cfi_offset 5, -16
 983              		.cfi_offset 6, -12
 984              		.cfi_offset 7, -8
 985              		.cfi_offset 14, -4
 986              	.LVL131:
  94:Generated_Source\PSoC6\pdl\middleware\em_eeprom/cy_em_eeprom.c ****         (config->wearLevelingFactor <= CY_EM_EEPROM_MAX_WEAR_LEVELING_FACTOR) && (config->eepromSiz
 987              		.loc 1 94 0
 988 0002 0029     		cmp	r1, #0
 989 0004 3DD0     		beq	.L92
  94:Generated_Source\PSoC6\pdl\middleware\em_eeprom/cy_em_eeprom.c ****         (config->wearLevelingFactor <= CY_EM_EEPROM_MAX_WEAR_LEVELING_FACTOR) && (config->eepromSiz
ARM GAS  C:\Users\eduar\AppData\Local\Temp\ccwtx1iP.s 			page 43


 990              		.loc 1 94 0 is_stmt 0 discriminator 1
 991 0006 0028     		cmp	r0, #0
 992 0008 3DD0     		beq	.L93
  94:Generated_Source\PSoC6\pdl\middleware\em_eeprom/cy_em_eeprom.c ****         (config->wearLevelingFactor <= CY_EM_EEPROM_MAX_WEAR_LEVELING_FACTOR) && (config->eepromSiz
 993              		.loc 1 94 0 discriminator 2
 994 000a C368     		ldr	r3, [r0, #12]
 995 000c 002B     		cmp	r3, #0
 996 000e 3CD0     		beq	.L94
  95:Generated_Source\PSoC6\pdl\middleware\em_eeprom/cy_em_eeprom.c ****     {
 997              		.loc 1 95 0 is_stmt 1 discriminator 3
 998 0010 4368     		ldr	r3, [r0, #4]
  94:Generated_Source\PSoC6\pdl\middleware\em_eeprom/cy_em_eeprom.c ****         (config->wearLevelingFactor <= CY_EM_EEPROM_MAX_WEAR_LEVELING_FACTOR) && (config->eepromSiz
 999              		.loc 1 94 0 discriminator 3
 1000 0012 0A2B     		cmp	r3, #10
 1001 0014 3BD8     		bhi	.L95
  95:Generated_Source\PSoC6\pdl\middleware\em_eeprom/cy_em_eeprom.c ****     {
 1002              		.loc 1 95 0
 1003 0016 0768     		ldr	r7, [r0]
 1004 0018 002F     		cmp	r7, #0
 1005 001a 3AD0     		beq	.L96
 1006 001c 0E46     		mov	r6, r1
 1007 001e 0446     		mov	r4, r0
  97:Generated_Source\PSoC6\pdl\middleware\em_eeprom/cy_em_eeprom.c **** 
 1008              		.loc 1 97 0
 1009 0020 FFF7FEFF 		bl	CheckRanges
 1010              	.LVL132:
  99:Generated_Source\PSoC6\pdl\middleware\em_eeprom/cy_em_eeprom.c ****         {
 1011              		.loc 1 99 0
 1012 0024 0546     		mov	r5, r0
 1013 0026 0028     		cmp	r0, #0
 1014 0028 34D1     		bne	.L90
 102:Generated_Source\PSoC6\pdl\middleware\em_eeprom/cy_em_eeprom.c ****             context->wearLevelingFactor = config->wearLevelingFactor;
 1015              		.loc 1 102 0
 1016 002a F760     		str	r7, [r6, #12]
 103:Generated_Source\PSoC6\pdl\middleware\em_eeprom/cy_em_eeprom.c ****             context->redundantCopy = config->redundantCopy;
 1017              		.loc 1 103 0
 1018 002c 6368     		ldr	r3, [r4, #4]
 1019 002e 3361     		str	r3, [r6, #16]
 104:Generated_Source\PSoC6\pdl\middleware\em_eeprom/cy_em_eeprom.c ****             context->blockingWrite = config->blockingWrite;
 1020              		.loc 1 104 0
 1021 0030 237A     		ldrb	r3, [r4, #8]	@ zero_extendqisi2
 1022 0032 3375     		strb	r3, [r6, #20]
 105:Generated_Source\PSoC6\pdl\middleware\em_eeprom/cy_em_eeprom.c ****             context->userFlashStartAddr = config->userFlashStartAddr;
 1023              		.loc 1 105 0
 1024 0034 637A     		ldrb	r3, [r4, #9]	@ zero_extendqisi2
 1025 0036 7375     		strb	r3, [r6, #21]
 106:Generated_Source\PSoC6\pdl\middleware\em_eeprom/cy_em_eeprom.c ****             /* Store frequently used data for internal use */
 1026              		.loc 1 106 0
 1027 0038 E368     		ldr	r3, [r4, #12]
 1028 003a B361     		str	r3, [r6, #24]
 108:Generated_Source\PSoC6\pdl\middleware\em_eeprom/cy_em_eeprom.c ****             context->wlEndAddr = ((CY_EM_EEPROM_GET_EEPROM_SIZE(context->numberOfRows) * config->we
 1029              		.loc 1 108 0
 1030 003c 2368     		ldr	r3, [r4]
 1031 003e 1A0A     		lsrs	r2, r3, #8
 1032 0040 13F0FF03 		ands	r3, r3, #255
 1033 0044 00D0     		beq	.L91
 1034 0046 0123     		movs	r3, #1
ARM GAS  C:\Users\eduar\AppData\Local\Temp\ccwtx1iP.s 			page 44


 1035              	.L91:
 108:Generated_Source\PSoC6\pdl\middleware\em_eeprom/cy_em_eeprom.c ****             context->wlEndAddr = ((CY_EM_EEPROM_GET_EEPROM_SIZE(context->numberOfRows) * config->we
 1036              		.loc 1 108 0 is_stmt 0 discriminator 4
 1037 0048 1344     		add	r3, r3, r2
 1038 004a 7360     		str	r3, [r6, #4]
 109:Generated_Source\PSoC6\pdl\middleware\em_eeprom/cy_em_eeprom.c ****                     config->userFlashStartAddr);
 1039              		.loc 1 109 0 is_stmt 1 discriminator 4
 1040 004c 6268     		ldr	r2, [r4, #4]
 1041 004e 02FB03F3 		mul	r3, r2, r3
 110:Generated_Source\PSoC6\pdl\middleware\em_eeprom/cy_em_eeprom.c ****             /* Find last written EEPROM row and store it for quick access */
 1042              		.loc 1 110 0 discriminator 4
 1043 0052 E268     		ldr	r2, [r4, #12]
 109:Generated_Source\PSoC6\pdl\middleware\em_eeprom/cy_em_eeprom.c ****                     config->userFlashStartAddr);
 1044              		.loc 1 109 0 discriminator 4
 1045 0054 02EB4323 		add	r3, r2, r3, lsl #9
 1046 0058 3446     		mov	r4, r6
 1047              	.LVL133:
 1048 005a 44F8083B 		str	r3, [r4], #8
 112:Generated_Source\PSoC6\pdl\middleware\em_eeprom/cy_em_eeprom.c **** 
 1049              		.loc 1 112 0 discriminator 4
 1050 005e 3146     		mov	r1, r6
 1051 0060 2046     		mov	r0, r4
 1052              	.LVL134:
 1053 0062 FFF7FEFF 		bl	FindLastWrittenRow
 1054              	.LVL135:
 114:Generated_Source\PSoC6\pdl\middleware\em_eeprom/cy_em_eeprom.c ****             {
 1055              		.loc 1 114 0 discriminator 4
 1056 0066 B368     		ldr	r3, [r6, #8]
 1057 0068 1B68     		ldr	r3, [r3]
 1058 006a 9BB9     		cbnz	r3, .L90
 114:Generated_Source\PSoC6\pdl\middleware\em_eeprom/cy_em_eeprom.c ****             {
 1059              		.loc 1 114 0 is_stmt 0 discriminator 1
 1060 006c 337D     		ldrb	r3, [r6, #20]	@ zero_extendqisi2
 1061 006e 8BB1     		cbz	r3, .L90
 119:Generated_Source\PSoC6\pdl\middleware\em_eeprom/cy_em_eeprom.c ****                 
 1062              		.loc 1 119 0 is_stmt 1
 1063 0070 3046     		mov	r0, r6
 1064 0072 FFF7FEFF 		bl	FillChecksum
 1065              	.LVL136:
 1066 0076 0546     		mov	r5, r0
 1067              	.LVL137:
 122:Generated_Source\PSoC6\pdl\middleware\em_eeprom/cy_em_eeprom.c ****             }
 1068              		.loc 1 122 0
 1069 0078 3146     		mov	r1, r6
 1070 007a 2046     		mov	r0, r4
 1071              	.LVL138:
 1072 007c FFF7FEFF 		bl	FindLastWrittenRow
 1073              	.LVL139:
 1074 0080 08E0     		b	.L90
 1075              	.LVL140:
 1076              	.L92:
  92:Generated_Source\PSoC6\pdl\middleware\em_eeprom/cy_em_eeprom.c **** 
 1077              		.loc 1 92 0
 1078 0082 054D     		ldr	r5, .L98
 1079 0084 06E0     		b	.L90
 1080              	.L93:
 1081 0086 044D     		ldr	r5, .L98
ARM GAS  C:\Users\eduar\AppData\Local\Temp\ccwtx1iP.s 			page 45


 1082 0088 04E0     		b	.L90
 1083              	.L94:
 1084 008a 034D     		ldr	r5, .L98
 1085 008c 02E0     		b	.L90
 1086              	.L95:
 1087 008e 024D     		ldr	r5, .L98
 1088 0090 00E0     		b	.L90
 1089              	.L96:
 1090 0092 014D     		ldr	r5, .L98
 1091              	.LVL141:
 1092              	.L90:
 128:Generated_Source\PSoC6\pdl\middleware\em_eeprom/cy_em_eeprom.c **** 
 1093              		.loc 1 128 0
 1094 0094 2846     		mov	r0, r5
 1095 0096 F8BD     		pop	{r3, r4, r5, r6, r7, pc}
 1096              	.LVL142:
 1097              	.L99:
 1098              		.align	2
 1099              	.L98:
 1100 0098 01006E00 		.word	7208961
 1101              		.cfi_endproc
 1102              	.LFE132:
 1103              		.size	Cy_Em_EEPROM_Init, .-Cy_Em_EEPROM_Init
 1104              		.section	.text.Cy_Em_EEPROM_Read,"ax",%progbits
 1105              		.align	2
 1106              		.global	Cy_Em_EEPROM_Read
 1107              		.thumb
 1108              		.thumb_func
 1109              		.type	Cy_Em_EEPROM_Read, %function
 1110              	Cy_Em_EEPROM_Read:
 1111              	.LFB133:
 168:Generated_Source\PSoC6\pdl\middleware\em_eeprom/cy_em_eeprom.c ****     cy_en_em_eeprom_status_t ret = CY_EM_EEPROM_BAD_PARAM;
 1112              		.loc 1 168 0
 1113              		.cfi_startproc
 1114              		@ args = 0, pretend = 0, frame = 32
 1115              		@ frame_needed = 0, uses_anonymous_args = 0
 1116              	.LVL143:
 1117 0000 2DE9F04F 		push	{r4, r5, r6, r7, r8, r9, r10, fp, lr}
 1118              		.cfi_def_cfa_offset 36
 1119              		.cfi_offset 4, -36
 1120              		.cfi_offset 5, -32
 1121              		.cfi_offset 6, -28
 1122              		.cfi_offset 7, -24
 1123              		.cfi_offset 8, -20
 1124              		.cfi_offset 9, -16
 1125              		.cfi_offset 10, -12
 1126              		.cfi_offset 11, -8
 1127              		.cfi_offset 14, -4
 1128 0004 8BB0     		sub	sp, sp, #44
 1129              		.cfi_def_cfa_offset 80
 1130              	.LVL144:
 178:Generated_Source\PSoC6\pdl\middleware\em_eeprom/cy_em_eeprom.c **** 
 1131              		.loc 1 178 0
 1132 0006 0591     		str	r1, [sp, #20]
 1133              	.LVL145:
 181:Generated_Source\PSoC6\pdl\middleware\em_eeprom/cy_em_eeprom.c ****     {
 1134              		.loc 1 181 0
ARM GAS  C:\Users\eduar\AppData\Local\Temp\ccwtx1iP.s 			page 46


 1135 0008 002A     		cmp	r2, #0
 1136 000a 00F0E680 		beq	.L122
 1137 000e 8046     		mov	r8, r0
 1138 0010 1E46     		mov	r6, r3
 1139 0012 9146     		mov	r9, r2
 181:Generated_Source\PSoC6\pdl\middleware\em_eeprom/cy_em_eeprom.c ****     {
 1140              		.loc 1 181 0 is_stmt 0 discriminator 1
 1141 0014 1318     		adds	r3, r2, r0
 1142              	.LVL146:
 1143 0016 1A46     		mov	r2, r3
 1144              	.LVL147:
 1145 0018 0793     		str	r3, [sp, #28]
 1146 001a F368     		ldr	r3, [r6, #12]
 1147 001c 9A42     		cmp	r2, r3
 1148 001e 00F2DF80 		bhi	.L123
 181:Generated_Source\PSoC6\pdl\middleware\em_eeprom/cy_em_eeprom.c ****     {
 1149              		.loc 1 181 0 discriminator 2
 1150 0022 0029     		cmp	r1, #0
 1151 0024 00F0DF80 		beq	.L124
 1152              	.LVL148:
 1153              	.LBB6:
 186:Generated_Source\PSoC6\pdl\middleware\em_eeprom/cy_em_eeprom.c ****         uint32_t updateAddrFlag = 0u;
 1154              		.loc 1 186 0 is_stmt 1
 1155 0028 B068     		ldr	r0, [r6, #8]
 1156              	.LVL149:
 1157 002a 0368     		ldr	r3, [r0]
 1158 002c 0993     		str	r3, [sp, #36]
 1159              	.LVL150:
 192:Generated_Source\PSoC6\pdl\middleware\em_eeprom/cy_em_eeprom.c ****                               (rdAddr / CY_EM_EEPROM_EEPROM_DATA_LEN)) + 1u;
 1160              		.loc 1 192 0
 1161 002e 02F1FF3B 		add	fp, r2, #-1
 193:Generated_Source\PSoC6\pdl\middleware\em_eeprom/cy_em_eeprom.c **** 
 1162              		.loc 1 193 0
 1163 0032 4FEA1823 		lsr	r3, r8, #8
 1164              	.LVL151:
 192:Generated_Source\PSoC6\pdl\middleware\em_eeprom/cy_em_eeprom.c ****                               (rdAddr / CY_EM_EEPROM_EEPROM_DATA_LEN)) + 1u;
 1165              		.loc 1 192 0
 1166 0036 C3EB1B2B 		rsb	fp, r3, fp, lsr #8
 1167 003a 0BF1010B 		add	fp, fp, #1
 1168              	.LVL152:
 199:Generated_Source\PSoC6\pdl\middleware\em_eeprom/cy_em_eeprom.c ****                               (CY_EM_EEPROM_FLASH_SIZEOF_ROW * context->numberOfRows)) *
 1169              		.loc 1 199 0
 1170 003e B469     		ldr	r4, [r6, #24]
 1171 0040 031B     		subs	r3, r0, r4
 200:Generated_Source\PSoC6\pdl\middleware\em_eeprom/cy_em_eeprom.c ****                               (CY_EM_EEPROM_FLASH_SIZEOF_ROW * context->numberOfRows)) +
 1172              		.loc 1 200 0
 1173 0042 7268     		ldr	r2, [r6, #4]
 1174 0044 5502     		lsls	r5, r2, #9
 199:Generated_Source\PSoC6\pdl\middleware\em_eeprom/cy_em_eeprom.c ****                               (CY_EM_EEPROM_FLASH_SIZEOF_ROW * context->numberOfRows)) *
 1175              		.loc 1 199 0
 1176 0046 B3FBF5F3 		udiv	r3, r3, r5
 200:Generated_Source\PSoC6\pdl\middleware\em_eeprom/cy_em_eeprom.c ****                               (CY_EM_EEPROM_FLASH_SIZEOF_ROW * context->numberOfRows)) +
 1177              		.loc 1 200 0
 1178 004a 03FB02F3 		mul	r3, r3, r2
 199:Generated_Source\PSoC6\pdl\middleware\em_eeprom/cy_em_eeprom.c ****                               (CY_EM_EEPROM_FLASH_SIZEOF_ROW * context->numberOfRows)) *
 1179              		.loc 1 199 0
 1180 004e 04EB4323 		add	r3, r4, r3, lsl #9
ARM GAS  C:\Users\eduar\AppData\Local\Temp\ccwtx1iP.s 			page 47


 1181 0052 0393     		str	r3, [sp, #12]
 1182              	.LVL153:
 205:Generated_Source\PSoC6\pdl\middleware\em_eeprom/cy_em_eeprom.c ****         {
 1183              		.loc 1 205 0
 1184 0054 0025     		movs	r5, #0
 1185 0056 0EE0     		b	.L102
 1186              	.LVL154:
 1187              	.L105:
 207:Generated_Source\PSoC6\pdl\middleware\em_eeprom/cy_em_eeprom.c ****             {
 1188              		.loc 1 207 0
 1189 0058 B8EB052F 		cmp	r8, r5, lsl #8
 1190 005c 06D3     		bcc	.L125
 207:Generated_Source\PSoC6\pdl\middleware\em_eeprom/cy_em_eeprom.c ****             {
 1191              		.loc 1 207 0 is_stmt 0 discriminator 1
 1192 005e 6B1C     		adds	r3, r5, #1
 1193 0060 1B02     		lsls	r3, r3, #8
 1194 0062 013B     		subs	r3, r3, #1
 1195 0064 9845     		cmp	r8, r3
 1196 0066 03D9     		bls	.L126
 207:Generated_Source\PSoC6\pdl\middleware\em_eeprom/cy_em_eeprom.c ****             {
 1197              		.loc 1 207 0
 1198 0068 0023     		movs	r3, #0
 1199 006a 02E0     		b	.L103
 1200              	.L125:
 1201 006c 0023     		movs	r3, #0
 1202 006e 00E0     		b	.L103
 1203              	.L126:
 1204 0070 0123     		movs	r3, #1
 1205              	.L103:
 207:Generated_Source\PSoC6\pdl\middleware\em_eeprom/cy_em_eeprom.c ****             {
 1206              		.loc 1 207 0 discriminator 6
 1207 0072 1BB9     		cbnz	r3, .L104
 205:Generated_Source\PSoC6\pdl\middleware\em_eeprom/cy_em_eeprom.c ****         {
 1208              		.loc 1 205 0 is_stmt 1 discriminator 2
 1209 0074 0135     		adds	r5, r5, #1
 1210              	.LVL155:
 1211              	.L102:
 205:Generated_Source\PSoC6\pdl\middleware\em_eeprom/cy_em_eeprom.c ****         {
 1212              		.loc 1 205 0 is_stmt 0 discriminator 1
 1213 0076 9542     		cmp	r5, r2
 1214 0078 EED3     		bcc	.L105
 1215              	.LBE6:
 176:Generated_Source\PSoC6\pdl\middleware\em_eeprom/cy_em_eeprom.c ****     uint32_t dataStartEepromRowNum = 0u;
 1216              		.loc 1 176 0 is_stmt 1
 1217 007a 0025     		movs	r5, #0
 1218              	.LVL156:
 1219              	.L104:
 1220              	.LBB13:
 216:Generated_Source\PSoC6\pdl\middleware\em_eeprom/cy_em_eeprom.c **** 
 1221              		.loc 1 216 0
 1222 007c 039B     		ldr	r3, [sp, #12]
 1223 007e C01A     		subs	r0, r0, r3
 1224              	.LVL157:
 1225 0080 430A     		lsrs	r3, r0, #9
 1226 0082 1846     		mov	r0, r3
 1227 0084 0693     		str	r3, [sp, #24]
 1228              	.LVL158:
ARM GAS  C:\Users\eduar\AppData\Local\Temp\ccwtx1iP.s 			page 48


 219:Generated_Source\PSoC6\pdl\middleware\em_eeprom/cy_em_eeprom.c ****         {
 1229              		.loc 1 219 0
 1230 0086 3369     		ldr	r3, [r6, #16]
 1231 0088 012B     		cmp	r3, #1
 1232 008a 09D9     		bls	.L127
 1233              	.LBB7:
 221:Generated_Source\PSoC6\pdl\middleware\em_eeprom/cy_em_eeprom.c **** 
 1234              		.loc 1 221 0
 1235 008c 05EB0B03 		add	r3, r5, fp
 1236 0090 013B     		subs	r3, r3, #1
 1237              	.LVL159:
 224:Generated_Source\PSoC6\pdl\middleware\em_eeprom/cy_em_eeprom.c ****                               ((dataEndEepromRowNum > actEepromRowNum) ? 1u : 0u);
 1238              		.loc 1 224 0
 1239 0092 8542     		cmp	r5, r0
 1240 0094 07D8     		bhi	.L128
 224:Generated_Source\PSoC6\pdl\middleware\em_eeprom/cy_em_eeprom.c ****                               ((dataEndEepromRowNum > actEepromRowNum) ? 1u : 0u);
 1241              		.loc 1 224 0 is_stmt 0 discriminator 1
 1242 0096 9842     		cmp	r0, r3
 1243 0098 08D2     		bcs	.L129
 224:Generated_Source\PSoC6\pdl\middleware\em_eeprom/cy_em_eeprom.c ****                               ((dataEndEepromRowNum > actEepromRowNum) ? 1u : 0u);
 1244              		.loc 1 224 0
 1245 009a 0123     		movs	r3, #1
 1246              	.LVL160:
 1247 009c 0493     		str	r3, [sp, #16]
 1248 009e 07E0     		b	.L106
 1249              	.LVL161:
 1250              	.L127:
 1251              	.LBE7:
 187:Generated_Source\PSoC6\pdl\middleware\em_eeprom/cy_em_eeprom.c **** 
 1252              		.loc 1 187 0 is_stmt 1
 1253 00a0 0023     		movs	r3, #0
 1254 00a2 0493     		str	r3, [sp, #16]
 1255 00a4 04E0     		b	.L106
 1256              	.LVL162:
 1257              	.L128:
 1258              	.LBB8:
 224:Generated_Source\PSoC6\pdl\middleware\em_eeprom/cy_em_eeprom.c ****                               ((dataEndEepromRowNum > actEepromRowNum) ? 1u : 0u);
 1259              		.loc 1 224 0
 1260 00a6 0123     		movs	r3, #1
 1261              	.LVL163:
 1262 00a8 0493     		str	r3, [sp, #16]
 1263 00aa 01E0     		b	.L106
 1264              	.LVL164:
 1265              	.L129:
 1266 00ac 0023     		movs	r3, #0
 1267              	.LVL165:
 1268 00ae 0493     		str	r3, [sp, #16]
 1269              	.LVL166:
 1270              	.L106:
 1271              	.LBE8:
 183:Generated_Source\PSoC6\pdl\middleware\em_eeprom/cy_em_eeprom.c ****         uint32_t rdSize = size;
 1272              		.loc 1 183 0
 1273 00b0 C246     		mov	r10, r8
 229:Generated_Source\PSoC6\pdl\middleware\em_eeprom/cy_em_eeprom.c ****         {
 1274              		.loc 1 229 0
 1275 00b2 0027     		movs	r7, #0
 1276              	.LBE13:
ARM GAS  C:\Users\eduar\AppData\Local\Temp\ccwtx1iP.s 			page 49


 169:Generated_Source\PSoC6\pdl\middleware\em_eeprom/cy_em_eeprom.c ****     uint32_t i;
 1277              		.loc 1 169 0
 1278 00b4 4F4B     		ldr	r3, .L135
 1279 00b6 CDF82080 		str	r8, [sp, #32]
 1280 00ba 8846     		mov	r8, r1
 1281              	.LVL167:
 1282              	.LBB14:
 229:Generated_Source\PSoC6\pdl\middleware\em_eeprom/cy_em_eeprom.c ****         {
 1283              		.loc 1 229 0
 1284 00bc 35E0     		b	.L107
 1285              	.LVL168:
 1286              	.L113:
 231:Generated_Source\PSoC6\pdl\middleware\em_eeprom/cy_em_eeprom.c ****             curRowOffset = CY_EM_EEPROM_EEPROM_DATA_LEN + (rdAddr % CY_EM_EEPROM_EEPROM_DATA_LEN);
 1287              		.loc 1 231 0
 1288 00be 039B     		ldr	r3, [sp, #12]
 1289              	.LVL169:
 1290 00c0 03EB4520 		add	r0, r3, r5, lsl #9
 1291              	.LVL170:
 232:Generated_Source\PSoC6\pdl\middleware\em_eeprom/cy_em_eeprom.c **** 
 1292              		.loc 1 232 0
 1293 00c4 5FFA8AF4 		uxtb	r4, r10
 1294 00c8 04F58071 		add	r1, r4, #256
 1295              	.LVL171:
 237:Generated_Source\PSoC6\pdl\middleware\em_eeprom/cy_em_eeprom.c ****             {
 1296              		.loc 1 237 0
 1297 00cc 0137     		adds	r7, r7, #1
 1298              	.LVL172:
 1299 00ce BB45     		cmp	fp, r7
 1300 00d0 02D9     		bls	.L130
 239:Generated_Source\PSoC6\pdl\middleware\em_eeprom/cy_em_eeprom.c ****             }
 1301              		.loc 1 239 0
 1302 00d2 C4F58074 		rsb	r4, r4, #256
 1303              	.LVL173:
 1304 00d6 00E0     		b	.L108
 1305              	.LVL174:
 1306              	.L130:
 243:Generated_Source\PSoC6\pdl\middleware\em_eeprom/cy_em_eeprom.c ****             }
 1307              		.loc 1 243 0
 1308 00d8 4C46     		mov	r4, r9
 1309              	.L108:
 1310              	.LVL175:
 249:Generated_Source\PSoC6\pdl\middleware\em_eeprom/cy_em_eeprom.c ****             {
 1311              		.loc 1 249 0
 1312 00da 049B     		ldr	r3, [sp, #16]
 1313 00dc 63B1     		cbz	r3, .L109
 249:Generated_Source\PSoC6\pdl\middleware\em_eeprom/cy_em_eeprom.c ****             {
 1314              		.loc 1 249 0 is_stmt 0 discriminator 1
 1315 00de 069B     		ldr	r3, [sp, #24]
 1316 00e0 9D42     		cmp	r5, r3
 1317 00e2 09D9     		bls	.L109
 251:Generated_Source\PSoC6\pdl\middleware\em_eeprom/cy_em_eeprom.c **** 
 1318              		.loc 1 251 0 is_stmt 1
 1319 00e4 7368     		ldr	r3, [r6, #4]
 1320 00e6 A0EB4320 		sub	r0, r0, r3, lsl #9
 1321              	.LVL176:
 253:Generated_Source\PSoC6\pdl\middleware\em_eeprom/cy_em_eeprom.c ****                 {
 1322              		.loc 1 253 0
ARM GAS  C:\Users\eduar\AppData\Local\Temp\ccwtx1iP.s 			page 50


 1323 00ea B269     		ldr	r2, [r6, #24]
 1324 00ec 9042     		cmp	r0, r2
 1325 00ee 03D2     		bcs	.L109
 255:Generated_Source\PSoC6\pdl\middleware\em_eeprom/cy_em_eeprom.c ****                         ((context->numberOfRows - curRdEepromRowNum) * CY_EM_EEPROM_FLASH_SIZEOF_RO
 1326              		.loc 1 255 0
 1327 00f0 3068     		ldr	r0, [r6]
 1328              	.LVL177:
 256:Generated_Source\PSoC6\pdl\middleware\em_eeprom/cy_em_eeprom.c ****                 }
 1329              		.loc 1 256 0
 1330 00f2 5B1B     		subs	r3, r3, r5
 1331              	.LVL178:
 255:Generated_Source\PSoC6\pdl\middleware\em_eeprom/cy_em_eeprom.c ****                         ((context->numberOfRows - curRdEepromRowNum) * CY_EM_EEPROM_FLASH_SIZEOF_RO
 1332              		.loc 1 255 0
 1333 00f4 A0EB4320 		sub	r0, r0, r3, lsl #9
 1334              	.LVL179:
 1335              	.L109:
 260:Generated_Source\PSoC6\pdl\middleware\em_eeprom/cy_em_eeprom.c ****             {
 1336              		.loc 1 260 0
 1337 00f8 337D     		ldrb	r3, [r6, #20]	@ zero_extendqisi2
 1338 00fa 5BB1     		cbz	r3, .L110
 265:Generated_Source\PSoC6\pdl\middleware\em_eeprom/cy_em_eeprom.c **** 
 1339              		.loc 1 265 0
 1340 00fc 0096     		str	r6, [sp]
 1341 00fe 2346     		mov	r3, r4
 1342 0100 0A46     		mov	r2, r1
 1343 0102 4146     		mov	r1, r8
 1344              	.LVL180:
 1345 0104 FFF7FEFF 		bl	CheckCrcAndCopy
 1346              	.LVL181:
 267:Generated_Source\PSoC6\pdl\middleware\em_eeprom/cy_em_eeprom.c ****                 {
 1347              		.loc 1 267 0
 1348 0108 0346     		mov	r3, r0
 1349 010a 48B1     		cbz	r0, .L112
 1350 010c 8246     		mov	r10, r0
 1351              	.LVL182:
 1352 010e DDF82080 		ldr	r8, [sp, #32]
 1353              	.LVL183:
 1354 0112 0FE0     		b	.L111
 1355              	.LVL184:
 1356              	.L110:
 275:Generated_Source\PSoC6\pdl\middleware\em_eeprom/cy_em_eeprom.c ****                              (void *)(startRowAddr + curRowOffset),
 1357              		.loc 1 275 0
 1358 0114 2246     		mov	r2, r4
 1359 0116 0144     		add	r1, r1, r0
 1360              	.LVL185:
 1361 0118 4046     		mov	r0, r8
 1362              	.LVL186:
 1363 011a FFF7FEFF 		bl	memcpy
 1364              	.LVL187:
 280:Generated_Source\PSoC6\pdl\middleware\em_eeprom/cy_em_eeprom.c ****             }
 1365              		.loc 1 280 0
 1366 011e 0023     		movs	r3, #0
 1367              	.LVL188:
 1368              	.L112:
 284:Generated_Source\PSoC6\pdl\middleware\em_eeprom/cy_em_eeprom.c ****             rdSize -= numBytesToRead;
 1369              		.loc 1 284 0 discriminator 2
 1370 0120 A244     		add	r10, r10, r4
ARM GAS  C:\Users\eduar\AppData\Local\Temp\ccwtx1iP.s 			page 51


 1371              	.LVL189:
 285:Generated_Source\PSoC6\pdl\middleware\em_eeprom/cy_em_eeprom.c ****             eeData += numBytesToRead;
 1372              		.loc 1 285 0 discriminator 2
 1373 0122 C4EB0909 		rsb	r9, r4, r9
 1374              	.LVL190:
 286:Generated_Source\PSoC6\pdl\middleware\em_eeprom/cy_em_eeprom.c ****             curRdEepromRowNum++;
 1375              		.loc 1 286 0 discriminator 2
 1376 0126 A044     		add	r8, r8, r4
 1377              	.LVL191:
 287:Generated_Source\PSoC6\pdl\middleware\em_eeprom/cy_em_eeprom.c ****         }
 1378              		.loc 1 287 0 discriminator 2
 1379 0128 0135     		adds	r5, r5, #1
 1380              	.LVL192:
 1381              	.L107:
 229:Generated_Source\PSoC6\pdl\middleware\em_eeprom/cy_em_eeprom.c ****         {
 1382              		.loc 1 229 0 discriminator 1
 1383 012a 5F45     		cmp	r7, fp
 1384 012c C7D3     		bcc	.L113
 1385 012e 9A46     		mov	r10, r3
 1386              	.LVL193:
 1387 0130 DDF82080 		ldr	r8, [sp, #32]
 1388              	.LVL194:
 1389              	.L111:
 298:Generated_Source\PSoC6\pdl\middleware\em_eeprom/cy_em_eeprom.c ****         {
 1390              		.loc 1 298 0
 1391 0134 5346     		mov	r3, r10
 1392 0136 002B     		cmp	r3, #0
 1393 0138 57D1     		bne	.L101
 298:Generated_Source\PSoC6\pdl\middleware\em_eeprom/cy_em_eeprom.c ****         {
 1394              		.loc 1 298 0 is_stmt 0 discriminator 1
 1395 013a 099B     		ldr	r3, [sp, #36]
 1396              	.LVL195:
 1397 013c 002B     		cmp	r3, #0
 1398 013e 54D0     		beq	.L101
 300:Generated_Source\PSoC6\pdl\middleware\em_eeprom/cy_em_eeprom.c ****             numRowReads--;
 1399              		.loc 1 300 0 is_stmt 1
 1400 0140 7568     		ldr	r5, [r6, #4]
 1401              	.LVL196:
 1402 0142 9D42     		cmp	r5, r3
 1403 0144 28BF     		it	cs
 1404 0146 1D46     		movcs	r5, r3
 1405              	.LVL197:
 301:Generated_Source\PSoC6\pdl\middleware\em_eeprom/cy_em_eeprom.c **** 
 1406              		.loc 1 301 0
 1407 0148 013D     		subs	r5, r5, #1
 1408              	.LVL198:
 303:Generated_Source\PSoC6\pdl\middleware\em_eeprom/cy_em_eeprom.c ****             {
 1409              		.loc 1 303 0
 1410 014a 5D1B     		subs	r5, r3, r5
 1411              	.LVL199:
 1412 014c DDF81490 		ldr	r9, [sp, #20]
 1413              	.LVL200:
 1414 0150 079F     		ldr	r7, [sp, #28]
 1415 0152 1C46     		mov	r4, r3
 1416 0154 3EE0     		b	.L114
 1417              	.LVL201:
 1418              	.L121:
ARM GAS  C:\Users\eduar\AppData\Local\Temp\ccwtx1iP.s 			page 52


 305:Generated_Source\PSoC6\pdl\middleware\em_eeprom/cy_em_eeprom.c **** 
 1419              		.loc 1 305 0
 1420 0156 3146     		mov	r1, r6
 1421 0158 2846     		mov	r0, r5
 1422 015a FFF7FEFF 		bl	GetRowAddrBySeqNum
 1423              	.LVL202:
 307:Generated_Source\PSoC6\pdl\middleware\em_eeprom/cy_em_eeprom.c ****                 {
 1424              		.loc 1 307 0
 1425 015e 8646     		mov	lr, r0
 1426 0160 0028     		cmp	r0, #0
 1427 0162 36D0     		beq	.L115
 1428              	.LBB9:
 310:Generated_Source\PSoC6\pdl\middleware\em_eeprom/cy_em_eeprom.c ****                     uint32_t endAddr    = startAddr + (*(uint32_t *)(startRowAddr + CY_EM_EEPROM_HE
 1429              		.loc 1 310 0
 1430 0164 4368     		ldr	r3, [r0, #4]
 1431              	.LVL203:
 311:Generated_Source\PSoC6\pdl\middleware\em_eeprom/cy_em_eeprom.c **** 
 1432              		.loc 1 311 0
 1433 0166 8168     		ldr	r1, [r0, #8]
 1434 0168 1944     		add	r1, r1, r3
 1435              	.LVL204:
 314:Generated_Source\PSoC6\pdl\middleware\em_eeprom/cy_em_eeprom.c ****                     {
 1436              		.loc 1 314 0
 1437 016a 9845     		cmp	r8, r3
 1438 016c 04D2     		bcs	.L116
 314:Generated_Source\PSoC6\pdl\middleware\em_eeprom/cy_em_eeprom.c ****                     {
 1439              		.loc 1 314 0 is_stmt 0 discriminator 1
 1440 016e 9F42     		cmp	r7, r3
 1441 0170 94BF     		ite	ls
 1442 0172 0022     		movls	r2, #0
 1443 0174 0122     		movhi	r2, #1
 1444 0176 03E0     		b	.L117
 1445              	.L116:
 314:Generated_Source\PSoC6\pdl\middleware\em_eeprom/cy_em_eeprom.c ****                     {
 1446              		.loc 1 314 0 discriminator 2
 1447 0178 8845     		cmp	r8, r1
 1448 017a 2CBF     		ite	cs
 1449 017c 0022     		movcs	r2, #0
 1450 017e 0122     		movcc	r2, #1
 1451              	.L117:
 314:Generated_Source\PSoC6\pdl\middleware\em_eeprom/cy_em_eeprom.c ****                     {
 1452              		.loc 1 314 0 discriminator 4
 1453 0180 3AB3     		cbz	r2, .L115
 1454              	.LBB10:
 316:Generated_Source\PSoC6\pdl\middleware\em_eeprom/cy_em_eeprom.c ****                         uint32_t dstOffset = (startAddr > addr) ? (startAddr - addr): (0u);
 1455              		.loc 1 316 0 is_stmt 1
 1456 0182 9845     		cmp	r8, r3
 1457 0184 02D3     		bcc	.L131
 316:Generated_Source\PSoC6\pdl\middleware\em_eeprom/cy_em_eeprom.c ****                         uint32_t dstOffset = (startAddr > addr) ? (startAddr - addr): (0u);
 1458              		.loc 1 316 0 is_stmt 0 discriminator 1
 1459 0186 C3EB080C 		rsb	ip, r3, r8
 1460 018a 01E0     		b	.L118
 1461              	.L131:
 316:Generated_Source\PSoC6\pdl\middleware\em_eeprom/cy_em_eeprom.c ****                         uint32_t dstOffset = (startAddr > addr) ? (startAddr - addr): (0u);
 1462              		.loc 1 316 0
 1463 018c 4FF0000C 		mov	ip, #0
 1464              	.L118:
ARM GAS  C:\Users\eduar\AppData\Local\Temp\ccwtx1iP.s 			page 53


 1465              	.LVL205:
 317:Generated_Source\PSoC6\pdl\middleware\em_eeprom/cy_em_eeprom.c ****                         rdAddr = (startAddr > addr) ? (startAddr) : (addr);
 1466              		.loc 1 317 0 is_stmt 1 discriminator 4
 1467 0190 9845     		cmp	r8, r3
 1468 0192 02D2     		bcs	.L132
 317:Generated_Source\PSoC6\pdl\middleware\em_eeprom/cy_em_eeprom.c ****                         rdAddr = (startAddr > addr) ? (startAddr) : (addr);
 1469              		.loc 1 317 0 is_stmt 0 discriminator 1
 1470 0194 C8EB0300 		rsb	r0, r8, r3
 1471              	.LVL206:
 1472 0198 00E0     		b	.L119
 1473              	.LVL207:
 1474              	.L132:
 317:Generated_Source\PSoC6\pdl\middleware\em_eeprom/cy_em_eeprom.c ****                         rdAddr = (startAddr > addr) ? (startAddr) : (addr);
 1475              		.loc 1 317 0
 1476 019a 0020     		movs	r0, #0
 1477              	.LVL208:
 1478              	.L119:
 320:Generated_Source\PSoC6\pdl\middleware\em_eeprom/cy_em_eeprom.c **** 
 1479              		.loc 1 320 0 is_stmt 1 discriminator 4
 1480 019c 0CF10C0C 		add	ip, ip, #12
 1481              	.LVL209:
 323:Generated_Source\PSoC6\pdl\middleware\em_eeprom/cy_em_eeprom.c **** 
 1482              		.loc 1 323 0 discriminator 4
 1483 01a0 B942     		cmp	r1, r7
 1484 01a2 28BF     		it	cs
 1485 01a4 3946     		movcs	r1, r7
 1486              	.LVL210:
 1487 01a6 9845     		cmp	r8, r3
 1488 01a8 2CBF     		ite	cs
 1489 01aa C8EB0103 		rsbcs	r3, r8, r1
 1490              	.LVL211:
 1491 01ae CB1A     		subcc	r3, r1, r3
 1492              	.LVL212:
 326:Generated_Source\PSoC6\pdl\middleware\em_eeprom/cy_em_eeprom.c **** 
 1493              		.loc 1 326 0 discriminator 4
 1494 01b0 4844     		add	r0, r0, r9
 1495              	.LVL213:
 333:Generated_Source\PSoC6\pdl\middleware\em_eeprom/cy_em_eeprom.c ****                         {
 1496              		.loc 1 333 0 discriminator 4
 1497 01b2 327D     		ldrb	r2, [r6, #20]	@ zero_extendqisi2
 1498 01b4 42B1     		cbz	r2, .L120
 335:Generated_Source\PSoC6\pdl\middleware\em_eeprom/cy_em_eeprom.c **** 
 1499              		.loc 1 335 0
 1500 01b6 0096     		str	r6, [sp]
 1501              	.LVL214:
 1502 01b8 6246     		mov	r2, ip
 1503 01ba 0146     		mov	r1, r0
 1504 01bc 7046     		mov	r0, lr
 1505              	.LVL215:
 1506 01be FFF7FEFF 		bl	CheckCrcAndCopy
 1507              	.LVL216:
 337:Generated_Source\PSoC6\pdl\middleware\em_eeprom/cy_em_eeprom.c ****                             {
 1508              		.loc 1 337 0
 1509 01c2 8246     		mov	r10, r0
 1510 01c4 28B1     		cbz	r0, .L115
 1511              	.LBE10:
 1512              	.LBE9:
ARM GAS  C:\Users\eduar\AppData\Local\Temp\ccwtx1iP.s 			page 54


 1513 01c6 10E0     		b	.L101
 1514              	.LVL217:
 1515              	.L120:
 1516              	.LBB12:
 1517              	.LBB11:
 344:Generated_Source\PSoC6\pdl\middleware\em_eeprom/cy_em_eeprom.c ****                         }
 1518              		.loc 1 344 0
 1519 01c8 1A46     		mov	r2, r3
 1520 01ca 0EEB0C01 		add	r1, lr, ip
 1521 01ce FFF7FEFF 		bl	memcpy
 1522              	.LVL218:
 1523              	.L115:
 1524              	.LBE11:
 1525              	.LBE12:
 303:Generated_Source\PSoC6\pdl\middleware\em_eeprom/cy_em_eeprom.c ****             {
 1526              		.loc 1 303 0 discriminator 2
 1527 01d2 0135     		adds	r5, r5, #1
 1528              	.LVL219:
 1529              	.L114:
 303:Generated_Source\PSoC6\pdl\middleware\em_eeprom/cy_em_eeprom.c ****             {
 1530              		.loc 1 303 0 is_stmt 0 discriminator 1
 1531 01d4 A542     		cmp	r5, r4
 1532 01d6 BED9     		bls	.L121
 1533 01d8 07E0     		b	.L101
 1534              	.LVL220:
 1535              	.L122:
 1536              	.LBE14:
 169:Generated_Source\PSoC6\pdl\middleware\em_eeprom/cy_em_eeprom.c ****     uint32_t i;
 1537              		.loc 1 169 0 is_stmt 1
 1538 01da 064B     		ldr	r3, .L135
 1539              	.LVL221:
 1540 01dc 9A46     		mov	r10, r3
 1541 01de 04E0     		b	.L101
 1542              	.LVL222:
 1543              	.L123:
 1544 01e0 044B     		ldr	r3, .L135
 1545 01e2 9A46     		mov	r10, r3
 1546 01e4 01E0     		b	.L101
 1547              	.L124:
 1548 01e6 034B     		ldr	r3, .L135
 1549 01e8 9A46     		mov	r10, r3
 1550              	.LVL223:
 1551              	.L101:
 353:Generated_Source\PSoC6\pdl\middleware\em_eeprom/cy_em_eeprom.c **** 
 1552              		.loc 1 353 0
 1553 01ea 5046     		mov	r0, r10
 1554 01ec 0BB0     		add	sp, sp, #44
 1555              		.cfi_def_cfa_offset 36
 1556              		@ sp needed
 1557 01ee BDE8F08F 		pop	{r4, r5, r6, r7, r8, r9, r10, fp, pc}
 1558              	.LVL224:
 1559              	.L136:
 1560 01f2 00BF     		.align	2
 1561              	.L135:
 1562 01f4 01006E00 		.word	7208961
 1563              		.cfi_endproc
 1564              	.LFE133:
ARM GAS  C:\Users\eduar\AppData\Local\Temp\ccwtx1iP.s 			page 55


 1565              		.size	Cy_Em_EEPROM_Read, .-Cy_Em_EEPROM_Read
 1566              		.section	.text.Cy_Em_EEPROM_Write,"ax",%progbits
 1567              		.align	2
 1568              		.global	Cy_Em_EEPROM_Write
 1569              		.thumb
 1570              		.thumb_func
 1571              		.type	Cy_Em_EEPROM_Write, %function
 1572              	Cy_Em_EEPROM_Write:
 1573              	.LFB134:
 410:Generated_Source\PSoC6\pdl\middleware\em_eeprom/cy_em_eeprom.c ****     cy_en_em_eeprom_status_t ret = CY_EM_EEPROM_BAD_PARAM;
 1574              		.loc 1 410 0
 1575              		.cfi_startproc
 1576              		@ args = 0, pretend = 0, frame = 552
 1577              		@ frame_needed = 0, uses_anonymous_args = 0
 1578              	.LVL225:
 1579 0000 2DE9F04F 		push	{r4, r5, r6, r7, r8, r9, r10, fp, lr}
 1580              		.cfi_def_cfa_offset 36
 1581              		.cfi_offset 4, -36
 1582              		.cfi_offset 5, -32
 1583              		.cfi_offset 6, -28
 1584              		.cfi_offset 7, -24
 1585              		.cfi_offset 8, -20
 1586              		.cfi_offset 9, -16
 1587              		.cfi_offset 10, -12
 1588              		.cfi_offset 11, -8
 1589              		.cfi_offset 14, -4
 1590 0004 ADF50D7D 		sub	sp, sp, #564
 1591              		.cfi_def_cfa_offset 600
 1592 0008 1D46     		mov	r5, r3
 1593              	.LVL226:
 416:Generated_Source\PSoC6\pdl\middleware\em_eeprom/cy_em_eeprom.c ****     uint32_t endAddr = 0u;
 1594              		.loc 1 416 0
 1595 000a 0023     		movs	r3, #0
 1596              	.LVL227:
 1597 000c 0B93     		str	r3, [sp, #44]
 417:Generated_Source\PSoC6\pdl\middleware\em_eeprom/cy_em_eeprom.c ****     uint32_t tmpRowAddr;
 1598              		.loc 1 417 0
 1599 000e 0A93     		str	r3, [sp, #40]
 419:Generated_Source\PSoC6\pdl\middleware\em_eeprom/cy_em_eeprom.c ****     uint32_t emEepromRowRdAddr;
 1600              		.loc 1 419 0
 1601 0010 AB68     		ldr	r3, [r5, #8]
 1602 0012 0993     		str	r3, [sp, #36]
 422:Generated_Source\PSoC6\pdl\middleware\em_eeprom/cy_em_eeprom.c **** 
 1603              		.loc 1 422 0
 1604 0014 0391     		str	r1, [sp, #12]
 1605              	.LVL228:
 425:Generated_Source\PSoC6\pdl\middleware\em_eeprom/cy_em_eeprom.c ****     {
 1606              		.loc 1 425 0
 1607 0016 002A     		cmp	r2, #0
 1608 0018 00F0A180 		beq	.L155
 1609 001c 8146     		mov	r9, r0
 1610 001e 9346     		mov	fp, r2
 425:Generated_Source\PSoC6\pdl\middleware\em_eeprom/cy_em_eeprom.c ****     {
 1611              		.loc 1 425 0 is_stmt 0 discriminator 1
 1612 0020 1318     		adds	r3, r2, r0
 1613 0022 EA68     		ldr	r2, [r5, #12]
 1614              	.LVL229:
ARM GAS  C:\Users\eduar\AppData\Local\Temp\ccwtx1iP.s 			page 56


 1615 0024 9342     		cmp	r3, r2
 1616 0026 00F29C80 		bhi	.L156
 425:Generated_Source\PSoC6\pdl\middleware\em_eeprom/cy_em_eeprom.c ****     {
 1617              		.loc 1 425 0 discriminator 2
 1618 002a 0029     		cmp	r1, #0
 1619 002c 00F09B80 		beq	.L157
 1620              	.LBB15:
 427:Generated_Source\PSoC6\pdl\middleware\em_eeprom/cy_em_eeprom.c ****         uint32_t eeHeaderDataOffset = 0u;
 1621              		.loc 1 427 0 is_stmt 1
 1622 0030 0BF1FF33 		add	r3, fp, #-1
 1623 0034 4E4A     		ldr	r2, .L161
 1624 0036 A2FB0323 		umull	r2, r3, r2, r3
 1625 003a DB09     		lsrs	r3, r3, #7
 1626 003c 0593     		str	r3, [sp, #20]
 1627 003e 0133     		adds	r3, r3, #1
 1628 0040 0493     		str	r3, [sp, #16]
 1629              	.LVL230:
 428:Generated_Source\PSoC6\pdl\middleware\em_eeprom/cy_em_eeprom.c **** 
 1630              		.loc 1 428 0
 1631 0042 0023     		movs	r3, #0
 1632              	.LVL231:
 1633 0044 0793     		str	r3, [sp, #28]
 1634              	.LVL232:
 430:Generated_Source\PSoC6\pdl\middleware\em_eeprom/cy_em_eeprom.c ****         {
 1635              		.loc 1 430 0
 1636 0046 9A46     		mov	r10, r3
 1637              	.LBE15:
 411:Generated_Source\PSoC6\pdl\middleware\em_eeprom/cy_em_eeprom.c ****     uint32_t i;
 1638              		.loc 1 411 0
 1639 0048 4A48     		ldr	r0, .L161+4
 1640              	.LVL233:
 1641              	.LBB18:
 430:Generated_Source\PSoC6\pdl\middleware\em_eeprom/cy_em_eeprom.c ****         {
 1642              		.loc 1 430 0
 1643 004a 83E0     		b	.L139
 1644              	.LVL234:
 1645              	.L154:
 1646              	.LBB16:
 434:Generated_Source\PSoC6\pdl\middleware\em_eeprom/cy_em_eeprom.c **** 
 1647              		.loc 1 434 0
 1648 004c 099B     		ldr	r3, [sp, #36]
 1649 004e 1C68     		ldr	r4, [r3]
 1650              	.LVL235:
 441:Generated_Source\PSoC6\pdl\middleware\em_eeprom/cy_em_eeprom.c **** 
 1651              		.loc 1 441 0
 1652 0050 2B46     		mov	r3, r5
 1653 0052 08AA     		add	r2, sp, #32
 1654 0054 09A9     		add	r1, sp, #36
 1655 0056 2046     		mov	r0, r4
 1656              	.LVL236:
 1657 0058 FFF7FEFF 		bl	GetNextRowToWrite
 1658              	.LVL237:
 444:Generated_Source\PSoC6\pdl\middleware\em_eeprom/cy_em_eeprom.c **** 
 1659              		.loc 1 444 0
 1660 005c 4FF40072 		mov	r2, #512
 1661 0060 0021     		movs	r1, #0
 1662 0062 0CA8     		add	r0, sp, #48
ARM GAS  C:\Users\eduar\AppData\Local\Temp\ccwtx1iP.s 			page 57


 1663 0064 FFF7FEFF 		bl	memset
 1664              	.LVL238:
 447:Generated_Source\PSoC6\pdl\middleware\em_eeprom/cy_em_eeprom.c ****             writeRamBuffer[CY_EM_EEPROM_HEADER_SEQ_NUM_OFFSET_U32] = seqNum;
 1665              		.loc 1 447 0
 1666 0068 04F10108 		add	r8, r4, #1
 1667              	.LVL239:
 448:Generated_Source\PSoC6\pdl\middleware\em_eeprom/cy_em_eeprom.c ****             writeRamBuffer[CY_EM_EEPROM_HEADER_ADDR_OFFSET_U32] = addr;
 1668              		.loc 1 448 0
 1669 006c CDF83080 		str	r8, [sp, #48]
 449:Generated_Source\PSoC6\pdl\middleware\em_eeprom/cy_em_eeprom.c ****             tmpData = (void *) eeData;
 1670              		.loc 1 449 0
 1671 0070 CDF83490 		str	r9, [sp, #52]
 450:Generated_Source\PSoC6\pdl\middleware\em_eeprom/cy_em_eeprom.c **** 
 1672              		.loc 1 450 0
 1673 0074 0399     		ldr	r1, [sp, #12]
 1674              	.LVL240:
 453:Generated_Source\PSoC6\pdl\middleware\em_eeprom/cy_em_eeprom.c ****             {
 1675              		.loc 1 453 0
 1676 0076 059B     		ldr	r3, [sp, #20]
 1677 0078 9A45     		cmp	r10, r3
 1678 007a 02D1     		bne	.L140
 456:Generated_Source\PSoC6\pdl\middleware\em_eeprom/cy_em_eeprom.c ****             }
 1679              		.loc 1 456 0
 1680 007c CDF838B0 		str	fp, [sp, #56]
 1681 0080 07E0     		b	.L141
 1682              	.L140:
 464:Generated_Source\PSoC6\pdl\middleware\em_eeprom/cy_em_eeprom.c ****                 size -= CY_EM_EEPROM_HEADER_DATA_LEN;
 1683              		.loc 1 464 0
 1684 0082 F023     		movs	r3, #240
 1685 0084 0E93     		str	r3, [sp, #56]
 465:Generated_Source\PSoC6\pdl\middleware\em_eeprom/cy_em_eeprom.c ****                 addr += CY_EM_EEPROM_HEADER_DATA_LEN;
 1686              		.loc 1 465 0
 1687 0086 ABF1F00B 		sub	fp, fp, #240
 1688              	.LVL241:
 466:Generated_Source\PSoC6\pdl\middleware\em_eeprom/cy_em_eeprom.c ****                 eeData += CY_EM_EEPROM_HEADER_DATA_LEN;
 1689              		.loc 1 466 0
 1690 008a 9944     		add	r9, r9, r3
 1691              	.LVL242:
 467:Generated_Source\PSoC6\pdl\middleware\em_eeprom/cy_em_eeprom.c ****             }
 1692              		.loc 1 467 0
 1693 008c 039B     		ldr	r3, [sp, #12]
 1694 008e F033     		adds	r3, r3, #240
 1695 0090 0393     		str	r3, [sp, #12]
 1696              	.LVL243:
 1697              	.L141:
 471:Generated_Source\PSoC6\pdl\middleware\em_eeprom/cy_em_eeprom.c ****                          tmpData,
 1698              		.loc 1 471 0
 1699 0092 0E9A     		ldr	r2, [sp, #56]
 1700 0094 0FA8     		add	r0, sp, #60
 1701 0096 FFF7FEFF 		bl	memcpy
 1702              	.LVL244:
 475:Generated_Source\PSoC6\pdl\middleware\em_eeprom/cy_em_eeprom.c ****             {
 1703              		.loc 1 475 0
 1704 009a 0899     		ldr	r1, [sp, #32]
 1705 009c 29B1     		cbz	r1, .L142
 478:Generated_Source\PSoC6\pdl\middleware\em_eeprom/cy_em_eeprom.c ****                              (void *)(emEepromRowRdAddr + CY_EM_EEPROM_EEPROM_DATA_LEN),
 1706              		.loc 1 478 0
ARM GAS  C:\Users\eduar\AppData\Local\Temp\ccwtx1iP.s 			page 58


 1707 009e 4FF48072 		mov	r2, #256
 1708 00a2 1144     		add	r1, r1, r2
 1709 00a4 4CA8     		add	r0, sp, #304
 1710 00a6 FFF7FEFF 		bl	memcpy
 1711              	.LVL245:
 1712              	.L142:
 487:Generated_Source\PSoC6\pdl\middleware\em_eeprom/cy_em_eeprom.c **** 
 1713              		.loc 1 487 0
 1714 00aa 6C68     		ldr	r4, [r5, #4]
 1715 00ac A045     		cmp	r8, r4
 1716 00ae 03D9     		bls	.L158
 487:Generated_Source\PSoC6\pdl\middleware\em_eeprom/cy_em_eeprom.c **** 
 1717              		.loc 1 487 0 is_stmt 0 discriminator 1
 1718 00b0 C4EB0804 		rsb	r4, r4, r8
 1719 00b4 0134     		adds	r4, r4, #1
 1720 00b6 00E0     		b	.L143
 1721              	.L158:
 487:Generated_Source\PSoC6\pdl\middleware\em_eeprom/cy_em_eeprom.c **** 
 1722              		.loc 1 487 0
 1723 00b8 0124     		movs	r4, #1
 1724              	.L143:
 487:Generated_Source\PSoC6\pdl\middleware\em_eeprom/cy_em_eeprom.c **** 
 1725              		.loc 1 487 0 discriminator 1
 1726 00ba 0027     		movs	r7, #0
 1727 00bc 32E0     		b	.L144
 1728              	.LVL246:
 1729              	.L151:
 491:Generated_Source\PSoC6\pdl\middleware\em_eeprom/cy_em_eeprom.c ****                 {
 1730              		.loc 1 491 0 is_stmt 1
 1731 00be 4445     		cmp	r4, r8
 1732 00c0 01D1     		bne	.L145
 497:Generated_Source\PSoC6\pdl\middleware\em_eeprom/cy_em_eeprom.c ****                 }
 1733              		.loc 1 497 0
 1734 00c2 0CAE     		add	r6, sp, #48
 1735              	.LVL247:
 1736 00c4 04E0     		b	.L146
 1737              	.LVL248:
 1738              	.L145:
 504:Generated_Source\PSoC6\pdl\middleware\em_eeprom/cy_em_eeprom.c ****                 }
 1739              		.loc 1 504 0
 1740 00c6 2946     		mov	r1, r5
 1741 00c8 2046     		mov	r0, r4
 1742 00ca FFF7FEFF 		bl	GetRowAddrBySeqNum
 1743              	.LVL249:
 1744 00ce 0646     		mov	r6, r0
 1745              	.LVL250:
 1746              	.L146:
 507:Generated_Source\PSoC6\pdl\middleware\em_eeprom/cy_em_eeprom.c ****                                                                            context->numberOfRows,
 1747              		.loc 1 507 0
 1748 00d0 AA69     		ldr	r2, [r5, #24]
 1749 00d2 099B     		ldr	r3, [sp, #36]
 1750 00d4 9A1A     		subs	r2, r3, r2
 1751 00d6 520A     		lsrs	r2, r2, #9
 1752 00d8 6968     		ldr	r1, [r5, #4]
 1753 00da B2FBF1F3 		udiv	r3, r2, r1
 1754 00de 01FB1323 		mls	r3, r1, r3, r2
 1755              	.LVL251:
ARM GAS  C:\Users\eduar\AppData\Local\Temp\ccwtx1iP.s 			page 59


 510:Generated_Source\PSoC6\pdl\middleware\em_eeprom/cy_em_eeprom.c ****                 {
 1756              		.loc 1 510 0
 1757 00e2 56B1     		cbz	r6, .L147
 513:Generated_Source\PSoC6\pdl\middleware\em_eeprom/cy_em_eeprom.c ****                                               &startAddr,
 1758              		.loc 1 513 0
 1759 00e4 7268     		ldr	r2, [r6, #4]
 1760 00e6 B168     		ldr	r1, [r6, #8]
 1761 00e8 0191     		str	r1, [sp, #4]
 1762 00ea 0092     		str	r2, [sp]
 1763 00ec 07AA     		add	r2, sp, #28
 1764 00ee 0AA9     		add	r1, sp, #40
 1765 00f0 0BA8     		add	r0, sp, #44
 1766 00f2 FFF7FEFF 		bl	GetAddresses
 1767              	.LVL252:
 1768 00f6 0746     		mov	r7, r0
 1769              	.LVL253:
 1770 00f8 00E0     		b	.L148
 1771              	.LVL254:
 1772              	.L147:
 524:Generated_Source\PSoC6\pdl\middleware\em_eeprom/cy_em_eeprom.c ****                 }
 1773              		.loc 1 524 0
 1774 00fa 0137     		adds	r7, r7, #1
 1775              	.LVL255:
 1776              	.L148:
 528:Generated_Source\PSoC6\pdl\middleware\em_eeprom/cy_em_eeprom.c ****                 {
 1777              		.loc 1 528 0
 1778 00fc 4FB9     		cbnz	r7, .L149
 1779              	.LBB17:
 530:Generated_Source\PSoC6\pdl\middleware\em_eeprom/cy_em_eeprom.c **** 
 1780              		.loc 1 530 0
 1781 00fe 0B98     		ldr	r0, [sp, #44]
 1782              	.LVL256:
 535:Generated_Source\PSoC6\pdl\middleware\em_eeprom/cy_em_eeprom.c ****                     (void)memcpy((void *)(dataAddr), (void *)(tmpRowAddr), endAddr - startAddr);
 1783              		.loc 1 535 0
 1784 0100 0799     		ldr	r1, [sp, #28]
 1785 0102 3144     		add	r1, r1, r6
 1786              	.LVL257:
 536:Generated_Source\PSoC6\pdl\middleware\em_eeprom/cy_em_eeprom.c ****                 }
 1787              		.loc 1 536 0
 1788 0104 0A9A     		ldr	r2, [sp, #40]
 1789 0106 121A     		subs	r2, r2, r0
 1790 0108 0C31     		adds	r1, r1, #12
 1791              	.LVL258:
 1792 010a 0CAB     		add	r3, sp, #48
 1793 010c 1844     		add	r0, r0, r3
 1794              	.LVL259:
 1795 010e FFF7FEFF 		bl	memcpy
 1796              	.LVL260:
 1797              	.L149:
 1798              	.LBE17:
 540:Generated_Source\PSoC6\pdl\middleware\em_eeprom/cy_em_eeprom.c ****                 {
 1799              		.loc 1 540 0
 1800 0112 2B7D     		ldrb	r3, [r5, #20]	@ zero_extendqisi2
 1801 0114 2BB1     		cbz	r3, .L150
 543:Generated_Source\PSoC6\pdl\middleware\em_eeprom/cy_em_eeprom.c ****                                                   CY_EM_EEPROM_EEPROM_DATA_LEN);
 1802              		.loc 1 543 0
 1803 0116 4FF48071 		mov	r1, #256
ARM GAS  C:\Users\eduar\AppData\Local\Temp\ccwtx1iP.s 			page 60


 1804 011a 4CA8     		add	r0, sp, #304
 1805 011c FFF7FEFF 		bl	CalcChecksum
 1806              	.LVL261:
 542:Generated_Source\PSoC6\pdl\middleware\em_eeprom/cy_em_eeprom.c ****                         CalcChecksum((uint8_t *) &writeRamBuffer[CY_EM_EEPROM_EEPROM_DATA_OFFSET_U3
 1807              		.loc 1 542 0
 1808 0120 4B90     		str	r0, [sp, #300]
 1809              	.L150:
 489:Generated_Source\PSoC6\pdl\middleware\em_eeprom/cy_em_eeprom.c ****             {
 1810              		.loc 1 489 0
 1811 0122 0134     		adds	r4, r4, #1
 1812              	.LVL262:
 1813              	.L144:
 489:Generated_Source\PSoC6\pdl\middleware\em_eeprom/cy_em_eeprom.c ****             {
 1814              		.loc 1 489 0 is_stmt 0 discriminator 1
 1815 0124 4445     		cmp	r4, r8
 1816 0126 CAD9     		bls	.L151
 549:Generated_Source\PSoC6\pdl\middleware\em_eeprom/cy_em_eeprom.c ****             tmpRowAddr = emEepromRowAddr;
 1817              		.loc 1 549 0 is_stmt 1
 1818 0128 2A46     		mov	r2, r5
 1819 012a 0CA9     		add	r1, sp, #48
 1820 012c 0998     		ldr	r0, [sp, #36]
 1821 012e FFF7FEFF 		bl	WriteRow
 1822              	.LVL263:
 553:Generated_Source\PSoC6\pdl\middleware\em_eeprom/cy_em_eeprom.c ****             {
 1823              		.loc 1 553 0
 1824 0132 2B7D     		ldrb	r3, [r5, #20]	@ zero_extendqisi2
 1825 0134 4BB1     		cbz	r3, .L152
 553:Generated_Source\PSoC6\pdl\middleware\em_eeprom/cy_em_eeprom.c ****             {
 1826              		.loc 1 553 0 is_stmt 0 discriminator 1
 1827 0136 40B9     		cbnz	r0, .L152
 556:Generated_Source\PSoC6\pdl\middleware\em_eeprom/cy_em_eeprom.c **** 
 1828              		.loc 1 556 0 is_stmt 1
 1829 0138 AA69     		ldr	r2, [r5, #24]
 1830 013a 099B     		ldr	r3, [sp, #36]
 1831 013c 9B1A     		subs	r3, r3, r2
 1832 013e 2868     		ldr	r0, [r5]
 1833              	.LVL264:
 559:Generated_Source\PSoC6\pdl\middleware\em_eeprom/cy_em_eeprom.c ****             }
 1834              		.loc 1 559 0
 1835 0140 2A46     		mov	r2, r5
 1836 0142 0CA9     		add	r1, sp, #48
 1837 0144 1844     		add	r0, r0, r3
 1838              	.LVL265:
 1839 0146 FFF7FEFF 		bl	WriteRow
 1840              	.LVL266:
 1841              	.L152:
 562:Generated_Source\PSoC6\pdl\middleware\em_eeprom/cy_em_eeprom.c ****             {
 1842              		.loc 1 562 0
 1843 014a 68B9     		cbnz	r0, .L138
 567:Generated_Source\PSoC6\pdl\middleware\em_eeprom/cy_em_eeprom.c ****             }
 1844              		.loc 1 567 0 discriminator 2
 1845 014c 099B     		ldr	r3, [sp, #36]
 1846 014e AB60     		str	r3, [r5, #8]
 1847              	.LBE16:
 430:Generated_Source\PSoC6\pdl\middleware\em_eeprom/cy_em_eeprom.c ****         {
 1848              		.loc 1 430 0 discriminator 2
 1849 0150 0AF1010A 		add	r10, r10, #1
ARM GAS  C:\Users\eduar\AppData\Local\Temp\ccwtx1iP.s 			page 61


 1850              	.LVL267:
 1851              	.L139:
 430:Generated_Source\PSoC6\pdl\middleware\em_eeprom/cy_em_eeprom.c ****         {
 1852              		.loc 1 430 0 is_stmt 0 discriminator 1
 1853 0154 049B     		ldr	r3, [sp, #16]
 1854 0156 9A45     		cmp	r10, r3
 1855 0158 FFF478AF 		bcc	.L154
 1856 015c 04E0     		b	.L138
 1857              	.LVL268:
 1858              	.L155:
 1859              	.LBE18:
 411:Generated_Source\PSoC6\pdl\middleware\em_eeprom/cy_em_eeprom.c ****     uint32_t i;
 1860              		.loc 1 411 0 is_stmt 1
 1861 015e 0548     		ldr	r0, .L161+4
 1862              	.LVL269:
 1863 0160 02E0     		b	.L138
 1864              	.LVL270:
 1865              	.L156:
 1866 0162 0448     		ldr	r0, .L161+4
 1867              	.LVL271:
 1868 0164 00E0     		b	.L138
 1869              	.LVL272:
 1870              	.L157:
 1871 0166 0348     		ldr	r0, .L161+4
 1872              	.LVL273:
 1873              	.L138:
 576:Generated_Source\PSoC6\pdl\middleware\em_eeprom/cy_em_eeprom.c **** 
 1874              		.loc 1 576 0
 1875 0168 0DF50D7D 		add	sp, sp, #564
 1876              		.cfi_def_cfa_offset 36
 1877              		@ sp needed
 1878 016c BDE8F08F 		pop	{r4, r5, r6, r7, r8, r9, r10, fp, pc}
 1879              	.LVL274:
 1880              	.L162:
 1881              		.align	2
 1882              	.L161:
 1883 0170 89888888 		.word	-2004318071
 1884 0174 01006E00 		.word	7208961
 1885              		.cfi_endproc
 1886              	.LFE134:
 1887              		.size	Cy_Em_EEPROM_Write, .-Cy_Em_EEPROM_Write
 1888              		.section	.text.Cy_Em_EEPROM_Erase,"ax",%progbits
 1889              		.align	2
 1890              		.global	Cy_Em_EEPROM_Erase
 1891              		.thumb
 1892              		.thumb_func
 1893              		.type	Cy_Em_EEPROM_Erase, %function
 1894              	Cy_Em_EEPROM_Erase:
 1895              	.LFB135:
 625:Generated_Source\PSoC6\pdl\middleware\em_eeprom/cy_em_eeprom.c ****     uint32_t i;
 1896              		.loc 1 625 0
 1897              		.cfi_startproc
 1898              		@ args = 0, pretend = 0, frame = 520
 1899              		@ frame_needed = 0, uses_anonymous_args = 0
 1900              	.LVL275:
 1901 0000 2DE9F047 		push	{r4, r5, r6, r7, r8, r9, r10, lr}
 1902              		.cfi_def_cfa_offset 32
ARM GAS  C:\Users\eduar\AppData\Local\Temp\ccwtx1iP.s 			page 62


 1903              		.cfi_offset 4, -32
 1904              		.cfi_offset 5, -28
 1905              		.cfi_offset 6, -24
 1906              		.cfi_offset 7, -20
 1907              		.cfi_offset 8, -16
 1908              		.cfi_offset 9, -12
 1909              		.cfi_offset 10, -8
 1910              		.cfi_offset 14, -4
 1911 0004 ADF5027D 		sub	sp, sp, #520
 1912              		.cfi_def_cfa_offset 552
 1913 0008 0646     		mov	r6, r0
 628:Generated_Source\PSoC6\pdl\middleware\em_eeprom/cy_em_eeprom.c ****     uint32_t emEepromRowRdAddr;
 1914              		.loc 1 628 0
 1915 000a 8568     		ldr	r5, [r0, #8]
 1916              	.LVL276:
 631:Generated_Source\PSoC6\pdl\middleware\em_eeprom/cy_em_eeprom.c ****     uint32_t emEepromStoredRowAddr = context->lastWrRowAddr;
 1917              		.loc 1 631 0
 1918 000c 4FF40072 		mov	r2, #512
 1919 0010 0021     		movs	r1, #0
 1920 0012 01A8     		add	r0, sp, #4
 1921              	.LVL277:
 1922 0014 FFF7FEFF 		bl	memset
 1923              	.LVL278:
 632:Generated_Source\PSoC6\pdl\middleware\em_eeprom/cy_em_eeprom.c ****     uint32_t storedSeqNum;
 1924              		.loc 1 632 0
 1925 0018 B368     		ldr	r3, [r6, #8]
 1926 001a 0093     		str	r3, [sp]
 636:Generated_Source\PSoC6\pdl\middleware\em_eeprom/cy_em_eeprom.c **** 
 1927              		.loc 1 636 0
 1928 001c 2C68     		ldr	r4, [r5]
 1929              	.LVL279:
 639:Generated_Source\PSoC6\pdl\middleware\em_eeprom/cy_em_eeprom.c ****     {
 1930              		.loc 1 639 0
 1931 001e 002C     		cmp	r4, #0
 1932 0020 37D0     		beq	.L170
 1933              	.LBB19:
 642:Generated_Source\PSoC6\pdl\middleware\em_eeprom/cy_em_eeprom.c **** 
 1934              		.loc 1 642 0
 1935 0022 7268     		ldr	r2, [r6, #4]
 1936 0024 3369     		ldr	r3, [r6, #16]
 1937 0026 03FB02F9 		mul	r9, r3, r2
 1938              	.LVL280:
 644:Generated_Source\PSoC6\pdl\middleware\em_eeprom/cy_em_eeprom.c ****         storedSeqNum = seqNum + 1u;
 1939              		.loc 1 644 0
 1940 002a 3346     		mov	r3, r6
 1941 002c 81AA     		add	r2, sp, #516
 1942 002e 6946     		mov	r1, sp
 1943 0030 2046     		mov	r0, r4
 1944 0032 FFF7FEFF 		bl	GetNextRowToWrite
 1945              	.LVL281:
 645:Generated_Source\PSoC6\pdl\middleware\em_eeprom/cy_em_eeprom.c **** 
 1946              		.loc 1 645 0
 1947 0036 04F1010A 		add	r10, r4, #1
 1948              	.LVL282:
 647:Generated_Source\PSoC6\pdl\middleware\em_eeprom/cy_em_eeprom.c ****         {
 1949              		.loc 1 647 0
 1950 003a 337D     		ldrb	r3, [r6, #20]	@ zero_extendqisi2
ARM GAS  C:\Users\eduar\AppData\Local\Temp\ccwtx1iP.s 			page 63


 1951 003c 2BB1     		cbz	r3, .L165
 650:Generated_Source\PSoC6\pdl\middleware\em_eeprom/cy_em_eeprom.c ****                                                   CY_EM_EEPROM_EEPROM_DATA_LEN);
 1952              		.loc 1 650 0
 1953 003e 4FF48071 		mov	r1, #256
 1954 0042 41A8     		add	r0, sp, #260
 1955 0044 FFF7FEFF 		bl	CalcChecksum
 1956              	.LVL283:
 649:Generated_Source\PSoC6\pdl\middleware\em_eeprom/cy_em_eeprom.c ****                         CalcChecksum((uint8_t *) &writeRamBuffer[CY_EM_EEPROM_EEPROM_DATA_OFFSET_U3
 1957              		.loc 1 649 0
 1958 0048 4090     		str	r0, [sp, #256]
 1959              	.L165:
 1960              	.LBE19:
 625:Generated_Source\PSoC6\pdl\middleware\em_eeprom/cy_em_eeprom.c ****     uint32_t i;
 1961              		.loc 1 625 0 discriminator 1
 1962 004a DFF85480 		ldr	r8, .L172
 1963 004e 0027     		movs	r7, #0
 1964 0050 0EE0     		b	.L166
 1965              	.LVL284:
 1966              	.L169:
 1967              	.LBB20:
 661:Generated_Source\PSoC6\pdl\middleware\em_eeprom/cy_em_eeprom.c ****             {
 1968              		.loc 1 661 0
 1969 0052 2DB1     		cbz	r5, .L167
 663:Generated_Source\PSoC6\pdl\middleware\em_eeprom/cy_em_eeprom.c ****             }
 1970              		.loc 1 663 0
 1971 0054 3246     		mov	r2, r6
 1972 0056 01A9     		add	r1, sp, #4
 1973 0058 2846     		mov	r0, r5
